 Socket

 Timestamp is 58cf38cd (Mon Mar 20 07:35:01 2017)

 Preferred load address is 10000000

 Start         Length     Name                   Class
 0001:00000000 0000d400H .text$mn                CODE
 0001:0000d400 000007e3H .text$x                 CODE
 0002:00000000 00000158H .idata$5                DATA
 0002:00000158 00000004H .00cfg                  DATA
 0002:0000015c 00000004H .CRT$XCA                DATA
 0002:00000160 00000004H .CRT$XCZ                DATA
 0002:00000164 00000004H .CRT$XIA                DATA
 0002:00000168 00000004H .CRT$XIZ                DATA
 0002:0000016c 00000004H .CRT$XPA                DATA
 0002:00000170 00000004H .CRT$XPZ                DATA
 0002:00000174 00000004H .CRT$XTA                DATA
 0002:00000178 00000008H .CRT$XTZ                DATA
 0002:00000180 0000142cH .rdata                  DATA
 0002:000015ac 00000264H .rdata$r                DATA
 0002:00001810 000000acH .rdata$sxdata           DATA
 0002:000018bc 000002c8H .rdata$zzzdbg           DATA
 0002:00001b84 00000004H .rtc$IAA                DATA
 0002:00001b88 00000004H .rtc$IZZ                DATA
 0002:00001b8c 00000004H .rtc$TAA                DATA
 0002:00001b90 00000008H .rtc$TZZ                DATA
 0002:00001b98 00000ae8H .xdata$x                DATA
 0002:00002680 000000f4H .edata                  DATA
 0002:00002774 0000008cH .idata$2                DATA
 0002:00002800 00000014H .idata$3                DATA
 0002:00002814 00000158H .idata$4                DATA
 0002:0000296c 000005caH .idata$6                DATA
 0003:00000000 00000020H .data                   DATA
 0003:00000020 000000d8H .data$r                 DATA
 0003:000000f8 00000374H .bss                    DATA
 0004:00000000 00000044H .gfids$y                DATA
 0005:00000000 000000a0H .rsrc$01                DATA
 0005:000000a0 000004a0H .rsrc$02                DATA

  Address         Publics by Value              Rva+Base       Lib:Object

 0000:00000000       ___dynamic_value_reloc_table 00000000     <absolute>
 0000:00000000       ___guard_iat_count         00000000     <absolute>
 0000:00000000       ___guard_iat_table         00000000     <absolute>
 0000:00000000       ___guard_longjmp_count     00000000     <absolute>
 0000:00000000       ___guard_longjmp_table     00000000     <absolute>
 0000:00000000       ___guard_fids_table        00000000     <absolute>
 0000:00000000       ___guard_fids_count        00000000     <absolute>
 0000:0000002b       ___safe_se_handler_count   0000002b     <absolute>
 0000:00000100       ___guard_flags             00000100     <absolute>
 0000:00000000       ___ImageBase               10000000     <linker-defined>
 0001:00000000       _DllMain@12                10001000 f   dllmain.obj
 0001:00000020       ??0CIOCPBuffer@@QAE@XZ     10001020 f   IOCPBuffer.obj
 0001:00000050       ??_GCIOCPBuffer@@UAEPAXI@Z 10001050 f i IOCPBuffer.obj
 0001:00000050       ??_ECIOCPBuffer@@UAEPAXI@Z 10001050 f i * CIL library *:* CIL module *
 0001:00000090       ?Init@CIOCPBuffer@@QAEXXZ  10001090 f   IOCPBuffer.obj
 0001:000000e0       ??1CIOCPBuffer@@UAE@XZ     100010e0 f   IOCPBuffer.obj
 0001:00000100       ?GetBuffer@CIOCPBuffer@@QAEPAEXZ 10001100 f   IOCPBuffer.obj
 0001:00000120       ?AddData@CIOCPBuffer@@QAEHE@Z 10001120 f   IOCPBuffer.obj
 0001:00000140       ?AddData@CIOCPBuffer@@QAEHI@Z 10001140 f   IOCPBuffer.obj
 0001:00000160       ?AddData@CIOCPBuffer@@QAEHPBEI@Z 10001160 f   IOCPBuffer.obj
 0001:000001c0       ?GetUsed@CIOCPBuffer@@QAEIXZ 100011c0 f   IOCPBuffer.obj
 0001:000001e0       ?Use@CIOCPBuffer@@QAEII@Z  100011e0 f   IOCPBuffer.obj
 0001:00000210       ?EmptyUsed@CIOCPBuffer@@QAEXXZ 10001210 f   IOCPBuffer.obj
 0001:00000230       ?SetOperation@CIOCPBuffer@@QAEXH@Z 10001230 f   IOCPBuffer.obj
 0001:00000260       ?SetupZeroByteRead@CIOCPBuffer@@QAEXXZ 10001260 f   IOCPBuffer.obj
 0001:00000290       ?SetupRead@CIOCPBuffer@@QAEXXZ 10001290 f   IOCPBuffer.obj
 0001:000002f0       ?SetupWrite@CIOCPBuffer@@QAEXXZ 100012f0 f   IOCPBuffer.obj
 0001:00000320       ?GetWSABuffer@CIOCPBuffer@@QAEPAU_WSABUF@@XZ 10001320 f   IOCPBuffer.obj
 0001:00000340       ?GetOperation@CIOCPBuffer@@QAEHXZ 10001340 f   IOCPBuffer.obj
 0001:00000360       ?Flush@CIOCPBuffer@@QAEHI@Z 10001360 f   IOCPBuffer.obj
 0001:000003c0       ?SetSequenceNumber@CIOCPBuffer@@QAEXH@Z 100013c0 f   IOCPBuffer.obj
 0001:000003e0       ?GetSequenceNumber@CIOCPBuffer@@QAEHXZ 100013e0 f   IOCPBuffer.obj
 0001:00000400       ?CreatePackage@CIOCPBuffer@@QAEHEV?$basic_string@DU?$char_traits@D@std@@V?$allocator@D@2@@std@@@Z 10001400 f   IOCPBuffer.obj
 0001:00000500       ?CreatePackage@CIOCPBuffer@@QAEHEIPAD@Z 10001500 f   IOCPBuffer.obj
 0001:00000580       ?GetPackageSize@CIOCPBuffer@@QAEIXZ 10001580 f   IOCPBuffer.obj
 0001:000005c0       ?GetPackageInfo@CIOCPBuffer@@QAEHAAEAAIPAD@Z 100015c0 f   IOCPBuffer.obj
 0001:00000650       ??0?$_List_iterator@V?$_List_val@U?$_List_simple_types@PAVCIOCPBuffer@@@std@@@std@@@std@@QAE@XZ 10001650 f i IOCPBuffer.obj
 0001:00000670       ?length@?$basic_string@DU?$char_traits@D@std@@V?$allocator@D@2@@std@@QBEIXZ 10001670 f i IOCPBuffer.obj
 0001:00000690       ??4?$basic_string@DU?$char_traits@D@std@@V?$allocator@D@2@@std@@QAEAAV01@PBD@Z 10001690 f i IOCPBuffer.obj
 0001:000006b0       ??1?$basic_string@DU?$char_traits@D@std@@V?$allocator@D@2@@std@@QAE@XZ 100016b0 f i IOCPBuffer.obj
 0001:00000700       ??1?$_String_alloc@U?$_String_base_types@DV?$allocator@D@std@@@std@@@std@@QAE@XZ 10001700 f i IOCPBuffer.obj
 0001:00000720       ??1?$_Compressed_pair@U?$_Wrap_alloc@V?$allocator@D@std@@@std@@V?$_String_val@U?$_Simple_types@D@std@@@2@$00@std@@QAE@XZ 10001720 f i IOCPBuffer.obj
 0001:00000740       ??1?$_String_val@U?$_Simple_types@D@std@@@std@@QAE@XZ 10001740 f i IOCPBuffer.obj
 0001:00000760       ??0?$_Tree_const_iterator@V?$_Tree_val@U?$_Tree_simple_types@U?$pair@$$CBIPAUClientContext@@@std@@@std@@@std@@@std@@QAE@XZ 10001760 f i IOCPS.obj
 0001:00000760       ??0?$_Tree_const_iterator@V?$_Tree_val@U?$_Tree_simple_types@U?$pair@$$CBGPAX@std@@@std@@@std@@@std@@QAE@XZ 10001760 f i IOCPS.obj
 0001:00000760       ??0?$_Tree_const_iterator@V?$_Tree_val@U?$_Tree_simple_types@U?$pair@$$CBIPAVCIOCPBuffer@@@std@@@std@@@std@@@std@@QAE@XZ 10001760 f i IOCPS.obj
 0001:00000760       ??0?$_List_const_iterator@V?$_List_val@U?$_List_simple_types@PAVCIOCPBuffer@@@std@@@std@@@std@@QAE@XZ 10001760 f i IOCPBuffer.obj
 0001:00000780       ??1_Bxty@?$_String_val@U?$_Simple_types@D@std@@@std@@QAE@XZ 10001780 f i IOCPBuffer.obj
 0001:00000790       ?_Mysize@?$_String_alloc@U?$_String_base_types@DV?$allocator@D@std@@@std@@@std@@QBEABIXZ 10001790 f i IOCPBuffer.obj
 0001:00000790       ?_Mysize@?$_String_alloc@U?$_String_base_types@DV?$allocator@D@std@@@std@@@std@@QAEAAIXZ 10001790 f i IOCPBuffer.obj
 0001:000007b0       ?_Tidy@?$basic_string@DU?$char_traits@D@std@@V?$allocator@D@2@@std@@QAEX_NI@Z 100017b0 f i IOCPBuffer.obj
 0001:00000870       ?assign@?$basic_string@DU?$char_traits@D@std@@V?$allocator@D@2@@std@@QAEAAV12@PBD@Z 10001870 f i IOCPBuffer.obj
 0001:000008a0       ??0?$_Tree_unchecked_const_iterator@V?$_Tree_val@U?$_Tree_simple_types@U?$pair@$$CBIPAUClientContext@@@std@@@std@@@std@@U_Iterator_base0@2@@std@@QAE@XZ 100018a0 f i IOCPS.obj
 0001:000008a0       ??0?$_Tree_unchecked_const_iterator@V?$_Tree_val@U?$_Tree_simple_types@U?$pair@$$CBGPAX@std@@@std@@@std@@U_Iterator_base0@2@@std@@QAE@XZ 100018a0 f i IOCPS.obj
 0001:000008a0       ??0?$_List_unchecked_const_iterator@V?$_List_val@U?$_List_simple_types@PAVCIOCPBuffer@@@std@@@std@@U_Iterator_base0@2@@std@@QAE@XZ 100018a0 f i IOCPBuffer.obj
 0001:000008a0       ??0?$_Tree_unchecked_const_iterator@V?$_Tree_val@U?$_Tree_simple_types@U?$pair@$$CBIPAVCIOCPBuffer@@@std@@@std@@@std@@U_Iterator_base0@2@@std@@QAE@XZ 100018a0 f i IOCPS.obj
 0001:000008c0       ?deallocate@?$_Wrap_alloc@V?$allocator@D@std@@@std@@QAEXPADI@Z 100018c0 f i IOCPBuffer.obj
 0001:000008e0       ?_Myres@?$_String_alloc@U?$_String_base_types@DV?$allocator@D@std@@@std@@@std@@QAEAAIXZ 100018e0 f i IOCPBuffer.obj
 0001:00000900       ?_Myhead@?$_List_alloc@U?$_List_base_types@PAUClientContext@@V?$allocator@PAUClientContext@@@std@@@std@@@std@@QAEAAPAU?$_List_node@PAUClientContext@@PAX@2@XZ 10001900 f i IOCPS.obj
 0001:00000900       ?_Myhead@?$_List_alloc@U?$_List_base_types@PAVCIOCPBuffer@@V?$allocator@PAVCIOCPBuffer@@@std@@@std@@@std@@QAEAAPAU?$_List_node@PAVCIOCPBuffer@@PAX@2@XZ 10001900 f i IOCPS.obj
 0001:00000900       ?_Bx@?$_String_alloc@U?$_String_base_types@DV?$allocator@D@std@@@std@@@std@@QAEAAT_Bxty@?$_String_val@U?$_Simple_types@D@std@@@2@XZ 10001900 f i IOCPBuffer.obj
 0001:00000900       ?_Myhead@?$_List_alloc@U?$_List_base_types@PAXV?$allocator@PAX@std@@@std@@@std@@QAEAAPAU?$_List_node@PAXPAX@2@XZ 10001900 f i IOCPS.obj
 0001:00000900       ?_Myhead@?$_List_alloc@U?$_List_base_types@PAUJobItem@@V?$allocator@PAUJobItem@@@std@@@std@@@std@@QAEAAPAU?$_List_node@PAUJobItem@@PAX@2@XZ 10001900 f i IOCPS.obj
 0001:00000920       ?_Getal@?$_List_alloc@U?$_List_base_types@PAVCIOCPBuffer@@V?$allocator@PAVCIOCPBuffer@@@std@@@std@@@std@@QBEABU?$_Wrap_alloc@V?$allocator@U?$_List_node@PAVCIOCPBuffer@@PAX@std@@@std@@@2@XZ 10001920 f i IOCPS.obj
 0001:00000920       ?_Getal@?$_List_alloc@U?$_List_base_types@PAUClientContext@@V?$allocator@PAUClientContext@@@std@@@std@@@std@@QBEABU?$_Wrap_alloc@V?$allocator@U?$_List_node@PAUClientContext@@PAX@std@@@std@@@2@XZ 10001920 f i IOCPS.obj
 0001:00000920       ?_Getal@?$_List_alloc@U?$_List_base_types@PAXV?$allocator@PAX@std@@@std@@@std@@QAEAAU?$_Wrap_alloc@V?$allocator@U?$_List_node@PAXPAX@std@@@std@@@2@XZ 10001920 f i IOCPS.obj
 0001:00000920       ?_Getcomp@?$_Tree_comp_alloc@V?$_Tmap_traits@IPAUClientContext@@U?$less@I@std@@V?$allocator@U?$pair@$$CBIPAUClientContext@@@std@@@3@$0A@@std@@@std@@QBEABU?$less@I@2@XZ 10001920 f i IOCPS.obj
 0001:00000920       ?_Getcomp@?$_Tree_comp_alloc@V?$_Tmap_traits@IPAVCIOCPBuffer@@U?$less@I@std@@V?$allocator@U?$pair@$$CBIPAVCIOCPBuffer@@@std@@@3@$0A@@std@@@std@@QAEAAU?$less@I@2@XZ 10001920 f i IOCPS.obj
 0001:00000920       ?_Getal@?$_List_alloc@U?$_List_base_types@PAUJobItem@@V?$allocator@PAUJobItem@@@std@@@std@@@std@@QAEAAU?$_Wrap_alloc@V?$allocator@U?$_List_node@PAUJobItem@@PAX@std@@@std@@@2@XZ 10001920 f i IOCPS.obj
 0001:00000920       ?_Get_data@?$_List_alloc@U?$_List_base_types@PAUJobItem@@V?$allocator@PAUJobItem@@@std@@@std@@@std@@QBEABV?$_List_val@U?$_List_simple_types@PAUJobItem@@@std@@@2@XZ 10001920 f i IOCPS.obj
 0001:00000920       ?_Get_data@?$_List_alloc@U?$_List_base_types@PAUJobItem@@V?$allocator@PAUJobItem@@@std@@@std@@@std@@QAEAAV?$_List_val@U?$_List_simple_types@PAUJobItem@@@std@@@2@XZ 10001920 f i IOCPS.obj
 0001:00000920       ?_Getcomp@?$_Tree_comp_alloc@V?$_Tmap_traits@GPAXU?$less@G@std@@V?$allocator@U?$pair@$$CBGPAX@std@@@2@$0A@@std@@@std@@QAEAAU?$less@G@2@XZ 10001920 f i IOCPS.obj
 0001:00000920       ?_Getal@?$_List_alloc@U?$_List_base_types@PAXV?$allocator@PAX@std@@@std@@@std@@QBEABU?$_Wrap_alloc@V?$allocator@U?$_List_node@PAXPAX@std@@@std@@@2@XZ 10001920 f i IOCPS.obj
 0001:00000920       ?_Getal@?$_List_alloc@U?$_List_base_types@PAUClientContext@@V?$allocator@PAUClientContext@@@std@@@std@@@std@@QAEAAU?$_Wrap_alloc@V?$allocator@U?$_List_node@PAUClientContext@@PAX@std@@@std@@@2@XZ 10001920 f i IOCPS.obj
 0001:00000920       ?_Get_data@?$_List_alloc@U?$_List_base_types@PAXV?$allocator@PAX@std@@@std@@@std@@QBEABV?$_List_val@U?$_List_simple_types@PAX@std@@@2@XZ 10001920 f i IOCPS.obj
 0001:00000920       ?_Get_data@?$_List_alloc@U?$_List_base_types@PAVCIOCPBuffer@@V?$allocator@PAVCIOCPBuffer@@@std@@@std@@@std@@QBEABV?$_List_val@U?$_List_simple_types@PAVCIOCPBuffer@@@std@@@2@XZ 10001920 f i IOCPS.obj
 0001:00000920       ?_Get_data@?$_String_alloc@U?$_String_base_types@DV?$allocator@D@std@@@std@@@std@@QAEAAV?$_String_val@U?$_Simple_types@D@std@@@2@XZ 10001920 f i IOCPBuffer.obj
 0001:00000920       ?_Getcomp@?$_Tree_comp_alloc@V?$_Tmap_traits@IPAVCIOCPBuffer@@U?$less@I@std@@V?$allocator@U?$pair@$$CBIPAVCIOCPBuffer@@@std@@@3@$0A@@std@@@std@@QBEABU?$less@I@2@XZ 10001920 f i IOCPS.obj
 0001:00000920       ?_Getal@?$_String_alloc@U?$_String_base_types@DV?$allocator@D@std@@@std@@@std@@QBEABU?$_Wrap_alloc@V?$allocator@D@std@@@2@XZ 10001920 f i IOCPBuffer.obj
 0001:00000920       ?_Getcomp@?$_Tree_comp_alloc@V?$_Tmap_traits@GPAXU?$less@G@std@@V?$allocator@U?$pair@$$CBGPAX@std@@@2@$0A@@std@@@std@@QBEABU?$less@G@2@XZ 10001920 f i IOCPS.obj
 0001:00000920       ?_Getal@?$_List_alloc@U?$_List_base_types@PAVCIOCPBuffer@@V?$allocator@PAVCIOCPBuffer@@@std@@@std@@@std@@QAEAAU?$_Wrap_alloc@V?$allocator@U?$_List_node@PAVCIOCPBuffer@@PAX@std@@@std@@@2@XZ 10001920 f i IOCPS.obj
 0001:00000920       ?_Get_data@?$_List_alloc@U?$_List_base_types@PAXV?$allocator@PAX@std@@@std@@@std@@QAEAAV?$_List_val@U?$_List_simple_types@PAX@std@@@2@XZ 10001920 f i IOCPS.obj
 0001:00000920       ?_Get_data@?$_List_alloc@U?$_List_base_types@PAVCIOCPBuffer@@V?$allocator@PAVCIOCPBuffer@@@std@@@std@@@std@@QAEAAV?$_List_val@U?$_List_simple_types@PAVCIOCPBuffer@@@std@@@2@XZ 10001920 f i IOCPS.obj
 0001:00000920       ?_Getcomp@?$_Tree_comp_alloc@V?$_Tmap_traits@IPAUClientContext@@U?$less@I@std@@V?$allocator@U?$pair@$$CBIPAUClientContext@@@std@@@3@$0A@@std@@@std@@QAEAAU?$less@I@2@XZ 10001920 f i IOCPS.obj
 0001:00000920       ?_Get_data@?$_String_alloc@U?$_String_base_types@DV?$allocator@D@std@@@std@@@std@@QBEABV?$_String_val@U?$_Simple_types@D@std@@@2@XZ 10001920 f i IOCPBuffer.obj
 0001:00000920       ?_Get_data@?$_List_alloc@U?$_List_base_types@PAUClientContext@@V?$allocator@PAUClientContext@@@std@@@std@@@std@@QBEABV?$_List_val@U?$_List_simple_types@PAUClientContext@@@std@@@2@XZ 10001920 f i IOCPS.obj
 0001:00000920       ?_Getal@?$_String_alloc@U?$_String_base_types@DV?$allocator@D@std@@@std@@@std@@QAEAAU?$_Wrap_alloc@V?$allocator@D@std@@@2@XZ 10001920 f i IOCPBuffer.obj
 0001:00000920       ?_Get_data@?$_List_alloc@U?$_List_base_types@PAUClientContext@@V?$allocator@PAUClientContext@@@std@@@std@@@std@@QAEAAV?$_List_val@U?$_List_simple_types@PAUClientContext@@@std@@@2@XZ 10001920 f i IOCPS.obj
 0001:00000940       ?_Eos@?$basic_string@DU?$char_traits@D@std@@V?$allocator@D@2@@std@@QAEXI@Z 10001940 f i IOCPBuffer.obj
 0001:00000980       ?assign@?$basic_string@DU?$char_traits@D@std@@V?$allocator@D@2@@std@@QAEAAV12@PBDI@Z 10001980 f i IOCPBuffer.obj
 0001:00000a00       ?_Get_first@?$_Compressed_pair@U?$less@I@std@@V?$_Compressed_pair@U?$_Wrap_alloc@V?$allocator@U?$_Tree_node@U?$pair@$$CBIPAVCIOCPBuffer@@@std@@PAX@std@@@std@@@std@@V?$_Tree_val@U?$_Tree_simple_types@U?$pair@$$CBIPAVCIOCPBuffer@@@std@@@std@@@2@$00@2@$00@std@@QBEABU?$less@I@2@XZ 10001a00 f i IOCPS.obj
 0001:00000a00       ?_Get_first@?$_Compressed_pair@U?$_Wrap_alloc@V?$allocator@U?$_Tree_node@U?$pair@$$CBIPAUClientContext@@@std@@PAX@std@@@std@@@std@@V?$_Tree_val@U?$_Tree_simple_types@U?$pair@$$CBIPAUClientContext@@@std@@@std@@@2@$00@std@@QAEAAU?$_Wrap_alloc@V?$allocator@U?$_Tree_node@U?$pair@$$CBIPAUClientContext@@@std@@PAX@std@@@std@@@2@XZ 10001a00 f i IOCPS.obj
 0001:00000a00       ?_Get_second@?$_Compressed_pair@U?$_Wrap_alloc@V?$allocator@U?$_Tree_node@U?$pair@$$CBIPAVCIOCPBuffer@@@std@@PAX@std@@@std@@@std@@V?$_Tree_val@U?$_Tree_simple_types@U?$pair@$$CBIPAVCIOCPBuffer@@@std@@@std@@@2@$00@std@@QAEAAV?$_Tree_val@U?$_Tree_simple_types@U?$pair@$$CBIPAVCIOCPBuffer@@@std@@@std@@@2@XZ 10001a00 f i IOCPS.obj
 0001:00000a00       ??0?$allocator@U?$_List_node@PAUJobItem@@PAX@std@@@std@@QAE@XZ 10001a00 f i IOCPS.obj
 0001:00000a00       ?_Get_second@?$_Compressed_pair@U?$less@I@std@@V?$_Compressed_pair@U?$_Wrap_alloc@V?$allocator@U?$_Tree_node@U?$pair@$$CBIPAUClientContext@@@std@@PAX@std@@@std@@@std@@V?$_Tree_val@U?$_Tree_simple_types@U?$pair@$$CBIPAUClientContext@@@std@@@std@@@2@$00@2@$00@std@@QBEABV?$_Compressed_pair@U?$_Wrap_alloc@V?$allocator@U?$_Tree_node@U?$pair@$$CBIPAUClientContext@@@std@@PAX@std@@@std@@@std@@V?$_Tree_val@U?$_Tree_simple_types@U?$pair@$$CBIPAUClientContext@@@std@@@std@@@2@$00@2@XZ 10001a00 f i IOCPS.obj
 0001:00000a00       ?_Get_second@?$_Compressed_pair@U?$_Wrap_alloc@V?$allocator@U?$_Tree_node@U?$pair@$$CBGPAX@std@@PAX@std@@@std@@@std@@V?$_Tree_val@U?$_Tree_simple_types@U?$pair@$$CBGPAX@std@@@std@@@2@$00@std@@QBEABV?$_Tree_val@U?$_Tree_simple_types@U?$pair@$$CBGPAX@std@@@std@@@2@XZ 10001a00 f i IOCPS.obj
 0001:00000a00       ?_Get_first@?$_Compressed_pair@U?$_Wrap_alloc@V?$allocator@U?$_Tree_node@U?$pair@$$CBGPAX@std@@PAX@std@@@std@@@std@@V?$_Tree_val@U?$_Tree_simple_types@U?$pair@$$CBGPAX@std@@@std@@@2@$00@std@@QBEABU?$_Wrap_alloc@V?$allocator@U?$_Tree_node@U?$pair@$$CBGPAX@std@@PAX@std@@@std@@@2@XZ 10001a00 f i IOCPS.obj
 0001:00000a00       ?_Get_first@?$_Compressed_pair@U?$_Wrap_alloc@V?$allocator@U?$_Tree_node@U?$pair@$$CBIPAUClientContext@@@std@@PAX@std@@@std@@@std@@V?$_Tree_val@U?$_Tree_simple_types@U?$pair@$$CBIPAUClientContext@@@std@@@std@@@2@$00@std@@QBEABU?$_Wrap_alloc@V?$allocator@U?$_Tree_node@U?$pair@$$CBIPAUClientContext@@@std@@PAX@std@@@std@@@2@XZ 10001a00 f i IOCPS.obj
 0001:00000a00       ?_Get_first@?$_Compressed_pair@U?$less@G@std@@V?$_Compressed_pair@U?$_Wrap_alloc@V?$allocator@U?$_Tree_node@U?$pair@$$CBGPAX@std@@PAX@std@@@std@@@std@@V?$_Tree_val@U?$_Tree_simple_types@U?$pair@$$CBGPAX@std@@@std@@@2@$00@2@$00@std@@QAEAAU?$less@G@2@XZ 10001a00 f i IOCPS.obj
 0001:00000a00       ??0?$allocator@U?$_Tree_node@U?$pair@$$CBIPAVCIOCPBuffer@@@std@@PAX@std@@@std@@QAE@XZ 10001a00 f i IOCPS.obj
 0001:00000a00       ?_Get_second@?$_Compressed_pair@U?$less@I@std@@V?$_Compressed_pair@U?$_Wrap_alloc@V?$allocator@U?$_Tree_node@U?$pair@$$CBIPAVCIOCPBuffer@@@std@@PAX@std@@@std@@@std@@V?$_Tree_val@U?$_Tree_simple_types@U?$pair@$$CBIPAVCIOCPBuffer@@@std@@@std@@@2@$00@2@$00@std@@QAEAAV?$_Compressed_pair@U?$_Wrap_alloc@V?$allocator@U?$_Tree_node@U?$pair@$$CBIPAVCIOCPBuffer@@@std@@PAX@std@@@std@@@std@@V?$_Tree_val@U?$_Tree_simple_types@U?$pair@$$CBIPAVCIOCPBuffer@@@std@@@std@@@2@$00@2@XZ 10001a00 f i IOCPS.obj
 0001:00000a00       ?_Get_second@?$_Compressed_pair@U?$_Wrap_alloc@V?$allocator@U?$_Tree_node@U?$pair@$$CBIPAUClientContext@@@std@@PAX@std@@@std@@@std@@V?$_Tree_val@U?$_Tree_simple_types@U?$pair@$$CBIPAUClientContext@@@std@@@std@@@2@$00@std@@QBEABV?$_Tree_val@U?$_Tree_simple_types@U?$pair@$$CBIPAUClientContext@@@std@@@std@@@2@XZ 10001a00 f i IOCPS.obj
 0001:00000a00       ?_Get_first@?$_Compressed_pair@U?$_Wrap_alloc@V?$allocator@U?$_List_node@PAVCIOCPBuffer@@PAX@std@@@std@@@std@@V?$_List_val@U?$_List_simple_types@PAVCIOCPBuffer@@@std@@@2@$00@std@@QBEABU?$_Wrap_alloc@V?$allocator@U?$_List_node@PAVCIOCPBuffer@@PAX@std@@@std@@@2@XZ 10001a00 f i IOCPS.obj
 0001:00000a00       ?_Get_second@?$_Compressed_pair@U?$_Wrap_alloc@V?$allocator@U?$_List_node@PAUClientContext@@PAX@std@@@std@@@std@@V?$_List_val@U?$_List_simple_types@PAUClientContext@@@std@@@2@$00@std@@QBEABV?$_List_val@U?$_List_simple_types@PAUClientContext@@@std@@@2@XZ 10001a00 f i IOCPS.obj
 0001:00000a00       ?_Get_first@?$_Compressed_pair@U?$_Wrap_alloc@V?$allocator@D@std@@@std@@V?$_String_val@U?$_Simple_types@D@std@@@2@$00@std@@QAEAAU?$_Wrap_alloc@V?$allocator@D@std@@@2@XZ 10001a00 f i IOCPBuffer.obj
 0001:00000a00       ??0?$allocator@U?$_List_node@PAUClientContext@@PAX@std@@@std@@QAE@XZ 10001a00 f i IOCPS.obj
 0001:00000a00       ?_Get_second@?$_Compressed_pair@U?$_Wrap_alloc@V?$allocator@D@std@@@std@@V?$_String_val@U?$_Simple_types@D@std@@@2@$00@std@@QBEABV?$_String_val@U?$_Simple_types@D@std@@@2@XZ 10001a00 f i IOCPBuffer.obj
 0001:00000a00       ?_Get_first@?$_Compressed_pair@U?$_Wrap_alloc@V?$allocator@U?$_List_node@PAXPAX@std@@@std@@@std@@V?$_List_val@U?$_List_simple_types@PAX@std@@@2@$00@std@@QBEABU?$_Wrap_alloc@V?$allocator@U?$_List_node@PAXPAX@std@@@std@@@2@XZ 10001a00 f i IOCPS.obj
 0001:00000a00       ?_Get_first@?$_Compressed_pair@U?$less@I@std@@V?$_Compressed_pair@U?$_Wrap_alloc@V?$allocator@U?$_Tree_node@U?$pair@$$CBIPAUClientContext@@@std@@PAX@std@@@std@@@std@@V?$_Tree_val@U?$_Tree_simple_types@U?$pair@$$CBIPAUClientContext@@@std@@@std@@@2@$00@2@$00@std@@QAEAAU?$less@I@2@XZ 10001a00 f i IOCPS.obj
 0001:00000a00       ?_Get_second@?$_Compressed_pair@U?$_Wrap_alloc@V?$allocator@U?$_List_node@PAVCIOCPBuffer@@PAX@std@@@std@@@std@@V?$_List_val@U?$_List_simple_types@PAVCIOCPBuffer@@@std@@@2@$00@std@@QAEAAV?$_List_val@U?$_List_simple_types@PAVCIOCPBuffer@@@std@@@2@XZ 10001a00 f i IOCPS.obj
 0001:00000a00       ??0?$allocator@D@std@@QAE@XZ 10001a00 f i IOCPS.obj
 0001:00000a00       ?_Get_second@?$_Compressed_pair@U?$less@G@std@@V?$_Compressed_pair@U?$_Wrap_alloc@V?$allocator@U?$_Tree_node@U?$pair@$$CBGPAX@std@@PAX@std@@@std@@@std@@V?$_Tree_val@U?$_Tree_simple_types@U?$pair@$$CBGPAX@std@@@std@@@2@$00@2@$00@std@@QAEAAV?$_Compressed_pair@U?$_Wrap_alloc@V?$allocator@U?$_Tree_node@U?$pair@$$CBGPAX@std@@PAX@std@@@std@@@std@@V?$_Tree_val@U?$_Tree_simple_types@U?$pair@$$CBGPAX@std@@@std@@@2@$00@2@XZ 10001a00 f i IOCPS.obj
 0001:00000a00       ??0?$allocator@U?$_List_node@PAVCIOCPBuffer@@PAX@std@@@std@@QAE@XZ 10001a00 f i IOCPS.obj
 0001:00000a00       ?_Get_first@?$_Compressed_pair@U?$less@I@std@@V?$_Compressed_pair@U?$_Wrap_alloc@V?$allocator@U?$_Tree_node@U?$pair@$$CBIPAUClientContext@@@std@@PAX@std@@@std@@@std@@V?$_Tree_val@U?$_Tree_simple_types@U?$pair@$$CBIPAUClientContext@@@std@@@std@@@2@$00@2@$00@std@@QBEABU?$less@I@2@XZ 10001a00 f i IOCPS.obj
 0001:00000a00       ??0?$tuple@$$V@std@@QAE@XZ 10001a00 f i IOCPS.obj
 0001:00000a00       ?_Get_first@?$_Compressed_pair@U?$_Wrap_alloc@V?$allocator@U?$_List_node@PAUClientContext@@PAX@std@@@std@@@std@@V?$_List_val@U?$_List_simple_types@PAUClientContext@@@std@@@2@$00@std@@QAEAAU?$_Wrap_alloc@V?$allocator@U?$_List_node@PAUClientContext@@PAX@std@@@std@@@2@XZ 10001a00 f i IOCPS.obj
 0001:00000a00       ?_Get_second@?$_Compressed_pair@U?$_Wrap_alloc@V?$allocator@U?$_List_node@PAVCIOCPBuffer@@PAX@std@@@std@@@std@@V?$_List_val@U?$_List_simple_types@PAVCIOCPBuffer@@@std@@@2@$00@std@@QBEABV?$_List_val@U?$_List_simple_types@PAVCIOCPBuffer@@@std@@@2@XZ 10001a00 f i IOCPS.obj
 0001:00000a00       ?_Get_second@?$_Compressed_pair@U?$_Wrap_alloc@V?$allocator@U?$_List_node@PAUJobItem@@PAX@std@@@std@@@std@@V?$_List_val@U?$_List_simple_types@PAUJobItem@@@std@@@2@$00@std@@QAEAAV?$_List_val@U?$_List_simple_types@PAUJobItem@@@std@@@2@XZ 10001a00 f i IOCPS.obj
 0001:00000a00       ?_Get_first@?$_Compressed_pair@U?$_Wrap_alloc@V?$allocator@U?$_Tree_node@U?$pair@$$CBGPAX@std@@PAX@std@@@std@@@std@@V?$_Tree_val@U?$_Tree_simple_types@U?$pair@$$CBGPAX@std@@@std@@@2@$00@std@@QAEAAU?$_Wrap_alloc@V?$allocator@U?$_Tree_node@U?$pair@$$CBGPAX@std@@PAX@std@@@std@@@2@XZ 10001a00 f i IOCPS.obj
 0001:00000a00       ?_Get_second@?$_Compressed_pair@U?$_Wrap_alloc@V?$allocator@D@std@@@std@@V?$_String_val@U?$_Simple_types@D@std@@@2@$00@std@@QAEAAV?$_String_val@U?$_Simple_types@D@std@@@2@XZ 10001a00 f i IOCPBuffer.obj
 0001:00000a00       ?_Get_second@?$_Compressed_pair@U?$less@I@std@@V?$_Compressed_pair@U?$_Wrap_alloc@V?$allocator@U?$_Tree_node@U?$pair@$$CBIPAUClientContext@@@std@@PAX@std@@@std@@@std@@V?$_Tree_val@U?$_Tree_simple_types@U?$pair@$$CBIPAUClientContext@@@std@@@std@@@2@$00@2@$00@std@@QAEAAV?$_Compressed_pair@U?$_Wrap_alloc@V?$allocator@U?$_Tree_node@U?$pair@$$CBIPAUClientContext@@@std@@PAX@std@@@std@@@std@@V?$_Tree_val@U?$_Tree_simple_types@U?$pair@$$CBIPAUClientContext@@@std@@@std@@@2@$00@2@XZ 10001a00 f i IOCPS.obj
 0001:00000a00       ?_Get_second@?$_Compressed_pair@U?$_Wrap_alloc@V?$allocator@U?$_List_node@PAXPAX@std@@@std@@@std@@V?$_List_val@U?$_List_simple_types@PAX@std@@@2@$00@std@@QAEAAV?$_List_val@U?$_List_simple_types@PAX@std@@@2@XZ 10001a00 f i IOCPS.obj
 0001:00000a00       ?_Get_first@?$_Compressed_pair@U?$_Wrap_alloc@V?$allocator@D@std@@@std@@V?$_String_val@U?$_Simple_types@D@std@@@2@$00@std@@QBEABU?$_Wrap_alloc@V?$allocator@D@std@@@2@XZ 10001a00 f i IOCPBuffer.obj
 0001:00000a00       ?_Get_first@?$_Compressed_pair@U?$_Wrap_alloc@V?$allocator@U?$_List_node@PAXPAX@std@@@std@@@std@@V?$_List_val@U?$_List_simple_types@PAX@std@@@2@$00@std@@QAEAAU?$_Wrap_alloc@V?$allocator@U?$_List_node@PAXPAX@std@@@std@@@2@XZ 10001a00 f i IOCPS.obj
 0001:00000a00       ?_Get_first@?$_Compressed_pair@U?$_Wrap_alloc@V?$allocator@U?$_Tree_node@U?$pair@$$CBIPAVCIOCPBuffer@@@std@@PAX@std@@@std@@@std@@V?$_Tree_val@U?$_Tree_simple_types@U?$pair@$$CBIPAVCIOCPBuffer@@@std@@@std@@@2@$00@std@@QAEAAU?$_Wrap_alloc@V?$allocator@U?$_Tree_node@U?$pair@$$CBIPAVCIOCPBuffer@@@std@@PAX@std@@@std@@@2@XZ 10001a00 f i IOCPS.obj
 0001:00000a00       ??0?$allocator@U?$_Tree_node@U?$pair@$$CBGPAX@std@@PAX@std@@@std@@QAE@XZ 10001a00 f i IOCPS.obj
 0001:00000a00       ?_Get_first@?$_Compressed_pair@U?$_Wrap_alloc@V?$allocator@U?$_List_node@PAUClientContext@@PAX@std@@@std@@@std@@V?$_List_val@U?$_List_simple_types@PAUClientContext@@@std@@@2@$00@std@@QBEABU?$_Wrap_alloc@V?$allocator@U?$_List_node@PAUClientContext@@PAX@std@@@std@@@2@XZ 10001a00 f i IOCPS.obj
 0001:00000a00       ?_Get_first@?$_Compressed_pair@U?$_Wrap_alloc@V?$allocator@U?$_List_node@PAUJobItem@@PAX@std@@@std@@@std@@V?$_List_val@U?$_List_simple_types@PAUJobItem@@@std@@@2@$00@std@@QAEAAU?$_Wrap_alloc@V?$allocator@U?$_List_node@PAUJobItem@@PAX@std@@@std@@@2@XZ 10001a00 f i IOCPS.obj
 0001:00000a00       ?_Get_second@?$_Compressed_pair@U?$_Wrap_alloc@V?$allocator@U?$_Tree_node@U?$pair@$$CBIPAVCIOCPBuffer@@@std@@PAX@std@@@std@@@std@@V?$_Tree_val@U?$_Tree_simple_types@U?$pair@$$CBIPAVCIOCPBuffer@@@std@@@std@@@2@$00@std@@QBEABV?$_Tree_val@U?$_Tree_simple_types@U?$pair@$$CBIPAVCIOCPBuffer@@@std@@@std@@@2@XZ 10001a00 f i IOCPS.obj
 0001:00000a00       ?_Get_second@?$_Compressed_pair@U?$_Wrap_alloc@V?$allocator@U?$_Tree_node@U?$pair@$$CBGPAX@std@@PAX@std@@@std@@@std@@V?$_Tree_val@U?$_Tree_simple_types@U?$pair@$$CBGPAX@std@@@std@@@2@$00@std@@QAEAAV?$_Tree_val@U?$_Tree_simple_types@U?$pair@$$CBGPAX@std@@@std@@@2@XZ 10001a00 f i IOCPS.obj
 0001:00000a00       ??0?$allocator@U?$_Tree_node@U?$pair@$$CBIPAUClientContext@@@std@@PAX@std@@@std@@QAE@XZ 10001a00 f i IOCPS.obj
 0001:00000a00       ?_Get_second@?$_Compressed_pair@U?$less@G@std@@V?$_Compressed_pair@U?$_Wrap_alloc@V?$allocator@U?$_Tree_node@U?$pair@$$CBGPAX@std@@PAX@std@@@std@@@std@@V?$_Tree_val@U?$_Tree_simple_types@U?$pair@$$CBGPAX@std@@@std@@@2@$00@2@$00@std@@QBEABV?$_Compressed_pair@U?$_Wrap_alloc@V?$allocator@U?$_Tree_node@U?$pair@$$CBGPAX@std@@PAX@std@@@std@@@std@@V?$_Tree_val@U?$_Tree_simple_types@U?$pair@$$CBGPAX@std@@@std@@@2@$00@2@XZ 10001a00 f i IOCPS.obj
 0001:00000a00       ?_Get_first@?$_Compressed_pair@U?$less@G@std@@V?$_Compressed_pair@U?$_Wrap_alloc@V?$allocator@U?$_Tree_node@U?$pair@$$CBGPAX@std@@PAX@std@@@std@@@std@@V?$_Tree_val@U?$_Tree_simple_types@U?$pair@$$CBGPAX@std@@@std@@@2@$00@2@$00@std@@QBEABU?$less@G@2@XZ 10001a00 f i IOCPS.obj
 0001:00000a00       ??0?$allocator@U?$_List_node@PAXPAX@std@@@std@@QAE@XZ 10001a00 f i IOCPS.obj
 0001:00000a00       ??0_Bxty@?$_String_val@U?$_Simple_types@D@std@@@std@@QAE@XZ 10001a00 f i IOCPS.obj
 0001:00000a00       ?_Get_second@?$_Compressed_pair@U?$_Wrap_alloc@V?$allocator@U?$_Tree_node@U?$pair@$$CBIPAUClientContext@@@std@@PAX@std@@@std@@@std@@V?$_Tree_val@U?$_Tree_simple_types@U?$pair@$$CBIPAUClientContext@@@std@@@std@@@2@$00@std@@QAEAAV?$_Tree_val@U?$_Tree_simple_types@U?$pair@$$CBIPAUClientContext@@@std@@@std@@@2@XZ 10001a00 f i IOCPS.obj
 0001:00000a00       ?_Get_second@?$_Compressed_pair@U?$_Wrap_alloc@V?$allocator@U?$_List_node@PAUJobItem@@PAX@std@@@std@@@std@@V?$_List_val@U?$_List_simple_types@PAUJobItem@@@std@@@2@$00@std@@QBEABV?$_List_val@U?$_List_simple_types@PAUJobItem@@@std@@@2@XZ 10001a00 f i IOCPS.obj
 0001:00000a00       ?_Get_second@?$_Compressed_pair@U?$_Wrap_alloc@V?$allocator@U?$_List_node@PAUClientContext@@PAX@std@@@std@@@std@@V?$_List_val@U?$_List_simple_types@PAUClientContext@@@std@@@2@$00@std@@QAEAAV?$_List_val@U?$_List_simple_types@PAUClientContext@@@std@@@2@XZ 10001a00 f i IOCPS.obj
 0001:00000a00       ?_Get_first@?$_Compressed_pair@U?$_Wrap_alloc@V?$allocator@U?$_List_node@PAVCIOCPBuffer@@PAX@std@@@std@@@std@@V?$_List_val@U?$_List_simple_types@PAVCIOCPBuffer@@@std@@@2@$00@std@@QAEAAU?$_Wrap_alloc@V?$allocator@U?$_List_node@PAVCIOCPBuffer@@PAX@std@@@std@@@2@XZ 10001a00 f i IOCPS.obj
 0001:00000a00       ?_Get_second@?$_Compressed_pair@U?$less@I@std@@V?$_Compressed_pair@U?$_Wrap_alloc@V?$allocator@U?$_Tree_node@U?$pair@$$CBIPAVCIOCPBuffer@@@std@@PAX@std@@@std@@@std@@V?$_Tree_val@U?$_Tree_simple_types@U?$pair@$$CBIPAVCIOCPBuffer@@@std@@@std@@@2@$00@2@$00@std@@QBEABV?$_Compressed_pair@U?$_Wrap_alloc@V?$allocator@U?$_Tree_node@U?$pair@$$CBIPAVCIOCPBuffer@@@std@@PAX@std@@@std@@@std@@V?$_Tree_val@U?$_Tree_simple_types@U?$pair@$$CBIPAVCIOCPBuffer@@@std@@@std@@@2@$00@2@XZ 10001a00 f i IOCPS.obj
 0001:00000a00       ?_Get_first@?$_Compressed_pair@U?$_Wrap_alloc@V?$allocator@U?$_Tree_node@U?$pair@$$CBIPAVCIOCPBuffer@@@std@@PAX@std@@@std@@@std@@V?$_Tree_val@U?$_Tree_simple_types@U?$pair@$$CBIPAVCIOCPBuffer@@@std@@@std@@@2@$00@std@@QBEABU?$_Wrap_alloc@V?$allocator@U?$_Tree_node@U?$pair@$$CBIPAVCIOCPBuffer@@@std@@PAX@std@@@std@@@2@XZ 10001a00 f i IOCPS.obj
 0001:00000a00       ?_Get_first@?$_Compressed_pair@U?$less@I@std@@V?$_Compressed_pair@U?$_Wrap_alloc@V?$allocator@U?$_Tree_node@U?$pair@$$CBIPAVCIOCPBuffer@@@std@@PAX@std@@@std@@@std@@V?$_Tree_val@U?$_Tree_simple_types@U?$pair@$$CBIPAVCIOCPBuffer@@@std@@@std@@@2@$00@2@$00@std@@QAEAAU?$less@I@2@XZ 10001a00 f i IOCPS.obj
 0001:00000a00       ?_Get_second@?$_Compressed_pair@U?$_Wrap_alloc@V?$allocator@U?$_List_node@PAXPAX@std@@@std@@@std@@V?$_List_val@U?$_List_simple_types@PAX@std@@@2@$00@std@@QBEABV?$_List_val@U?$_List_simple_types@PAX@std@@@2@XZ 10001a00 f i IOCPS.obj
 0001:00000a10       ?_Myptr@?$_String_val@U?$_Simple_types@D@std@@@std@@QBEPBDXZ 10001a10 f i IOCPBuffer.obj
 0001:00000a10       ?_Myptr@?$_String_val@U?$_Simple_types@D@std@@@std@@QAEPADXZ 10001a10 f i IOCPBuffer.obj
 0001:00000a50       ?_Myptr@?$_String_alloc@U?$_String_base_types@DV?$allocator@D@std@@@std@@@std@@QAEPADXZ 10001a50 f i IOCPBuffer.obj
 0001:00000a50       ?_Myptr@?$_String_alloc@U?$_String_base_types@DV?$allocator@D@std@@@std@@@std@@QBEPBDXZ 10001a50 f i IOCPBuffer.obj
 0001:00000a70       ?_Inside@?$basic_string@DU?$char_traits@D@std@@V?$allocator@D@2@@std@@QAE_NPBD@Z 10001a70 f i IOCPBuffer.obj
 0001:00000ac0       ?_Grow@?$basic_string@DU?$char_traits@D@std@@V?$allocator@D@2@@std@@QAE_NI_N@Z 10001ac0 f i IOCPBuffer.obj
 0001:00000b80       ?assign@?$basic_string@DU?$char_traits@D@std@@V?$allocator@D@2@@std@@QAEAAV12@ABV12@II@Z 10001b80 f i IOCPBuffer.obj
 0001:00000c20       ?deallocate@?$allocator@D@std@@QAEXPADI@Z 10001c20 f i IOCPBuffer.obj
 0001:00000c40       ?_Check_offset@?$basic_string@DU?$char_traits@D@std@@V?$allocator@D@2@@std@@QBEXI@Z 10001c40 f i IOCPBuffer.obj
 0001:00000c70       ?_Xlen@?$basic_string@DU?$char_traits@D@std@@V?$allocator@D@2@@std@@QBEXXZ 10001c70 f i IOCPBuffer.obj
 0001:00000c90       ?_Copy@?$basic_string@DU?$char_traits@D@std@@V?$allocator@D@2@@std@@QAEXII@Z 10001c90 f i IOCPBuffer.obj
 0001:00000e70       ?_Clamp_suffix_size@?$basic_string@DU?$char_traits@D@std@@V?$allocator@D@2@@std@@QBEIII@Z 10001e70 f i IOCPBuffer.obj
 0001:00000eb0       ?max_size@?$basic_string@DU?$char_traits@D@std@@V?$allocator@D@2@@std@@QBEIXZ 10001eb0 f i IOCPBuffer.obj
 0001:00000ef0       ?erase@?$basic_string@DU?$char_traits@D@std@@V?$allocator@D@2@@std@@QAEAAV12@II@Z 10001ef0 f i IOCPBuffer.obj
 0001:00000f80       ?erase@?$basic_string@DU?$char_traits@D@std@@V?$allocator@D@2@@std@@QAEAAV12@I@Z 10001f80 f i IOCPBuffer.obj
 0001:00000fb0       ?max_size@?$_Wrap_alloc@V?$allocator@D@std@@@std@@QBEIU_Nil@2@@Z 10001fb0 f i IOCPBuffer.obj
 0001:00000fd0       ?allocate@?$_Wrap_alloc@V?$allocator@D@std@@@std@@QAEPADI@Z 10001fd0 f i IOCPBuffer.obj
 0001:00001000       ?_Xran@?$basic_string@DU?$char_traits@D@std@@V?$allocator@D@2@@std@@QBEXXZ 10002000 f i IOCPBuffer.obj
 0001:00001020       ?max_size@?$allocator_traits@V?$allocator@D@std@@@std@@SAIABV?$allocator@D@2@@Z 10002020 f i IOCPBuffer.obj
 0001:00001030       ?allocate@?$allocator@D@std@@QAEPADI@Z 10002030 f i IOCPBuffer.obj
 0001:00001050       ?max_size@?$allocator@D@std@@QBEIXZ 10002050 f i IOCPBuffer.obj
 0001:00001060       ??$addressof@PAU?$_Tree_node@U?$pair@$$CBIPAUClientContext@@@std@@PAX@std@@@std@@YAPAPAU?$_Tree_node@U?$pair@$$CBIPAUClientContext@@@std@@PAX@0@AAPAU10@@Z 10002060 f i IOCPS.obj
 0001:00001060       ??$forward@AAU?$pair@$$CBIPAUClientContext@@@std@@@std@@YAAAU?$pair@$$CBIPAUClientContext@@@0@AAU10@@Z 10002060 f i IOCPS.obj
 0001:00001060       ??$forward@AAPAU?$_Tree_node@U?$pair@$$CBIPAVCIOCPBuffer@@@std@@PAX@std@@@std@@YAAAPAU?$_Tree_node@U?$pair@$$CBIPAVCIOCPBuffer@@@std@@PAX@0@AAPAU10@@Z 10002060 f i IOCPS.obj
 0001:00001060       ??$forward@_N@std@@YA$$QA_NAA_N@Z 10002060 f i IOCPS.obj
 0001:00001060       ??$forward@V?$_Tree_iterator@V?$_Tree_val@U?$_Tree_simple_types@U?$pair@$$CBIPAUClientContext@@@std@@@std@@@std@@@std@@@std@@YA$$QAV?$_Tree_iterator@V?$_Tree_val@U?$_Tree_simple_types@U?$pair@$$CBIPAUClientContext@@@std@@@std@@@std@@@0@AAV10@@Z 10002060 f i IOCPS.obj
 0001:00001060       ??$forward@AAV?$_Tree_iterator@V?$_Tree_val@U?$_Tree_simple_types@U?$pair@$$CBIPAUClientContext@@@std@@@std@@@std@@@std@@@std@@YAAAV?$_Tree_iterator@V?$_Tree_val@U?$_Tree_simple_types@U?$pair@$$CBIPAUClientContext@@@std@@@std@@@std@@@0@AAV10@@Z 10002060 f i IOCPS.obj
 0001:00001060       ??$forward@V?$basic_string@DU?$char_traits@D@std@@V?$allocator@D@2@@std@@@std@@YA$$QAV?$basic_string@DU?$char_traits@D@std@@V?$allocator@D@2@@0@AAV10@@Z 10002060 f i IOCPS.obj
 0001:00001060       ??$forward@AAPAU?$_Tree_node@U?$pair@$$CBGPAX@std@@PAX@std@@@std@@YAAAPAU?$_Tree_node@U?$pair@$$CBGPAX@std@@PAX@0@AAPAU10@@Z 10002060 f i IOCPS.obj
 0001:00001060       ??$forward@AAPAU?$_List_node@PAVCIOCPBuffer@@PAX@std@@@std@@YAAAPAU?$_List_node@PAVCIOCPBuffer@@PAX@0@AAPAU10@@Z 10002060 f i IOCPS.obj
 0001:00001060       ??$forward@AAPAU?$_List_node@PAXPAX@std@@@std@@YAAAPAU?$_List_node@PAXPAX@0@AAPAU10@@Z 10002060 f i IOCPS.obj
 0001:00001060       ?_Nextnode@?$_List_val@U?$_List_simple_types@PAUJobItem@@@std@@@std@@SAAAPAU?$_List_node@PAUJobItem@@PAX@2@PAU32@@Z 10002060 f i IOCPS.obj
 0001:00001060       ??$_Kfn@$$CBGPAX@?$_Tmap_traits@GPAXU?$less@G@std@@V?$allocator@U?$pair@$$CBGPAX@std@@@2@$0A@@std@@SAABGABU?$pair@$$CBGPAX@1@@Z 10002060 f i IOCPS.obj
 0001:00001060       ??$forward@AAU?$pair@$$CBIPAVCIOCPBuffer@@@std@@@std@@YAAAU?$pair@$$CBIPAVCIOCPBuffer@@@0@AAU10@@Z 10002060 f i IOCPS.obj
 0001:00001060       ??$addressof@PAU?$_List_node@PAVCIOCPBuffer@@PAX@std@@@std@@YAPAPAU?$_List_node@PAVCIOCPBuffer@@PAX@0@AAPAU10@@Z 10002060 f i IOCPS.obj
 0001:00001060       ?_Nextnode@?$_List_val@U?$_List_simple_types@PAUClientContext@@@std@@@std@@SAAAPAU?$_List_node@PAUClientContext@@PAX@2@PAU32@@Z 10002060 f i IOCPS.obj
 0001:00001060       ??$forward@V?$_Tree_iterator@V?$_Tree_val@U?$_Tree_simple_types@U?$pair@$$CBIPAVCIOCPBuffer@@@std@@@std@@@std@@@std@@@std@@YA$$QAV?$_Tree_iterator@V?$_Tree_val@U?$_Tree_simple_types@U?$pair@$$CBIPAVCIOCPBuffer@@@std@@@std@@@std@@@0@AAV10@@Z 10002060 f i IOCPS.obj
 0001:00001060       ??$forward@U_Zero_then_variadic_args_t@std@@@std@@YA$$QAU_Zero_then_variadic_args_t@0@AAU10@@Z 10002060 f i IOCPS.obj
 0001:00001060       ?_Nextnode@?$_List_val@U?$_List_simple_types@PAVCIOCPBuffer@@@std@@@std@@SAAAPAU?$_List_node@PAVCIOCPBuffer@@PAX@2@PAU32@@Z 10002060 f i IOCPS.obj
 0001:00001060       ??$forward@ABU?$less@G@std@@@std@@YAABU?$less@G@0@ABU10@@Z 10002060 f i IOCPS.obj
 0001:00001060       ??$forward@V?$allocator@D@std@@@std@@YA$$QAV?$allocator@D@0@AAV10@@Z 10002060 f i MyIOCP.obj
 0001:00001060       ??$addressof@PAUClientContext@@@std@@YAPAPAUClientContext@@AAPAU1@@Z 10002060 f i IOCPS.obj
 0001:00001060       ??$forward@V?$_Tree_iterator@V?$_Tree_val@U?$_Tree_simple_types@U?$pair@$$CBGPAX@std@@@std@@@std@@@std@@@std@@YA$$QAV?$_Tree_iterator@V?$_Tree_val@U?$_Tree_simple_types@U?$pair@$$CBGPAX@std@@@std@@@std@@@0@AAV10@@Z 10002060 f i IOCPS.obj
 0001:00001060       ??$forward@G@std@@YA$$QAGAAG@Z 10002060 f i IOCPS.obj
 0001:00001060       ??$forward@AAU?$pair@$$CBGPAX@std@@@std@@YAAAU?$pair@$$CBGPAX@0@AAU10@@Z 10002060 f i IOCPS.obj
 0001:00001060       ??$forward@AAV?$_Tree_iterator@V?$_Tree_val@U?$_Tree_simple_types@U?$pair@$$CBIPAVCIOCPBuffer@@@std@@@std@@@std@@@std@@@std@@YAAAV?$_Tree_iterator@V?$_Tree_val@U?$_Tree_simple_types@U?$pair@$$CBIPAVCIOCPBuffer@@@std@@@std@@@std@@@0@AAV10@@Z 10002060 f i IOCPS.obj
 0001:00001060       ??$forward@AAPAD@std@@YAAAPADAAPAD@Z 10002060 f i IOCPBuffer.obj
 0001:00001060       ??$addressof@PAU?$_List_node@PAXPAX@std@@@std@@YAPAPAU?$_List_node@PAXPAX@0@AAPAU10@@Z 10002060 f i IOCPS.obj
 0001:00001060       ??$addressof@U?$pair@$$CBIPAVCIOCPBuffer@@@std@@@std@@YAPAU?$pair@$$CBIPAVCIOCPBuffer@@@0@AAU10@@Z 10002060 f i IOCPS.obj
 0001:00001060       ??$forward@ABI@std@@YAABIABI@Z 10002060 f i IOCPS.obj
 0001:00001060       ??$forward@V?$tuple@ABG@std@@@std@@YA$$QAV?$tuple@ABG@0@AAV10@@Z 10002060 f i IOCPS.obj
 0001:00001060       ??$addressof@PAU?$_List_node@PAUJobItem@@PAX@std@@@std@@YAPAPAU?$_List_node@PAUJobItem@@PAX@0@AAPAU10@@Z 10002060 f i IOCPS.obj
 0001:00001060       ?_Left@?$_Tree_val@U?$_Tree_simple_types@U?$pair@$$CBIPAVCIOCPBuffer@@@std@@@std@@@std@@SAAAPAU?$_Tree_node@U?$pair@$$CBIPAVCIOCPBuffer@@@std@@PAX@2@PAU32@@Z 10002060 f i IOCPS.obj
 0001:00001060       ??$_Kfn@$$CBIPAVCIOCPBuffer@@@?$_Tmap_traits@IPAVCIOCPBuffer@@U?$less@I@std@@V?$allocator@U?$pair@$$CBIPAVCIOCPBuffer@@@std@@@3@$0A@@std@@SAABIABU?$pair@$$CBIPAVCIOCPBuffer@@@1@@Z 10002060 f i IOCPS.obj
 0001:00001060       ??$addressof@PAD@std@@YAPAPADAAPAD@Z 10002060 f i IOCPBuffer.obj
 0001:00001060       ??$addressof@PAX@std@@YAPAPAXAAPAX@Z 10002060 f i IOCPS.obj
 0001:00001060       ??$move@AAV?$tuple@ABI@std@@@std@@YA$$QAV?$tuple@ABI@0@AAV10@@Z 10002060 f i IOCPS.obj
 0001:00001060       ??$forward@AAPAX@std@@YAAAPAXAAPAX@Z 10002060 f i IOCPS.obj
 0001:00001060       ??$forward@ABU?$less@I@std@@@std@@YAABU?$less@I@0@ABU10@@Z 10002060 f i IOCPS.obj
 0001:00001060       ??$forward@U?$pair@IPAVCIOCPBuffer@@@std@@@std@@YA$$QAU?$pair@IPAVCIOCPBuffer@@@0@AAU10@@Z 10002060 f i IOCPS.obj
 0001:00001060       ??$move@AAD@std@@YA$$QADAAD@Z 10002060 f i IOCPS.obj
 0001:00001060       ??$forward@AAPAVCIOCPBuffer@@@std@@YAAAPAVCIOCPBuffer@@AAPAV1@@Z 10002060 f i IOCPS.obj
 0001:00001060       ??$move@AAU?$_Wrap_alloc@V?$allocator@D@std@@@std@@@std@@YA$$QAU?$_Wrap_alloc@V?$allocator@D@std@@@0@AAU10@@Z 10002060 f i IOCPS.obj
 0001:00001060       ??$forward@AAPAU?$_Tree_node@U?$pair@$$CBIPAUClientContext@@@std@@PAX@std@@@std@@YAAAPAU?$_Tree_node@U?$pair@$$CBIPAUClientContext@@@std@@PAX@0@AAPAU10@@Z 10002060 f i IOCPS.obj
 0001:00001060       ??$forward@ABQAUClientContext@@@std@@YAABQAUClientContext@@ABQAU1@@Z 10002060 f i IOCPS.obj
 0001:00001060       ??$forward@ABUpiecewise_construct_t@std@@@std@@YAABUpiecewise_construct_t@0@ABU10@@Z 10002060 f i IOCPS.obj
 0001:00001060       ??$forward@U?$pair@GPAX@std@@@std@@YA$$QAU?$pair@GPAX@0@AAU10@@Z 10002060 f i IOCPS.obj
 0001:00001060       ??$addressof@PAU?$_Tree_node@U?$pair@$$CBGPAX@std@@PAX@std@@@std@@YAPAPAU?$_Tree_node@U?$pair@$$CBGPAX@std@@PAX@0@AAPAU10@@Z 10002060 f i IOCPS.obj
 0001:00001060       ??$forward@U?$_Wrap_alloc@V?$allocator@D@std@@@std@@@std@@YA$$QAU?$_Wrap_alloc@V?$allocator@D@std@@@0@AAU10@@Z 10002060 f i IOCPS.obj
 0001:00001060       ??$addressof@U?$pair@$$CBIPAUClientContext@@@std@@@std@@YAPAU?$pair@$$CBIPAUClientContext@@@0@AAU10@@Z 10002060 f i IOCPS.obj
 0001:00001060       ??$_Kfn@$$CBIPAUClientContext@@@?$_Tmap_traits@IPAUClientContext@@U?$less@I@std@@V?$allocator@U?$pair@$$CBIPAUClientContext@@@std@@@3@$0A@@std@@SAABIABU?$pair@$$CBIPAUClientContext@@@1@@Z 10002060 f i IOCPS.obj
 0001:00001060       ??$_Unfancy@D@std@@YAPADPAD@Z 10002060 f i IOCPBuffer.obj
 0001:00001060       ??$forward@AAI@std@@YAAAIAAI@Z 10002060 f i IOCPS.obj
 0001:00001060       ??$forward@V?$tuple@$$V@std@@@std@@YA$$QAV?$tuple@$$V@0@AAV10@@Z 10002060 f i IOCPS.obj
 0001:00001060       ??$addressof@PAUJobItem@@@std@@YAPAPAUJobItem@@AAPAU1@@Z 10002060 f i IOCPS.obj
 0001:00001060       ??$forward@ABQAVCIOCPBuffer@@@std@@YAABQAVCIOCPBuffer@@ABQAV1@@Z 10002060 f i IOCPS.obj
 0001:00001060       ??$forward@V?$tuple@ABI@std@@@std@@YA$$QAV?$tuple@ABI@0@AAV10@@Z 10002060 f i IOCPS.obj
 0001:00001060       ??$forward@AAPAU?$_List_node@PAUJobItem@@PAX@std@@@std@@YAAAPAU?$_List_node@PAUJobItem@@PAX@0@AAPAU10@@Z 10002060 f i IOCPS.obj
 0001:00001060       ??$forward@ABG@std@@YAABGABG@Z 10002060 f i IOCPS.obj
 0001:00001060       ?_Left@?$_Tree_val@U?$_Tree_simple_types@U?$pair@$$CBGPAX@std@@@std@@@std@@SAAAPAU?$_Tree_node@U?$pair@$$CBGPAX@std@@PAX@2@PAU32@@Z 10002060 f i IOCPS.obj
 0001:00001060       ??$addressof@PAVCIOCPBuffer@@@std@@YAPAPAVCIOCPBuffer@@AAPAV1@@Z 10002060 f i IOCPS.obj
 0001:00001060       ??$forward@AAPAU?$_List_node@PAUClientContext@@PAX@std@@@std@@YAAAPAU?$_List_node@PAUClientContext@@PAX@0@AAPAU10@@Z 10002060 f i IOCPS.obj
 0001:00001060       ??$forward@ABQAX@std@@YAABQAXABQAX@Z 10002060 f i IOCPS.obj
 0001:00001060       ??$move@AAV?$tuple@ABG@std@@@std@@YA$$QAV?$tuple@ABG@0@AAV10@@Z 10002060 f i IOCPS.obj
 0001:00001060       ??$forward@PAVCIOCPBuffer@@@std@@YA$$QAPAVCIOCPBuffer@@AAPAV1@@Z 10002060 f i IOCPS.obj
 0001:00001060       ??$addressof@U?$pair@$$CBGPAX@std@@@std@@YAPAU?$pair@$$CBGPAX@0@AAU10@@Z 10002060 f i IOCPS.obj
 0001:00001060       ?_Left@?$_Tree_val@U?$_Tree_simple_types@U?$pair@$$CBIPAUClientContext@@@std@@@std@@@std@@SAAAPAU?$_Tree_node@U?$pair@$$CBIPAUClientContext@@@std@@PAX@2@PAU32@@Z 10002060 f i IOCPS.obj
 0001:00001060       ?_Nextnode@?$_List_val@U?$_List_simple_types@PAX@std@@@std@@SAAAPAU?$_List_node@PAXPAX@2@PAU32@@Z 10002060 f i IOCPS.obj
 0001:00001060       ??$forward@I@std@@YA$$QAIAAI@Z 10002060 f i IOCPS.obj
 0001:00001060       ??$addressof@PAU?$_Tree_node@U?$pair@$$CBIPAVCIOCPBuffer@@@std@@PAX@std@@@std@@YAPAPAU?$_Tree_node@U?$pair@$$CBIPAVCIOCPBuffer@@@std@@PAX@0@AAPAU10@@Z 10002060 f i IOCPS.obj
 0001:00001060       ??$forward@AAV?$_Tree_iterator@V?$_Tree_val@U?$_Tree_simple_types@U?$pair@$$CBGPAX@std@@@std@@@std@@@std@@@std@@YAAAV?$_Tree_iterator@V?$_Tree_val@U?$_Tree_simple_types@U?$pair@$$CBGPAX@std@@@std@@@std@@@0@AAV10@@Z 10002060 f i IOCPS.obj
 0001:00001060       ??$addressof@PAU?$_List_node@PAUClientContext@@PAX@std@@@std@@YAPAPAU?$_List_node@PAUClientContext@@PAX@0@AAPAU10@@Z 10002060 f i IOCPS.obj
 0001:00001060       ??$addressof@QAVCIOCPBuffer@@@std@@YAPBQAVCIOCPBuffer@@ABQAV1@@Z 10002060 f i IOCPS.obj
 0001:00001060       ??$forward@PAX@std@@YA$$QAPAXAAPAX@Z 10002060 f i IOCPS.obj
 0001:00001070       ??$destroy@PAU?$_Tree_node@U?$pair@$$CBIPAUClientContext@@@std@@PAX@std@@@?$_Wrap_alloc@V?$allocator@U?$_Tree_node@U?$pair@$$CBIPAUClientContext@@@std@@PAX@std@@@std@@@std@@QAEXPAPAU?$_Tree_node@U?$pair@$$CBIPAUClientContext@@@std@@PAX@1@@Z 10002070 f i IOCPS.obj
 0001:00001070       ??$destroy@PAVCIOCPBuffer@@@?$_Wrap_alloc@V?$allocator@U?$_List_node@PAVCIOCPBuffer@@PAX@std@@@std@@@std@@QAEXPAPAVCIOCPBuffer@@@Z 10002070 f i IOCPS.obj
 0001:00001070       ??$destroy@PAX@?$_Wrap_alloc@V?$allocator@U?$_List_node@PAXPAX@std@@@std@@@std@@QAEXPAPAX@Z 10002070 f i IOCPS.obj
 0001:00001070       ??$destroy@PAU?$_List_node@PAXPAX@std@@@?$_Wrap_alloc@V?$allocator@U?$_List_node@PAXPAX@std@@@std@@@std@@QAEXPAPAU?$_List_node@PAXPAX@1@@Z 10002070 f i IOCPS.obj
 0001:00001070       ??$destroy@PAU?$_List_node@PAUJobItem@@PAX@std@@@?$_Wrap_alloc@V?$allocator@U?$_List_node@PAUJobItem@@PAX@std@@@std@@@std@@QAEXPAPAU?$_List_node@PAUJobItem@@PAX@1@@Z 10002070 f i IOCPS.obj
 0001:00001070       ??$destroy@PAD@?$_Wrap_alloc@V?$allocator@D@std@@@std@@QAEXPAPAD@Z 10002070 f i IOCPBuffer.obj
 0001:00001070       ??$destroy@U?$pair@$$CBIPAVCIOCPBuffer@@@std@@@?$_Wrap_alloc@V?$allocator@U?$_Tree_node@U?$pair@$$CBIPAVCIOCPBuffer@@@std@@PAX@std@@@std@@@std@@QAEXPAU?$pair@$$CBIPAVCIOCPBuffer@@@1@@Z 10002070 f i IOCPS.obj
 0001:00001070       ??$destroy@PAU?$_Tree_node@U?$pair@$$CBIPAVCIOCPBuffer@@@std@@PAX@std@@@?$_Wrap_alloc@V?$allocator@U?$_Tree_node@U?$pair@$$CBIPAVCIOCPBuffer@@@std@@PAX@std@@@std@@@std@@QAEXPAPAU?$_Tree_node@U?$pair@$$CBIPAVCIOCPBuffer@@@std@@PAX@1@@Z 10002070 f i IOCPS.obj
 0001:00001070       ??$destroy@PAU?$_Tree_node@U?$pair@$$CBGPAX@std@@PAX@std@@@?$_Wrap_alloc@V?$allocator@U?$_Tree_node@U?$pair@$$CBGPAX@std@@PAX@std@@@std@@@std@@QAEXPAPAU?$_Tree_node@U?$pair@$$CBGPAX@std@@PAX@1@@Z 10002070 f i IOCPS.obj
 0001:00001070       ??$destroy@U?$pair@$$CBIPAUClientContext@@@std@@@?$_Wrap_alloc@V?$allocator@U?$_Tree_node@U?$pair@$$CBIPAUClientContext@@@std@@PAX@std@@@std@@@std@@QAEXPAU?$pair@$$CBIPAUClientContext@@@1@@Z 10002070 f i IOCPS.obj
 0001:00001070       ??$destroy@U?$pair@$$CBGPAX@std@@@?$_Wrap_alloc@V?$allocator@U?$_Tree_node@U?$pair@$$CBGPAX@std@@PAX@std@@@std@@@std@@QAEXPAU?$pair@$$CBGPAX@1@@Z 10002070 f i IOCPS.obj
 0001:00001070       ??$destroy@PAU?$_List_node@PAUClientContext@@PAX@std@@@?$_Wrap_alloc@V?$allocator@U?$_List_node@PAUClientContext@@PAX@std@@@std@@@std@@QAEXPAPAU?$_List_node@PAUClientContext@@PAX@1@@Z 10002070 f i IOCPS.obj
 0001:00001070       ??$destroy@PAU?$_List_node@PAVCIOCPBuffer@@PAX@std@@@?$_Wrap_alloc@V?$allocator@U?$_List_node@PAVCIOCPBuffer@@PAX@std@@@std@@@std@@QAEXPAPAU?$_List_node@PAVCIOCPBuffer@@PAX@1@@Z 10002070 f i IOCPS.obj
 0001:00001070       ??$destroy@PAUJobItem@@@?$_Wrap_alloc@V?$allocator@U?$_List_node@PAUJobItem@@PAX@std@@@std@@@std@@QAEXPAPAUJobItem@@@Z 10002070 f i IOCPS.obj
 0001:00001070       ??$destroy@PAUClientContext@@@?$_Wrap_alloc@V?$allocator@U?$_List_node@PAUClientContext@@PAX@std@@@std@@@std@@QAEXPAPAUClientContext@@@Z 10002070 f i IOCPS.obj
 0001:00001090       ??$construct@PAXABQAX@?$_Wrap_alloc@V?$allocator@U?$_List_node@PAXPAX@std@@@std@@@std@@QAEXPAPAXABQAX@Z 10002090 f i IOCPS.obj
 0001:00001090       ??$construct@PAU?$_Tree_node@U?$pair@$$CBGPAX@std@@PAX@std@@AAPAU12@@?$_Wrap_alloc@V?$allocator@U?$_Tree_node@U?$pair@$$CBGPAX@std@@PAX@std@@@std@@@std@@QAEXPAPAU?$_Tree_node@U?$pair@$$CBGPAX@std@@PAX@1@AAPAU21@@Z 10002090 f i IOCPS.obj
 0001:00001090       ??$construct@PAUClientContext@@ABQAU1@@?$_Wrap_alloc@V?$allocator@U?$_List_node@PAUClientContext@@PAX@std@@@std@@@std@@QAEXPAPAUClientContext@@ABQAU2@@Z 10002090 f i IOCPS.obj
 0001:00001090       ??$construct@PAU?$_List_node@PAXPAX@std@@AAPAU12@@?$_Wrap_alloc@V?$allocator@U?$_List_node@PAXPAX@std@@@std@@@std@@QAEXPAPAU?$_List_node@PAXPAX@1@AAPAU21@@Z 10002090 f i IOCPS.obj
 0001:00001090       ??$construct@PADAAPAD@?$_Wrap_alloc@V?$allocator@D@std@@@std@@QAEXPAPADAAPAD@Z 10002090 f i IOCPBuffer.obj
 0001:00001090       ??$construct@PAU?$_List_node@PAUJobItem@@PAX@std@@AAPAU12@@?$_Wrap_alloc@V?$allocator@U?$_List_node@PAUJobItem@@PAX@std@@@std@@@std@@QAEXPAPAU?$_List_node@PAUJobItem@@PAX@1@AAPAU21@@Z 10002090 f i IOCPS.obj
 0001:00001090       ??$construct@PAU?$_List_node@PAUClientContext@@PAX@std@@AAPAU12@@?$_Wrap_alloc@V?$allocator@U?$_List_node@PAUClientContext@@PAX@std@@@std@@@std@@QAEXPAPAU?$_List_node@PAUClientContext@@PAX@1@AAPAU21@@Z 10002090 f i IOCPS.obj
 0001:00001090       ??$construct@PAU?$_Tree_node@U?$pair@$$CBIPAUClientContext@@@std@@PAX@std@@AAPAU12@@?$_Wrap_alloc@V?$allocator@U?$_Tree_node@U?$pair@$$CBIPAUClientContext@@@std@@PAX@std@@@std@@@std@@QAEXPAPAU?$_Tree_node@U?$pair@$$CBIPAUClientContext@@@std@@PAX@1@AAPAU21@@Z 10002090 f i IOCPS.obj
 0001:00001090       ??$construct@PAU?$_Tree_node@U?$pair@$$CBIPAVCIOCPBuffer@@@std@@PAX@std@@AAPAU12@@?$_Wrap_alloc@V?$allocator@U?$_Tree_node@U?$pair@$$CBIPAVCIOCPBuffer@@@std@@PAX@std@@@std@@@std@@QAEXPAPAU?$_Tree_node@U?$pair@$$CBIPAVCIOCPBuffer@@@std@@PAX@1@AAPAU21@@Z 10002090 f i IOCPS.obj
 0001:00001090       ??$construct@PAVCIOCPBuffer@@ABQAV1@@?$_Wrap_alloc@V?$allocator@U?$_List_node@PAVCIOCPBuffer@@PAX@std@@@std@@@std@@QAEXPAPAVCIOCPBuffer@@ABQAV2@@Z 10002090 f i IOCPS.obj
 0001:00001090       ??$construct@PAU?$_List_node@PAVCIOCPBuffer@@PAX@std@@AAPAU12@@?$_Wrap_alloc@V?$allocator@U?$_List_node@PAVCIOCPBuffer@@PAX@std@@@std@@@std@@QAEXPAPAU?$_List_node@PAVCIOCPBuffer@@PAX@1@AAPAU21@@Z 10002090 f i IOCPS.obj
 0001:000010c0       ??$destroy@PAVCIOCPBuffer@@@?$allocator_traits@V?$allocator@U?$_List_node@PAVCIOCPBuffer@@PAX@std@@@std@@@std@@SAXAAV?$allocator@U?$_List_node@PAVCIOCPBuffer@@PAX@std@@@1@PAPAVCIOCPBuffer@@@Z 100020c0 f i IOCPS.obj
 0001:000010c0       ??$destroy@PAX@?$allocator_traits@V?$allocator@U?$_List_node@PAXPAX@std@@@std@@@std@@SAXAAV?$allocator@U?$_List_node@PAXPAX@std@@@1@PAPAX@Z 100020c0 f i IOCPS.obj
 0001:000010c0       ??$destroy@U?$pair@$$CBGPAX@std@@@?$allocator_traits@V?$allocator@U?$_Tree_node@U?$pair@$$CBGPAX@std@@PAX@std@@@std@@@std@@SAXAAV?$allocator@U?$_Tree_node@U?$pair@$$CBGPAX@std@@PAX@std@@@1@PAU?$pair@$$CBGPAX@1@@Z 100020c0 f i IOCPS.obj
 0001:000010c0       ??$destroy@PAUClientContext@@@?$allocator_traits@V?$allocator@U?$_List_node@PAUClientContext@@PAX@std@@@std@@@std@@SAXAAV?$allocator@U?$_List_node@PAUClientContext@@PAX@std@@@1@PAPAUClientContext@@@Z 100020c0 f i IOCPS.obj
 0001:000010c0       ??$destroy@PAU?$_Tree_node@U?$pair@$$CBGPAX@std@@PAX@std@@@?$allocator_traits@V?$allocator@U?$_Tree_node@U?$pair@$$CBGPAX@std@@PAX@std@@@std@@@std@@SAXAAV?$allocator@U?$_Tree_node@U?$pair@$$CBGPAX@std@@PAX@std@@@1@PAPAU?$_Tree_node@U?$pair@$$CBGPAX@std@@PAX@1@@Z 100020c0 f i IOCPS.obj
 0001:000010c0       ??$destroy@U?$pair@$$CBIPAVCIOCPBuffer@@@std@@@?$allocator_traits@V?$allocator@U?$_Tree_node@U?$pair@$$CBIPAVCIOCPBuffer@@@std@@PAX@std@@@std@@@std@@SAXAAV?$allocator@U?$_Tree_node@U?$pair@$$CBIPAVCIOCPBuffer@@@std@@PAX@std@@@1@PAU?$pair@$$CBIPAVCIOCPBuffer@@@1@@Z 100020c0 f i IOCPS.obj
 0001:000010c0       ??$destroy@PAU?$_List_node@PAUJobItem@@PAX@std@@@?$allocator_traits@V?$allocator@U?$_List_node@PAUJobItem@@PAX@std@@@std@@@std@@SAXAAV?$allocator@U?$_List_node@PAUJobItem@@PAX@std@@@1@PAPAU?$_List_node@PAUJobItem@@PAX@1@@Z 100020c0 f i IOCPS.obj
 0001:000010c0       ??$destroy@PAD@?$allocator_traits@V?$allocator@D@std@@@std@@SAXAAV?$allocator@D@1@PAPAD@Z 100020c0 f i IOCPBuffer.obj
 0001:000010c0       ??$destroy@U?$pair@$$CBIPAUClientContext@@@std@@@?$allocator_traits@V?$allocator@U?$_Tree_node@U?$pair@$$CBIPAUClientContext@@@std@@PAX@std@@@std@@@std@@SAXAAV?$allocator@U?$_Tree_node@U?$pair@$$CBIPAUClientContext@@@std@@PAX@std@@@1@PAU?$pair@$$CBIPAUClientContext@@@1@@Z 100020c0 f i IOCPS.obj
 0001:000010c0       ??$destroy@PAU?$_List_node@PAUClientContext@@PAX@std@@@?$allocator_traits@V?$allocator@U?$_List_node@PAUClientContext@@PAX@std@@@std@@@std@@SAXAAV?$allocator@U?$_List_node@PAUClientContext@@PAX@std@@@1@PAPAU?$_List_node@PAUClientContext@@PAX@1@@Z 100020c0 f i IOCPS.obj
 0001:000010c0       ??$destroy@PAU?$_List_node@PAXPAX@std@@@?$allocator_traits@V?$allocator@U?$_List_node@PAXPAX@std@@@std@@@std@@SAXAAV?$allocator@U?$_List_node@PAXPAX@std@@@1@PAPAU?$_List_node@PAXPAX@1@@Z 100020c0 f i IOCPS.obj
 0001:000010c0       ??$destroy@PAU?$_Tree_node@U?$pair@$$CBIPAUClientContext@@@std@@PAX@std@@@?$allocator_traits@V?$allocator@U?$_Tree_node@U?$pair@$$CBIPAUClientContext@@@std@@PAX@std@@@std@@@std@@SAXAAV?$allocator@U?$_Tree_node@U?$pair@$$CBIPAUClientContext@@@std@@PAX@std@@@1@PAPAU?$_Tree_node@U?$pair@$$CBIPAUClientContext@@@std@@PAX@1@@Z 100020c0 f i IOCPS.obj
 0001:000010c0       ??$destroy@PAU?$_Tree_node@U?$pair@$$CBIPAVCIOCPBuffer@@@std@@PAX@std@@@?$allocator_traits@V?$allocator@U?$_Tree_node@U?$pair@$$CBIPAVCIOCPBuffer@@@std@@PAX@std@@@std@@@std@@SAXAAV?$allocator@U?$_Tree_node@U?$pair@$$CBIPAVCIOCPBuffer@@@std@@PAX@std@@@1@PAPAU?$_Tree_node@U?$pair@$$CBIPAVCIOCPBuffer@@@std@@PAX@1@@Z 100020c0 f i IOCPS.obj
 0001:000010c0       ??$destroy@PAU?$_List_node@PAVCIOCPBuffer@@PAX@std@@@?$allocator_traits@V?$allocator@U?$_List_node@PAVCIOCPBuffer@@PAX@std@@@std@@@std@@SAXAAV?$allocator@U?$_List_node@PAVCIOCPBuffer@@PAX@std@@@1@PAPAU?$_List_node@PAVCIOCPBuffer@@PAX@1@@Z 100020c0 f i IOCPS.obj
 0001:000010c0       ??$destroy@PAUJobItem@@@?$allocator_traits@V?$allocator@U?$_List_node@PAUJobItem@@PAX@std@@@std@@@std@@SAXAAV?$allocator@U?$_List_node@PAUJobItem@@PAX@std@@@1@PAPAUJobItem@@@Z 100020c0 f i IOCPS.obj
 0001:000010e0       ??$construct@PAU?$_List_node@PAXPAX@std@@AAPAU12@@?$allocator_traits@V?$allocator@U?$_List_node@PAXPAX@std@@@std@@@std@@SAXAAV?$allocator@U?$_List_node@PAXPAX@std@@@1@PAPAU?$_List_node@PAXPAX@1@AAPAU31@@Z 100020e0 f i IOCPS.obj
 0001:000010e0       ??$construct@PAU?$_Tree_node@U?$pair@$$CBIPAVCIOCPBuffer@@@std@@PAX@std@@AAPAU12@@?$allocator_traits@V?$allocator@U?$_Tree_node@U?$pair@$$CBIPAVCIOCPBuffer@@@std@@PAX@std@@@std@@@std@@SAXAAV?$allocator@U?$_Tree_node@U?$pair@$$CBIPAVCIOCPBuffer@@@std@@PAX@std@@@1@PAPAU?$_Tree_node@U?$pair@$$CBIPAVCIOCPBuffer@@@std@@PAX@1@AAPAU31@@Z 100020e0 f i IOCPS.obj
 0001:000010e0       ??$construct@PADAAPAD@?$allocator_traits@V?$allocator@D@std@@@std@@SAXAAV?$allocator@D@1@PAPADAAPAD@Z 100020e0 f i IOCPBuffer.obj
 0001:000010e0       ??$construct@PAVCIOCPBuffer@@ABQAV1@@?$allocator_traits@V?$allocator@U?$_List_node@PAVCIOCPBuffer@@PAX@std@@@std@@@std@@SAXAAV?$allocator@U?$_List_node@PAVCIOCPBuffer@@PAX@std@@@1@PAPAVCIOCPBuffer@@ABQAV3@@Z 100020e0 f i IOCPS.obj
 0001:000010e0       ??$construct@PAU?$_Tree_node@U?$pair@$$CBGPAX@std@@PAX@std@@AAPAU12@@?$allocator_traits@V?$allocator@U?$_Tree_node@U?$pair@$$CBGPAX@std@@PAX@std@@@std@@@std@@SAXAAV?$allocator@U?$_Tree_node@U?$pair@$$CBGPAX@std@@PAX@std@@@1@PAPAU?$_Tree_node@U?$pair@$$CBGPAX@std@@PAX@1@AAPAU31@@Z 100020e0 f i IOCPS.obj
 0001:000010e0       ??$construct@PAU?$_Tree_node@U?$pair@$$CBIPAUClientContext@@@std@@PAX@std@@AAPAU12@@?$allocator_traits@V?$allocator@U?$_Tree_node@U?$pair@$$CBIPAUClientContext@@@std@@PAX@std@@@std@@@std@@SAXAAV?$allocator@U?$_Tree_node@U?$pair@$$CBIPAUClientContext@@@std@@PAX@std@@@1@PAPAU?$_Tree_node@U?$pair@$$CBIPAUClientContext@@@std@@PAX@1@AAPAU31@@Z 100020e0 f i IOCPS.obj
 0001:000010e0       ??$construct@PAXABQAX@?$allocator_traits@V?$allocator@U?$_List_node@PAXPAX@std@@@std@@@std@@SAXAAV?$allocator@U?$_List_node@PAXPAX@std@@@1@PAPAXABQAX@Z 100020e0 f i IOCPS.obj
 0001:000010e0       ??$construct@PAU?$_List_node@PAUJobItem@@PAX@std@@AAPAU12@@?$allocator_traits@V?$allocator@U?$_List_node@PAUJobItem@@PAX@std@@@std@@@std@@SAXAAV?$allocator@U?$_List_node@PAUJobItem@@PAX@std@@@1@PAPAU?$_List_node@PAUJobItem@@PAX@1@AAPAU31@@Z 100020e0 f i IOCPS.obj
 0001:000010e0       ??$construct@PAUClientContext@@ABQAU1@@?$allocator_traits@V?$allocator@U?$_List_node@PAUClientContext@@PAX@std@@@std@@@std@@SAXAAV?$allocator@U?$_List_node@PAUClientContext@@PAX@std@@@1@PAPAUClientContext@@ABQAU3@@Z 100020e0 f i IOCPS.obj
 0001:000010e0       ??$construct@PAU?$_List_node@PAVCIOCPBuffer@@PAX@std@@AAPAU12@@?$allocator_traits@V?$allocator@U?$_List_node@PAVCIOCPBuffer@@PAX@std@@@std@@@std@@SAXAAV?$allocator@U?$_List_node@PAVCIOCPBuffer@@PAX@std@@@1@PAPAU?$_List_node@PAVCIOCPBuffer@@PAX@1@AAPAU31@@Z 100020e0 f i IOCPS.obj
 0001:000010e0       ??$construct@PAU?$_List_node@PAUClientContext@@PAX@std@@AAPAU12@@?$allocator_traits@V?$allocator@U?$_List_node@PAUClientContext@@PAX@std@@@std@@@std@@SAXAAV?$allocator@U?$_List_node@PAUClientContext@@PAX@std@@@1@PAPAU?$_List_node@PAUClientContext@@PAX@1@AAPAU31@@Z 100020e0 f i IOCPS.obj
 0001:00001100       ??$destroy@U?$pair@$$CBIPAVCIOCPBuffer@@@std@@@?$allocator@U?$_Tree_node@U?$pair@$$CBIPAVCIOCPBuffer@@@std@@PAX@std@@@std@@QAEXPAU?$pair@$$CBIPAVCIOCPBuffer@@@1@@Z 10002100 f i IOCPS.obj
 0001:00001100       ??$destroy@PAX@?$allocator@U?$_List_node@PAXPAX@std@@@std@@QAEXPAPAX@Z 10002100 f i IOCPS.obj
 0001:00001100       ??$destroy@U?$pair@$$CBGPAX@std@@@?$allocator@U?$_Tree_node@U?$pair@$$CBGPAX@std@@PAX@std@@@std@@QAEXPAU?$pair@$$CBGPAX@1@@Z 10002100 f i IOCPS.obj
 0001:00001100       ??$destroy@PAUJobItem@@@?$allocator@U?$_List_node@PAUJobItem@@PAX@std@@@std@@QAEXPAPAUJobItem@@@Z 10002100 f i IOCPS.obj
 0001:00001100       ??$destroy@PAD@?$allocator@D@std@@QAEXPAPAD@Z 10002100 f i IOCPBuffer.obj
 0001:00001100       ??$destroy@PAU?$_List_node@PAUJobItem@@PAX@std@@@?$allocator@U?$_List_node@PAUJobItem@@PAX@std@@@std@@QAEXPAPAU?$_List_node@PAUJobItem@@PAX@1@@Z 10002100 f i IOCPS.obj
 0001:00001100       ??$destroy@PAU?$_List_node@PAUClientContext@@PAX@std@@@?$allocator@U?$_List_node@PAUClientContext@@PAX@std@@@std@@QAEXPAPAU?$_List_node@PAUClientContext@@PAX@1@@Z 10002100 f i IOCPS.obj
 0001:00001100       ??$destroy@PAU?$_Tree_node@U?$pair@$$CBIPAUClientContext@@@std@@PAX@std@@@?$allocator@U?$_Tree_node@U?$pair@$$CBIPAUClientContext@@@std@@PAX@std@@@std@@QAEXPAPAU?$_Tree_node@U?$pair@$$CBIPAUClientContext@@@std@@PAX@1@@Z 10002100 f i IOCPS.obj
 0001:00001100       ??$destroy@PAU?$_List_node@PAVCIOCPBuffer@@PAX@std@@@?$allocator@U?$_List_node@PAVCIOCPBuffer@@PAX@std@@@std@@QAEXPAPAU?$_List_node@PAVCIOCPBuffer@@PAX@1@@Z 10002100 f i IOCPS.obj
 0001:00001100       ??$destroy@PAU?$_Tree_node@U?$pair@$$CBIPAVCIOCPBuffer@@@std@@PAX@std@@@?$allocator@U?$_Tree_node@U?$pair@$$CBIPAVCIOCPBuffer@@@std@@PAX@std@@@std@@QAEXPAPAU?$_Tree_node@U?$pair@$$CBIPAVCIOCPBuffer@@@std@@PAX@1@@Z 10002100 f i IOCPS.obj
 0001:00001100       ?_Adopt@_Iterator_base0@std@@QAEXPBX@Z 10002100 f i IOCPS.obj
 0001:00001100       ??$destroy@PAUClientContext@@@?$allocator@U?$_List_node@PAUClientContext@@PAX@std@@@std@@QAEXPAPAUClientContext@@@Z 10002100 f i IOCPS.obj
 0001:00001100       ?NotifyNewClientContext@IOCPS@@MAEXPAUClientContext@@@Z 10002100 f i IOCPS.obj
 0001:00001100       ?NotifyDisconnectedClient@IOCPS@@MAEXPAUClientContext@@@Z 10002100 f i IOCPS.obj
 0001:00001100       ??$destroy@PAU?$_List_node@PAXPAX@std@@@?$allocator@U?$_List_node@PAXPAX@std@@@std@@QAEXPAPAU?$_List_node@PAXPAX@1@@Z 10002100 f i IOCPS.obj
 0001:00001100       ??$destroy@PAU?$_Tree_node@U?$pair@$$CBGPAX@std@@PAX@std@@@?$allocator@U?$_Tree_node@U?$pair@$$CBGPAX@std@@PAX@std@@@std@@QAEXPAPAU?$_Tree_node@U?$pair@$$CBGPAX@std@@PAX@1@@Z 10002100 f i IOCPS.obj
 0001:00001100       ?NotifyFileCompleted@IOCPS@@MAEXPAUClientContext@@@Z 10002100 f i IOCPS.obj
 0001:00001100       ??$destroy@PAVCIOCPBuffer@@@?$allocator@U?$_List_node@PAVCIOCPBuffer@@PAX@std@@@std@@QAEXPAPAVCIOCPBuffer@@@Z 10002100 f i IOCPS.obj
 0001:00001100       ??$destroy@U?$pair@$$CBIPAUClientContext@@@std@@@?$allocator@U?$_Tree_node@U?$pair@$$CBIPAUClientContext@@@std@@PAX@std@@@std@@QAEXPAU?$pair@$$CBIPAUClientContext@@@1@@Z 10002100 f i IOCPS.obj
 0001:00001100       ?NotifyNewConnection@IOCPS@@MAEXPAUClientContext@@@Z 10002100 f i IOCPS.obj
 0001:00001100       ?NotifyContextRelease@IOCPS@@MAEXPAUClientContext@@@Z 10002100 f i IOCPS.obj
 0001:00001110       ??$construct@PAU?$_List_node@PAUClientContext@@PAX@std@@AAPAU12@@?$allocator@U?$_List_node@PAUClientContext@@PAX@std@@@std@@QAEXPAPAU?$_List_node@PAUClientContext@@PAX@1@AAPAU21@@Z 10002110 f i IOCPS.obj
 0001:00001110       ??$construct@PAU?$_Tree_node@U?$pair@$$CBIPAUClientContext@@@std@@PAX@std@@AAPAU12@@?$allocator@U?$_Tree_node@U?$pair@$$CBIPAUClientContext@@@std@@PAX@std@@@std@@QAEXPAPAU?$_Tree_node@U?$pair@$$CBIPAUClientContext@@@std@@PAX@1@AAPAU21@@Z 10002110 f i IOCPS.obj
 0001:00001110       ??$construct@PAU?$_Tree_node@U?$pair@$$CBIPAVCIOCPBuffer@@@std@@PAX@std@@AAPAU12@@?$allocator@U?$_Tree_node@U?$pair@$$CBIPAVCIOCPBuffer@@@std@@PAX@std@@@std@@QAEXPAPAU?$_Tree_node@U?$pair@$$CBIPAVCIOCPBuffer@@@std@@PAX@1@AAPAU21@@Z 10002110 f i IOCPS.obj
 0001:00001110       ??$construct@PAXABQAX@?$allocator@U?$_List_node@PAXPAX@std@@@std@@QAEXPAPAXABQAX@Z 10002110 f i IOCPS.obj
 0001:00001110       ??$construct@PAU?$_List_node@PAXPAX@std@@AAPAU12@@?$allocator@U?$_List_node@PAXPAX@std@@@std@@QAEXPAPAU?$_List_node@PAXPAX@1@AAPAU21@@Z 10002110 f i IOCPS.obj
 0001:00001110       ??$construct@PADAAPAD@?$allocator@D@std@@QAEXPAPADAAPAD@Z 10002110 f i IOCPBuffer.obj
 0001:00001110       ??$construct@PAU?$_List_node@PAVCIOCPBuffer@@PAX@std@@AAPAU12@@?$allocator@U?$_List_node@PAVCIOCPBuffer@@PAX@std@@@std@@QAEXPAPAU?$_List_node@PAVCIOCPBuffer@@PAX@1@AAPAU21@@Z 10002110 f i IOCPS.obj
 0001:00001110       ??$construct@PAVCIOCPBuffer@@ABQAV1@@?$allocator@U?$_List_node@PAVCIOCPBuffer@@PAX@std@@@std@@QAEXPAPAVCIOCPBuffer@@ABQAV2@@Z 10002110 f i IOCPS.obj
 0001:00001110       ??$construct@PAU?$_List_node@PAUJobItem@@PAX@std@@AAPAU12@@?$allocator@U?$_List_node@PAUJobItem@@PAX@std@@@std@@QAEXPAPAU?$_List_node@PAUJobItem@@PAX@1@AAPAU21@@Z 10002110 f i IOCPS.obj
 0001:00001110       ??$construct@PAU?$_Tree_node@U?$pair@$$CBGPAX@std@@PAX@std@@AAPAU12@@?$allocator@U?$_Tree_node@U?$pair@$$CBGPAX@std@@PAX@std@@@std@@QAEXPAPAU?$_Tree_node@U?$pair@$$CBGPAX@std@@PAX@1@AAPAU21@@Z 10002110 f i IOCPS.obj
 0001:00001110       ??$construct@PAUClientContext@@ABQAU1@@?$allocator@U?$_List_node@PAUClientContext@@PAX@std@@@std@@QAEXPAPAUClientContext@@ABQAU2@@Z 10002110 f i IOCPS.obj
 0001:00001160       ??2@YAPAXIPAX@Z            10002160 f i IOCPBuffer.obj
 0001:00001170       ?_Allocate@std@@YAPAXII_N@Z 10002170 f i IOCPBuffer.obj
 0001:00001230       ?move@?$char_traits@D@std@@SAPADPADPBDI@Z 10002230 f i IOCPBuffer.obj
 0001:00001270       ?_Deallocate@std@@YAXPAXII@Z 10002270 f i IOCPBuffer.obj
 0001:00001310       ?assign@?$char_traits@D@std@@SAXAADABD@Z 10002310 f i IOCPBuffer.obj
 0001:00001320       ?length@?$char_traits@D@std@@SAIPBD@Z 10002320 f i IOCPBuffer.obj
 0001:00001370       ?copy@?$char_traits@D@std@@SAPADPADPBDI@Z 10002370 f i IOCPBuffer.obj
 0001:000013a0       ?c_str@?$basic_string@DU?$char_traits@D@std@@V?$allocator@D@2@@std@@QBEPBDXZ 100023a0 f i IOCPBuffer.obj
 0001:000013e0       ??1Socket@@UAE@XZ          100023e0 f i IOCPS.obj
 0001:00001400       ??_ESocket@@UAEPAXI@Z      10002400 f i * CIL library *:* CIL module *
 0001:00001400       ??_GSocket@@UAEPAXI@Z      10002400 f i IOCPS.obj
 0001:00001430       ??0IOCPS@@QAE@XZ           10002430 f   IOCPS.obj
 0001:000016d0       ??_GIOCPS@@UAEPAXI@Z       100026d0 f i IOCPS.obj
 0001:000016d0       ??_EIOCPS@@UAEPAXI@Z       100026d0 f i * CIL library *:* CIL module *
 0001:00001710       ??0Socket@@QAE@XZ          10002710 f i IOCPS.obj
 0001:00001730       ??1?$map@IPAVCIOCPBuffer@@U?$less@I@std@@V?$allocator@U?$pair@$$CBIPAVCIOCPBuffer@@@std@@@3@@std@@QAE@XZ 10002730 f i IOCPS.obj
 0001:00001730       ??1?$map@GPAXU?$less@G@std@@V?$allocator@U?$pair@$$CBGPAX@std@@@2@@std@@QAE@XZ 10002730 f i IOCPS.obj
 0001:00001730       ??1?$map@IPAUClientContext@@U?$less@I@std@@V?$allocator@U?$pair@$$CBIPAUClientContext@@@std@@@3@@std@@QAE@XZ 10002730 f i IOCPS.obj
 0001:00001750       ??1IOCPS@@UAE@XZ           10002750 f   IOCPS.obj
 0001:00001820       ?Start@IOCPS@@UAEHHHHHHHHHH@Z 10002820 f   IOCPS.obj
 0001:000018d0       ?Startup@IOCPS@@QAEHXZ     100028d0 f   IOCPS.obj
 0001:00001a40       ?ListnerThreadProc@IOCPS@@CGIPAX@Z 10002a40 f   IOCPS.obj
 0001:00001c40       ?IOWorkerThreadProc@IOCPS@@CGIPAX@Z 10002c40 f   IOCPS.obj
 0001:00001dd0       ?AssociateIncomingClientWithContext@IOCPS@@AAEHI@Z 10002dd0 f i IOCPS.obj
 0001:00002280       ?AssociateSocketWithCompletionPort@IOCPS@@AAEHIPAXK@Z 10003280 f i IOCPS.obj
 0001:000022d0       ?AddClientContext@IOCPS@@AAEHPAUClientContext@@@Z 100032d0 f i IOCPS.obj
 0001:000023a0       ?FreeClientContext@IOCPS@@AAEXXZ 100033a0 f i IOCPS.obj
 0001:00002650       ??_GClientContext@@QAEPAXI@Z 10003650 f i IOCPS.obj
 0001:00002680       ??1ClientContext@@QAE@XZ   10003680 f i IOCPS.obj
 0001:000026b0       ?ProcessIOMessage@IOCPS@@AAEXPAVCIOCPBuffer@@PAUClientContext@@K@Z 100036b0 f i IOCPS.obj
 0001:000027d0       ?OnInitialize@IOCPS@@AAEXPAUClientContext@@KPAVCIOCPBuffer@@@Z 100037d0 f i IOCPS.obj
 0001:00002860       ?OnRead@IOCPS@@AAEXPAUClientContext@@PAVCIOCPBuffer@@@Z 10003860 f i IOCPS.obj
 0001:00002ac0       ?OnPostedPackage@IOCPS@@AAEXPAUClientContext@@PAVCIOCPBuffer@@@Z 10003ac0 f i IOCPS.obj
 0001:00002b60       ?OnReadCompleted@IOCPS@@AAEXPAUClientContext@@KPAVCIOCPBuffer@@@Z 10003b60 f i IOCPS.obj
 0001:00002ce0       ?ProcessPackage@IOCPS@@AAEXPAUClientContext@@KPAVCIOCPBuffer@@@Z 10003ce0 f i IOCPS.obj
 0001:00002fd0       ?OnWrite@IOCPS@@AAEXPAUClientContext@@KPAVCIOCPBuffer@@@Z 10003fd0 f i IOCPS.obj
 0001:00003210       ?OnWriteCompleted@IOCPS@@AAEXPAUClientContext@@KPAVCIOCPBuffer@@@Z 10004210 f i IOCPS.obj
 0001:00003290       ?ASend@IOCPS@@QAEHHPAVCIOCPBuffer@@@Z 10004290 f   IOCPS.obj
 0001:00003310       ?FindClient@IOCPS@@QAEPAUClientContext@@I@Z 10004310 f   IOCPS.obj
 0001:00003350       ?GetHostKeyName@IOCPS@@QAE?AV?$basic_string@DU?$char_traits@D@std@@V?$allocator@D@2@@std@@I@Z 10004350 f   IOCPS.obj
 0001:00003410       ?GetHostAddress@IOCPS@@QAE?AV?$basic_string@DU?$char_traits@D@std@@V?$allocator@D@2@@std@@I@Z 10004410 f   IOCPS.obj
 0001:000034f0       ?ASend@IOCPS@@IAEHPAUClientContext@@PAVCIOCPBuffer@@@Z 100044f0 f   IOCPS.obj
 0001:000035d0       ?DisconnectClient@IOCPS@@AAEXPAUClientContext@@H@Z 100045d0 f i IOCPS.obj
 0001:00003740       ?DisconnectClient@IOCPS@@UAEXI@Z 10004740 f   IOCPS.obj
 0001:000037b0       ?ReleaseBufferMap@IOCPS@@AAEXPAV?$map@IPAVCIOCPBuffer@@U?$less@I@std@@V?$allocator@U?$pair@$$CBIPAVCIOCPBuffer@@@std@@@3@@std@@@Z 100047b0 f i IOCPS.obj
 0001:00003830       ?AbortiveClose@IOCPS@@AAEXPAUClientContext@@@Z 10004830 f i IOCPS.obj
 0001:00003920       ?ShutDown@IOCPS@@UAEXXZ    10004920 f   IOCPS.obj
 0001:00003a20       ?OnZeroByteRead@IOCPS@@AAEXPAUClientContext@@PAVCIOCPBuffer@@@Z 10004a20 f i IOCPS.obj
 0001:00003c50       ?OnZeroByteReadCompleted@IOCPS@@AAEXPAUClientContext@@KPAVCIOCPBuffer@@@Z 10004c50 f i IOCPS.obj
 0001:00003c80       ?ARead@IOCPS@@AAEHPAUClientContext@@PAVCIOCPBuffer@@@Z 10004c80 f i IOCPS.obj
 0001:00003d50       ?AZeroByteRead@IOCPS@@AAEHPAUClientContext@@PAVCIOCPBuffer@@@Z 10004d50 f i IOCPS.obj
 0001:00003ee0       ?ErrorCode2Text@IOCPS@@IAE?AV?$basic_string@DU?$char_traits@D@std@@V?$allocator@D@2@@std@@K@Z 10004ee0 f   IOCPS.obj
 0001:00004190       ?EnterIOLoop@IOCPS@@AAEXPAUClientContext@@@Z 10005190 f i IOCPS.obj
 0001:000041d0       ?ExitIOLoop@IOCPS@@AAEHPAUClientContext@@@Z 100051d0 f i IOCPS.obj
 0001:00004230       ?DisconnectAll@IOCPS@@UAEXXZ 10005230 f   IOCPS.obj
 0001:000042e0       ?ShutDownIOWorkers@IOCPS@@AAEXXZ 100052e0 f i IOCPS.obj
 0001:000043c0       ?SetWorkers@IOCPS@@QAEHH@Z 100053c0 f   IOCPS.obj
 0001:000045f0       ?WorkerThreadProc@IOCPS@@CGIPAX@Z 100055f0 f   IOCPS.obj
 0001:00004690       ?GetWorker@IOCPS@@AAEPAXG@Z 10005690 f   IOCPS.obj
 0001:000046e0       ?ShutDownWorkers@IOCPS@@AAEXXZ 100056e0 f i IOCPS.obj
 0001:000047c0       ?FreeJob@IOCPS@@QAEXPAUJobItem@@@Z 100057c0 f i IOCPS.obj
 0001:00004800       ??_GJobItem@@QAEPAXI@Z     10005800 f i IOCPS.obj
 0001:00004830       ??1JobItem@@QAE@XZ         10005830 f i IOCPS.obj
 0001:00004850       ?GetJob@IOCPS@@QAEPAUJobItem@@XZ 10005850 f   IOCPS.obj
 0001:000048c0       ?ProcessJob@IOCPS@@UAEXPAUJobItem@@PAV1@@Z 100058c0 f i IOCPS.obj
 0001:000048d0       ?NotifyWriteCompleted@IOCPS@@MAEXPAUClientContext@@KPAVCIOCPBuffer@@@Z 100058d0 f i IOCPS.obj
 0001:000048d0       ?NotifyReceivedPackage@IOCPS@@MAEXPAVCIOCPBuffer@@HPAUClientContext@@@Z 100058d0 f i IOCPS.obj
 0001:000048e0       ?AllocateContext@IOCPS@@AAEPAUClientContext@@XZ 100058e0 f i IOCPS.obj
 0001:00004a90       ??0ClientContext@@QAE@XZ   10005a90 f i IOCPS.obj
 0001:00004b00       ?AllocateBuffer@IOCPS@@IAEPAVCIOCPBuffer@@H@Z 10005b00 f   IOCPS.obj
 0001:00004cc0       ?ReleaseBuffer@IOCPS@@IAEHPAVCIOCPBuffer@@@Z 10005cc0 f   IOCPS.obj
 0001:00004da0       ?ReleaseClientContext@IOCPS@@AAEHPAUClientContext@@@Z 10005da0 f i IOCPS.obj
 0001:00004f00       ?FreeBuffers@IOCPS@@AAEXXZ 10005f00 f i IOCPS.obj
 0001:00005070       ?SplitBuffer@IOCPS@@AAEPAVCIOCPBuffer@@PAV2@I@Z 10006070 f i IOCPS.obj
 0001:00005140       ?AddAndFlush@IOCPS@@AAEHPAVCIOCPBuffer@@0I@Z 10006140 f i IOCPS.obj
 0001:000051a0       ?SetupListner@IOCPS@@AAEHXZ 100061a0 f   IOCPS.obj
 0001:00005690       ?CreateCompletionPort@IOCPS@@AAEHXZ 10006690 f i IOCPS.obj
 0001:00005810       ?SetupIOWorkers@IOCPS@@AAEHXZ 10006810 f   IOCPS.obj
 0001:00005940       ?Connect@IOCPS@@UAEHABV?$basic_string@DU?$char_traits@D@std@@V?$allocator@D@2@@std@@H@Z 10006940 f   IOCPS.obj
 0001:00005b40       ?GetNextSendBuffer@IOCPS@@AAEPAVCIOCPBuffer@@PAUClientContext@@PAV2@@Z 10006b40 f i IOCPS.obj
 0001:00005c50       ?SetSendSequenceNumber@IOCPS@@AAEXPAUClientContext@@PAVCIOCPBuffer@@@Z 10006c50 f i IOCPS.obj
 0001:00005cb0       ?GetNextReadBuffer@IOCPS@@AAEPAVCIOCPBuffer@@PAUClientContext@@PAV2@@Z 10006cb0 f i IOCPS.obj
 0001:00005e10       ?MakeOrderdRead@IOCPS@@AAEXPAUClientContext@@PAVCIOCPBuffer@@@Z 10006e10 f i IOCPS.obj
 0001:00005f90       ?IncreaseReadSequenceNumber@IOCPS@@AAEXPAUClientContext@@@Z 10006f90 f i IOCPS.obj
 0001:00005fe0       ?IncreaseSendSequenceNumber@IOCPS@@AAEXPAUClientContext@@@Z 10006fe0 f i IOCPS.obj
 0001:00006030       ?AppendLog@ITIOCP@@UAEXV?$basic_string@DU?$char_traits@D@std@@V?$allocator@D@2@@std@@@Z 10007030 f   MyIOCP.obj
 0001:00006030       ?AppendLog@IOCPS@@MAEXV?$basic_string@DU?$char_traits@D@std@@V?$allocator@D@2@@std@@@Z 10007030 f   IOCPS.obj
 0001:00006050       ?RegisterEvents@IOCPS@@UAEXPAVISocketEvents@@@Z 10007050 f   IOCPS.obj
 0001:00006070       ??E?$_Tree_iterator@V?$_Tree_val@U?$_Tree_simple_types@U?$pair@$$CBGPAX@std@@@std@@@std@@@std@@QAE?AV01@H@Z 10007070 f i IOCPS.obj
 0001:00006070       ??E?$_Tree_iterator@V?$_Tree_val@U?$_Tree_simple_types@U?$pair@$$CBIPAVCIOCPBuffer@@@std@@@std@@@std@@@std@@QAE?AV01@H@Z 10007070 f i IOCPS.obj
 0001:00006070       ??E?$_Tree_iterator@V?$_Tree_val@U?$_Tree_simple_types@U?$pair@$$CBIPAUClientContext@@@std@@@std@@@std@@@std@@QAE?AV01@H@Z 10007070 f i IOCPS.obj
 0001:000060a0       ??D?$_Tree_iterator@V?$_Tree_val@U?$_Tree_simple_types@U?$pair@$$CBIPAVCIOCPBuffer@@@std@@@std@@@std@@@std@@QBEAAU?$pair@$$CBIPAVCIOCPBuffer@@@1@XZ 100070a0 f i IOCPS.obj
 0001:000060a0       ??D?$_Tree_iterator@V?$_Tree_val@U?$_Tree_simple_types@U?$pair@$$CBIPAUClientContext@@@std@@@std@@@std@@@std@@QBEAAU?$pair@$$CBIPAUClientContext@@@1@XZ 100070a0 f i IOCPS.obj
 0001:000060a0       ??D?$_Tree_iterator@V?$_Tree_val@U?$_Tree_simple_types@U?$pair@$$CBGPAX@std@@@std@@@std@@@std@@QBEAAU?$pair@$$CBGPAX@1@XZ 100070a0 f i IOCPS.obj
 0001:000060c0       ??9?$_Tree_const_iterator@V?$_Tree_val@U?$_Tree_simple_types@U?$pair@$$CBIPAVCIOCPBuffer@@@std@@@std@@@std@@@std@@QBE_NABV01@@Z 100070c0 f i IOCPS.obj
 0001:000060c0       ??9?$_List_const_iterator@V?$_List_val@U?$_List_simple_types@PAX@std@@@std@@@std@@QBE_NABV01@@Z 100070c0 f i IOCPS.obj
 0001:000060c0       ??9?$_List_const_iterator@V?$_List_val@U?$_List_simple_types@PAVCIOCPBuffer@@@std@@@std@@@std@@QBE_NABV01@@Z 100070c0 f i IOCPS.obj
 0001:000060c0       ??9?$_Tree_const_iterator@V?$_Tree_val@U?$_Tree_simple_types@U?$pair@$$CBGPAX@std@@@std@@@std@@@std@@QBE_NABV01@@Z 100070c0 f i IOCPS.obj
 0001:000060c0       ??9?$_Tree_const_iterator@V?$_Tree_val@U?$_Tree_simple_types@U?$pair@$$CBIPAUClientContext@@@std@@@std@@@std@@@std@@QBE_NABV01@@Z 100070c0 f i IOCPS.obj
 0001:000060c0       ??9?$_List_const_iterator@V?$_List_val@U?$_List_simple_types@PAUJobItem@@@std@@@std@@@std@@QBE_NABV01@@Z 100070c0 f i IOCPS.obj
 0001:000060c0       ??9?$_List_const_iterator@V?$_List_val@U?$_List_simple_types@PAUClientContext@@@std@@@std@@@std@@QBE_NABV01@@Z 100070c0 f i IOCPS.obj
 0001:00006100       ?find@?$_Tree@V?$_Tmap_traits@IPAVCIOCPBuffer@@U?$less@I@std@@V?$allocator@U?$pair@$$CBIPAVCIOCPBuffer@@@std@@@3@$0A@@std@@@std@@QAE?AV?$_Tree_iterator@V?$_Tree_val@U?$_Tree_simple_types@U?$pair@$$CBIPAVCIOCPBuffer@@@std@@@std@@@std@@@2@ABI@Z 10007100 f i IOCPS.obj
 0001:00006100       ?find@?$_Tree@V?$_Tmap_traits@IPAUClientContext@@U?$less@I@std@@V?$allocator@U?$pair@$$CBIPAUClientContext@@@std@@@3@$0A@@std@@@std@@QAE?AV?$_Tree_iterator@V?$_Tree_val@U?$_Tree_simple_types@U?$pair@$$CBIPAUClientContext@@@std@@@std@@@std@@@2@ABI@Z 10007100 f i IOCPS.obj
 0001:000061a0       ?clear@?$_Tree@V?$_Tmap_traits@IPAVCIOCPBuffer@@U?$less@I@std@@V?$allocator@U?$pair@$$CBIPAVCIOCPBuffer@@@std@@@3@$0A@@std@@@std@@QAEXXZ 100071a0 f i IOCPS.obj
 0001:000061a0       ?clear@?$_Tree@V?$_Tmap_traits@IPAUClientContext@@U?$less@I@std@@V?$allocator@U?$pair@$$CBIPAUClientContext@@@std@@@3@$0A@@std@@@std@@QAEXXZ 100071a0 f i IOCPS.obj
 0001:000061a0       ?clear@?$_Tree@V?$_Tmap_traits@GPAXU?$less@G@std@@V?$allocator@U?$pair@$$CBGPAX@std@@@2@$0A@@std@@@std@@QAEXXZ 100071a0 f i IOCPS.obj
 0001:00006240       ?erase@?$_Tree@V?$_Tmap_traits@IPAUClientContext@@U?$less@I@std@@V?$allocator@U?$pair@$$CBIPAUClientContext@@@std@@@3@$0A@@std@@@std@@QAE?AV?$_Tree_iterator@V?$_Tree_val@U?$_Tree_simple_types@U?$pair@$$CBIPAUClientContext@@@std@@@std@@@std@@@2@V?$_Tree_const_iterator@V?$_Tree_val@U?$_Tree_simple_types@U?$pair@$$CBIPAUClientContext@@@std@@@std@@@std@@@2@@Z 10007240 f i IOCPS.obj
 0001:00006240       ?erase@?$_Tree@V?$_Tmap_traits@GPAXU?$less@G@std@@V?$allocator@U?$pair@$$CBGPAX@std@@@2@$0A@@std@@@std@@QAE?AV?$_Tree_iterator@V?$_Tree_val@U?$_Tree_simple_types@U?$pair@$$CBGPAX@std@@@std@@@std@@@2@V?$_Tree_const_iterator@V?$_Tree_val@U?$_Tree_simple_types@U?$pair@$$CBGPAX@std@@@std@@@std@@@2@@Z 10007240 f i IOCPS.obj
 0001:00006240       ?erase@?$_Tree@V?$_Tmap_traits@IPAVCIOCPBuffer@@U?$less@I@std@@V?$allocator@U?$pair@$$CBIPAVCIOCPBuffer@@@std@@@3@$0A@@std@@@std@@QAE?AV?$_Tree_iterator@V?$_Tree_val@U?$_Tree_simple_types@U?$pair@$$CBIPAVCIOCPBuffer@@@std@@@std@@@std@@@2@V?$_Tree_const_iterator@V?$_Tree_val@U?$_Tree_simple_types@U?$pair@$$CBIPAVCIOCPBuffer@@@std@@@std@@@std@@@2@@Z 10007240 f i IOCPS.obj
 0001:000069c0       ?empty@?$_Tree@V?$_Tmap_traits@IPAUClientContext@@U?$less@I@std@@V?$allocator@U?$pair@$$CBIPAUClientContext@@@std@@@3@$0A@@std@@@std@@QBE_NXZ 100079c0 f i IOCPS.obj
 0001:000069c0       ?empty@?$_Tree@V?$_Tmap_traits@IPAVCIOCPBuffer@@U?$less@I@std@@V?$allocator@U?$pair@$$CBIPAVCIOCPBuffer@@@std@@@3@$0A@@std@@@std@@QBE_NXZ 100079c0 f i IOCPS.obj
 0001:000069f0       ?size@?$_Tree@V?$_Tmap_traits@IPAUClientContext@@U?$less@I@std@@V?$allocator@U?$pair@$$CBIPAUClientContext@@@std@@@3@$0A@@std@@@std@@QBEIXZ 100079f0 f i IOCPS.obj
 0001:000069f0       ?size@?$_Tree@V?$_Tmap_traits@GPAXU?$less@G@std@@V?$allocator@U?$pair@$$CBGPAX@std@@@2@$0A@@std@@@std@@QBEIXZ 100079f0 f i IOCPS.obj
 0001:000069f0       ?size@?$_Tree@V?$_Tmap_traits@IPAVCIOCPBuffer@@U?$less@I@std@@V?$allocator@U?$pair@$$CBIPAVCIOCPBuffer@@@std@@@3@$0A@@std@@@std@@QBEIXZ 100079f0 f i IOCPS.obj
 0001:00006a10       ?end@?$_Tree@V?$_Tmap_traits@IPAUClientContext@@U?$less@I@std@@V?$allocator@U?$pair@$$CBIPAUClientContext@@@std@@@3@$0A@@std@@@std@@QAE?AV?$_Tree_iterator@V?$_Tree_val@U?$_Tree_simple_types@U?$pair@$$CBIPAUClientContext@@@std@@@std@@@std@@@2@XZ 10007a10 f i IOCPS.obj
 0001:00006a10       ?end@?$_Tree@V?$_Tmap_traits@IPAVCIOCPBuffer@@U?$less@I@std@@V?$allocator@U?$pair@$$CBIPAVCIOCPBuffer@@@std@@@3@$0A@@std@@@std@@QAE?AV?$_Tree_iterator@V?$_Tree_val@U?$_Tree_simple_types@U?$pair@$$CBIPAVCIOCPBuffer@@@std@@@std@@@std@@@2@XZ 10007a10 f i IOCPS.obj
 0001:00006a10       ?end@?$_Tree@V?$_Tmap_traits@GPAXU?$less@G@std@@V?$allocator@U?$pair@$$CBGPAX@std@@@2@$0A@@std@@@std@@QAE?AV?$_Tree_iterator@V?$_Tree_val@U?$_Tree_simple_types@U?$pair@$$CBGPAX@std@@@std@@@std@@@2@XZ 10007a10 f i IOCPS.obj
 0001:00006a70       ?begin@?$_Tree@V?$_Tmap_traits@IPAVCIOCPBuffer@@U?$less@I@std@@V?$allocator@U?$pair@$$CBIPAVCIOCPBuffer@@@std@@@3@$0A@@std@@@std@@QAE?AV?$_Tree_iterator@V?$_Tree_val@U?$_Tree_simple_types@U?$pair@$$CBIPAVCIOCPBuffer@@@std@@@std@@@std@@@2@XZ 10007a70 f i IOCPS.obj
 0001:00006a70       ?begin@?$_Tree@V?$_Tmap_traits@IPAUClientContext@@U?$less@I@std@@V?$allocator@U?$pair@$$CBIPAUClientContext@@@std@@@3@$0A@@std@@@std@@QAE?AV?$_Tree_iterator@V?$_Tree_val@U?$_Tree_simple_types@U?$pair@$$CBIPAUClientContext@@@std@@@std@@@std@@@2@XZ 10007a70 f i IOCPS.obj
 0001:00006a70       ?begin@?$_Tree@V?$_Tmap_traits@GPAXU?$less@G@std@@V?$allocator@U?$pair@$$CBGPAX@std@@@2@$0A@@std@@@std@@QAE?AV?$_Tree_iterator@V?$_Tree_val@U?$_Tree_simple_types@U?$pair@$$CBGPAX@std@@@std@@@std@@@2@XZ 10007a70 f i IOCPS.obj
 0001:00006ad0       ??1?$_Tree@V?$_Tmap_traits@IPAUClientContext@@U?$less@I@std@@V?$allocator@U?$pair@$$CBIPAUClientContext@@@std@@@3@$0A@@std@@@std@@QAE@XZ 10007ad0 f i IOCPS.obj
 0001:00006ad0       ??1?$_Tree@V?$_Tmap_traits@GPAXU?$less@G@std@@V?$allocator@U?$pair@$$CBGPAX@std@@@2@$0A@@std@@@std@@QAE@XZ 10007ad0 f i IOCPS.obj
 0001:00006ad0       ??1?$_Tree@V?$_Tmap_traits@IPAVCIOCPBuffer@@U?$less@I@std@@V?$allocator@U?$pair@$$CBIPAVCIOCPBuffer@@@std@@@3@$0A@@std@@@std@@QAE@XZ 10007ad0 f i IOCPS.obj
 0001:00006b20       ??A?$map@GPAXU?$less@G@std@@V?$allocator@U?$pair@$$CBGPAX@std@@@2@@std@@QAEAAPAXABG@Z 10007b20 f i IOCPS.obj
 0001:00006b50       ??0?$map@IPAVCIOCPBuffer@@U?$less@I@std@@V?$allocator@U?$pair@$$CBIPAVCIOCPBuffer@@@std@@@3@@std@@QAE@XZ 10007b50 f i IOCPS.obj
 0001:00006b50       ??0?$map@GPAXU?$less@G@std@@V?$allocator@U?$pair@$$CBGPAX@std@@@2@@std@@QAE@XZ 10007b50 f i IOCPS.obj
 0001:00006b50       ??0?$map@IPAUClientContext@@U?$less@I@std@@V?$allocator@U?$pair@$$CBIPAUClientContext@@@std@@@3@@std@@QAE@XZ 10007b50 f i IOCPS.obj
 0001:00006b70       ??E?$_List_iterator@V?$_List_val@U?$_List_simple_types@PAX@std@@@std@@@std@@QAE?AV01@H@Z 10007b70 f i IOCPS.obj
 0001:00006b70       ??E?$_List_iterator@V?$_List_val@U?$_List_simple_types@PAUClientContext@@@std@@@std@@@std@@QAE?AV01@H@Z 10007b70 f i IOCPS.obj
 0001:00006b70       ??E?$_List_iterator@V?$_List_val@U?$_List_simple_types@PAUJobItem@@@std@@@std@@@std@@QAE?AV01@H@Z 10007b70 f i IOCPS.obj
 0001:00006b70       ??E?$_List_iterator@V?$_List_val@U?$_List_simple_types@PAVCIOCPBuffer@@@std@@@std@@@std@@QAE?AV01@H@Z 10007b70 f i IOCPS.obj
 0001:00006ba0       ??D?$_List_iterator@V?$_List_val@U?$_List_simple_types@PAVCIOCPBuffer@@@std@@@std@@@std@@QBEAAPAVCIOCPBuffer@@XZ 10007ba0 f i IOCPS.obj
 0001:00006ba0       ??D?$_List_iterator@V?$_List_val@U?$_List_simple_types@PAUClientContext@@@std@@@std@@@std@@QBEAAPAUClientContext@@XZ 10007ba0 f i IOCPS.obj
 0001:00006ba0       ??D?$_List_iterator@V?$_List_val@U?$_List_simple_types@PAX@std@@@std@@@std@@QBEAAPAXXZ 10007ba0 f i IOCPS.obj
 0001:00006ba0       ??D?$_List_iterator@V?$_List_val@U?$_List_simple_types@PAUJobItem@@@std@@@std@@@std@@QBEAAPAUJobItem@@XZ 10007ba0 f i IOCPS.obj
 0001:00006bc0       ?clear@?$list@PAUClientContext@@V?$allocator@PAUClientContext@@@std@@@std@@QAEXXZ 10007bc0 f i IOCPS.obj
 0001:00006bc0       ?clear@?$list@PAVCIOCPBuffer@@V?$allocator@PAVCIOCPBuffer@@@std@@@std@@QAEXXZ 10007bc0 f i IOCPS.obj
 0001:00006bc0       ?clear@?$list@PAUJobItem@@V?$allocator@PAUJobItem@@@std@@@std@@QAEXXZ 10007bc0 f i IOCPS.obj
 0001:00006bc0       ?clear@?$list@PAXV?$allocator@PAX@std@@@std@@QAEXXZ 10007bc0 f i IOCPS.obj
 0001:00006ca0       ?pop_back@?$list@PAUJobItem@@V?$allocator@PAUJobItem@@@std@@@std@@QAEXXZ 10007ca0 f i IOCPS.obj
 0001:00006ce0       ?back@?$list@PAUJobItem@@V?$allocator@PAUJobItem@@@std@@@std@@QAEAAPAUJobItem@@XZ 10007ce0 f i IOCPS.obj
 0001:00006d10       ?empty@?$list@PAUClientContext@@V?$allocator@PAUClientContext@@@std@@@std@@QBE_NXZ 10007d10 f i IOCPS.obj
 0001:00006d10       ?empty@?$list@PAVCIOCPBuffer@@V?$allocator@PAVCIOCPBuffer@@@std@@@std@@QBE_NXZ 10007d10 f i IOCPS.obj
 0001:00006d10       ?empty@?$list@PAUJobItem@@V?$allocator@PAUJobItem@@@std@@@std@@QBE_NXZ 10007d10 f i IOCPS.obj
 0001:00006d40       ?end@?$list@PAXV?$allocator@PAX@std@@@std@@QAE?AV?$_List_iterator@V?$_List_val@U?$_List_simple_types@PAX@std@@@std@@@2@XZ 10007d40 f i IOCPS.obj
 0001:00006d40       ?end@?$list@PAVCIOCPBuffer@@V?$allocator@PAVCIOCPBuffer@@@std@@@std@@QAE?AV?$_List_iterator@V?$_List_val@U?$_List_simple_types@PAVCIOCPBuffer@@@std@@@std@@@2@XZ 10007d40 f i IOCPS.obj
 0001:00006d40       ?end@?$list@PAUJobItem@@V?$allocator@PAUJobItem@@@std@@@std@@QAE?AV?$_List_iterator@V?$_List_val@U?$_List_simple_types@PAUJobItem@@@std@@@std@@@2@XZ 10007d40 f i IOCPS.obj
 0001:00006d40       ?end@?$list@PAUClientContext@@V?$allocator@PAUClientContext@@@std@@@std@@QAE?AV?$_List_iterator@V?$_List_val@U?$_List_simple_types@PAUClientContext@@@std@@@std@@@2@XZ 10007d40 f i IOCPS.obj
 0001:00006da0       ?begin@?$list@PAUClientContext@@V?$allocator@PAUClientContext@@@std@@@std@@QAE?AV?$_List_iterator@V?$_List_val@U?$_List_simple_types@PAUClientContext@@@std@@@std@@@2@XZ 10007da0 f i IOCPS.obj
 0001:00006da0       ?begin@?$list@PAXV?$allocator@PAX@std@@@std@@QAE?AV?$_List_iterator@V?$_List_val@U?$_List_simple_types@PAX@std@@@std@@@2@XZ 10007da0 f i IOCPS.obj
 0001:00006da0       ?begin@?$list@PAUJobItem@@V?$allocator@PAUJobItem@@@std@@@std@@QAE?AV?$_List_iterator@V?$_List_val@U?$_List_simple_types@PAUJobItem@@@std@@@std@@@2@XZ 10007da0 f i IOCPS.obj
 0001:00006da0       ?begin@?$list@PAVCIOCPBuffer@@V?$allocator@PAVCIOCPBuffer@@@std@@@std@@QAE?AV?$_List_iterator@V?$_List_val@U?$_List_simple_types@PAVCIOCPBuffer@@@std@@@std@@@2@XZ 10007da0 f i IOCPS.obj
 0001:00006e10       ??1?$list@PAVCIOCPBuffer@@V?$allocator@PAVCIOCPBuffer@@@std@@@std@@QAE@XZ 10007e10 f i IOCPS.obj
 0001:00006e10       ??1?$list@PAUClientContext@@V?$allocator@PAUClientContext@@@std@@@std@@QAE@XZ 10007e10 f i IOCPS.obj
 0001:00006e10       ??1?$list@PAXV?$allocator@PAX@std@@@std@@QAE@XZ 10007e10 f i IOCPS.obj
 0001:00006e10       ??1?$list@PAUJobItem@@V?$allocator@PAUJobItem@@@std@@@std@@QAE@XZ 10007e10 f i IOCPS.obj
 0001:00006e60       ??0?$list@PAUClientContext@@V?$allocator@PAUClientContext@@@std@@@std@@QAE@XZ 10007e60 f i IOCPS.obj
 0001:00006e60       ??0?$list@PAXV?$allocator@PAX@std@@@std@@QAE@XZ 10007e60 f i IOCPS.obj
 0001:00006e60       ??0?$list@PAUJobItem@@V?$allocator@PAUJobItem@@@std@@@std@@QAE@XZ 10007e60 f i IOCPS.obj
 0001:00006e60       ??0?$list@PAVCIOCPBuffer@@V?$allocator@PAVCIOCPBuffer@@@std@@@std@@QAE@XZ 10007e60 f i IOCPS.obj
 0001:00006e80       ?pop_front@?$list@PAUClientContext@@V?$allocator@PAUClientContext@@@std@@@std@@QAEXXZ 10007e80 f i IOCPS.obj
 0001:00006e80       ?pop_front@?$list@PAVCIOCPBuffer@@V?$allocator@PAVCIOCPBuffer@@@std@@@std@@QAEXXZ 10007e80 f i IOCPS.obj
 0001:00006eb0       ?push_front@?$list@PAXV?$allocator@PAX@std@@@std@@QAEXABQAX@Z 10007eb0 f i IOCPS.obj
 0001:00006eb0       ?push_front@?$list@PAVCIOCPBuffer@@V?$allocator@PAVCIOCPBuffer@@@std@@@std@@QAEXABQAVCIOCPBuffer@@@Z 10007eb0 f i IOCPS.obj
 0001:00006eb0       ?push_front@?$list@PAUClientContext@@V?$allocator@PAUClientContext@@@std@@@std@@QAEXABQAUClientContext@@@Z 10007eb0 f i IOCPS.obj
 0001:00006ee0       ?front@?$list@PAUClientContext@@V?$allocator@PAUClientContext@@@std@@@std@@QAEAAPAUClientContext@@XZ 10007ee0 f i IOCPS.obj
 0001:00006ee0       ?front@?$list@PAVCIOCPBuffer@@V?$allocator@PAVCIOCPBuffer@@@std@@@std@@QAEAAPAVCIOCPBuffer@@XZ 10007ee0 f i IOCPS.obj
 0001:00006f00       ?size@?$list@PAXV?$allocator@PAX@std@@@std@@QBEIXZ 10007f00 f i IOCPS.obj
 0001:00006f00       ?size@?$list@PAVCIOCPBuffer@@V?$allocator@PAVCIOCPBuffer@@@std@@@std@@QBEIXZ 10007f00 f i IOCPS.obj
 0001:00006f00       ?size@?$list@PAUClientContext@@V?$allocator@PAUClientContext@@@std@@@std@@QBEIXZ 10007f00 f i IOCPS.obj
 0001:00006f20       ??A?$map@IPAVCIOCPBuffer@@U?$less@I@std@@V?$allocator@U?$pair@$$CBIPAVCIOCPBuffer@@@std@@@3@@std@@QAEAAPAVCIOCPBuffer@@ABI@Z 10007f20 f i IOCPS.obj
 0001:00006f20       ??A?$map@IPAUClientContext@@U?$less@I@std@@V?$allocator@U?$pair@$$CBIPAUClientContext@@@std@@@3@@std@@QAEAAPAUClientContext@@ABI@Z 10007f20 f i IOCPS.obj
 0001:00006f50       ?remove@?$list@PAVCIOCPBuffer@@V?$allocator@PAVCIOCPBuffer@@@std@@@std@@QAEXABQAVCIOCPBuffer@@@Z 10007f50 f i IOCPS.obj
 0001:00007040       ?empty@?$basic_string@DU?$char_traits@D@std@@V?$allocator@D@2@@std@@QBE_NXZ 10008040 f i IOCPS.obj
 0001:00007070       ??0?$basic_string@DU?$char_traits@D@std@@V?$allocator@D@2@@std@@QAE@$$QAV01@@Z 10008070 f i IOCPS.obj
 0001:000070f0       ??0?$basic_string@DU?$char_traits@D@std@@V?$allocator@D@2@@std@@QAE@PBD@Z 100080f0 f i IOCPS.obj
 0001:00007160       ??0?$basic_string@DU?$char_traits@D@std@@V?$allocator@D@2@@std@@QAE@XZ 10008160 f i IOCPS.obj
 0001:000071b0       ??1?$_List_buy@PAXV?$allocator@PAX@std@@@std@@QAE@XZ 100081b0 f i IOCPS.obj
 0001:000071b0       ??1?$_List_buy@PAUClientContext@@V?$allocator@PAUClientContext@@@std@@@std@@QAE@XZ 100081b0 f i IOCPS.obj
 0001:000071b0       ??1?$_List_buy@PAVCIOCPBuffer@@V?$allocator@PAVCIOCPBuffer@@@std@@@std@@QAE@XZ 100081b0 f i IOCPS.obj
 0001:000071b0       ??1?$_List_buy@PAUJobItem@@V?$allocator@PAUJobItem@@@std@@@std@@QAE@XZ 100081b0 f i IOCPS.obj
 0001:000071d0       ?_Mynode@?$_List_unchecked_const_iterator@V?$_List_val@U?$_List_simple_types@PAX@std@@@std@@U_Iterator_base0@2@@std@@QBEPAU?$_List_node@PAXPAX@2@XZ 100081d0 f i IOCPS.obj
 0001:000071d0       ?_Mynode@?$_Tree_unchecked_const_iterator@V?$_Tree_val@U?$_Tree_simple_types@U?$pair@$$CBIPAVCIOCPBuffer@@@std@@@std@@@std@@U_Iterator_base0@2@@std@@QBEPAU?$_Tree_node@U?$pair@$$CBIPAVCIOCPBuffer@@@std@@PAX@2@XZ 100081d0 f i IOCPS.obj
 0001:000071d0       ?_Mynode@?$_List_unchecked_const_iterator@V?$_List_val@U?$_List_simple_types@PAUClientContext@@@std@@@std@@U_Iterator_base0@2@@std@@QBEPAU?$_List_node@PAUClientContext@@PAX@2@XZ 100081d0 f i IOCPS.obj
 0001:000071d0       ?_Mynode@?$_Tree_unchecked_const_iterator@V?$_Tree_val@U?$_Tree_simple_types@U?$pair@$$CBIPAUClientContext@@@std@@@std@@@std@@U_Iterator_base0@2@@std@@QBEPAU?$_Tree_node@U?$pair@$$CBIPAUClientContext@@@std@@PAX@2@XZ 100081d0 f i IOCPS.obj
 0001:000071d0       ?_Mynode@?$_List_unchecked_const_iterator@V?$_List_val@U?$_List_simple_types@PAVCIOCPBuffer@@@std@@@std@@U_Iterator_base0@2@@std@@QBEPAU?$_List_node@PAVCIOCPBuffer@@PAX@2@XZ 100081d0 f i IOCPS.obj
 0001:000071d0       ?_Mynode@?$_List_unchecked_const_iterator@V?$_List_val@U?$_List_simple_types@PAUJobItem@@@std@@@std@@U_Iterator_base0@2@@std@@QBEPAU?$_List_node@PAUJobItem@@PAX@2@XZ 100081d0 f i IOCPS.obj
 0001:000071d0       ?_Mynode@?$_Tree_unchecked_const_iterator@V?$_Tree_val@U?$_Tree_simple_types@U?$pair@$$CBGPAX@std@@@std@@@std@@U_Iterator_base0@2@@std@@QBEPAU?$_Tree_node@U?$pair@$$CBGPAX@std@@PAX@2@XZ 100081d0 f i IOCPS.obj
 0001:000071e0       ??E?$_Tree_iterator@V?$_Tree_val@U?$_Tree_simple_types@U?$pair@$$CBGPAX@std@@@std@@@std@@@std@@QAEAAV01@XZ 100081e0 f i IOCPS.obj
 0001:000071e0       ??E?$_Tree_iterator@V?$_Tree_val@U?$_Tree_simple_types@U?$pair@$$CBIPAUClientContext@@@std@@@std@@@std@@@std@@QAEAAV01@XZ 100081e0 f i IOCPS.obj
 0001:000071e0       ??E?$_Tree_iterator@V?$_Tree_val@U?$_Tree_simple_types@U?$pair@$$CBIPAVCIOCPBuffer@@@std@@@std@@@std@@@std@@QAEAAV01@XZ 100081e0 f i IOCPS.obj
 0001:00007200       ??C?$_Tree_iterator@V?$_Tree_val@U?$_Tree_simple_types@U?$pair@$$CBGPAX@std@@@std@@@std@@@std@@QBEPAU?$pair@$$CBGPAX@1@XZ 10008200 f i IOCPS.obj
 0001:00007200       ??C?$_Tree_iterator@V?$_Tree_val@U?$_Tree_simple_types@U?$pair@$$CBIPAUClientContext@@@std@@@std@@@std@@@std@@QBEPAU?$pair@$$CBIPAUClientContext@@@1@XZ 10008200 f i IOCPS.obj
 0001:00007200       ??C?$_Tree_iterator@V?$_Tree_val@U?$_Tree_simple_types@U?$pair@$$CBIPAVCIOCPBuffer@@@std@@@std@@@std@@@std@@QBEPAU?$pair@$$CBIPAVCIOCPBuffer@@@1@XZ 10008200 f i IOCPS.obj
 0001:00007220       ??0?$_List_iterator@V?$_List_val@U?$_List_simple_types@PAVCIOCPBuffer@@@std@@@std@@@std@@QAE@PAU?$_List_node@PAVCIOCPBuffer@@PAX@1@PBV?$_List_val@U?$_List_simple_types@PAVCIOCPBuffer@@@std@@@1@@Z 10008220 f i IOCPS.obj
 0001:00007220       ??0?$_List_iterator@V?$_List_val@U?$_List_simple_types@PAX@std@@@std@@@std@@QAE@PAU?$_List_node@PAXPAX@1@PBV?$_List_val@U?$_List_simple_types@PAX@std@@@1@@Z 10008220 f i IOCPS.obj
 0001:00007220       ??0?$_List_iterator@V?$_List_val@U?$_List_simple_types@PAUClientContext@@@std@@@std@@@std@@QAE@PAU?$_List_node@PAUClientContext@@PAX@1@PBV?$_List_val@U?$_List_simple_types@PAUClientContext@@@std@@@1@@Z 10008220 f i IOCPS.obj
 0001:00007220       ??0?$_Tree_iterator@V?$_Tree_val@U?$_Tree_simple_types@U?$pair@$$CBGPAX@std@@@std@@@std@@@std@@QAE@PAU?$_Tree_node@U?$pair@$$CBGPAX@std@@PAX@1@PBV?$_Tree_val@U?$_Tree_simple_types@U?$pair@$$CBGPAX@std@@@std@@@1@@Z 10008220 f i IOCPS.obj
 0001:00007220       ??0?$_Tree_iterator@V?$_Tree_val@U?$_Tree_simple_types@U?$pair@$$CBIPAUClientContext@@@std@@@std@@@std@@@std@@QAE@PAU?$_Tree_node@U?$pair@$$CBIPAUClientContext@@@std@@PAX@1@PBV?$_Tree_val@U?$_Tree_simple_types@U?$pair@$$CBIPAUClientContext@@@std@@@std@@@1@@Z 10008220 f i IOCPS.obj
 0001:00007220       ??0?$_List_iterator@V?$_List_val@U?$_List_simple_types@PAUJobItem@@@std@@@std@@@std@@QAE@PAU?$_List_node@PAUJobItem@@PAX@1@PBV?$_List_val@U?$_List_simple_types@PAUJobItem@@@std@@@1@@Z 10008220 f i IOCPS.obj
 0001:00007220       ??0?$_Tree_iterator@V?$_Tree_val@U?$_Tree_simple_types@U?$pair@$$CBIPAVCIOCPBuffer@@@std@@@std@@@std@@@std@@QAE@PAU?$_Tree_node@U?$pair@$$CBIPAVCIOCPBuffer@@@std@@PAX@1@PBV?$_Tree_val@U?$_Tree_simple_types@U?$pair@$$CBIPAVCIOCPBuffer@@@std@@@std@@@1@@Z 10008220 f i IOCPS.obj
 0001:00007240       ??8?$_List_const_iterator@V?$_List_val@U?$_List_simple_types@PAX@std@@@std@@@std@@QBE_NABV01@@Z 10008240 f i IOCPS.obj
 0001:00007240       ??8?$_Tree_const_iterator@V?$_Tree_val@U?$_Tree_simple_types@U?$pair@$$CBIPAVCIOCPBuffer@@@std@@@std@@@std@@@std@@QBE_NABV01@@Z 10008240 f i IOCPS.obj
 0001:00007240       ??8?$_Tree_const_iterator@V?$_Tree_val@U?$_Tree_simple_types@U?$pair@$$CBGPAX@std@@@std@@@std@@@std@@QBE_NABV01@@Z 10008240 f i IOCPS.obj
 0001:00007240       ??8?$_List_const_iterator@V?$_List_val@U?$_List_simple_types@PAVCIOCPBuffer@@@std@@@std@@@std@@QBE_NABV01@@Z 10008240 f i IOCPS.obj
 0001:00007240       ??8?$_List_const_iterator@V?$_List_val@U?$_List_simple_types@PAUJobItem@@@std@@@std@@@std@@QBE_NABV01@@Z 10008240 f i IOCPS.obj
 0001:00007240       ??8?$_List_const_iterator@V?$_List_val@U?$_List_simple_types@PAUClientContext@@@std@@@std@@@std@@QBE_NABV01@@Z 10008240 f i IOCPS.obj
 0001:00007240       ??8?$_Tree_const_iterator@V?$_Tree_val@U?$_Tree_simple_types@U?$pair@$$CBIPAUClientContext@@@std@@@std@@@std@@@std@@QBE_NABV01@@Z 10008240 f i IOCPS.obj
 0001:00007270       ??E?$_Tree_const_iterator@V?$_Tree_val@U?$_Tree_simple_types@U?$pair@$$CBIPAVCIOCPBuffer@@@std@@@std@@@std@@@std@@QAEAAV01@XZ 10008270 f i IOCPS.obj
 0001:00007270       ??E?$_Tree_const_iterator@V?$_Tree_val@U?$_Tree_simple_types@U?$pair@$$CBIPAUClientContext@@@std@@@std@@@std@@@std@@QAEAAV01@XZ 10008270 f i IOCPS.obj
 0001:00007270       ??E?$_Tree_const_iterator@V?$_Tree_val@U?$_Tree_simple_types@U?$pair@$$CBGPAX@std@@@std@@@std@@@std@@QAEAAV01@XZ 10008270 f i IOCPS.obj
 0001:00007290       ??D?$_Tree_const_iterator@V?$_Tree_val@U?$_Tree_simple_types@U?$pair@$$CBIPAUClientContext@@@std@@@std@@@std@@@std@@QBEABU?$pair@$$CBIPAUClientContext@@@1@XZ 10008290 f i IOCPS.obj
 0001:00007290       ??D?$_Tree_const_iterator@V?$_Tree_val@U?$_Tree_simple_types@U?$pair@$$CBGPAX@std@@@std@@@std@@@std@@QBEABU?$pair@$$CBGPAX@1@XZ 10008290 f i IOCPS.obj
 0001:00007290       ??D?$_Tree_const_iterator@V?$_Tree_val@U?$_Tree_simple_types@U?$pair@$$CBIPAVCIOCPBuffer@@@std@@@std@@@std@@@std@@QBEABU?$pair@$$CBIPAVCIOCPBuffer@@@1@XZ 10008290 f i IOCPS.obj
 0001:000072b0       ?deallocate@?$_Wrap_alloc@V?$allocator@U?$_Tree_node@U?$pair@$$CBIPAUClientContext@@@std@@PAX@std@@@std@@@std@@QAEXPAU?$_Tree_node@U?$pair@$$CBIPAUClientContext@@@std@@PAX@2@I@Z 100082b0 f i IOCPS.obj
 0001:000072b0       ?deallocate@?$_Wrap_alloc@V?$allocator@U?$_Tree_node@U?$pair@$$CBIPAVCIOCPBuffer@@@std@@PAX@std@@@std@@@std@@QAEXPAU?$_Tree_node@U?$pair@$$CBIPAVCIOCPBuffer@@@std@@PAX@2@I@Z 100082b0 f i IOCPS.obj
 0001:000072b0       ?deallocate@?$_Wrap_alloc@V?$allocator@U?$_Tree_node@U?$pair@$$CBGPAX@std@@PAX@std@@@std@@@std@@QAEXPAU?$_Tree_node@U?$pair@$$CBGPAX@std@@PAX@2@I@Z 100082b0 f i IOCPS.obj
 0001:000072d0       ?_Mysize@?$_Tree_comp_alloc@V?$_Tmap_traits@GPAXU?$less@G@std@@V?$allocator@U?$pair@$$CBGPAX@std@@@2@$0A@@std@@@std@@QAEAAIXZ 100082d0 f i IOCPS.obj
 0001:000072d0       ?_Mysize@?$_Tree_comp_alloc@V?$_Tmap_traits@IPAVCIOCPBuffer@@U?$less@I@std@@V?$allocator@U?$pair@$$CBIPAVCIOCPBuffer@@@std@@@3@$0A@@std@@@std@@QAEAAIXZ 100082d0 f i IOCPS.obj
 0001:000072d0       ?_Mysize@?$_Tree_comp_alloc@V?$_Tmap_traits@IPAVCIOCPBuffer@@U?$less@I@std@@V?$allocator@U?$pair@$$CBIPAVCIOCPBuffer@@@std@@@3@$0A@@std@@@std@@QBEABIXZ 100082d0 f i IOCPS.obj
 0001:000072d0       ?_Mysize@?$_Tree_comp_alloc@V?$_Tmap_traits@IPAUClientContext@@U?$less@I@std@@V?$allocator@U?$pair@$$CBIPAUClientContext@@@std@@@3@$0A@@std@@@std@@QBEABIXZ 100082d0 f i IOCPS.obj
 0001:000072d0       ?_Mysize@?$_Tree_comp_alloc@V?$_Tmap_traits@IPAUClientContext@@U?$less@I@std@@V?$allocator@U?$pair@$$CBIPAUClientContext@@@std@@@3@$0A@@std@@@std@@QAEAAIXZ 100082d0 f i IOCPS.obj
 0001:000072d0       ?_Mysize@?$_Tree_comp_alloc@V?$_Tmap_traits@GPAXU?$less@G@std@@V?$allocator@U?$pair@$$CBGPAX@std@@@2@$0A@@std@@@std@@QBEABIXZ 100082d0 f i IOCPS.obj
 0001:000072f0       ?_Myhead@?$_Tree_comp_alloc@V?$_Tmap_traits@IPAVCIOCPBuffer@@U?$less@I@std@@V?$allocator@U?$pair@$$CBIPAVCIOCPBuffer@@@std@@@3@$0A@@std@@@std@@QBEABQAU?$_Tree_node@U?$pair@$$CBIPAVCIOCPBuffer@@@std@@PAX@2@XZ 100082f0 f i IOCPS.obj
 0001:000072f0       ?_Myhead@?$_Tree_comp_alloc@V?$_Tmap_traits@IPAUClientContext@@U?$less@I@std@@V?$allocator@U?$pair@$$CBIPAUClientContext@@@std@@@3@$0A@@std@@@std@@QAEAAPAU?$_Tree_node@U?$pair@$$CBIPAUClientContext@@@std@@PAX@2@XZ 100082f0 f i IOCPS.obj
 0001:000072f0       ?_Myhead@?$_Tree_comp_alloc@V?$_Tmap_traits@GPAXU?$less@G@std@@V?$allocator@U?$pair@$$CBGPAX@std@@@2@$0A@@std@@@std@@QBEABQAU?$_Tree_node@U?$pair@$$CBGPAX@std@@PAX@2@XZ 100082f0 f i IOCPS.obj
 0001:000072f0       ?_Myhead@?$_Tree_comp_alloc@V?$_Tmap_traits@IPAVCIOCPBuffer@@U?$less@I@std@@V?$allocator@U?$pair@$$CBIPAVCIOCPBuffer@@@std@@@3@$0A@@std@@@std@@QAEAAPAU?$_Tree_node@U?$pair@$$CBIPAVCIOCPBuffer@@@std@@PAX@2@XZ 100082f0 f i IOCPS.obj
 0001:000072f0       ?_Myhead@?$_Tree_comp_alloc@V?$_Tmap_traits@IPAUClientContext@@U?$less@I@std@@V?$allocator@U?$pair@$$CBIPAUClientContext@@@std@@@3@$0A@@std@@@std@@QBEABQAU?$_Tree_node@U?$pair@$$CBIPAUClientContext@@@std@@PAX@2@XZ 100082f0 f i IOCPS.obj
 0001:000072f0       ?_Myhead@?$_Tree_comp_alloc@V?$_Tmap_traits@GPAXU?$less@G@std@@V?$allocator@U?$pair@$$CBGPAX@std@@@2@$0A@@std@@@std@@QAEAAPAU?$_Tree_node@U?$pair@$$CBGPAX@std@@PAX@2@XZ 100082f0 f i IOCPS.obj
 0001:00007310       ?_Getal@?$_Tree_comp_alloc@V?$_Tmap_traits@GPAXU?$less@G@std@@V?$allocator@U?$pair@$$CBGPAX@std@@@2@$0A@@std@@@std@@QAEAAU?$_Wrap_alloc@V?$allocator@U?$_Tree_node@U?$pair@$$CBGPAX@std@@PAX@std@@@std@@@2@XZ 10008310 f i IOCPS.obj
 0001:00007310       ?_Getal@?$_Tree_comp_alloc@V?$_Tmap_traits@IPAUClientContext@@U?$less@I@std@@V?$allocator@U?$pair@$$CBIPAUClientContext@@@std@@@3@$0A@@std@@@std@@QBEABU?$_Wrap_alloc@V?$allocator@U?$_Tree_node@U?$pair@$$CBIPAUClientContext@@@std@@PAX@std@@@std@@@2@XZ 10008310 f i IOCPS.obj
 0001:00007310       ?_Getal@?$_Tree_comp_alloc@V?$_Tmap_traits@IPAVCIOCPBuffer@@U?$less@I@std@@V?$allocator@U?$pair@$$CBIPAVCIOCPBuffer@@@std@@@3@$0A@@std@@@std@@QBEABU?$_Wrap_alloc@V?$allocator@U?$_Tree_node@U?$pair@$$CBIPAVCIOCPBuffer@@@std@@PAX@std@@@std@@@2@XZ 10008310 f i IOCPS.obj
 0001:00007310       ?_Get_data@?$_Tree_comp_alloc@V?$_Tmap_traits@GPAXU?$less@G@std@@V?$allocator@U?$pair@$$CBGPAX@std@@@2@$0A@@std@@@std@@QAEAAV?$_Tree_val@U?$_Tree_simple_types@U?$pair@$$CBGPAX@std@@@std@@@2@XZ 10008310 f i IOCPS.obj
 0001:00007310       ?_Get_data@?$_Tree_comp_alloc@V?$_Tmap_traits@IPAUClientContext@@U?$less@I@std@@V?$allocator@U?$pair@$$CBIPAUClientContext@@@std@@@3@$0A@@std@@@std@@QAEAAV?$_Tree_val@U?$_Tree_simple_types@U?$pair@$$CBIPAUClientContext@@@std@@@std@@@2@XZ 10008310 f i IOCPS.obj
 0001:00007310       ?_Get_data@?$_Tree_comp_alloc@V?$_Tmap_traits@IPAVCIOCPBuffer@@U?$less@I@std@@V?$allocator@U?$pair@$$CBIPAVCIOCPBuffer@@@std@@@3@$0A@@std@@@std@@QBEABV?$_Tree_val@U?$_Tree_simple_types@U?$pair@$$CBIPAVCIOCPBuffer@@@std@@@std@@@2@XZ 10008310 f i IOCPS.obj
 0001:00007310       ?_Get_data@?$_Tree_comp_alloc@V?$_Tmap_traits@IPAUClientContext@@U?$less@I@std@@V?$allocator@U?$pair@$$CBIPAUClientContext@@@std@@@3@$0A@@std@@@std@@QBEABV?$_Tree_val@U?$_Tree_simple_types@U?$pair@$$CBIPAUClientContext@@@std@@@std@@@2@XZ 10008310 f i IOCPS.obj
 0001:00007310       ?_Get_data@?$_Tree_comp_alloc@V?$_Tmap_traits@IPAVCIOCPBuffer@@U?$less@I@std@@V?$allocator@U?$pair@$$CBIPAVCIOCPBuffer@@@std@@@3@$0A@@std@@@std@@QAEAAV?$_Tree_val@U?$_Tree_simple_types@U?$pair@$$CBIPAVCIOCPBuffer@@@std@@@std@@@2@XZ 10008310 f i IOCPS.obj
 0001:00007310       ?_Getal@?$_Tree_comp_alloc@V?$_Tmap_traits@GPAXU?$less@G@std@@V?$allocator@U?$pair@$$CBGPAX@std@@@2@$0A@@std@@@std@@QBEABU?$_Wrap_alloc@V?$allocator@U?$_Tree_node@U?$pair@$$CBGPAX@std@@PAX@std@@@std@@@2@XZ 10008310 f i IOCPS.obj
 0001:00007310       ?_Get_data@?$_Tree_comp_alloc@V?$_Tmap_traits@GPAXU?$less@G@std@@V?$allocator@U?$pair@$$CBGPAX@std@@@2@$0A@@std@@@std@@QBEABV?$_Tree_val@U?$_Tree_simple_types@U?$pair@$$CBGPAX@std@@@std@@@2@XZ 10008310 f i IOCPS.obj
 0001:00007310       ?_Getal@?$_Tree_comp_alloc@V?$_Tmap_traits@IPAUClientContext@@U?$less@I@std@@V?$allocator@U?$pair@$$CBIPAUClientContext@@@std@@@3@$0A@@std@@@std@@QAEAAU?$_Wrap_alloc@V?$allocator@U?$_Tree_node@U?$pair@$$CBIPAUClientContext@@@std@@PAX@std@@@std@@@2@XZ 10008310 f i IOCPS.obj
 0001:00007310       ?_Getal@?$_Tree_comp_alloc@V?$_Tmap_traits@IPAVCIOCPBuffer@@U?$less@I@std@@V?$allocator@U?$pair@$$CBIPAVCIOCPBuffer@@@std@@@3@$0A@@std@@@std@@QAEAAU?$_Wrap_alloc@V?$allocator@U?$_Tree_node@U?$pair@$$CBIPAVCIOCPBuffer@@@std@@PAX@std@@@std@@@2@XZ 10008310 f i IOCPS.obj
 0001:00007330       ??1?$_Tree_comp_alloc@V?$_Tmap_traits@IPAUClientContext@@U?$less@I@std@@V?$allocator@U?$pair@$$CBIPAUClientContext@@@std@@@3@$0A@@std@@@std@@QAE@XZ 10008330 f i IOCPS.obj
 0001:00007330       ??1?$_Tree_comp_alloc@V?$_Tmap_traits@IPAVCIOCPBuffer@@U?$less@I@std@@V?$allocator@U?$pair@$$CBIPAVCIOCPBuffer@@@std@@@3@$0A@@std@@@std@@QAE@XZ 10008330 f i IOCPS.obj
 0001:00007330       ??1?$_Tree_comp_alloc@V?$_Tmap_traits@GPAXU?$less@G@std@@V?$allocator@U?$pair@$$CBGPAX@std@@@2@$0A@@std@@@std@@QAE@XZ 10008330 f i IOCPS.obj
 0001:00007380       ?_Min@?$_Tree_comp_alloc@V?$_Tmap_traits@IPAVCIOCPBuffer@@U?$less@I@std@@V?$allocator@U?$pair@$$CBIPAVCIOCPBuffer@@@std@@@3@$0A@@std@@@std@@SAPAU?$_Tree_node@U?$pair@$$CBIPAVCIOCPBuffer@@@std@@PAX@2@PAU32@@Z 10008380 f i IOCPS.obj
 0001:00007380       ?_Min@?$_Tree_comp_alloc@V?$_Tmap_traits@IPAUClientContext@@U?$less@I@std@@V?$allocator@U?$pair@$$CBIPAUClientContext@@@std@@@3@$0A@@std@@@std@@SAPAU?$_Tree_node@U?$pair@$$CBIPAUClientContext@@@std@@PAX@2@PAU32@@Z 10008380 f i IOCPS.obj
 0001:00007380       ?_Min@?$_Tree_comp_alloc@V?$_Tmap_traits@GPAXU?$less@G@std@@V?$allocator@U?$pair@$$CBGPAX@std@@@2@$0A@@std@@@std@@SAPAU?$_Tree_node@U?$pair@$$CBGPAX@std@@PAX@2@PAU32@@Z 10008380 f i IOCPS.obj
 0001:000073a0       ?_Max@?$_Tree_comp_alloc@V?$_Tmap_traits@IPAUClientContext@@U?$less@I@std@@V?$allocator@U?$pair@$$CBIPAUClientContext@@@std@@@3@$0A@@std@@@std@@SAPAU?$_Tree_node@U?$pair@$$CBIPAUClientContext@@@std@@PAX@2@PAU32@@Z 100083a0 f i IOCPS.obj
 0001:000073a0       ?_Max@?$_Tree_comp_alloc@V?$_Tmap_traits@GPAXU?$less@G@std@@V?$allocator@U?$pair@$$CBGPAX@std@@@2@$0A@@std@@@std@@SAPAU?$_Tree_node@U?$pair@$$CBGPAX@std@@PAX@2@PAU32@@Z 100083a0 f i IOCPS.obj
 0001:000073a0       ?_Max@?$_Tree_comp_alloc@V?$_Tmap_traits@IPAVCIOCPBuffer@@U?$less@I@std@@V?$allocator@U?$pair@$$CBIPAVCIOCPBuffer@@@std@@@3@$0A@@std@@@std@@SAPAU?$_Tree_node@U?$pair@$$CBIPAVCIOCPBuffer@@@std@@PAX@2@PAU32@@Z 100083a0 f i IOCPS.obj
 0001:000073c0       ?_Myval@?$_Tree_comp_alloc@V?$_Tmap_traits@IPAUClientContext@@U?$less@I@std@@V?$allocator@U?$pair@$$CBIPAUClientContext@@@std@@@3@$0A@@std@@@std@@SAAAU?$pair@$$CBIPAUClientContext@@@2@PAU?$_Tree_node@U?$pair@$$CBIPAUClientContext@@@std@@PAX@2@@Z 100083c0 f i IOCPS.obj
 0001:000073c0       ?_Myval@?$_Tree_comp_alloc@V?$_Tmap_traits@GPAXU?$less@G@std@@V?$allocator@U?$pair@$$CBGPAX@std@@@2@$0A@@std@@@std@@SAAAU?$pair@$$CBGPAX@2@PAU?$_Tree_node@U?$pair@$$CBGPAX@std@@PAX@2@@Z 100083c0 f i IOCPS.obj
 0001:000073c0       ?_Myval@?$_Tree_comp_alloc@V?$_Tmap_traits@IPAVCIOCPBuffer@@U?$less@I@std@@V?$allocator@U?$pair@$$CBIPAVCIOCPBuffer@@@std@@@3@$0A@@std@@@std@@SAAAU?$pair@$$CBIPAVCIOCPBuffer@@@2@PAU?$_Tree_node@U?$pair@$$CBIPAVCIOCPBuffer@@@std@@PAX@2@@Z 100083c0 f i IOCPS.obj
 0001:000073e0       ?_Right@?$_Tree_comp_alloc@V?$_Tmap_traits@IPAVCIOCPBuffer@@U?$less@I@std@@V?$allocator@U?$pair@$$CBIPAVCIOCPBuffer@@@std@@@3@$0A@@std@@@std@@SAAAPAU?$_Tree_node@U?$pair@$$CBIPAVCIOCPBuffer@@@std@@PAX@2@PAU32@@Z 100083e0 f i IOCPS.obj
 0001:000073e0       ?_Myval@?$_List_alloc@U?$_List_base_types@PAVCIOCPBuffer@@V?$allocator@PAVCIOCPBuffer@@@std@@@std@@@std@@SAAAPAVCIOCPBuffer@@PAU?$_List_node@PAVCIOCPBuffer@@PAX@2@@Z 100083e0 f i IOCPS.obj
 0001:000073e0       ?_Myval@?$_List_alloc@U?$_List_base_types@PAXV?$allocator@PAX@std@@@std@@@std@@SAAAPAXPAU?$_List_node@PAXPAX@2@@Z 100083e0 f i IOCPS.obj
 0001:000073e0       ?_Right@?$_Tree_comp_alloc@V?$_Tmap_traits@GPAXU?$less@G@std@@V?$allocator@U?$pair@$$CBGPAX@std@@@2@$0A@@std@@@std@@SAAAPAU?$_Tree_node@U?$pair@$$CBGPAX@std@@PAX@2@PAU32@@Z 100083e0 f i IOCPS.obj
 0001:000073e0       ?_Myval@?$_List_alloc@U?$_List_base_types@PAUJobItem@@V?$allocator@PAUJobItem@@@std@@@std@@@std@@SAAAPAUJobItem@@PAU?$_List_node@PAUJobItem@@PAX@2@@Z 100083e0 f i IOCPS.obj
 0001:000073e0       ?_Myval@?$_List_alloc@U?$_List_base_types@PAUClientContext@@V?$allocator@PAUClientContext@@@std@@@std@@@std@@SAAAPAUClientContext@@PAU?$_List_node@PAUClientContext@@PAX@2@@Z 100083e0 f i IOCPS.obj
 0001:000073e0       ?_Right@?$_Tree_comp_alloc@V?$_Tmap_traits@IPAUClientContext@@U?$less@I@std@@V?$allocator@U?$pair@$$CBIPAUClientContext@@@std@@@3@$0A@@std@@@std@@SAAAPAU?$_Tree_node@U?$pair@$$CBIPAUClientContext@@@std@@PAX@2@PAU32@@Z 100083e0 f i IOCPS.obj
 0001:00007400       ?_Prevnode@?$_List_alloc@U?$_List_base_types@PAUJobItem@@V?$allocator@PAUJobItem@@@std@@@std@@@std@@SAAAPAU?$_List_node@PAUJobItem@@PAX@2@PAU32@@Z 10008400 f i IOCPS.obj
 0001:00007400       ?_Parent@?$_Tree_comp_alloc@V?$_Tmap_traits@IPAVCIOCPBuffer@@U?$less@I@std@@V?$allocator@U?$pair@$$CBIPAVCIOCPBuffer@@@std@@@3@$0A@@std@@@std@@SAAAPAU?$_Tree_node@U?$pair@$$CBIPAVCIOCPBuffer@@@std@@PAX@2@PAU32@@Z 10008400 f i IOCPS.obj
 0001:00007400       ?_Prevnode@?$_List_alloc@U?$_List_base_types@PAXV?$allocator@PAX@std@@@std@@@std@@SAAAPAU?$_List_node@PAXPAX@2@PAU32@@Z 10008400 f i IOCPS.obj
 0001:00007400       ?_Prevnode@?$_List_alloc@U?$_List_base_types@PAVCIOCPBuffer@@V?$allocator@PAVCIOCPBuffer@@@std@@@std@@@std@@SAAAPAU?$_List_node@PAVCIOCPBuffer@@PAX@2@PAU32@@Z 10008400 f i IOCPS.obj
 0001:00007400       ?_Parent@?$_Tree_comp_alloc@V?$_Tmap_traits@IPAUClientContext@@U?$less@I@std@@V?$allocator@U?$pair@$$CBIPAUClientContext@@@std@@@3@$0A@@std@@@std@@SAAAPAU?$_Tree_node@U?$pair@$$CBIPAUClientContext@@@std@@PAX@2@PAU32@@Z 10008400 f i IOCPS.obj
 0001:00007400       ?_Prevnode@?$_List_alloc@U?$_List_base_types@PAUClientContext@@V?$allocator@PAUClientContext@@@std@@@std@@@std@@SAAAPAU?$_List_node@PAUClientContext@@PAX@2@PAU32@@Z 10008400 f i IOCPS.obj
 0001:00007400       ?_Parent@?$_Tree_comp_alloc@V?$_Tmap_traits@GPAXU?$less@G@std@@V?$allocator@U?$pair@$$CBGPAX@std@@@2@$0A@@std@@@std@@SAAAPAU?$_Tree_node@U?$pair@$$CBGPAX@std@@PAX@2@PAU32@@Z 10008400 f i IOCPS.obj
 0001:00007420       ?pointer_to@?$pointer_traits@PAU?$pair@$$CBGPAX@std@@@std@@SAPAU?$pair@$$CBGPAX@2@AAU32@@Z 10008420 f i IOCPS.obj
 0001:00007420       ?_Left@?$_Tree_comp_alloc@V?$_Tmap_traits@IPAVCIOCPBuffer@@U?$less@I@std@@V?$allocator@U?$pair@$$CBIPAVCIOCPBuffer@@@std@@@3@$0A@@std@@@std@@SAAAPAU?$_Tree_node@U?$pair@$$CBIPAVCIOCPBuffer@@@std@@PAX@2@PAU32@@Z 10008420 f i IOCPS.obj
 0001:00007420       ?pointer_to@?$pointer_traits@PAU?$pair@$$CBIPAVCIOCPBuffer@@@std@@@std@@SAPAU?$pair@$$CBIPAVCIOCPBuffer@@@2@AAU32@@Z 10008420 f i IOCPS.obj
 0001:00007420       ?_Left@?$_Tree_comp_alloc@V?$_Tmap_traits@IPAUClientContext@@U?$less@I@std@@V?$allocator@U?$pair@$$CBIPAUClientContext@@@std@@@3@$0A@@std@@@std@@SAAAPAU?$_Tree_node@U?$pair@$$CBIPAUClientContext@@@std@@PAX@2@PAU32@@Z 10008420 f i IOCPS.obj
 0001:00007420       ?_Nextnode@?$_List_alloc@U?$_List_base_types@PAUClientContext@@V?$allocator@PAUClientContext@@@std@@@std@@@std@@SAAAPAU?$_List_node@PAUClientContext@@PAX@2@PAU32@@Z 10008420 f i IOCPS.obj
 0001:00007420       ?_Nextnode@?$_List_alloc@U?$_List_base_types@PAVCIOCPBuffer@@V?$allocator@PAVCIOCPBuffer@@@std@@@std@@@std@@SAAAPAU?$_List_node@PAVCIOCPBuffer@@PAX@2@PAU32@@Z 10008420 f i IOCPS.obj
 0001:00007420       ?pointer_to@?$pointer_traits@PAU?$pair@$$CBIPAUClientContext@@@std@@@std@@SAPAU?$pair@$$CBIPAUClientContext@@@2@AAU32@@Z 10008420 f i IOCPS.obj
 0001:00007420       ?_Nextnode@?$_List_alloc@U?$_List_base_types@PAUJobItem@@V?$allocator@PAUJobItem@@@std@@@std@@@std@@SAAAPAU?$_List_node@PAUJobItem@@PAX@2@PAU32@@Z 10008420 f i IOCPS.obj
 0001:00007420       ?_Left@?$_Tree_comp_alloc@V?$_Tmap_traits@GPAXU?$less@G@std@@V?$allocator@U?$pair@$$CBGPAX@std@@@2@$0A@@std@@@std@@SAAAPAU?$_Tree_node@U?$pair@$$CBGPAX@std@@PAX@2@PAU32@@Z 10008420 f i IOCPS.obj
 0001:00007420       ?_Nextnode@?$_List_alloc@U?$_List_base_types@PAXV?$allocator@PAX@std@@@std@@@std@@SAAAPAU?$_List_node@PAXPAX@2@PAU32@@Z 10008420 f i IOCPS.obj
 0001:00007440       ?_Isnil@?$_Tree_comp_alloc@V?$_Tmap_traits@GPAXU?$less@G@std@@V?$allocator@U?$pair@$$CBGPAX@std@@@2@$0A@@std@@@std@@SAAADPAU?$_Tree_node@U?$pair@$$CBGPAX@std@@PAX@2@@Z 10008440 f i IOCPS.obj
 0001:00007440       ?_Isnil@?$_Tree_comp_alloc@V?$_Tmap_traits@IPAVCIOCPBuffer@@U?$less@I@std@@V?$allocator@U?$pair@$$CBIPAVCIOCPBuffer@@@std@@@3@$0A@@std@@@std@@SAAADPAU?$_Tree_node@U?$pair@$$CBIPAVCIOCPBuffer@@@std@@PAX@2@@Z 10008440 f i IOCPS.obj
 0001:00007440       ?_Isnil@?$_Tree_comp_alloc@V?$_Tmap_traits@IPAUClientContext@@U?$less@I@std@@V?$allocator@U?$pair@$$CBIPAUClientContext@@@std@@@3@$0A@@std@@@std@@SAAADPAU?$_Tree_node@U?$pair@$$CBIPAUClientContext@@@std@@PAX@2@@Z 10008440 f i IOCPS.obj
 0001:00007460       ?_Color@?$_Tree_comp_alloc@V?$_Tmap_traits@IPAVCIOCPBuffer@@U?$less@I@std@@V?$allocator@U?$pair@$$CBIPAVCIOCPBuffer@@@std@@@3@$0A@@std@@@std@@SAAADPAU?$_Tree_node@U?$pair@$$CBIPAVCIOCPBuffer@@@std@@PAX@2@@Z 10008460 f i IOCPS.obj
 0001:00007460       ?_Color@?$_Tree_comp_alloc@V?$_Tmap_traits@IPAUClientContext@@U?$less@I@std@@V?$allocator@U?$pair@$$CBIPAUClientContext@@@std@@@3@$0A@@std@@@std@@SAAADPAU?$_Tree_node@U?$pair@$$CBIPAUClientContext@@@std@@PAX@2@@Z 10008460 f i IOCPS.obj
 0001:00007460       ?_Color@?$_Tree_comp_alloc@V?$_Tmap_traits@GPAXU?$less@G@std@@V?$allocator@U?$pair@$$CBGPAX@std@@@2@$0A@@std@@@std@@SAAADPAU?$_Tree_node@U?$pair@$$CBGPAX@std@@PAX@2@@Z 10008460 f i IOCPS.obj
 0001:00007480       ?_Key@?$_Tree@V?$_Tmap_traits@IPAVCIOCPBuffer@@U?$less@I@std@@V?$allocator@U?$pair@$$CBIPAVCIOCPBuffer@@@std@@@3@$0A@@std@@@std@@IBEABIPAU?$_Tree_node@U?$pair@$$CBIPAVCIOCPBuffer@@@std@@PAX@2@@Z 10008480 f i IOCPS.obj
 0001:00007480       ?_Key@?$_Tree@V?$_Tmap_traits@IPAUClientContext@@U?$less@I@std@@V?$allocator@U?$pair@$$CBIPAUClientContext@@@std@@@3@$0A@@std@@@std@@IBEABIPAU?$_Tree_node@U?$pair@$$CBIPAUClientContext@@@std@@PAX@2@@Z 10008480 f i IOCPS.obj
 0001:00007480       ?_Key@?$_Tree@V?$_Tmap_traits@GPAXU?$less@G@std@@V?$allocator@U?$pair@$$CBGPAX@std@@@2@$0A@@std@@@std@@IBEABGPAU?$_Tree_node@U?$pair@$$CBGPAX@std@@PAX@2@@Z 10008480 f i IOCPS.obj
 0001:000074b0       ?_Tidy@?$_Tree@V?$_Tmap_traits@IPAUClientContext@@U?$less@I@std@@V?$allocator@U?$pair@$$CBIPAUClientContext@@@std@@@3@$0A@@std@@@std@@IAEXXZ 100084b0 f i IOCPS.obj
 0001:000074b0       ?_Tidy@?$_Tree@V?$_Tmap_traits@IPAVCIOCPBuffer@@U?$less@I@std@@V?$allocator@U?$pair@$$CBIPAVCIOCPBuffer@@@std@@@3@$0A@@std@@@std@@IAEXXZ 100084b0 f i IOCPS.obj
 0001:000074b0       ?_Tidy@?$_Tree@V?$_Tmap_traits@GPAXU?$less@G@std@@V?$allocator@U?$pair@$$CBGPAX@std@@@2@$0A@@std@@@std@@IAEXXZ 100084b0 f i IOCPS.obj
 0001:00007500       ?_Rrotate@?$_Tree@V?$_Tmap_traits@IPAUClientContext@@U?$less@I@std@@V?$allocator@U?$pair@$$CBIPAUClientContext@@@std@@@3@$0A@@std@@@std@@IAEXPAU?$_Tree_node@U?$pair@$$CBIPAUClientContext@@@std@@PAX@2@@Z 10008500 f i IOCPS.obj
 0001:00007500       ?_Rrotate@?$_Tree@V?$_Tmap_traits@IPAVCIOCPBuffer@@U?$less@I@std@@V?$allocator@U?$pair@$$CBIPAVCIOCPBuffer@@@std@@@3@$0A@@std@@@std@@IAEXPAU?$_Tree_node@U?$pair@$$CBIPAVCIOCPBuffer@@@std@@PAX@2@@Z 10008500 f i IOCPS.obj
 0001:00007500       ?_Rrotate@?$_Tree@V?$_Tmap_traits@GPAXU?$less@G@std@@V?$allocator@U?$pair@$$CBGPAX@std@@@2@$0A@@std@@@std@@IAEXPAU?$_Tree_node@U?$pair@$$CBGPAX@std@@PAX@2@@Z 10008500 f i IOCPS.obj
 0001:00007630       ?_Root@?$_Tree@V?$_Tmap_traits@IPAVCIOCPBuffer@@U?$less@I@std@@V?$allocator@U?$pair@$$CBIPAVCIOCPBuffer@@@std@@@3@$0A@@std@@@std@@IBEAAPAU?$_Tree_node@U?$pair@$$CBIPAVCIOCPBuffer@@@std@@PAX@2@XZ 10008630 f i IOCPS.obj
 0001:00007630       ?_Root@?$_Tree@V?$_Tmap_traits@IPAUClientContext@@U?$less@I@std@@V?$allocator@U?$pair@$$CBIPAUClientContext@@@std@@@3@$0A@@std@@@std@@IBEAAPAU?$_Tree_node@U?$pair@$$CBIPAUClientContext@@@std@@PAX@2@XZ 10008630 f i IOCPS.obj
 0001:00007630       ?_Root@?$_Tree@V?$_Tmap_traits@GPAXU?$less@G@std@@V?$allocator@U?$pair@$$CBGPAX@std@@@2@$0A@@std@@@std@@IBEAAPAU?$_Tree_node@U?$pair@$$CBGPAX@std@@PAX@2@XZ 10008630 f i IOCPS.obj
 0001:00007650       ?_Rmost@?$_Tree@V?$_Tmap_traits@IPAVCIOCPBuffer@@U?$less@I@std@@V?$allocator@U?$pair@$$CBIPAVCIOCPBuffer@@@std@@@3@$0A@@std@@@std@@IBEAAPAU?$_Tree_node@U?$pair@$$CBIPAVCIOCPBuffer@@@std@@PAX@2@XZ 10008650 f i IOCPS.obj
 0001:00007650       ?_Rmost@?$_Tree@V?$_Tmap_traits@IPAUClientContext@@U?$less@I@std@@V?$allocator@U?$pair@$$CBIPAUClientContext@@@std@@@3@$0A@@std@@@std@@IBEAAPAU?$_Tree_node@U?$pair@$$CBIPAUClientContext@@@std@@PAX@2@XZ 10008650 f i IOCPS.obj
 0001:00007650       ?_Rmost@?$_Tree@V?$_Tmap_traits@GPAXU?$less@G@std@@V?$allocator@U?$pair@$$CBGPAX@std@@@2@$0A@@std@@@std@@IBEAAPAU?$_Tree_node@U?$pair@$$CBGPAX@std@@PAX@2@XZ 10008650 f i IOCPS.obj
 0001:00007670       ?_Lrotate@?$_Tree@V?$_Tmap_traits@GPAXU?$less@G@std@@V?$allocator@U?$pair@$$CBGPAX@std@@@2@$0A@@std@@@std@@IAEXPAU?$_Tree_node@U?$pair@$$CBGPAX@std@@PAX@2@@Z 10008670 f i IOCPS.obj
 0001:00007670       ?_Lrotate@?$_Tree@V?$_Tmap_traits@IPAUClientContext@@U?$less@I@std@@V?$allocator@U?$pair@$$CBIPAUClientContext@@@std@@@3@$0A@@std@@@std@@IAEXPAU?$_Tree_node@U?$pair@$$CBIPAUClientContext@@@std@@PAX@2@@Z 10008670 f i IOCPS.obj
 0001:00007670       ?_Lrotate@?$_Tree@V?$_Tmap_traits@IPAVCIOCPBuffer@@U?$less@I@std@@V?$allocator@U?$pair@$$CBIPAVCIOCPBuffer@@@std@@@3@$0A@@std@@@std@@IAEXPAU?$_Tree_node@U?$pair@$$CBIPAVCIOCPBuffer@@@std@@PAX@2@@Z 10008670 f i IOCPS.obj
 0001:000077a0       ?_Lmost@?$_Tree@V?$_Tmap_traits@IPAUClientContext@@U?$less@I@std@@V?$allocator@U?$pair@$$CBIPAUClientContext@@@std@@@3@$0A@@std@@@std@@IBEAAPAU?$_Tree_node@U?$pair@$$CBIPAUClientContext@@@std@@PAX@2@XZ 100087a0 f i IOCPS.obj
 0001:000077a0       ?_Lmost@?$_Tree@V?$_Tmap_traits@GPAXU?$less@G@std@@V?$allocator@U?$pair@$$CBGPAX@std@@@2@$0A@@std@@@std@@IBEAAPAU?$_Tree_node@U?$pair@$$CBGPAX@std@@PAX@2@XZ 100087a0 f i IOCPS.obj
 0001:000077a0       ?_Lmost@?$_Tree@V?$_Tmap_traits@IPAVCIOCPBuffer@@U?$less@I@std@@V?$allocator@U?$pair@$$CBIPAVCIOCPBuffer@@@std@@@3@$0A@@std@@@std@@IBEAAPAU?$_Tree_node@U?$pair@$$CBIPAVCIOCPBuffer@@@std@@PAX@2@XZ 100087a0 f i IOCPS.obj
 0001:000077c0       ?_Erase@?$_Tree@V?$_Tmap_traits@IPAUClientContext@@U?$less@I@std@@V?$allocator@U?$pair@$$CBIPAUClientContext@@@std@@@3@$0A@@std@@@std@@IAEXPAU?$_Tree_node@U?$pair@$$CBIPAUClientContext@@@std@@PAX@2@@Z 100087c0 f i IOCPS.obj
 0001:000077c0       ?_Erase@?$_Tree@V?$_Tmap_traits@GPAXU?$less@G@std@@V?$allocator@U?$pair@$$CBGPAX@std@@@2@$0A@@std@@@std@@IAEXPAU?$_Tree_node@U?$pair@$$CBGPAX@std@@PAX@2@@Z 100087c0 f i IOCPS.obj
 0001:000077c0       ?_Erase@?$_Tree@V?$_Tmap_traits@IPAVCIOCPBuffer@@U?$less@I@std@@V?$allocator@U?$pair@$$CBIPAVCIOCPBuffer@@@std@@@3@$0A@@std@@@std@@IAEXPAU?$_Tree_node@U?$pair@$$CBIPAVCIOCPBuffer@@@std@@PAX@2@@Z 100087c0 f i IOCPS.obj
 0001:00007860       ?lower_bound@?$_Tree@V?$_Tmap_traits@IPAVCIOCPBuffer@@U?$less@I@std@@V?$allocator@U?$pair@$$CBIPAVCIOCPBuffer@@@std@@@3@$0A@@std@@@std@@QAE?AV?$_Tree_iterator@V?$_Tree_val@U?$_Tree_simple_types@U?$pair@$$CBIPAVCIOCPBuffer@@@std@@@std@@@std@@@2@ABI@Z 10008860 f i IOCPS.obj
 0001:00007860       ?lower_bound@?$_Tree@V?$_Tmap_traits@IPAUClientContext@@U?$less@I@std@@V?$allocator@U?$pair@$$CBIPAUClientContext@@@std@@@3@$0A@@std@@@std@@QAE?AV?$_Tree_iterator@V?$_Tree_val@U?$_Tree_simple_types@U?$pair@$$CBIPAUClientContext@@@std@@@std@@@std@@@2@ABI@Z 10008860 f i IOCPS.obj
 0001:00007890       ??0?$_Tree@V?$_Tmap_traits@GPAXU?$less@G@std@@V?$allocator@U?$pair@$$CBGPAX@std@@@2@$0A@@std@@@std@@QAE@ABU?$less@G@1@@Z 10008890 f i IOCPS.obj
 0001:00007890       ??0?$_Tree@V?$_Tmap_traits@IPAVCIOCPBuffer@@U?$less@I@std@@V?$allocator@U?$pair@$$CBIPAVCIOCPBuffer@@@std@@@3@$0A@@std@@@std@@QAE@ABU?$less@I@1@@Z 10008890 f i IOCPS.obj
 0001:00007890       ??0?$_Tree@V?$_Tmap_traits@IPAUClientContext@@U?$less@I@std@@V?$allocator@U?$pair@$$CBIPAUClientContext@@@std@@@3@$0A@@std@@@std@@QAE@ABU?$less@I@1@@Z 10008890 f i IOCPS.obj
 0001:000078b0       ??F?$_List_iterator@V?$_List_val@U?$_List_simple_types@PAUJobItem@@@std@@@std@@@std@@QAEAAV01@XZ 100088b0 f i IOCPS.obj
 0001:000078d0       ??E?$_List_iterator@V?$_List_val@U?$_List_simple_types@PAVCIOCPBuffer@@@std@@@std@@@std@@QAEAAV01@XZ 100088d0 f i IOCPS.obj
 0001:000078d0       ??E?$_List_iterator@V?$_List_val@U?$_List_simple_types@PAUClientContext@@@std@@@std@@@std@@QAEAAV01@XZ 100088d0 f i IOCPS.obj
 0001:000078d0       ??E?$_List_iterator@V?$_List_val@U?$_List_simple_types@PAUJobItem@@@std@@@std@@@std@@QAEAAV01@XZ 100088d0 f i IOCPS.obj
 0001:000078d0       ??E?$_List_iterator@V?$_List_val@U?$_List_simple_types@PAX@std@@@std@@@std@@QAEAAV01@XZ 100088d0 f i IOCPS.obj
 0001:000078f0       ??D?$_List_const_iterator@V?$_List_val@U?$_List_simple_types@PAUJobItem@@@std@@@std@@@std@@QBEABQAUJobItem@@XZ 100088f0 f i IOCPS.obj
 0001:000078f0       ??D?$_List_const_iterator@V?$_List_val@U?$_List_simple_types@PAUClientContext@@@std@@@std@@@std@@QBEABQAUClientContext@@XZ 100088f0 f i IOCPS.obj
 0001:000078f0       ??D?$_List_const_iterator@V?$_List_val@U?$_List_simple_types@PAVCIOCPBuffer@@@std@@@std@@@std@@QBEABQAVCIOCPBuffer@@XZ 100088f0 f i IOCPS.obj
 0001:000078f0       ??D?$_List_const_iterator@V?$_List_val@U?$_List_simple_types@PAX@std@@@std@@@std@@QBEABQAXXZ 100088f0 f i IOCPS.obj
 0001:00007910       ?_Mysize@?$_List_alloc@U?$_List_base_types@PAVCIOCPBuffer@@V?$allocator@PAVCIOCPBuffer@@@std@@@std@@@std@@QBEABIXZ 10008910 f i IOCPS.obj
 0001:00007910       ?_Mysize@?$_List_alloc@U?$_List_base_types@PAUJobItem@@V?$allocator@PAUJobItem@@@std@@@std@@@std@@QAEAAIXZ 10008910 f i IOCPS.obj
 0001:00007910       ?_Mysize@?$_List_alloc@U?$_List_base_types@PAXV?$allocator@PAX@std@@@std@@@std@@QAEAAIXZ 10008910 f i IOCPS.obj
 0001:00007910       ?_Mysize@?$_List_alloc@U?$_List_base_types@PAXV?$allocator@PAX@std@@@std@@@std@@QBEABIXZ 10008910 f i IOCPS.obj
 0001:00007910       ?_Mysize@?$_List_alloc@U?$_List_base_types@PAUJobItem@@V?$allocator@PAUJobItem@@@std@@@std@@@std@@QBEABIXZ 10008910 f i IOCPS.obj
 0001:00007910       ?_Mysize@?$_List_alloc@U?$_List_base_types@PAUClientContext@@V?$allocator@PAUClientContext@@@std@@@std@@@std@@QAEAAIXZ 10008910 f i IOCPS.obj
 0001:00007910       ?_Mysize@?$_List_alloc@U?$_List_base_types@PAUClientContext@@V?$allocator@PAUClientContext@@@std@@@std@@@std@@QBEABIXZ 10008910 f i IOCPS.obj
 0001:00007910       ?_Mysize@?$_List_alloc@U?$_List_base_types@PAVCIOCPBuffer@@V?$allocator@PAVCIOCPBuffer@@@std@@@std@@@std@@QAEAAIXZ 10008910 f i IOCPS.obj
 0001:00007930       ??1?$_List_alloc@U?$_List_base_types@PAUClientContext@@V?$allocator@PAUClientContext@@@std@@@std@@@std@@QAE@XZ 10008930 f i IOCPS.obj
 0001:00007930       ??1?$_List_alloc@U?$_List_base_types@PAVCIOCPBuffer@@V?$allocator@PAVCIOCPBuffer@@@std@@@std@@@std@@QAE@XZ 10008930 f i IOCPS.obj
 0001:00007930       ??1?$_List_alloc@U?$_List_base_types@PAXV?$allocator@PAX@std@@@std@@@std@@QAE@XZ 10008930 f i IOCPS.obj
 0001:00007930       ??1?$_List_alloc@U?$_List_base_types@PAUJobItem@@V?$allocator@PAUJobItem@@@std@@@std@@@std@@QAE@XZ 10008930 f i IOCPS.obj
 0001:00007980       ?_Freenode@?$_List_buy@PAVCIOCPBuffer@@V?$allocator@PAVCIOCPBuffer@@@std@@@std@@QAEXPAU?$_List_node@PAVCIOCPBuffer@@PAX@2@@Z 10008980 f i IOCPS.obj
 0001:00007980       ?_Freenode@?$_List_buy@PAXV?$allocator@PAX@std@@@std@@QAEXPAU?$_List_node@PAXPAX@2@@Z 10008980 f i IOCPS.obj
 0001:00007980       ?_Freenode@?$_List_buy@PAUClientContext@@V?$allocator@PAUClientContext@@@std@@@std@@QAEXPAU?$_List_node@PAUClientContext@@PAX@2@@Z 10008980 f i IOCPS.obj
 0001:00007980       ?_Freenode@?$_List_buy@PAUJobItem@@V?$allocator@PAUJobItem@@@std@@@std@@QAEXPAU?$_List_node@PAUJobItem@@PAX@2@@Z 10008980 f i IOCPS.obj
 0001:00007a20       ??0?$_List_buy@PAUJobItem@@V?$allocator@PAUJobItem@@@std@@@std@@QAE@XZ 10008a20 f i IOCPS.obj
 0001:00007a20       ??0?$_List_buy@PAVCIOCPBuffer@@V?$allocator@PAVCIOCPBuffer@@@std@@@std@@QAE@XZ 10008a20 f i IOCPS.obj
 0001:00007a20       ??0?$_List_buy@PAUClientContext@@V?$allocator@PAUClientContext@@@std@@@std@@QAE@XZ 10008a20 f i IOCPS.obj
 0001:00007a20       ??0?$_List_buy@PAXV?$allocator@PAX@std@@@std@@QAE@XZ 10008a20 f i IOCPS.obj
 0001:00007a40       ?_Tidy@?$list@PAUClientContext@@V?$allocator@PAUClientContext@@@std@@@std@@QAEXXZ 10008a40 f i IOCPS.obj
 0001:00007a40       ?_Tidy@?$list@PAXV?$allocator@PAX@std@@@std@@QAEXXZ 10008a40 f i IOCPS.obj
 0001:00007a40       ?_Tidy@?$list@PAVCIOCPBuffer@@V?$allocator@PAVCIOCPBuffer@@@std@@@std@@QAEXXZ 10008a40 f i IOCPS.obj
 0001:00007a40       ?_Tidy@?$list@PAUJobItem@@V?$allocator@PAUJobItem@@@std@@@std@@QAEXXZ 10008a40 f i IOCPS.obj
 0001:00007a60       ?erase@?$list@PAUJobItem@@V?$allocator@PAUJobItem@@@std@@@std@@QAE?AV?$_List_iterator@V?$_List_val@U?$_List_simple_types@PAUJobItem@@@std@@@std@@@2@V?$_List_const_iterator@V?$_List_val@U?$_List_simple_types@PAUJobItem@@@std@@@std@@@2@@Z 10008a60 f i IOCPS.obj
 0001:00007a60       ?erase@?$list@PAVCIOCPBuffer@@V?$allocator@PAVCIOCPBuffer@@@std@@@std@@QAE?AV?$_List_iterator@V?$_List_val@U?$_List_simple_types@PAVCIOCPBuffer@@@std@@@std@@@2@V?$_List_const_iterator@V?$_List_val@U?$_List_simple_types@PAVCIOCPBuffer@@@std@@@std@@@2@@Z 10008a60 f i IOCPS.obj
 0001:00007a60       ?erase@?$list@PAUClientContext@@V?$allocator@PAUClientContext@@@std@@@std@@QAE?AV?$_List_iterator@V?$_List_val@U?$_List_simple_types@PAUClientContext@@@std@@@std@@@2@V?$_List_const_iterator@V?$_List_val@U?$_List_simple_types@PAUClientContext@@@std@@@std@@@2@@Z 10008a60 f i IOCPS.obj
 0001:00007ab0       ?_Unchecked_begin@?$list@PAUClientContext@@V?$allocator@PAUClientContext@@@std@@@std@@QAE?AV?$_List_unchecked_iterator@V?$_List_val@U?$_List_simple_types@PAUClientContext@@@std@@@std@@@2@XZ 10008ab0 f i IOCPS.obj
 0001:00007ab0       ?_Unchecked_begin@?$list@PAXV?$allocator@PAX@std@@@std@@QAE?AV?$_List_unchecked_iterator@V?$_List_val@U?$_List_simple_types@PAX@std@@@std@@@2@XZ 10008ab0 f i IOCPS.obj
 0001:00007ab0       ?_Unchecked_begin@?$list@PAVCIOCPBuffer@@V?$allocator@PAVCIOCPBuffer@@@std@@@std@@QAE?AV?$_List_unchecked_iterator@V?$_List_val@U?$_List_simple_types@PAVCIOCPBuffer@@@std@@@std@@@2@XZ 10008ab0 f i IOCPS.obj
 0001:00007af0       ??R?$less@I@std@@QBE_NABI0@Z 10008af0 f i IOCPS.obj
 0001:00007b20       ??0?$_String_alloc@U?$_String_base_types@DV?$allocator@D@std@@@std@@@std@@QAE@XZ 10008b20 f i IOCPS.obj
 0001:00007b40       ?_Assign_rv@?$basic_string@DU?$char_traits@D@std@@V?$allocator@D@2@@std@@QAEX$$QAV12@@Z 10008b40 f i IOCPS.obj
 0001:00007c00       ??E?$_Tree_unchecked_const_iterator@V?$_Tree_val@U?$_Tree_simple_types@U?$pair@$$CBIPAUClientContext@@@std@@@std@@@std@@U_Iterator_base0@2@@std@@QAEAAV01@XZ 10008c00 f i IOCPS.obj
 0001:00007c00       ??E?$_Tree_unchecked_const_iterator@V?$_Tree_val@U?$_Tree_simple_types@U?$pair@$$CBIPAVCIOCPBuffer@@@std@@@std@@@std@@U_Iterator_base0@2@@std@@QAEAAV01@XZ 10008c00 f i IOCPS.obj
 0001:00007c00       ??E?$_Tree_unchecked_const_iterator@V?$_Tree_val@U?$_Tree_simple_types@U?$pair@$$CBGPAX@std@@@std@@@std@@U_Iterator_base0@2@@std@@QAEAAV01@XZ 10008c00 f i IOCPS.obj
 0001:00007cc0       ??0?$_List_const_iterator@V?$_List_val@U?$_List_simple_types@PAVCIOCPBuffer@@@std@@@std@@@std@@QAE@PAU?$_List_node@PAVCIOCPBuffer@@PAX@1@PBV?$_List_val@U?$_List_simple_types@PAVCIOCPBuffer@@@std@@@1@@Z 10008cc0 f i IOCPS.obj
 0001:00007cc0       ??0?$_List_unchecked_iterator@V?$_List_val@U?$_List_simple_types@PAX@std@@@std@@@std@@QAE@PAU?$_List_node@PAXPAX@1@PBV?$_List_val@U?$_List_simple_types@PAX@std@@@1@@Z 10008cc0 f i IOCPS.obj
 0001:00007cc0       ??0?$_List_unchecked_iterator@V?$_List_val@U?$_List_simple_types@PAUClientContext@@@std@@@std@@@std@@QAE@PAU?$_List_node@PAUClientContext@@PAX@1@PBV?$_List_val@U?$_List_simple_types@PAUClientContext@@@std@@@1@@Z 10008cc0 f i IOCPS.obj
 0001:00007cc0       ??0?$_List_const_iterator@V?$_List_val@U?$_List_simple_types@PAUJobItem@@@std@@@std@@@std@@QAE@PAU?$_List_node@PAUJobItem@@PAX@1@PBV?$_List_val@U?$_List_simple_types@PAUJobItem@@@std@@@1@@Z 10008cc0 f i IOCPS.obj
 0001:00007cc0       ??0?$_List_unchecked_iterator@V?$_List_val@U?$_List_simple_types@PAVCIOCPBuffer@@@std@@@std@@@std@@QAE@PAU?$_List_node@PAVCIOCPBuffer@@PAX@1@PBV?$_List_val@U?$_List_simple_types@PAVCIOCPBuffer@@@std@@@1@@Z 10008cc0 f i IOCPS.obj
 0001:00007cc0       ??0?$_List_const_iterator@V?$_List_val@U?$_List_simple_types@PAX@std@@@std@@@std@@QAE@PAU?$_List_node@PAXPAX@1@PBV?$_List_val@U?$_List_simple_types@PAX@std@@@1@@Z 10008cc0 f i IOCPS.obj
 0001:00007cc0       ??0?$_List_const_iterator@V?$_List_val@U?$_List_simple_types@PAUClientContext@@@std@@@std@@@std@@QAE@PAU?$_List_node@PAUClientContext@@PAX@1@PBV?$_List_val@U?$_List_simple_types@PAUClientContext@@@std@@@1@@Z 10008cc0 f i IOCPS.obj
 0001:00007cc0       ??0?$_Tree_const_iterator@V?$_Tree_val@U?$_Tree_simple_types@U?$pair@$$CBGPAX@std@@@std@@@std@@@std@@QAE@PAU?$_Tree_node@U?$pair@$$CBGPAX@std@@PAX@1@PBV?$_Tree_val@U?$_Tree_simple_types@U?$pair@$$CBGPAX@std@@@std@@@1@@Z 10008cc0 f i IOCPS.obj
 0001:00007cc0       ??0?$_Tree_const_iterator@V?$_Tree_val@U?$_Tree_simple_types@U?$pair@$$CBIPAUClientContext@@@std@@@std@@@std@@@std@@QAE@PAU?$_Tree_node@U?$pair@$$CBIPAUClientContext@@@std@@PAX@1@PBV?$_Tree_val@U?$_Tree_simple_types@U?$pair@$$CBIPAUClientContext@@@std@@@std@@@1@@Z 10008cc0 f i IOCPS.obj
 0001:00007cc0       ??0?$_Tree_const_iterator@V?$_Tree_val@U?$_Tree_simple_types@U?$pair@$$CBIPAVCIOCPBuffer@@@std@@@std@@@std@@@std@@QAE@PAU?$_Tree_node@U?$pair@$$CBIPAVCIOCPBuffer@@@std@@PAX@1@PBV?$_Tree_val@U?$_Tree_simple_types@U?$pair@$$CBIPAVCIOCPBuffer@@@std@@@std@@@1@@Z 10008cc0 f i IOCPS.obj
 0001:00007ce0       ?_Min@?$_Tree_val@U?$_Tree_simple_types@U?$pair@$$CBIPAUClientContext@@@std@@@std@@@std@@SAPAU?$_Tree_node@U?$pair@$$CBIPAUClientContext@@@std@@PAX@2@PAU32@@Z 10008ce0 f i IOCPS.obj
 0001:00007ce0       ?_Min@?$_Tree_val@U?$_Tree_simple_types@U?$pair@$$CBGPAX@std@@@std@@@std@@SAPAU?$_Tree_node@U?$pair@$$CBGPAX@std@@PAX@2@PAU32@@Z 10008ce0 f i IOCPS.obj
 0001:00007ce0       ?_Min@?$_Tree_val@U?$_Tree_simple_types@U?$pair@$$CBIPAVCIOCPBuffer@@@std@@@std@@@std@@SAPAU?$_Tree_node@U?$pair@$$CBIPAVCIOCPBuffer@@@std@@PAX@2@PAU32@@Z 10008ce0 f i IOCPS.obj
 0001:00007d20       ?_Max@?$_Tree_val@U?$_Tree_simple_types@U?$pair@$$CBIPAVCIOCPBuffer@@@std@@@std@@@std@@SAPAU?$_Tree_node@U?$pair@$$CBIPAVCIOCPBuffer@@@std@@PAX@2@PAU32@@Z 10008d20 f i IOCPS.obj
 0001:00007d20       ?_Max@?$_Tree_val@U?$_Tree_simple_types@U?$pair@$$CBGPAX@std@@@std@@@std@@SAPAU?$_Tree_node@U?$pair@$$CBGPAX@std@@PAX@2@PAU32@@Z 10008d20 f i IOCPS.obj
 0001:00007d20       ?_Max@?$_Tree_val@U?$_Tree_simple_types@U?$pair@$$CBIPAUClientContext@@@std@@@std@@@std@@SAPAU?$_Tree_node@U?$pair@$$CBIPAUClientContext@@@std@@PAX@2@PAU32@@Z 10008d20 f i IOCPS.obj
 0001:00007d60       ?_Myval@?$_Tree_val@U?$_Tree_simple_types@U?$pair@$$CBIPAVCIOCPBuffer@@@std@@@std@@@std@@SAAAU?$pair@$$CBIPAVCIOCPBuffer@@@2@PAU?$_Tree_node@U?$pair@$$CBIPAVCIOCPBuffer@@@std@@PAX@2@@Z 10008d60 f i IOCPS.obj
 0001:00007d60       ?_Myval@?$_Tree_val@U?$_Tree_simple_types@U?$pair@$$CBGPAX@std@@@std@@@std@@SAAAU?$pair@$$CBGPAX@2@PAU?$_Tree_node@U?$pair@$$CBGPAX@std@@PAX@2@@Z 10008d60 f i IOCPS.obj
 0001:00007d60       ?_Myval@?$_Tree_val@U?$_Tree_simple_types@U?$pair@$$CBIPAUClientContext@@@std@@@std@@@std@@SAAAU?$pair@$$CBIPAUClientContext@@@2@PAU?$_Tree_node@U?$pair@$$CBIPAUClientContext@@@std@@PAX@2@@Z 10008d60 f i IOCPS.obj
 0001:00007d70       ?_Myval@?$_List_val@U?$_List_simple_types@PAX@std@@@std@@SAAAPAXPAU?$_List_node@PAXPAX@2@@Z 10008d70 f i IOCPS.obj
 0001:00007d70       ?_Myval@?$_List_val@U?$_List_simple_types@PAUJobItem@@@std@@@std@@SAAAPAUJobItem@@PAU?$_List_node@PAUJobItem@@PAX@2@@Z 10008d70 f i IOCPS.obj
 0001:00007d70       ?_Right@?$_Tree_val@U?$_Tree_simple_types@U?$pair@$$CBIPAUClientContext@@@std@@@std@@@std@@SAAAPAU?$_Tree_node@U?$pair@$$CBIPAUClientContext@@@std@@PAX@2@PAU32@@Z 10008d70 f i IOCPS.obj
 0001:00007d70       ?_Right@?$_Tree_val@U?$_Tree_simple_types@U?$pair@$$CBIPAVCIOCPBuffer@@@std@@@std@@@std@@SAAAPAU?$_Tree_node@U?$pair@$$CBIPAVCIOCPBuffer@@@std@@PAX@2@PAU32@@Z 10008d70 f i IOCPS.obj
 0001:00007d70       ?_Myval@?$_List_val@U?$_List_simple_types@PAVCIOCPBuffer@@@std@@@std@@SAAAPAVCIOCPBuffer@@PAU?$_List_node@PAVCIOCPBuffer@@PAX@2@@Z 10008d70 f i IOCPS.obj
 0001:00007d70       ?_Myval@?$_List_val@U?$_List_simple_types@PAUClientContext@@@std@@@std@@SAAAPAUClientContext@@PAU?$_List_node@PAUClientContext@@PAX@2@@Z 10008d70 f i IOCPS.obj
 0001:00007d70       ?_Right@?$_Tree_val@U?$_Tree_simple_types@U?$pair@$$CBGPAX@std@@@std@@@std@@SAAAPAU?$_Tree_node@U?$pair@$$CBGPAX@std@@PAX@2@PAU32@@Z 10008d70 f i IOCPS.obj
 0001:00007d80       ?_Parent@?$_Tree_val@U?$_Tree_simple_types@U?$pair@$$CBIPAUClientContext@@@std@@@std@@@std@@SAAAPAU?$_Tree_node@U?$pair@$$CBIPAUClientContext@@@std@@PAX@2@PAU32@@Z 10008d80 f i IOCPS.obj
 0001:00007d80       ?_Prevnode@?$_List_val@U?$_List_simple_types@PAUJobItem@@@std@@@std@@SAAAPAU?$_List_node@PAUJobItem@@PAX@2@PAU32@@Z 10008d80 f i IOCPS.obj
 0001:00007d80       ?_Prevnode@?$_List_val@U?$_List_simple_types@PAUClientContext@@@std@@@std@@SAAAPAU?$_List_node@PAUClientContext@@PAX@2@PAU32@@Z 10008d80 f i IOCPS.obj
 0001:00007d80       ?_Prevnode@?$_List_val@U?$_List_simple_types@PAX@std@@@std@@SAAAPAU?$_List_node@PAXPAX@2@PAU32@@Z 10008d80 f i IOCPS.obj
 0001:00007d80       ?_Parent@?$_Tree_val@U?$_Tree_simple_types@U?$pair@$$CBGPAX@std@@@std@@@std@@SAAAPAU?$_Tree_node@U?$pair@$$CBGPAX@std@@PAX@2@PAU32@@Z 10008d80 f i IOCPS.obj
 0001:00007d80       ?_Prevnode@?$_List_val@U?$_List_simple_types@PAVCIOCPBuffer@@@std@@@std@@SAAAPAU?$_List_node@PAVCIOCPBuffer@@PAX@2@PAU32@@Z 10008d80 f i IOCPS.obj
 0001:00007d80       ?_Parent@?$_Tree_val@U?$_Tree_simple_types@U?$pair@$$CBIPAVCIOCPBuffer@@@std@@@std@@@std@@SAAAPAU?$_Tree_node@U?$pair@$$CBIPAVCIOCPBuffer@@@std@@PAX@2@PAU32@@Z 10008d80 f i IOCPS.obj
 0001:00007d90       ?_Isnil@?$_Tree_val@U?$_Tree_simple_types@U?$pair@$$CBIPAUClientContext@@@std@@@std@@@std@@SAAADPAU?$_Tree_node@U?$pair@$$CBIPAUClientContext@@@std@@PAX@2@@Z 10008d90 f i IOCPS.obj
 0001:00007d90       ?_Isnil@?$_Tree_val@U?$_Tree_simple_types@U?$pair@$$CBGPAX@std@@@std@@@std@@SAAADPAU?$_Tree_node@U?$pair@$$CBGPAX@std@@PAX@2@@Z 10008d90 f i IOCPS.obj
 0001:00007d90       ?_Isnil@?$_Tree_val@U?$_Tree_simple_types@U?$pair@$$CBIPAVCIOCPBuffer@@@std@@@std@@@std@@SAAADPAU?$_Tree_node@U?$pair@$$CBIPAVCIOCPBuffer@@@std@@PAX@2@@Z 10008d90 f i IOCPS.obj
 0001:00007da0       ?_Color@?$_Tree_val@U?$_Tree_simple_types@U?$pair@$$CBGPAX@std@@@std@@@std@@SAAADPAU?$_Tree_node@U?$pair@$$CBGPAX@std@@PAX@2@@Z 10008da0 f i IOCPS.obj
 0001:00007da0       ?_Color@?$_Tree_val@U?$_Tree_simple_types@U?$pair@$$CBIPAUClientContext@@@std@@@std@@@std@@SAAADPAU?$_Tree_node@U?$pair@$$CBIPAUClientContext@@@std@@PAX@2@@Z 10008da0 f i IOCPS.obj
 0001:00007da0       ?_Color@?$_Tree_val@U?$_Tree_simple_types@U?$pair@$$CBIPAVCIOCPBuffer@@@std@@@std@@@std@@SAAADPAU?$_Tree_node@U?$pair@$$CBIPAVCIOCPBuffer@@@std@@PAX@2@@Z 10008da0 f i IOCPS.obj
 0001:00007db0       ?deallocate@?$allocator@U?$_Tree_node@U?$pair@$$CBGPAX@std@@PAX@std@@@std@@QAEXPAU?$_Tree_node@U?$pair@$$CBGPAX@std@@PAX@2@I@Z 10008db0 f i IOCPS.obj
 0001:00007db0       ?deallocate@?$allocator@U?$_Tree_node@U?$pair@$$CBIPAVCIOCPBuffer@@@std@@PAX@std@@@std@@QAEXPAU?$_Tree_node@U?$pair@$$CBIPAVCIOCPBuffer@@@std@@PAX@2@I@Z 10008db0 f i IOCPS.obj
 0001:00007db0       ?deallocate@?$allocator@U?$_Tree_node@U?$pair@$$CBIPAUClientContext@@@std@@PAX@std@@@std@@QAEXPAU?$_Tree_node@U?$pair@$$CBIPAUClientContext@@@std@@PAX@2@I@Z 10008db0 f i IOCPS.obj
 0001:00007dd0       ?_Freeheadnode@?$_Tree_comp_alloc@V?$_Tmap_traits@GPAXU?$less@G@std@@V?$allocator@U?$pair@$$CBGPAX@std@@@2@$0A@@std@@@std@@QAEXPAU?$_Tree_node@U?$pair@$$CBGPAX@std@@PAX@2@@Z 10008dd0 f i IOCPS.obj
 0001:00007dd0       ?_Freeheadnode@?$_Tree_comp_alloc@V?$_Tmap_traits@IPAUClientContext@@U?$less@I@std@@V?$allocator@U?$pair@$$CBIPAUClientContext@@@std@@@3@$0A@@std@@@std@@QAEXPAU?$_Tree_node@U?$pair@$$CBIPAUClientContext@@@std@@PAX@2@@Z 10008dd0 f i IOCPS.obj
 0001:00007dd0       ?_Freenode0@?$_Tree_comp_alloc@V?$_Tmap_traits@IPAVCIOCPBuffer@@U?$less@I@std@@V?$allocator@U?$pair@$$CBIPAVCIOCPBuffer@@@std@@@3@$0A@@std@@@std@@QAEXPAU?$_Tree_node@U?$pair@$$CBIPAVCIOCPBuffer@@@std@@PAX@2@@Z 10008dd0 f i IOCPS.obj
 0001:00007dd0       ?_Freeheadnode@?$_Tree_comp_alloc@V?$_Tmap_traits@IPAVCIOCPBuffer@@U?$less@I@std@@V?$allocator@U?$pair@$$CBIPAVCIOCPBuffer@@@std@@@3@$0A@@std@@@std@@QAEXPAU?$_Tree_node@U?$pair@$$CBIPAVCIOCPBuffer@@@std@@PAX@2@@Z 10008dd0 f i IOCPS.obj
 0001:00007dd0       ?_Freenode0@?$_Tree_comp_alloc@V?$_Tmap_traits@IPAUClientContext@@U?$less@I@std@@V?$allocator@U?$pair@$$CBIPAUClientContext@@@std@@@3@$0A@@std@@@std@@QAEXPAU?$_Tree_node@U?$pair@$$CBIPAUClientContext@@@std@@PAX@2@@Z 10008dd0 f i IOCPS.obj
 0001:00007dd0       ?_Freenode0@?$_Tree_comp_alloc@V?$_Tmap_traits@GPAXU?$less@G@std@@V?$allocator@U?$pair@$$CBGPAX@std@@@2@$0A@@std@@@std@@QAEXPAU?$_Tree_node@U?$pair@$$CBGPAX@std@@PAX@2@@Z 10008dd0 f i IOCPS.obj
 0001:00007e70       ??0?$_Tree_comp_alloc@V?$_Tmap_traits@GPAXU?$less@G@std@@V?$allocator@U?$pair@$$CBGPAX@std@@@2@$0A@@std@@@std@@QAE@ABU?$less@G@1@@Z 10008e70 f i IOCPS.obj
 0001:00007e70       ??0?$_Tree_comp_alloc@V?$_Tmap_traits@IPAVCIOCPBuffer@@U?$less@I@std@@V?$allocator@U?$pair@$$CBIPAVCIOCPBuffer@@@std@@@3@$0A@@std@@@std@@QAE@ABU?$less@I@1@@Z 10008e70 f i IOCPS.obj
 0001:00007e70       ??0?$_Tree_comp_alloc@V?$_Tmap_traits@IPAUClientContext@@U?$less@I@std@@V?$allocator@U?$pair@$$CBIPAUClientContext@@@std@@@3@$0A@@std@@@std@@QAE@ABU?$less@I@1@@Z 10008e70 f i IOCPS.obj
 0001:00007ea0       ?_Kfn@?$_Tree@V?$_Tmap_traits@IPAUClientContext@@U?$less@I@std@@V?$allocator@U?$pair@$$CBIPAUClientContext@@@std@@@3@$0A@@std@@@std@@IBEABIABU?$pair@$$CBIPAUClientContext@@@2@@Z 10008ea0 f i IOCPS.obj
 0001:00007ea0       ?_Kfn@?$_Tree@V?$_Tmap_traits@IPAVCIOCPBuffer@@U?$less@I@std@@V?$allocator@U?$pair@$$CBIPAVCIOCPBuffer@@@std@@@3@$0A@@std@@@std@@IBEABIABU?$pair@$$CBIPAVCIOCPBuffer@@@2@@Z 10008ea0 f i IOCPS.obj
 0001:00007ea0       ?_Kfn@?$_Tree@V?$_Tmap_traits@GPAXU?$less@G@std@@V?$allocator@U?$pair@$$CBGPAX@std@@@2@$0A@@std@@@std@@IBEABGABU?$pair@$$CBGPAX@2@@Z 10008ea0 f i IOCPS.obj
 0001:00007ec0       ?erase@?$_Tree@V?$_Tmap_traits@IPAVCIOCPBuffer@@U?$less@I@std@@V?$allocator@U?$pair@$$CBIPAVCIOCPBuffer@@@std@@@3@$0A@@std@@@std@@QAE?AV?$_Tree_iterator@V?$_Tree_val@U?$_Tree_simple_types@U?$pair@$$CBIPAVCIOCPBuffer@@@std@@@std@@@std@@@2@V?$_Tree_const_iterator@V?$_Tree_val@U?$_Tree_simple_types@U?$pair@$$CBIPAVCIOCPBuffer@@@std@@@std@@@std@@@2@0@Z 10008ec0 f i IOCPS.obj
 0001:00007ec0       ?erase@?$_Tree@V?$_Tmap_traits@GPAXU?$less@G@std@@V?$allocator@U?$pair@$$CBGPAX@std@@@2@$0A@@std@@@std@@QAE?AV?$_Tree_iterator@V?$_Tree_val@U?$_Tree_simple_types@U?$pair@$$CBGPAX@std@@@std@@@std@@@2@V?$_Tree_const_iterator@V?$_Tree_val@U?$_Tree_simple_types@U?$pair@$$CBGPAX@std@@@std@@@std@@@2@0@Z 10008ec0 f i IOCPS.obj
 0001:00007ec0       ?erase@?$_Tree@V?$_Tmap_traits@IPAUClientContext@@U?$less@I@std@@V?$allocator@U?$pair@$$CBIPAUClientContext@@@std@@@3@$0A@@std@@@std@@QAE?AV?$_Tree_iterator@V?$_Tree_val@U?$_Tree_simple_types@U?$pair@$$CBIPAUClientContext@@@std@@@std@@@std@@@2@V?$_Tree_const_iterator@V?$_Tree_val@U?$_Tree_simple_types@U?$pair@$$CBIPAUClientContext@@@std@@@std@@@std@@@2@0@Z 10008ec0 f i IOCPS.obj
 0001:00007f70       ??F?$_List_const_iterator@V?$_List_val@U?$_List_simple_types@PAUJobItem@@@std@@@std@@@std@@QAEAAV01@XZ 10008f70 f i IOCPS.obj
 0001:00007fa0       ??E?$_List_const_iterator@V?$_List_val@U?$_List_simple_types@PAUClientContext@@@std@@@std@@@std@@QAE?AV01@H@Z 10008fa0 f i IOCPS.obj
 0001:00007fa0       ??E?$_List_const_iterator@V?$_List_val@U?$_List_simple_types@PAVCIOCPBuffer@@@std@@@std@@@std@@QAE?AV01@H@Z 10008fa0 f i IOCPS.obj
 0001:00007fa0       ??E?$_List_const_iterator@V?$_List_val@U?$_List_simple_types@PAUJobItem@@@std@@@std@@@std@@QAE?AV01@H@Z 10008fa0 f i IOCPS.obj
 0001:00007fd0       ??E?$_List_const_iterator@V?$_List_val@U?$_List_simple_types@PAUJobItem@@@std@@@std@@@std@@QAEAAV01@XZ 10008fd0 f i IOCPS.obj
 0001:00007fd0       ??E?$_List_const_iterator@V?$_List_val@U?$_List_simple_types@PAX@std@@@std@@@std@@QAEAAV01@XZ 10008fd0 f i IOCPS.obj
 0001:00007fd0       ??E?$_List_const_iterator@V?$_List_val@U?$_List_simple_types@PAVCIOCPBuffer@@@std@@@std@@@std@@QAEAAV01@XZ 10008fd0 f i IOCPS.obj
 0001:00007fd0       ??E?$_List_const_iterator@V?$_List_val@U?$_List_simple_types@PAUClientContext@@@std@@@std@@@std@@QAEAAV01@XZ 10008fd0 f i IOCPS.obj
 0001:00008000       ?deallocate@?$_Wrap_alloc@V?$allocator@U?$_List_node@PAUClientContext@@PAX@std@@@std@@@std@@QAEXPAU?$_List_node@PAUClientContext@@PAX@2@I@Z 10009000 f i IOCPS.obj
 0001:00008000       ?deallocate@?$_Wrap_alloc@V?$allocator@U?$_List_node@PAXPAX@std@@@std@@@std@@QAEXPAU?$_List_node@PAXPAX@2@I@Z 10009000 f i IOCPS.obj
 0001:00008000       ?deallocate@?$_Wrap_alloc@V?$allocator@U?$_List_node@PAVCIOCPBuffer@@PAX@std@@@std@@@std@@QAEXPAU?$_List_node@PAVCIOCPBuffer@@PAX@2@I@Z 10009000 f i IOCPS.obj
 0001:00008000       ?deallocate@?$_Wrap_alloc@V?$allocator@U?$_List_node@PAUJobItem@@PAX@std@@@std@@@std@@QAEXPAU?$_List_node@PAUJobItem@@PAX@2@I@Z 10009000 f i IOCPS.obj
 0001:00008020       ?_Freeheadnode@?$_List_alloc@U?$_List_base_types@PAVCIOCPBuffer@@V?$allocator@PAVCIOCPBuffer@@@std@@@std@@@std@@QAEXPAU?$_List_node@PAVCIOCPBuffer@@PAX@2@@Z 10009020 f i IOCPS.obj
 0001:00008020       ?_Freeheadnode@?$_List_alloc@U?$_List_base_types@PAXV?$allocator@PAX@std@@@std@@@std@@QAEXPAU?$_List_node@PAXPAX@2@@Z 10009020 f i IOCPS.obj
 0001:00008020       ?_Freeheadnode@?$_List_alloc@U?$_List_base_types@PAUJobItem@@V?$allocator@PAUJobItem@@@std@@@std@@@std@@QAEXPAU?$_List_node@PAUJobItem@@PAX@2@@Z 10009020 f i IOCPS.obj
 0001:00008020       ?_Freeheadnode@?$_List_alloc@U?$_List_base_types@PAUClientContext@@V?$allocator@PAUClientContext@@@std@@@std@@@std@@QAEXPAU?$_List_node@PAUClientContext@@PAX@2@@Z 10009020 f i IOCPS.obj
 0001:00008090       ??0?$_List_alloc@U?$_List_base_types@PAUClientContext@@V?$allocator@PAUClientContext@@@std@@@std@@@std@@QAE@XZ 10009090 f i IOCPS.obj
 0001:00008090       ??0?$_List_alloc@U?$_List_base_types@PAVCIOCPBuffer@@V?$allocator@PAVCIOCPBuffer@@@std@@@std@@@std@@QAE@XZ 10009090 f i IOCPS.obj
 0001:00008090       ??0?$_List_alloc@U?$_List_base_types@PAUJobItem@@V?$allocator@PAUJobItem@@@std@@@std@@@std@@QAE@XZ 10009090 f i IOCPS.obj
 0001:00008090       ??0?$_List_alloc@U?$_List_base_types@PAXV?$allocator@PAX@std@@@std@@@std@@QAE@XZ 10009090 f i IOCPS.obj
 0001:000080d0       ?_Unlinknode@?$list@PAVCIOCPBuffer@@V?$allocator@PAVCIOCPBuffer@@@std@@@std@@QAEPAU?$_List_node@PAVCIOCPBuffer@@PAX@2@V?$_List_const_iterator@V?$_List_val@U?$_List_simple_types@PAVCIOCPBuffer@@@std@@@std@@@2@@Z 100090d0 f i IOCPS.obj
 0001:000080d0       ?_Unlinknode@?$list@PAUClientContext@@V?$allocator@PAUClientContext@@@std@@@std@@QAEPAU?$_List_node@PAUClientContext@@PAX@2@V?$_List_const_iterator@V?$_List_val@U?$_List_simple_types@PAUClientContext@@@std@@@std@@@2@@Z 100090d0 f i IOCPS.obj
 0001:000080d0       ?_Unlinknode@?$list@PAUJobItem@@V?$allocator@PAUJobItem@@@std@@@std@@QAEPAU?$_List_node@PAUJobItem@@PAX@2@V?$_List_const_iterator@V?$_List_val@U?$_List_simple_types@PAUJobItem@@@std@@@std@@@2@@Z 100090d0 f i IOCPS.obj
 0001:00008160       ?_Make_iter@?$list@PAVCIOCPBuffer@@V?$allocator@PAVCIOCPBuffer@@@std@@@std@@QBE?AV?$_List_iterator@V?$_List_val@U?$_List_simple_types@PAVCIOCPBuffer@@@std@@@std@@@2@V?$_List_const_iterator@V?$_List_val@U?$_List_simple_types@PAVCIOCPBuffer@@@std@@@std@@@2@@Z 10009160 f i IOCPS.obj
 0001:00008160       ?_Make_iter@?$list@PAUClientContext@@V?$allocator@PAUClientContext@@@std@@@std@@QBE?AV?$_List_iterator@V?$_List_val@U?$_List_simple_types@PAUClientContext@@@std@@@std@@@2@V?$_List_const_iterator@V?$_List_val@U?$_List_simple_types@PAUClientContext@@@std@@@std@@@2@@Z 10009160 f i IOCPS.obj
 0001:00008160       ?_Make_iter@?$list@PAUJobItem@@V?$allocator@PAUJobItem@@@std@@@std@@QBE?AV?$_List_iterator@V?$_List_val@U?$_List_simple_types@PAUJobItem@@@std@@@std@@@2@V?$_List_const_iterator@V?$_List_val@U?$_List_simple_types@PAUJobItem@@@std@@@std@@@2@@Z 10009160 f i IOCPS.obj
 0001:000081b0       ??0?$_List_unchecked_const_iterator@V?$_List_val@U?$_List_simple_types@PAUJobItem@@@std@@@std@@U_Iterator_base0@2@@std@@QAE@PAU?$_List_node@PAUJobItem@@PAX@1@PBV?$_List_val@U?$_List_simple_types@PAUJobItem@@@std@@@1@@Z 100091b0 f i IOCPS.obj
 0001:000081b0       ??0?$_Tree_unchecked_const_iterator@V?$_Tree_val@U?$_Tree_simple_types@U?$pair@$$CBGPAX@std@@@std@@@std@@U_Iterator_base0@2@@std@@QAE@PAU?$_Tree_node@U?$pair@$$CBGPAX@std@@PAX@1@PBV?$_Tree_val@U?$_Tree_simple_types@U?$pair@$$CBGPAX@std@@@std@@@1@@Z 100091b0 f i IOCPS.obj
 0001:000081b0       ??0?$_Tree_unchecked_const_iterator@V?$_Tree_val@U?$_Tree_simple_types@U?$pair@$$CBIPAVCIOCPBuffer@@@std@@@std@@@std@@U_Iterator_base0@2@@std@@QAE@PAU?$_Tree_node@U?$pair@$$CBIPAVCIOCPBuffer@@@std@@PAX@1@PBV?$_Tree_val@U?$_Tree_simple_types@U?$pair@$$CBIPAVCIOCPBuffer@@@std@@@std@@@1@@Z 100091b0 f i IOCPS.obj
 0001:000081b0       ??0?$_List_unchecked_const_iterator@V?$_List_val@U?$_List_simple_types@PAX@std@@@std@@U_Iterator_base0@2@@std@@QAE@PAU?$_List_node@PAXPAX@1@PBV?$_List_val@U?$_List_simple_types@PAX@std@@@1@@Z 100091b0 f i IOCPS.obj
 0001:000081b0       ??0?$_List_unchecked_const_iterator@V?$_List_val@U?$_List_simple_types@PAVCIOCPBuffer@@@std@@@std@@U_Iterator_base0@2@@std@@QAE@PAU?$_List_node@PAVCIOCPBuffer@@PAX@1@PBV?$_List_val@U?$_List_simple_types@PAVCIOCPBuffer@@@std@@@1@@Z 100091b0 f i IOCPS.obj
 0001:000081b0       ??0?$_List_unchecked_const_iterator@V?$_List_val@U?$_List_simple_types@PAUClientContext@@@std@@@std@@U_Iterator_base0@2@@std@@QAE@PAU?$_List_node@PAUClientContext@@PAX@1@PBV?$_List_val@U?$_List_simple_types@PAUClientContext@@@std@@@1@@Z 100091b0 f i IOCPS.obj
 0001:000081b0       ??0?$_Tree_unchecked_const_iterator@V?$_Tree_val@U?$_Tree_simple_types@U?$pair@$$CBIPAUClientContext@@@std@@@std@@@std@@U_Iterator_base0@2@@std@@QAE@PAU?$_Tree_node@U?$pair@$$CBIPAUClientContext@@@std@@PAX@1@PBV?$_Tree_val@U?$_Tree_simple_types@U?$pair@$$CBIPAUClientContext@@@std@@@std@@@1@@Z 100091b0 f i IOCPS.obj
 0001:000081e0       ??E?$_Tree_const_iterator@V?$_Tree_val@U?$_Tree_simple_types@U?$pair@$$CBIPAVCIOCPBuffer@@@std@@@std@@@std@@@std@@QAE?AV01@H@Z 100091e0 f i IOCPS.obj
 0001:000081e0       ??E?$_Tree_const_iterator@V?$_Tree_val@U?$_Tree_simple_types@U?$pair@$$CBIPAUClientContext@@@std@@@std@@@std@@@std@@QAE?AV01@H@Z 100091e0 f i IOCPS.obj
 0001:000081e0       ??E?$_Tree_const_iterator@V?$_Tree_val@U?$_Tree_simple_types@U?$pair@$$CBGPAX@std@@@std@@@std@@@std@@QAE?AV01@H@Z 100091e0 f i IOCPS.obj
 0001:00008210       ?_Construct@?$_Tree_comp_alloc@V?$_Tmap_traits@GPAXU?$less@G@std@@V?$allocator@U?$pair@$$CBGPAX@std@@@2@$0A@@std@@@std@@QAEXXZ 10009210 f i IOCPS.obj
 0001:00008210       ?_Construct@?$_Tree_comp_alloc@V?$_Tmap_traits@IPAVCIOCPBuffer@@U?$less@I@std@@V?$allocator@U?$pair@$$CBIPAVCIOCPBuffer@@@std@@@3@$0A@@std@@@std@@QAEXXZ 10009210 f i IOCPS.obj
 0001:00008210       ?_Construct@?$_Tree_comp_alloc@V?$_Tmap_traits@IPAUClientContext@@U?$less@I@std@@V?$allocator@U?$pair@$$CBIPAUClientContext@@@std@@@3@$0A@@std@@@std@@QAEXXZ 10009210 f i IOCPS.obj
 0001:00008240       ?deallocate@?$allocator@U?$_List_node@PAUClientContext@@PAX@std@@@std@@QAEXPAU?$_List_node@PAUClientContext@@PAX@2@I@Z 10009240 f i IOCPS.obj
 0001:00008240       ?deallocate@?$allocator@U?$_List_node@PAXPAX@std@@@std@@QAEXPAU?$_List_node@PAXPAX@2@I@Z 10009240 f i IOCPS.obj
 0001:00008240       ?deallocate@?$allocator@U?$_List_node@PAUJobItem@@PAX@std@@@std@@QAEXPAU?$_List_node@PAUJobItem@@PAX@2@I@Z 10009240 f i IOCPS.obj
 0001:00008240       ?deallocate@?$allocator@U?$_List_node@PAVCIOCPBuffer@@PAX@std@@@std@@QAEXPAU?$_List_node@PAVCIOCPBuffer@@PAX@2@I@Z 10009240 f i IOCPS.obj
 0001:00008260       ?_Buyheadnode@?$_List_alloc@U?$_List_base_types@PAVCIOCPBuffer@@V?$allocator@PAVCIOCPBuffer@@@std@@@std@@@std@@QAEPAU?$_List_node@PAVCIOCPBuffer@@PAX@2@XZ 10009260 f i IOCPS.obj
 0001:00008260       ?_Buyheadnode@?$_List_alloc@U?$_List_base_types@PAUJobItem@@V?$allocator@PAUJobItem@@@std@@@std@@@std@@QAEPAU?$_List_node@PAUJobItem@@PAX@2@XZ 10009260 f i IOCPS.obj
 0001:00008260       ?_Buyheadnode@?$_List_alloc@U?$_List_base_types@PAXV?$allocator@PAX@std@@@std@@@std@@QAEPAU?$_List_node@PAXPAX@2@XZ 10009260 f i IOCPS.obj
 0001:00008260       ?_Buyheadnode@?$_List_alloc@U?$_List_base_types@PAUClientContext@@V?$allocator@PAUClientContext@@@std@@@std@@@std@@QAEPAU?$_List_node@PAUClientContext@@PAX@2@XZ 10009260 f i IOCPS.obj
 0001:00008280       ??$?0U_Exact_args_t@std@@$0A@@?$tuple@$$V@std@@QAE@U_Exact_args_t@1@@Z 10009280 f i IOCPS.obj
 0001:00008280       ??0?$allocator@D@std@@QAE@ABV01@@Z 10009280 f i IOCPS.obj
 0001:00008280       ??0?$tuple@$$V@std@@QAE@ABV01@@Z 10009280 f i IOCPS.obj
 0001:00008290       ?_Buyheadnode@?$_Tree_comp_alloc@V?$_Tmap_traits@IPAVCIOCPBuffer@@U?$less@I@std@@V?$allocator@U?$pair@$$CBIPAVCIOCPBuffer@@@std@@@3@$0A@@std@@@std@@QAEPAU?$_Tree_node@U?$pair@$$CBIPAVCIOCPBuffer@@@std@@PAX@2@XZ 10009290 f i IOCPS.obj
 0001:00008290       ?_Buyheadnode@?$_Tree_comp_alloc@V?$_Tmap_traits@GPAXU?$less@G@std@@V?$allocator@U?$pair@$$CBGPAX@std@@@2@$0A@@std@@@std@@QAEPAU?$_Tree_node@U?$pair@$$CBGPAX@std@@PAX@2@XZ 10009290 f i IOCPS.obj
 0001:00008290       ?_Buyheadnode@?$_Tree_comp_alloc@V?$_Tmap_traits@IPAUClientContext@@U?$less@I@std@@V?$allocator@U?$pair@$$CBIPAUClientContext@@@std@@@3@$0A@@std@@@std@@QAEPAU?$_Tree_node@U?$pair@$$CBIPAUClientContext@@@std@@PAX@2@XZ 10009290 f i IOCPS.obj
 0001:000083d0       ?_Buynode0@?$_List_alloc@U?$_List_base_types@PAUClientContext@@V?$allocator@PAUClientContext@@@std@@@std@@@std@@QAEPAU?$_List_node@PAUClientContext@@PAX@2@PAU32@0@Z 100093d0 f i IOCPS.obj
 0001:000083d0       ?_Buynode0@?$_List_alloc@U?$_List_base_types@PAVCIOCPBuffer@@V?$allocator@PAVCIOCPBuffer@@@std@@@std@@@std@@QAEPAU?$_List_node@PAVCIOCPBuffer@@PAX@2@PAU32@0@Z 100093d0 f i IOCPS.obj
 0001:000083d0       ?_Buynode0@?$_List_alloc@U?$_List_base_types@PAXV?$allocator@PAX@std@@@std@@@std@@QAEPAU?$_List_node@PAXPAX@2@PAU32@0@Z 100093d0 f i IOCPS.obj
 0001:000083d0       ?_Buynode0@?$_List_alloc@U?$_List_base_types@PAUJobItem@@V?$allocator@PAUJobItem@@@std@@@std@@@std@@QAEPAU?$_List_node@PAUJobItem@@PAX@2@PAU32@0@Z 100093d0 f i IOCPS.obj
 0001:000084e0       ?allocate@?$_Wrap_alloc@V?$allocator@U?$_Tree_node@U?$pair@$$CBGPAX@std@@PAX@std@@@std@@@std@@QAEPAU?$_Tree_node@U?$pair@$$CBGPAX@std@@PAX@2@I@Z 100094e0 f i IOCPS.obj
 0001:000084e0       ?allocate@?$_Wrap_alloc@V?$allocator@U?$_Tree_node@U?$pair@$$CBIPAVCIOCPBuffer@@@std@@PAX@std@@@std@@@std@@QAEPAU?$_Tree_node@U?$pair@$$CBIPAVCIOCPBuffer@@@std@@PAX@2@I@Z 100094e0 f i IOCPS.obj
 0001:000084e0       ?allocate@?$_Wrap_alloc@V?$allocator@U?$_Tree_node@U?$pair@$$CBIPAUClientContext@@@std@@PAX@std@@@std@@@std@@QAEPAU?$_Tree_node@U?$pair@$$CBIPAUClientContext@@@std@@PAX@2@I@Z 100094e0 f i IOCPS.obj
 0001:00008500       ?allocate@?$_Wrap_alloc@V?$allocator@U?$_List_node@PAUClientContext@@PAX@std@@@std@@@std@@QAEPAU?$_List_node@PAUClientContext@@PAX@2@I@Z 10009500 f i IOCPS.obj
 0001:00008500       ?allocate@?$_Wrap_alloc@V?$allocator@U?$_List_node@PAXPAX@std@@@std@@@std@@QAEPAU?$_List_node@PAXPAX@2@I@Z 10009500 f i IOCPS.obj
 0001:00008500       ?allocate@?$_Wrap_alloc@V?$allocator@U?$_List_node@PAUJobItem@@PAX@std@@@std@@@std@@QAEPAU?$_List_node@PAUJobItem@@PAX@2@I@Z 10009500 f i IOCPS.obj
 0001:00008500       ?allocate@?$_Wrap_alloc@V?$allocator@U?$_List_node@PAVCIOCPBuffer@@PAX@std@@@std@@@std@@QAEPAU?$_List_node@PAVCIOCPBuffer@@PAX@2@I@Z 10009500 f i IOCPS.obj
 0001:00008520       ?allocate@?$allocator@U?$_Tree_node@U?$pair@$$CBGPAX@std@@PAX@std@@@std@@QAEPAU?$_Tree_node@U?$pair@$$CBGPAX@std@@PAX@2@I@Z 10009520 f i IOCPS.obj
 0001:00008520       ?allocate@?$allocator@U?$_Tree_node@U?$pair@$$CBIPAUClientContext@@@std@@PAX@std@@@std@@QAEPAU?$_Tree_node@U?$pair@$$CBIPAUClientContext@@@std@@PAX@2@I@Z 10009520 f i IOCPS.obj
 0001:00008520       ?allocate@?$allocator@U?$_Tree_node@U?$pair@$$CBIPAVCIOCPBuffer@@@std@@PAX@std@@@std@@QAEPAU?$_Tree_node@U?$pair@$$CBIPAVCIOCPBuffer@@@std@@PAX@2@I@Z 10009520 f i IOCPS.obj
 0001:00008540       ?allocate@?$allocator@U?$_List_node@PAUClientContext@@PAX@std@@@std@@QAEPAU?$_List_node@PAUClientContext@@PAX@2@I@Z 10009540 f i IOCPS.obj
 0001:00008540       ?allocate@?$allocator@U?$_List_node@PAVCIOCPBuffer@@PAX@std@@@std@@QAEPAU?$_List_node@PAVCIOCPBuffer@@PAX@2@I@Z 10009540 f i IOCPS.obj
 0001:00008540       ?allocate@?$allocator@U?$_List_node@PAUJobItem@@PAX@std@@@std@@QAEPAU?$_List_node@PAUJobItem@@PAX@2@I@Z 10009540 f i IOCPS.obj
 0001:00008540       ?allocate@?$allocator@U?$_List_node@PAXPAX@std@@@std@@QAEPAU?$_List_node@PAXPAX@2@I@Z 10009540 f i IOCPS.obj
 0001:00008560       ??$?0GAAPAXX$0A@@?$pair@GPAX@std@@QAE@$$QAGAAPAX@Z 10009560 f i IOCPS.obj
 0001:000085a0       ??$insert@U?$pair@GPAX@std@@X@?$map@GPAXU?$less@G@std@@V?$allocator@U?$pair@$$CBGPAX@std@@@2@@std@@QAE?AU?$pair@V?$_Tree_iterator@V?$_Tree_val@U?$_Tree_simple_types@U?$pair@$$CBGPAX@std@@@std@@@std@@@std@@_N@1@$$QAU?$pair@GPAX@1@@Z 100095a0 f i IOCPS.obj
 0001:000085d0       ??$?0AAIAAPAVCIOCPBuffer@@X$0A@@?$pair@IPAVCIOCPBuffer@@@std@@QAE@AAIAAPAVCIOCPBuffer@@@Z 100095d0 f i IOCPS.obj
 0001:00008610       ??$insert@U?$pair@IPAVCIOCPBuffer@@@std@@X@?$map@IPAVCIOCPBuffer@@U?$less@I@std@@V?$allocator@U?$pair@$$CBIPAVCIOCPBuffer@@@std@@@3@@std@@QAE?AU?$pair@V?$_Tree_iterator@V?$_Tree_val@U?$_Tree_simple_types@U?$pair@$$CBIPAVCIOCPBuffer@@@std@@@std@@@std@@@std@@_N@1@$$QAU?$pair@IPAVCIOCPBuffer@@@1@@Z 10009610 f i IOCPS.obj
 0001:00008640       ??$swap@DX@std@@YAXAAD0@Z  10009640 f i IOCPS.obj
 0001:00008680       ??$try_emplace@$$V@?$map@GPAXU?$less@G@std@@V?$allocator@U?$pair@$$CBGPAX@std@@@2@@std@@QAE?AU?$pair@V?$_Tree_iterator@V?$_Tree_val@U?$_Tree_simple_types@U?$pair@$$CBGPAX@std@@@std@@@std@@@std@@_N@1@ABG@Z 10009680 f i IOCPS.obj
 0001:000086a0       ??$_Insert@ABQAVCIOCPBuffer@@@?$list@PAVCIOCPBuffer@@V?$allocator@PAVCIOCPBuffer@@@std@@@std@@QAEXV?$_List_unchecked_const_iterator@V?$_List_val@U?$_List_simple_types@PAVCIOCPBuffer@@@std@@@std@@U_Iterator_base0@2@@1@ABQAVCIOCPBuffer@@@Z 100096a0 f i IOCPS.obj
 0001:000086a0       ??$_Insert@ABQAX@?$list@PAXV?$allocator@PAX@std@@@std@@QAEXV?$_List_unchecked_const_iterator@V?$_List_val@U?$_List_simple_types@PAX@std@@@std@@U_Iterator_base0@2@@1@ABQAX@Z 100096a0 f i IOCPS.obj
 0001:000086a0       ??$_Insert@ABQAUClientContext@@@?$list@PAUClientContext@@V?$allocator@PAUClientContext@@@std@@@std@@QAEXV?$_List_unchecked_const_iterator@V?$_List_val@U?$_List_simple_types@PAUClientContext@@@std@@@std@@U_Iterator_base0@2@@1@ABQAUClientContext@@@Z 100096a0 f i IOCPS.obj
 0001:00008720       ??$try_emplace@$$V@?$map@IPAUClientContext@@U?$less@I@std@@V?$allocator@U?$pair@$$CBIPAUClientContext@@@std@@@3@@std@@QAE?AU?$pair@V?$_Tree_iterator@V?$_Tree_val@U?$_Tree_simple_types@U?$pair@$$CBIPAUClientContext@@@std@@@std@@@std@@@std@@_N@1@ABI@Z 10009720 f i IOCPS.obj
 0001:00008720       ??$try_emplace@$$V@?$map@IPAVCIOCPBuffer@@U?$less@I@std@@V?$allocator@U?$pair@$$CBIPAVCIOCPBuffer@@@std@@@3@@std@@QAE?AU?$pair@V?$_Tree_iterator@V?$_Tree_val@U?$_Tree_simple_types@U?$pair@$$CBIPAVCIOCPBuffer@@@std@@@std@@@std@@@std@@_N@1@ABI@Z 10009720 f i IOCPS.obj
 0001:00008740       ??$?0U?$_Wrap_alloc@V?$allocator@D@std@@@std@@X@?$_String_alloc@U?$_String_base_types@DV?$allocator@D@std@@@std@@@std@@QAE@$$QAU?$_Wrap_alloc@V?$allocator@D@std@@@1@@Z 10009740 f i IOCPS.obj
 0001:00008770       ??$_Lbound@I@?$_Tree@V?$_Tmap_traits@IPAUClientContext@@U?$less@I@std@@V?$allocator@U?$pair@$$CBIPAUClientContext@@@std@@@3@$0A@@std@@@std@@IBEPAU?$_Tree_node@U?$pair@$$CBIPAUClientContext@@@std@@PAX@1@ABI@Z 10009770 f i IOCPS.obj
 0001:00008770       ??$_Lbound@I@?$_Tree@V?$_Tmap_traits@IPAVCIOCPBuffer@@U?$less@I@std@@V?$allocator@U?$pair@$$CBIPAVCIOCPBuffer@@@std@@@3@$0A@@std@@@std@@IBEPAU?$_Tree_node@U?$pair@$$CBIPAVCIOCPBuffer@@@std@@PAX@1@ABI@Z 10009770 f i IOCPS.obj
 0001:00008800       ??$?0$$V@?$_Compressed_pair@U?$_Wrap_alloc@V?$allocator@D@std@@@std@@V?$_String_val@U?$_Simple_types@D@std@@@2@$00@std@@QAE@U_Zero_then_variadic_args_t@1@@Z 10009800 f i IOCPS.obj
 0001:00008820       ??$?0ABU?$less@G@std@@U_Zero_then_variadic_args_t@1@@?$_Compressed_pair@U?$less@G@std@@V?$_Compressed_pair@U?$_Wrap_alloc@V?$allocator@U?$_Tree_node@U?$pair@$$CBGPAX@std@@PAX@std@@@std@@@std@@V?$_Tree_val@U?$_Tree_simple_types@U?$pair@$$CBGPAX@std@@@std@@@2@$00@2@$00@std@@QAE@U_One_then_variadic_args_t@1@ABU?$less@G@1@$$QAU_Zero_then_variadic_args_t@1@@Z 10009820 f i IOCPS.obj
 0001:00008820       ??$?0ABU?$less@I@std@@U_Zero_then_variadic_args_t@1@@?$_Compressed_pair@U?$less@I@std@@V?$_Compressed_pair@U?$_Wrap_alloc@V?$allocator@U?$_Tree_node@U?$pair@$$CBIPAUClientContext@@@std@@PAX@std@@@std@@@std@@V?$_Tree_val@U?$_Tree_simple_types@U?$pair@$$CBIPAUClientContext@@@std@@@std@@@2@$00@2@$00@std@@QAE@U_One_then_variadic_args_t@1@ABU?$less@I@1@$$QAU_Zero_then_variadic_args_t@1@@Z 10009820 f i IOCPS.obj
 0001:00008820       ??$?0ABU?$less@I@std@@U_Zero_then_variadic_args_t@1@@?$_Compressed_pair@U?$less@I@std@@V?$_Compressed_pair@U?$_Wrap_alloc@V?$allocator@U?$_Tree_node@U?$pair@$$CBIPAVCIOCPBuffer@@@std@@PAX@std@@@std@@@std@@V?$_Tree_val@U?$_Tree_simple_types@U?$pair@$$CBIPAVCIOCPBuffer@@@std@@@std@@@2@$00@2@$00@std@@QAE@U_One_then_variadic_args_t@1@ABU?$less@I@1@$$QAU_Zero_then_variadic_args_t@1@@Z 10009820 f i IOCPS.obj
 0001:00008860       ??$?0$$V@?$_Compressed_pair@U?$_Wrap_alloc@V?$allocator@U?$_Tree_node@U?$pair@$$CBIPAUClientContext@@@std@@PAX@std@@@std@@@std@@V?$_Tree_val@U?$_Tree_simple_types@U?$pair@$$CBIPAUClientContext@@@std@@@std@@@2@$00@std@@QAE@U_Zero_then_variadic_args_t@1@@Z 10009860 f i IOCPS.obj
 0001:00008860       ??$?0$$V@?$_Compressed_pair@U?$_Wrap_alloc@V?$allocator@U?$_Tree_node@U?$pair@$$CBIPAVCIOCPBuffer@@@std@@PAX@std@@@std@@@std@@V?$_Tree_val@U?$_Tree_simple_types@U?$pair@$$CBIPAVCIOCPBuffer@@@std@@@std@@@2@$00@std@@QAE@U_Zero_then_variadic_args_t@1@@Z 10009860 f i IOCPS.obj
 0001:00008860       ??$?0$$V@?$_Compressed_pair@U?$_Wrap_alloc@V?$allocator@U?$_List_node@PAUClientContext@@PAX@std@@@std@@@std@@V?$_List_val@U?$_List_simple_types@PAUClientContext@@@std@@@2@$00@std@@QAE@U_Zero_then_variadic_args_t@1@@Z 10009860 f i IOCPS.obj
 0001:00008860       ??$?0$$V@?$_Compressed_pair@U?$_Wrap_alloc@V?$allocator@U?$_Tree_node@U?$pair@$$CBGPAX@std@@PAX@std@@@std@@@std@@V?$_Tree_val@U?$_Tree_simple_types@U?$pair@$$CBGPAX@std@@@std@@@2@$00@std@@QAE@U_Zero_then_variadic_args_t@1@@Z 10009860 f i IOCPS.obj
 0001:00008860       ??$?0$$V@?$_Compressed_pair@U?$_Wrap_alloc@V?$allocator@U?$_List_node@PAXPAX@std@@@std@@@std@@V?$_List_val@U?$_List_simple_types@PAX@std@@@2@$00@std@@QAE@U_Zero_then_variadic_args_t@1@@Z 10009860 f i IOCPS.obj
 0001:00008860       ??$?0$$V@?$_Compressed_pair@U?$_Wrap_alloc@V?$allocator@U?$_List_node@PAVCIOCPBuffer@@PAX@std@@@std@@@std@@V?$_List_val@U?$_List_simple_types@PAVCIOCPBuffer@@@std@@@2@$00@std@@QAE@U_Zero_then_variadic_args_t@1@@Z 10009860 f i IOCPS.obj
 0001:00008860       ??$?0$$V@?$_Compressed_pair@U?$_Wrap_alloc@V?$allocator@U?$_List_node@PAUJobItem@@PAX@std@@@std@@@std@@V?$_List_val@U?$_List_simple_types@PAUJobItem@@@std@@@2@$00@std@@QAE@U_Zero_then_variadic_args_t@1@@Z 10009860 f i IOCPS.obj
 0001:00008880       ?_Compare@?$_Tree@V?$_Tmap_traits@IPAUClientContext@@U?$less@I@std@@V?$allocator@U?$pair@$$CBIPAUClientContext@@@std@@@3@$0A@@std@@@std@@IBE_NABI0@Z 10009880 f i IOCPS.obj
 0001:00008880       ?_Compare@?$_Tree@V?$_Tmap_traits@IPAVCIOCPBuffer@@U?$less@I@std@@V?$allocator@U?$pair@$$CBIPAVCIOCPBuffer@@@std@@@3@$0A@@std@@@std@@IBE_NABI0@Z 10009880 f i IOCPS.obj
 0001:000088b0       ??0?$_List_val@U?$_List_simple_types@PAUJobItem@@@std@@@std@@QAE@XZ 100098b0 f i IOCPS.obj
 0001:000088b0       ??0?$_Tree_val@U?$_Tree_simple_types@U?$pair@$$CBIPAVCIOCPBuffer@@@std@@@std@@@std@@QAE@XZ 100098b0 f i IOCPS.obj
 0001:000088b0       ??0?$_Tree_val@U?$_Tree_simple_types@U?$pair@$$CBGPAX@std@@@std@@@std@@QAE@XZ 100098b0 f i IOCPS.obj
 0001:000088b0       ??0?$_List_val@U?$_List_simple_types@PAX@std@@@std@@QAE@XZ 100098b0 f i IOCPS.obj
 0001:000088b0       ??0?$_Tree_val@U?$_Tree_simple_types@U?$pair@$$CBIPAUClientContext@@@std@@@std@@@std@@QAE@XZ 100098b0 f i IOCPS.obj
 0001:000088b0       ??0?$_List_val@U?$_List_simple_types@PAVCIOCPBuffer@@@std@@@std@@QAE@XZ 100098b0 f i IOCPS.obj
 0001:000088b0       ??0?$_List_val@U?$_List_simple_types@PAUClientContext@@@std@@@std@@QAE@XZ 100098b0 f i IOCPS.obj
 0001:000088e0       ??0?$_Wrap_alloc@V?$allocator@U?$_List_node@PAUJobItem@@PAX@std@@@std@@@std@@QAE@XZ 100098e0 f i IOCPS.obj
 0001:000088e0       ??0?$_Wrap_alloc@V?$allocator@U?$_List_node@PAUClientContext@@PAX@std@@@std@@@std@@QAE@XZ 100098e0 f i IOCPS.obj
 0001:000088e0       ??0?$_Wrap_alloc@V?$allocator@D@std@@@std@@QAE@XZ 100098e0 f i IOCPS.obj
 0001:000088e0       ??0?$_Wrap_alloc@V?$allocator@U?$_List_node@PAXPAX@std@@@std@@@std@@QAE@XZ 100098e0 f i IOCPS.obj
 0001:000088e0       ??0?$_Wrap_alloc@V?$allocator@U?$_Tree_node@U?$pair@$$CBIPAVCIOCPBuffer@@@std@@PAX@std@@@std@@@std@@QAE@XZ 100098e0 f i IOCPS.obj
 0001:000088e0       ??0?$_Wrap_alloc@V?$allocator@U?$_Tree_node@U?$pair@$$CBGPAX@std@@PAX@std@@@std@@@std@@QAE@XZ 100098e0 f i IOCPS.obj
 0001:000088e0       ??0?$_Wrap_alloc@V?$allocator@U?$_List_node@PAVCIOCPBuffer@@PAX@std@@@std@@@std@@QAE@XZ 100098e0 f i IOCPS.obj
 0001:000088e0       ??0?$_Wrap_alloc@V?$allocator@U?$_Tree_node@U?$pair@$$CBIPAUClientContext@@@std@@PAX@std@@@std@@@std@@QAE@XZ 100098e0 f i IOCPS.obj
 0001:00008900       ?_Incsize@?$list@PAXV?$allocator@PAX@std@@@std@@QAEXI@Z 10009900 f i IOCPS.obj
 0001:00008900       ?_Incsize@?$list@PAVCIOCPBuffer@@V?$allocator@PAVCIOCPBuffer@@@std@@@std@@QAEXI@Z 10009900 f i IOCPS.obj
 0001:00008900       ?_Incsize@?$list@PAUClientContext@@V?$allocator@PAUClientContext@@@std@@@std@@QAEXI@Z 10009900 f i IOCPS.obj
 0001:00008950       ??0?$_String_val@U?$_Simple_types@D@std@@@std@@QAE@XZ 10009950 f i IOCPS.obj
 0001:00008980       ?max_size@?$list@PAUClientContext@@V?$allocator@PAUClientContext@@@std@@@std@@QBEIXZ 10009980 f i IOCPS.obj
 0001:00008980       ?max_size@?$list@PAVCIOCPBuffer@@V?$allocator@PAVCIOCPBuffer@@@std@@@std@@QBEIXZ 10009980 f i IOCPS.obj
 0001:00008980       ?max_size@?$list@PAXV?$allocator@PAX@std@@@std@@QBEIXZ 10009980 f i IOCPS.obj
 0001:000089b0       ?max_size@?$_Wrap_alloc@V?$allocator@U?$_List_node@PAUClientContext@@PAX@std@@@std@@@std@@QBEIU_Nil@2@@Z 100099b0 f i IOCPS.obj
 0001:000089b0       ?max_size@?$_Wrap_alloc@V?$allocator@U?$_List_node@PAVCIOCPBuffer@@PAX@std@@@std@@@std@@QBEIU_Nil@2@@Z 100099b0 f i IOCPS.obj
 0001:000089b0       ?max_size@?$_Wrap_alloc@V?$allocator@U?$_List_node@PAXPAX@std@@@std@@@std@@QBEIU_Nil@2@@Z 100099b0 f i IOCPS.obj
 0001:000089d0       ?max_size@?$allocator_traits@V?$allocator@U?$_List_node@PAUClientContext@@PAX@std@@@std@@@std@@SAIABV?$allocator@U?$_List_node@PAUClientContext@@PAX@std@@@2@@Z 100099d0 f i IOCPS.obj
 0001:000089d0       ?max_size@?$allocator_traits@V?$allocator@U?$_List_node@PAXPAX@std@@@std@@@std@@SAIABV?$allocator@U?$_List_node@PAXPAX@std@@@2@@Z 100099d0 f i IOCPS.obj
 0001:000089d0       ?max_size@?$allocator_traits@V?$allocator@U?$_List_node@PAVCIOCPBuffer@@PAX@std@@@std@@@std@@SAIABV?$allocator@U?$_List_node@PAVCIOCPBuffer@@PAX@std@@@2@@Z 100099d0 f i IOCPS.obj
 0001:000089e0       ?max_size@?$allocator@U?$_List_node@PAVCIOCPBuffer@@PAX@std@@@std@@QBEIXZ 100099e0 f i IOCPS.obj
 0001:000089e0       ?max_size@?$allocator@U?$_List_node@PAXPAX@std@@@std@@QBEIXZ 100099e0 f i IOCPS.obj
 0001:000089e0       ?max_size@?$allocator@U?$_List_node@PAUClientContext@@PAX@std@@@std@@QBEIXZ 100099e0 f i IOCPS.obj
 0001:000089f0       ??$emplace@U?$pair@GPAX@std@@@?$_Tree@V?$_Tmap_traits@GPAXU?$less@G@std@@V?$allocator@U?$pair@$$CBGPAX@std@@@2@$0A@@std@@@std@@QAE?AU?$pair@V?$_Tree_iterator@V?$_Tree_val@U?$_Tree_simple_types@U?$pair@$$CBGPAX@std@@@std@@@std@@@std@@_N@1@$$QAU?$pair@GPAX@1@@Z 100099f0 f i IOCPS.obj
 0001:00008a40       ??$emplace@U?$pair@IPAVCIOCPBuffer@@@std@@@?$_Tree@V?$_Tmap_traits@IPAVCIOCPBuffer@@U?$less@I@std@@V?$allocator@U?$pair@$$CBIPAVCIOCPBuffer@@@std@@@3@$0A@@std@@@std@@QAE?AU?$pair@V?$_Tree_iterator@V?$_Tree_val@U?$_Tree_simple_types@U?$pair@$$CBIPAVCIOCPBuffer@@@std@@@std@@@std@@@std@@_N@1@$$QAU?$pair@IPAVCIOCPBuffer@@@1@@Z 10009a40 f i IOCPS.obj
 0001:00008a90       ??$_Try_emplace@ABG$$V@?$map@GPAXU?$less@G@std@@V?$allocator@U?$pair@$$CBGPAX@std@@@2@@std@@QAE?AU?$pair@V?$_Tree_iterator@V?$_Tree_val@U?$_Tree_simple_types@U?$pair@$$CBGPAX@std@@@std@@@std@@@std@@_N@1@ABG@Z 10009a90 f i IOCPS.obj
 0001:00008b70       ??$_Buynode@ABQAUClientContext@@@?$_List_buy@PAUClientContext@@V?$allocator@PAUClientContext@@@std@@@std@@QAEPAU?$_List_node@PAUClientContext@@PAX@1@PAU21@0ABQAUClientContext@@@Z 10009b70 f i IOCPS.obj
 0001:00008b70       ??$_Buynode@ABQAVCIOCPBuffer@@@?$_List_buy@PAVCIOCPBuffer@@V?$allocator@PAVCIOCPBuffer@@@std@@@std@@QAEPAU?$_List_node@PAVCIOCPBuffer@@PAX@1@PAU21@0ABQAVCIOCPBuffer@@@Z 10009b70 f i IOCPS.obj
 0001:00008b70       ??$_Buynode@ABQAX@?$_List_buy@PAXV?$allocator@PAX@std@@@std@@QAEPAU?$_List_node@PAXPAX@1@PAU21@0ABQAX@Z 10009b70 f i IOCPS.obj
 0001:00008c40       ??$_Try_emplace@ABI$$V@?$map@IPAUClientContext@@U?$less@I@std@@V?$allocator@U?$pair@$$CBIPAUClientContext@@@std@@@3@@std@@QAE?AU?$pair@V?$_Tree_iterator@V?$_Tree_val@U?$_Tree_simple_types@U?$pair@$$CBIPAUClientContext@@@std@@@std@@@std@@@std@@_N@1@ABI@Z 10009c40 f i IOCPS.obj
 0001:00008c40       ??$_Try_emplace@ABI$$V@?$map@IPAVCIOCPBuffer@@U?$less@I@std@@V?$allocator@U?$pair@$$CBIPAVCIOCPBuffer@@@std@@@3@@std@@QAE?AU?$pair@V?$_Tree_iterator@V?$_Tree_val@U?$_Tree_simple_types@U?$pair@$$CBIPAVCIOCPBuffer@@@std@@@std@@@std@@@std@@_N@1@ABI@Z 10009c40 f i IOCPS.obj
 0001:00008d20       ??$?0U?$_Wrap_alloc@V?$allocator@D@std@@@std@@$$V@?$_Compressed_pair@U?$_Wrap_alloc@V?$allocator@D@std@@@std@@V?$_String_val@U?$_Simple_types@D@std@@@2@$00@std@@QAE@U_One_then_variadic_args_t@1@$$QAU?$_Wrap_alloc@V?$allocator@D@std@@@1@@Z 10009d20 f i IOCPS.obj
 0001:00008d50       ?lower_bound@?$_Tree@V?$_Tmap_traits@GPAXU?$less@G@std@@V?$allocator@U?$pair@$$CBGPAX@std@@@2@$0A@@std@@@std@@QAE?AV?$_Tree_iterator@V?$_Tree_val@U?$_Tree_simple_types@U?$pair@$$CBGPAX@std@@@std@@@std@@@2@ABG@Z 10009d50 f i IOCPS.obj
 0001:00008d80       ??R?$less@G@std@@QBE_NABG0@Z 10009d80 f i IOCPS.obj
 0001:00008dc0       ??0?$_Wrap_alloc@V?$allocator@D@std@@@std@@QAE@$$QAU01@@Z 10009dc0 f i IOCPS.obj
 0001:00008dc0       ??$?0V?$allocator@D@std@@@?$_Wrap_alloc@V?$allocator@D@std@@@std@@QAE@$$QAV?$allocator@D@1@@Z 10009dc0 f i MyIOCP.obj
 0001:00008df0       ??$_Buynode@U?$pair@GPAX@std@@@?$_Tree_comp_alloc@V?$_Tmap_traits@GPAXU?$less@G@std@@V?$allocator@U?$pair@$$CBGPAX@std@@@2@$0A@@std@@@std@@QAEPAU?$_Tree_node@U?$pair@$$CBGPAX@std@@PAX@1@$$QAU?$pair@GPAX@1@@Z 10009df0 f i IOCPS.obj
 0001:00008ed0       ??$_Insert_nohint@AAU?$pair@$$CBGPAX@std@@PAU?$_Tree_node@U?$pair@$$CBGPAX@std@@PAX@2@@?$_Tree@V?$_Tmap_traits@GPAXU?$less@G@std@@V?$allocator@U?$pair@$$CBGPAX@std@@@2@$0A@@std@@@std@@IAE?AU?$pair@V?$_Tree_iterator@V?$_Tree_val@U?$_Tree_simple_types@U?$pair@$$CBGPAX@std@@@std@@@std@@@std@@_N@1@_NAAU?$pair@$$CBGPAX@1@PAU?$_Tree_node@U?$pair@$$CBGPAX@std@@PAX@1@@Z 10009ed0 f i IOCPS.obj
 0001:00009200       ??$_Buynode@U?$pair@IPAVCIOCPBuffer@@@std@@@?$_Tree_comp_alloc@V?$_Tmap_traits@IPAVCIOCPBuffer@@U?$less@I@std@@V?$allocator@U?$pair@$$CBIPAVCIOCPBuffer@@@std@@@3@$0A@@std@@@std@@QAEPAU?$_Tree_node@U?$pair@$$CBIPAVCIOCPBuffer@@@std@@PAX@1@$$QAU?$pair@IPAVCIOCPBuffer@@@1@@Z 1000a200 f i IOCPS.obj
 0001:000092e0       ??$_Insert_nohint@AAU?$pair@$$CBIPAUClientContext@@@std@@PAU?$_Tree_node@U?$pair@$$CBIPAUClientContext@@@std@@PAX@2@@?$_Tree@V?$_Tmap_traits@IPAUClientContext@@U?$less@I@std@@V?$allocator@U?$pair@$$CBIPAUClientContext@@@std@@@3@$0A@@std@@@std@@IAE?AU?$pair@V?$_Tree_iterator@V?$_Tree_val@U?$_Tree_simple_types@U?$pair@$$CBIPAUClientContext@@@std@@@std@@@std@@@std@@_N@1@_NAAU?$pair@$$CBIPAUClientContext@@@1@PAU?$_Tree_node@U?$pair@$$CBIPAUClientContext@@@std@@PAX@1@@Z 1000a2e0 f i IOCPS.obj
 0001:000092e0       ??$_Insert_nohint@AAU?$pair@$$CBIPAVCIOCPBuffer@@@std@@PAU?$_Tree_node@U?$pair@$$CBIPAVCIOCPBuffer@@@std@@PAX@2@@?$_Tree@V?$_Tmap_traits@IPAVCIOCPBuffer@@U?$less@I@std@@V?$allocator@U?$pair@$$CBIPAVCIOCPBuffer@@@std@@@3@$0A@@std@@@std@@IAE?AU?$pair@V?$_Tree_iterator@V?$_Tree_val@U?$_Tree_simple_types@U?$pair@$$CBIPAVCIOCPBuffer@@@std@@@std@@@std@@@std@@_N@1@_NAAU?$pair@$$CBIPAVCIOCPBuffer@@@1@PAU?$_Tree_node@U?$pair@$$CBIPAVCIOCPBuffer@@@std@@PAX@1@@Z 1000a2e0 f i IOCPS.obj
 0001:00009610       ??$forward_as_tuple@ABG@std@@YA?AV?$tuple@ABG@0@ABG@Z 1000a610 f i IOCPS.obj
 0001:00009610       ??$forward_as_tuple@ABI@std@@YA?AV?$tuple@ABI@0@ABI@Z 1000a610 f i IOCPS.obj
 0001:00009660       ??$forward_as_tuple@$$V@std@@YA?AV?$tuple@$$V@0@XZ 1000a660 f i IOCPS.obj
 0001:00009670       ??$emplace_hint@ABUpiecewise_construct_t@std@@V?$tuple@ABG@2@V?$tuple@$$V@2@@?$_Tree@V?$_Tmap_traits@GPAXU?$less@G@std@@V?$allocator@U?$pair@$$CBGPAX@std@@@2@$0A@@std@@@std@@QAE?AV?$_Tree_iterator@V?$_Tree_val@U?$_Tree_simple_types@U?$pair@$$CBGPAX@std@@@std@@@std@@@1@V?$_Tree_const_iterator@V?$_Tree_val@U?$_Tree_simple_types@U?$pair@$$CBGPAX@std@@@std@@@std@@@1@ABUpiecewise_construct_t@1@$$QAV?$tuple@ABG@1@$$QAV?$tuple@$$V@1@@Z 1000a670 f i IOCPS.obj
 0001:000096e0       ??$?0AAV?$_Tree_iterator@V?$_Tree_val@U?$_Tree_simple_types@U?$pair@$$CBGPAX@std@@@std@@@std@@@std@@_NX$0A@@?$pair@V?$_Tree_iterator@V?$_Tree_val@U?$_Tree_simple_types@U?$pair@$$CBGPAX@std@@@std@@@std@@@std@@_N@std@@QAE@AAV?$_Tree_iterator@V?$_Tree_val@U?$_Tree_simple_types@U?$pair@$$CBGPAX@std@@@std@@@std@@@1@$$QA_N@Z 1000a6e0 f i IOCPS.obj
 0001:000096e0       ??$?0AAV?$_Tree_iterator@V?$_Tree_val@U?$_Tree_simple_types@U?$pair@$$CBIPAVCIOCPBuffer@@@std@@@std@@@std@@@std@@_NX$0A@@?$pair@V?$_Tree_iterator@V?$_Tree_val@U?$_Tree_simple_types@U?$pair@$$CBIPAVCIOCPBuffer@@@std@@@std@@@std@@@std@@_N@std@@QAE@AAV?$_Tree_iterator@V?$_Tree_val@U?$_Tree_simple_types@U?$pair@$$CBIPAVCIOCPBuffer@@@std@@@std@@@std@@@1@$$QA_N@Z 1000a6e0 f i IOCPS.obj
 0001:000096e0       ??$?0AAV?$_Tree_iterator@V?$_Tree_val@U?$_Tree_simple_types@U?$pair@$$CBIPAUClientContext@@@std@@@std@@@std@@@std@@_NX$0A@@?$pair@V?$_Tree_iterator@V?$_Tree_val@U?$_Tree_simple_types@U?$pair@$$CBIPAUClientContext@@@std@@@std@@@std@@@std@@_N@std@@QAE@AAV?$_Tree_iterator@V?$_Tree_val@U?$_Tree_simple_types@U?$pair@$$CBIPAUClientContext@@@std@@@std@@@std@@@1@$$QA_N@Z 1000a6e0 f i IOCPS.obj
 0001:000096e0       ??$?0V?$_Tree_iterator@V?$_Tree_val@U?$_Tree_simple_types@U?$pair@$$CBIPAVCIOCPBuffer@@@std@@@std@@@std@@@std@@_NX$0A@@?$pair@V?$_Tree_iterator@V?$_Tree_val@U?$_Tree_simple_types@U?$pair@$$CBIPAVCIOCPBuffer@@@std@@@std@@@std@@@std@@_N@std@@QAE@$$QAV?$_Tree_iterator@V?$_Tree_val@U?$_Tree_simple_types@U?$pair@$$CBIPAVCIOCPBuffer@@@std@@@std@@@std@@@1@$$QA_N@Z 1000a6e0 f i IOCPS.obj
 0001:000096e0       ??$?0V?$_Tree_iterator@V?$_Tree_val@U?$_Tree_simple_types@U?$pair@$$CBIPAUClientContext@@@std@@@std@@@std@@@std@@_NX$0A@@?$pair@V?$_Tree_iterator@V?$_Tree_val@U?$_Tree_simple_types@U?$pair@$$CBIPAUClientContext@@@std@@@std@@@std@@@std@@_N@std@@QAE@$$QAV?$_Tree_iterator@V?$_Tree_val@U?$_Tree_simple_types@U?$pair@$$CBIPAUClientContext@@@std@@@std@@@std@@@1@$$QA_N@Z 1000a6e0 f i IOCPS.obj
 0001:000096e0       ??$?0V?$_Tree_iterator@V?$_Tree_val@U?$_Tree_simple_types@U?$pair@$$CBGPAX@std@@@std@@@std@@@std@@_NX$0A@@?$pair@V?$_Tree_iterator@V?$_Tree_val@U?$_Tree_simple_types@U?$pair@$$CBGPAX@std@@@std@@@std@@@std@@_N@std@@QAE@$$QAV?$_Tree_iterator@V?$_Tree_val@U?$_Tree_simple_types@U?$pair@$$CBGPAX@std@@@std@@@std@@@1@$$QA_N@Z 1000a6e0 f i IOCPS.obj
 0001:00009720       ??$emplace_hint@ABUpiecewise_construct_t@std@@V?$tuple@ABI@2@V?$tuple@$$V@2@@?$_Tree@V?$_Tmap_traits@IPAUClientContext@@U?$less@I@std@@V?$allocator@U?$pair@$$CBIPAUClientContext@@@std@@@3@$0A@@std@@@std@@QAE?AV?$_Tree_iterator@V?$_Tree_val@U?$_Tree_simple_types@U?$pair@$$CBIPAUClientContext@@@std@@@std@@@std@@@1@V?$_Tree_const_iterator@V?$_Tree_val@U?$_Tree_simple_types@U?$pair@$$CBIPAUClientContext@@@std@@@std@@@std@@@1@ABUpiecewise_construct_t@1@$$QAV?$tuple@ABI@1@$$QAV?$tuple@$$V@1@@Z 1000a720 f i IOCPS.obj
 0001:00009720       ??$emplace_hint@ABUpiecewise_construct_t@std@@V?$tuple@ABI@2@V?$tuple@$$V@2@@?$_Tree@V?$_Tmap_traits@IPAVCIOCPBuffer@@U?$less@I@std@@V?$allocator@U?$pair@$$CBIPAVCIOCPBuffer@@@std@@@3@$0A@@std@@@std@@QAE?AV?$_Tree_iterator@V?$_Tree_val@U?$_Tree_simple_types@U?$pair@$$CBIPAVCIOCPBuffer@@@std@@@std@@@std@@@1@V?$_Tree_const_iterator@V?$_Tree_val@U?$_Tree_simple_types@U?$pair@$$CBIPAVCIOCPBuffer@@@std@@@std@@@std@@@1@ABUpiecewise_construct_t@1@$$QAV?$tuple@ABI@1@$$QAV?$tuple@$$V@1@@Z 1000a720 f i IOCPS.obj
 0001:00009790       ??$_Lbound@G@?$_Tree@V?$_Tmap_traits@GPAXU?$less@G@std@@V?$allocator@U?$pair@$$CBGPAX@std@@@2@$0A@@std@@@std@@IBEPAU?$_Tree_node@U?$pair@$$CBGPAX@std@@PAX@1@ABG@Z 1000a790 f i IOCPS.obj
 0001:00009820       ??F?$_Tree_iterator@V?$_Tree_val@U?$_Tree_simple_types@U?$pair@$$CBIPAVCIOCPBuffer@@@std@@@std@@@std@@@std@@QAEAAV01@XZ 1000a820 f i IOCPS.obj
 0001:00009820       ??F?$_Tree_iterator@V?$_Tree_val@U?$_Tree_simple_types@U?$pair@$$CBGPAX@std@@@std@@@std@@@std@@QAEAAV01@XZ 1000a820 f i IOCPS.obj
 0001:00009820       ??F?$_Tree_iterator@V?$_Tree_val@U?$_Tree_simple_types@U?$pair@$$CBIPAUClientContext@@@std@@@std@@@std@@@std@@QAEAAV01@XZ 1000a820 f i IOCPS.obj
 0001:00009840       ?_Buynode0@?$_Tree_comp_alloc@V?$_Tmap_traits@IPAVCIOCPBuffer@@U?$less@I@std@@V?$allocator@U?$pair@$$CBIPAVCIOCPBuffer@@@std@@@3@$0A@@std@@@std@@QAEPAU?$_Tree_node@U?$pair@$$CBIPAVCIOCPBuffer@@@std@@PAX@2@XZ 1000a840 f i IOCPS.obj
 0001:00009840       ?_Buynode0@?$_Tree_comp_alloc@V?$_Tmap_traits@IPAUClientContext@@U?$less@I@std@@V?$allocator@U?$pair@$$CBIPAUClientContext@@@std@@@3@$0A@@std@@@std@@QAEPAU?$_Tree_node@U?$pair@$$CBIPAUClientContext@@@std@@PAX@2@XZ 1000a840 f i IOCPS.obj
 0001:00009840       ?_Buynode0@?$_Tree_comp_alloc@V?$_Tmap_traits@GPAXU?$less@G@std@@V?$allocator@U?$pair@$$CBGPAX@std@@@2@$0A@@std@@@std@@QAEPAU?$_Tree_node@U?$pair@$$CBGPAX@std@@PAX@2@XZ 1000a840 f i IOCPS.obj
 0001:00009980       ?_Compare@?$_Tree@V?$_Tmap_traits@GPAXU?$less@G@std@@V?$allocator@U?$pair@$$CBGPAX@std@@@2@$0A@@std@@@std@@IBE_NABG0@Z 1000a980 f i IOCPS.obj
 0001:000099b0       ?_Destroy_if_not_nil@?$_Tree@V?$_Tmap_traits@IPAVCIOCPBuffer@@U?$less@I@std@@V?$allocator@U?$pair@$$CBIPAVCIOCPBuffer@@@std@@@3@$0A@@std@@@std@@IAEXPAU?$_Tree_node@U?$pair@$$CBIPAVCIOCPBuffer@@@std@@PAX@2@@Z 1000a9b0 f i IOCPS.obj
 0001:000099b0       ?_Destroy_if_not_nil@?$_Tree@V?$_Tmap_traits@IPAUClientContext@@U?$less@I@std@@V?$allocator@U?$pair@$$CBIPAUClientContext@@@std@@@3@$0A@@std@@@std@@IAEXPAU?$_Tree_node@U?$pair@$$CBIPAUClientContext@@@std@@PAX@2@@Z 1000a9b0 f i IOCPS.obj
 0001:000099b0       ?_Destroy_if_not_nil@?$_Tree@V?$_Tmap_traits@GPAXU?$less@G@std@@V?$allocator@U?$pair@$$CBGPAX@std@@@2@$0A@@std@@@std@@IAEXPAU?$_Tree_node@U?$pair@$$CBGPAX@std@@PAX@2@@Z 1000a9b0 f i IOCPS.obj
 0001:00009a00       ??F?$_Tree_const_iterator@V?$_Tree_val@U?$_Tree_simple_types@U?$pair@$$CBGPAX@std@@@std@@@std@@@std@@QAEAAV01@XZ 1000aa00 f i IOCPS.obj
 0001:00009a00       ??F?$_Tree_const_iterator@V?$_Tree_val@U?$_Tree_simple_types@U?$pair@$$CBIPAUClientContext@@@std@@@std@@@std@@@std@@QAEAAV01@XZ 1000aa00 f i IOCPS.obj
 0001:00009a00       ??F?$_Tree_const_iterator@V?$_Tree_val@U?$_Tree_simple_types@U?$pair@$$CBIPAVCIOCPBuffer@@@std@@@std@@@std@@@std@@QAEAAV01@XZ 1000aa00 f i IOCPS.obj
 0001:00009a20       ??F?$_Tree_unchecked_const_iterator@V?$_Tree_val@U?$_Tree_simple_types@U?$pair@$$CBIPAVCIOCPBuffer@@@std@@@std@@@std@@U_Iterator_base0@2@@std@@QAEAAV01@XZ 1000aa20 f i IOCPS.obj
 0001:00009a20       ??F?$_Tree_unchecked_const_iterator@V?$_Tree_val@U?$_Tree_simple_types@U?$pair@$$CBGPAX@std@@@std@@@std@@U_Iterator_base0@2@@std@@QAEAAV01@XZ 1000aa20 f i IOCPS.obj
 0001:00009a20       ??F?$_Tree_unchecked_const_iterator@V?$_Tree_val@U?$_Tree_simple_types@U?$pair@$$CBIPAUClientContext@@@std@@@std@@@std@@U_Iterator_base0@2@@std@@QAEAAV01@XZ 1000aa20 f i IOCPS.obj
 0001:00009b10       ??$construct@U?$pair@$$CBGPAX@std@@U?$pair@GPAX@2@@?$_Wrap_alloc@V?$allocator@U?$_Tree_node@U?$pair@$$CBGPAX@std@@PAX@std@@@std@@@std@@QAEXPAU?$pair@$$CBGPAX@1@$$QAU?$pair@GPAX@1@@Z 1000ab10 f i IOCPS.obj
 0001:00009b40       ??$_Insert_at@AAU?$pair@$$CBIPAVCIOCPBuffer@@@std@@PAU?$_Tree_node@U?$pair@$$CBIPAVCIOCPBuffer@@@std@@PAX@2@@?$_Tree@V?$_Tmap_traits@IPAVCIOCPBuffer@@U?$less@I@std@@V?$allocator@U?$pair@$$CBIPAVCIOCPBuffer@@@std@@@3@$0A@@std@@@std@@IAE?AV?$_Tree_iterator@V?$_Tree_val@U?$_Tree_simple_types@U?$pair@$$CBIPAVCIOCPBuffer@@@std@@@std@@@std@@@1@_NPAU?$_Tree_node@U?$pair@$$CBIPAVCIOCPBuffer@@@std@@PAX@1@AAU?$pair@$$CBIPAVCIOCPBuffer@@@1@1@Z 1000ab40 f i IOCPS.obj
 0001:00009b40       ??$_Insert_at@AAU?$pair@$$CBIPAUClientContext@@@std@@PAU?$_Tree_node@U?$pair@$$CBIPAUClientContext@@@std@@PAX@2@@?$_Tree@V?$_Tmap_traits@IPAUClientContext@@U?$less@I@std@@V?$allocator@U?$pair@$$CBIPAUClientContext@@@std@@@3@$0A@@std@@@std@@IAE?AV?$_Tree_iterator@V?$_Tree_val@U?$_Tree_simple_types@U?$pair@$$CBIPAUClientContext@@@std@@@std@@@std@@@1@_NPAU?$_Tree_node@U?$pair@$$CBIPAUClientContext@@@std@@PAX@1@AAU?$pair@$$CBIPAUClientContext@@@1@1@Z 1000ab40 f i IOCPS.obj
 0001:00009b40       ??$_Insert_at@AAU?$pair@$$CBGPAX@std@@PAU?$_Tree_node@U?$pair@$$CBGPAX@std@@PAX@2@@?$_Tree@V?$_Tmap_traits@GPAXU?$less@G@std@@V?$allocator@U?$pair@$$CBGPAX@std@@@2@$0A@@std@@@std@@IAE?AV?$_Tree_iterator@V?$_Tree_val@U?$_Tree_simple_types@U?$pair@$$CBGPAX@std@@@std@@@std@@@1@_NPAU?$_Tree_node@U?$pair@$$CBGPAX@std@@PAX@1@AAU?$pair@$$CBGPAX@1@1@Z 1000ab40 f i IOCPS.obj
 0001:00009f80       ??$construct@U?$pair@$$CBIPAVCIOCPBuffer@@@std@@U?$pair@IPAVCIOCPBuffer@@@2@@?$_Wrap_alloc@V?$allocator@U?$_Tree_node@U?$pair@$$CBIPAVCIOCPBuffer@@@std@@PAX@std@@@std@@@std@@QAEXPAU?$pair@$$CBIPAVCIOCPBuffer@@@1@$$QAU?$pair@IPAVCIOCPBuffer@@@1@@Z 1000af80 f i IOCPS.obj
 0001:00009fb0       ??$?0ABG$0A@@?$tuple@ABG@std@@QAE@ABG@Z 1000afb0 f i IOCPS.obj
 0001:00009fb0       ??$?0ABI$0A@@?$tuple@ABI@std@@QAE@ABI@Z 1000afb0 f i IOCPS.obj
 0001:00009fe0       ??$_Buynode@ABUpiecewise_construct_t@std@@V?$tuple@ABG@2@V?$tuple@$$V@2@@?$_Tree_comp_alloc@V?$_Tmap_traits@GPAXU?$less@G@std@@V?$allocator@U?$pair@$$CBGPAX@std@@@2@$0A@@std@@@std@@QAEPAU?$_Tree_node@U?$pair@$$CBGPAX@std@@PAX@1@ABUpiecewise_construct_t@1@$$QAV?$tuple@ABG@1@$$QAV?$tuple@$$V@1@@Z 1000afe0 f i IOCPS.obj
 0001:0000a0e0       ??$_Insert_hint@AAU?$pair@$$CBGPAX@std@@PAU?$_Tree_node@U?$pair@$$CBGPAX@std@@PAX@2@@?$_Tree@V?$_Tmap_traits@GPAXU?$less@G@std@@V?$allocator@U?$pair@$$CBGPAX@std@@@2@$0A@@std@@@std@@IAE?AV?$_Tree_iterator@V?$_Tree_val@U?$_Tree_simple_types@U?$pair@$$CBGPAX@std@@@std@@@std@@@1@V?$_Tree_const_iterator@V?$_Tree_val@U?$_Tree_simple_types@U?$pair@$$CBGPAX@std@@@std@@@std@@@1@AAU?$pair@$$CBGPAX@1@PAU?$_Tree_node@U?$pair@$$CBGPAX@std@@PAX@1@@Z 1000b0e0 f i IOCPS.obj
 0001:0000ab50       ??$_Buynode@ABUpiecewise_construct_t@std@@V?$tuple@ABI@2@V?$tuple@$$V@2@@?$_Tree_comp_alloc@V?$_Tmap_traits@IPAVCIOCPBuffer@@U?$less@I@std@@V?$allocator@U?$pair@$$CBIPAVCIOCPBuffer@@@std@@@3@$0A@@std@@@std@@QAEPAU?$_Tree_node@U?$pair@$$CBIPAVCIOCPBuffer@@@std@@PAX@1@ABUpiecewise_construct_t@1@$$QAV?$tuple@ABI@1@$$QAV?$tuple@$$V@1@@Z 1000bb50 f i IOCPS.obj
 0001:0000ab50       ??$_Buynode@ABUpiecewise_construct_t@std@@V?$tuple@ABI@2@V?$tuple@$$V@2@@?$_Tree_comp_alloc@V?$_Tmap_traits@IPAUClientContext@@U?$less@I@std@@V?$allocator@U?$pair@$$CBIPAUClientContext@@@std@@@3@$0A@@std@@@std@@QAEPAU?$_Tree_node@U?$pair@$$CBIPAUClientContext@@@std@@PAX@1@ABUpiecewise_construct_t@1@$$QAV?$tuple@ABI@1@$$QAV?$tuple@$$V@1@@Z 1000bb50 f i IOCPS.obj
 0001:0000ac50       ??$_Insert_hint@AAU?$pair@$$CBIPAVCIOCPBuffer@@@std@@PAU?$_Tree_node@U?$pair@$$CBIPAVCIOCPBuffer@@@std@@PAX@2@@?$_Tree@V?$_Tmap_traits@IPAVCIOCPBuffer@@U?$less@I@std@@V?$allocator@U?$pair@$$CBIPAVCIOCPBuffer@@@std@@@3@$0A@@std@@@std@@IAE?AV?$_Tree_iterator@V?$_Tree_val@U?$_Tree_simple_types@U?$pair@$$CBIPAVCIOCPBuffer@@@std@@@std@@@std@@@1@V?$_Tree_const_iterator@V?$_Tree_val@U?$_Tree_simple_types@U?$pair@$$CBIPAVCIOCPBuffer@@@std@@@std@@@std@@@1@AAU?$pair@$$CBIPAVCIOCPBuffer@@@1@PAU?$_Tree_node@U?$pair@$$CBIPAVCIOCPBuffer@@@std@@PAX@1@@Z 1000bc50 f i IOCPS.obj
 0001:0000ac50       ??$_Insert_hint@AAU?$pair@$$CBIPAUClientContext@@@std@@PAU?$_Tree_node@U?$pair@$$CBIPAUClientContext@@@std@@PAX@2@@?$_Tree@V?$_Tmap_traits@IPAUClientContext@@U?$less@I@std@@V?$allocator@U?$pair@$$CBIPAUClientContext@@@std@@@3@$0A@@std@@@std@@IAE?AV?$_Tree_iterator@V?$_Tree_val@U?$_Tree_simple_types@U?$pair@$$CBIPAUClientContext@@@std@@@std@@@std@@@1@V?$_Tree_const_iterator@V?$_Tree_val@U?$_Tree_simple_types@U?$pair@$$CBIPAUClientContext@@@std@@@std@@@std@@@1@AAU?$pair@$$CBIPAUClientContext@@@1@PAU?$_Tree_node@U?$pair@$$CBIPAUClientContext@@@std@@PAX@1@@Z 1000bc50 f i IOCPS.obj
 0001:0000b6c0       ?max_size@?$_Tree@V?$_Tmap_traits@IPAUClientContext@@U?$less@I@std@@V?$allocator@U?$pair@$$CBIPAUClientContext@@@std@@@3@$0A@@std@@@std@@QBEIXZ 1000c6c0 f i IOCPS.obj
 0001:0000b6c0       ?max_size@?$_Tree@V?$_Tmap_traits@IPAVCIOCPBuffer@@U?$less@I@std@@V?$allocator@U?$pair@$$CBIPAVCIOCPBuffer@@@std@@@3@$0A@@std@@@std@@QBEIXZ 1000c6c0 f i IOCPS.obj
 0001:0000b6c0       ?max_size@?$_Tree@V?$_Tmap_traits@GPAXU?$less@G@std@@V?$allocator@U?$pair@$$CBGPAX@std@@@2@$0A@@std@@@std@@QBEIXZ 1000c6c0 f i IOCPS.obj
 0001:0000b6f0       ?max_size@?$_Wrap_alloc@V?$allocator@U?$_Tree_node@U?$pair@$$CBIPAUClientContext@@@std@@PAX@std@@@std@@@std@@QBEIU_Nil@2@@Z 1000c6f0 f i IOCPS.obj
 0001:0000b6f0       ?max_size@?$_Wrap_alloc@V?$allocator@U?$_Tree_node@U?$pair@$$CBGPAX@std@@PAX@std@@@std@@@std@@QBEIU_Nil@2@@Z 1000c6f0 f i IOCPS.obj
 0001:0000b6f0       ?max_size@?$_Wrap_alloc@V?$allocator@U?$_Tree_node@U?$pair@$$CBIPAVCIOCPBuffer@@@std@@PAX@std@@@std@@@std@@QBEIU_Nil@2@@Z 1000c6f0 f i IOCPS.obj
 0001:0000b710       ?max_size@?$allocator_traits@V?$allocator@U?$_Tree_node@U?$pair@$$CBGPAX@std@@PAX@std@@@std@@@std@@SAIABV?$allocator@U?$_Tree_node@U?$pair@$$CBGPAX@std@@PAX@std@@@2@@Z 1000c710 f i IOCPS.obj
 0001:0000b710       ?max_size@?$allocator_traits@V?$allocator@U?$_Tree_node@U?$pair@$$CBIPAVCIOCPBuffer@@@std@@PAX@std@@@std@@@std@@SAIABV?$allocator@U?$_Tree_node@U?$pair@$$CBIPAVCIOCPBuffer@@@std@@PAX@std@@@2@@Z 1000c710 f i IOCPS.obj
 0001:0000b710       ?max_size@?$allocator_traits@V?$allocator@U?$_Tree_node@U?$pair@$$CBIPAUClientContext@@@std@@PAX@std@@@std@@@std@@SAIABV?$allocator@U?$_Tree_node@U?$pair@$$CBIPAUClientContext@@@std@@PAX@std@@@2@@Z 1000c710 f i IOCPS.obj
 0001:0000b720       ?max_size@?$allocator@U?$_Tree_node@U?$pair@$$CBIPAUClientContext@@@std@@PAX@std@@@std@@QBEIXZ 1000c720 f i IOCPS.obj
 0001:0000b720       ?max_size@?$allocator@U?$_Tree_node@U?$pair@$$CBIPAVCIOCPBuffer@@@std@@PAX@std@@@std@@QBEIXZ 1000c720 f i IOCPS.obj
 0001:0000b720       ?max_size@?$allocator@U?$_Tree_node@U?$pair@$$CBGPAX@std@@PAX@std@@@std@@QBEIXZ 1000c720 f i IOCPS.obj
 0001:0000b730       ??$construct@U?$pair@$$CBGPAX@std@@U?$pair@GPAX@2@@?$allocator_traits@V?$allocator@U?$_Tree_node@U?$pair@$$CBGPAX@std@@PAX@std@@@std@@@std@@SAXAAV?$allocator@U?$_Tree_node@U?$pair@$$CBGPAX@std@@PAX@std@@@1@PAU?$pair@$$CBGPAX@1@$$QAU?$pair@GPAX@1@@Z 1000c730 f i IOCPS.obj
 0001:0000b750       ??$_Buynode_if_nil@AAU?$pair@$$CBIPAUClientContext@@@std@@@?$_Tree@V?$_Tmap_traits@IPAUClientContext@@U?$less@I@std@@V?$allocator@U?$pair@$$CBIPAUClientContext@@@std@@@3@$0A@@std@@@std@@IAEPAU?$_Tree_node@U?$pair@$$CBIPAUClientContext@@@std@@PAX@1@PAU21@AAU?$pair@$$CBIPAUClientContext@@@1@@Z 1000c750 f i IOCPS.obj
 0001:0000b750       ??$_Buynode_if_nil@AAU?$pair@$$CBIPAVCIOCPBuffer@@@std@@@?$_Tree@V?$_Tmap_traits@IPAVCIOCPBuffer@@U?$less@I@std@@V?$allocator@U?$pair@$$CBIPAVCIOCPBuffer@@@std@@@3@$0A@@std@@@std@@IAEPAU?$_Tree_node@U?$pair@$$CBIPAVCIOCPBuffer@@@std@@PAX@1@PAU21@AAU?$pair@$$CBIPAVCIOCPBuffer@@@1@@Z 1000c750 f i IOCPS.obj
 0001:0000b750       ??$_Buynode_if_nil@AAU?$pair@$$CBGPAX@std@@@?$_Tree@V?$_Tmap_traits@GPAXU?$less@G@std@@V?$allocator@U?$pair@$$CBGPAX@std@@@2@$0A@@std@@@std@@IAEPAU?$_Tree_node@U?$pair@$$CBGPAX@std@@PAX@1@PAU21@AAU?$pair@$$CBGPAX@1@@Z 1000c750 f i IOCPS.obj
 0001:0000b760       ??$construct@U?$pair@$$CBIPAVCIOCPBuffer@@@std@@U?$pair@IPAVCIOCPBuffer@@@2@@?$allocator_traits@V?$allocator@U?$_Tree_node@U?$pair@$$CBIPAVCIOCPBuffer@@@std@@PAX@std@@@std@@@std@@SAXAAV?$allocator@U?$_Tree_node@U?$pair@$$CBIPAVCIOCPBuffer@@@std@@PAX@std@@@1@PAU?$pair@$$CBIPAVCIOCPBuffer@@@1@$$QAU?$pair@IPAVCIOCPBuffer@@@1@@Z 1000c760 f i IOCPS.obj
 0001:0000b780       ??$?0ABI@?$_Tuple_val@ABI@std@@QAE@ABI@Z 1000c780 f i IOCPS.obj
 0001:0000b780       ??$?0ABG@?$_Tuple_val@ABG@std@@QAE@ABG@Z 1000c780 f i IOCPS.obj
 0001:0000b7b0       ??$construct@U?$pair@$$CBGPAX@std@@ABUpiecewise_construct_t@2@V?$tuple@ABG@2@V?$tuple@$$V@2@@?$_Wrap_alloc@V?$allocator@U?$_Tree_node@U?$pair@$$CBGPAX@std@@PAX@std@@@std@@@std@@QAEXPAU?$pair@$$CBGPAX@1@ABUpiecewise_construct_t@1@$$QAV?$tuple@ABG@1@$$QAV?$tuple@$$V@1@@Z 1000c7b0 f i IOCPS.obj
 0001:0000b800       ??$construct@U?$pair@$$CBIPAUClientContext@@@std@@ABUpiecewise_construct_t@2@V?$tuple@ABI@2@V?$tuple@$$V@2@@?$_Wrap_alloc@V?$allocator@U?$_Tree_node@U?$pair@$$CBIPAUClientContext@@@std@@PAX@std@@@std@@@std@@QAEXPAU?$pair@$$CBIPAUClientContext@@@1@ABUpiecewise_construct_t@1@$$QAV?$tuple@ABI@1@$$QAV?$tuple@$$V@1@@Z 1000c800 f i IOCPS.obj
 0001:0000b800       ??$construct@U?$pair@$$CBIPAVCIOCPBuffer@@@std@@ABUpiecewise_construct_t@2@V?$tuple@ABI@2@V?$tuple@$$V@2@@?$_Wrap_alloc@V?$allocator@U?$_Tree_node@U?$pair@$$CBIPAVCIOCPBuffer@@@std@@PAX@std@@@std@@@std@@QAEXPAU?$pair@$$CBIPAVCIOCPBuffer@@@1@ABUpiecewise_construct_t@1@$$QAV?$tuple@ABI@1@$$QAV?$tuple@$$V@1@@Z 1000c800 f i IOCPS.obj
 0001:0000b850       ??$construct@U?$pair@$$CBGPAX@std@@U?$pair@GPAX@2@@?$allocator@U?$_Tree_node@U?$pair@$$CBGPAX@std@@PAX@std@@@std@@QAEXPAU?$pair@$$CBGPAX@1@$$QAU?$pair@GPAX@1@@Z 1000c850 f i IOCPS.obj
 0001:0000b8a0       ??$construct@U?$pair@$$CBIPAVCIOCPBuffer@@@std@@U?$pair@IPAVCIOCPBuffer@@@2@@?$allocator@U?$_Tree_node@U?$pair@$$CBIPAVCIOCPBuffer@@@std@@PAX@std@@@std@@QAEXPAU?$pair@$$CBIPAVCIOCPBuffer@@@1@$$QAU?$pair@IPAVCIOCPBuffer@@@1@@Z 1000c8a0 f i IOCPS.obj
 0001:0000b8f0       ??$construct@U?$pair@$$CBGPAX@std@@ABUpiecewise_construct_t@2@V?$tuple@ABG@2@V?$tuple@$$V@2@@?$allocator_traits@V?$allocator@U?$_Tree_node@U?$pair@$$CBGPAX@std@@PAX@std@@@std@@@std@@SAXAAV?$allocator@U?$_Tree_node@U?$pair@$$CBGPAX@std@@PAX@std@@@1@PAU?$pair@$$CBGPAX@1@ABUpiecewise_construct_t@1@$$QAV?$tuple@ABG@1@$$QAV?$tuple@$$V@1@@Z 1000c8f0 f i IOCPS.obj
 0001:0000b930       ??$construct@U?$pair@$$CBIPAVCIOCPBuffer@@@std@@ABUpiecewise_construct_t@2@V?$tuple@ABI@2@V?$tuple@$$V@2@@?$allocator_traits@V?$allocator@U?$_Tree_node@U?$pair@$$CBIPAVCIOCPBuffer@@@std@@PAX@std@@@std@@@std@@SAXAAV?$allocator@U?$_Tree_node@U?$pair@$$CBIPAVCIOCPBuffer@@@std@@PAX@std@@@1@PAU?$pair@$$CBIPAVCIOCPBuffer@@@1@ABUpiecewise_construct_t@1@$$QAV?$tuple@ABI@1@$$QAV?$tuple@$$V@1@@Z 1000c930 f i IOCPS.obj
 0001:0000b930       ??$construct@U?$pair@$$CBIPAUClientContext@@@std@@ABUpiecewise_construct_t@2@V?$tuple@ABI@2@V?$tuple@$$V@2@@?$allocator_traits@V?$allocator@U?$_Tree_node@U?$pair@$$CBIPAUClientContext@@@std@@PAX@std@@@std@@@std@@SAXAAV?$allocator@U?$_Tree_node@U?$pair@$$CBIPAUClientContext@@@std@@PAX@std@@@1@PAU?$pair@$$CBIPAUClientContext@@@1@ABUpiecewise_construct_t@1@$$QAV?$tuple@ABI@1@$$QAV?$tuple@$$V@1@@Z 1000c930 f i IOCPS.obj
 0001:0000b970       ??$?0GPAXX$0A@@?$pair@$$CBGPAX@std@@QAE@$$QAU?$pair@GPAX@1@@Z 1000c970 f i IOCPS.obj
 0001:0000b9b0       ??$?0IPAVCIOCPBuffer@@X$0A@@?$pair@$$CBIPAVCIOCPBuffer@@@std@@QAE@$$QAU?$pair@IPAVCIOCPBuffer@@@1@@Z 1000c9b0 f i IOCPS.obj
 0001:0000b9f0       ??$construct@U?$pair@$$CBGPAX@std@@ABUpiecewise_construct_t@2@V?$tuple@ABG@2@V?$tuple@$$V@2@@?$allocator@U?$_Tree_node@U?$pair@$$CBGPAX@std@@PAX@std@@@std@@QAEXPAU?$pair@$$CBGPAX@1@ABUpiecewise_construct_t@1@$$QAV?$tuple@ABG@1@$$QAV?$tuple@$$V@1@@Z 1000c9f0 f i IOCPS.obj
 0001:0000bab0       ??$construct@U?$pair@$$CBIPAVCIOCPBuffer@@@std@@ABUpiecewise_construct_t@2@V?$tuple@ABI@2@V?$tuple@$$V@2@@?$allocator@U?$_Tree_node@U?$pair@$$CBIPAVCIOCPBuffer@@@std@@PAX@std@@@std@@QAEXPAU?$pair@$$CBIPAVCIOCPBuffer@@@1@ABUpiecewise_construct_t@1@$$QAV?$tuple@ABI@1@$$QAV?$tuple@$$V@1@@Z 1000cab0 f i IOCPS.obj
 0001:0000bab0       ??$construct@U?$pair@$$CBIPAUClientContext@@@std@@ABUpiecewise_construct_t@2@V?$tuple@ABI@2@V?$tuple@$$V@2@@?$allocator@U?$_Tree_node@U?$pair@$$CBIPAUClientContext@@@std@@PAX@std@@@std@@QAEXPAU?$pair@$$CBIPAUClientContext@@@1@ABUpiecewise_construct_t@1@$$QAV?$tuple@ABI@1@$$QAV?$tuple@$$V@1@@Z 1000cab0 f i IOCPS.obj
 0001:0000bb70       ??0?$tuple@ABG@std@@QAE@$$QAV01@@Z 1000cb70 f i IOCPS.obj
 0001:0000bb70       ??0?$tuple@ABI@std@@QAE@$$QAV01@@Z 1000cb70 f i IOCPS.obj
 0001:0000bba0       ??$?0ABG$$Z$$V@?$pair@$$CBGPAX@std@@QAE@Upiecewise_construct_t@1@V?$tuple@ABG@1@V?$tuple@$$V@1@@Z 1000cba0 f i IOCPS.obj
 0001:0000bbd0       ??$?0ABI$$Z$$V@?$pair@$$CBIPAUClientContext@@@std@@QAE@Upiecewise_construct_t@1@V?$tuple@ABI@1@V?$tuple@$$V@1@@Z 1000cbd0 f i IOCPS.obj
 0001:0000bbd0       ??$?0ABI$$Z$$V@?$pair@$$CBIPAVCIOCPBuffer@@@std@@QAE@Upiecewise_construct_t@1@V?$tuple@ABI@1@V?$tuple@$$V@1@@Z 1000cbd0 f i IOCPS.obj
 0001:0000bc00       ??$?0V?$tuple@ABG@std@@V?$tuple@$$V@1@$0A@$$Z$S@?$pair@$$CBGPAX@std@@QAE@AAV?$tuple@ABG@1@AAV?$tuple@$$V@1@U?$integer_sequence@I$0A@@1@U?$integer_sequence@I$S@1@@Z 1000cc00 f i IOCPS.obj
 0001:0000bc40       ??$?0V?$tuple@ABI@std@@V?$tuple@$$V@1@$0A@$$Z$S@?$pair@$$CBIPAVCIOCPBuffer@@@std@@QAE@AAV?$tuple@ABI@1@AAV?$tuple@$$V@1@U?$integer_sequence@I$0A@@1@U?$integer_sequence@I$S@1@@Z 1000cc40 f i IOCPS.obj
 0001:0000bc40       ??$?0V?$tuple@ABI@std@@V?$tuple@$$V@1@$0A@$$Z$S@?$pair@$$CBIPAUClientContext@@@std@@QAE@AAV?$tuple@ABI@1@AAV?$tuple@$$V@1@U?$integer_sequence@I$0A@@1@U?$integer_sequence@I$S@1@@Z 1000cc40 f i IOCPS.obj
 0001:0000bc80       ??$get@$0A@ABG@std@@YAABG$$QAV?$tuple@ABG@0@@Z 1000cc80 f i IOCPS.obj
 0001:0000bc80       ??$get@$0A@ABI@std@@YAABI$$QAV?$tuple@ABI@0@@Z 1000cc80 f i IOCPS.obj
 0001:0000bca0       ??3@YAXPAX0@Z              1000cca0 f i IOCPS.obj
 0001:0000bcb0       ??0ITIOCP@@QAE@XZ          1000ccb0 f   MyIOCP.obj
 0001:0000bda0       ??_EITIOCP@@UAEPAXI@Z      1000cda0 f i * CIL library *:* CIL module *
 0001:0000bda0       ??_GITIOCP@@UAEPAXI@Z      1000cda0 f i MyIOCP.obj
 0001:0000bde0       ??1ITIOCP@@UAE@XZ          1000cde0 f   MyIOCP.obj
 0001:0000be20       ?NotifyReceivedPackage@ITIOCP@@UAEXPAVCIOCPBuffer@@HPAUClientContext@@@Z 1000ce20 f   MyIOCP.obj
 0001:0000be50       ?ProcessJob@ITIOCP@@UAEXPAUJobItem@@PAVIOCPS@@@Z 1000ce50 f i MyIOCP.obj
 0001:0000be70       ?NotifyNewConnection@ITIOCP@@UAEXPAUClientContext@@@Z 1000ce70 f   MyIOCP.obj
 0001:0000bf20       ?NotifyDisconnectedClient@ITIOCP@@UAEXPAUClientContext@@@Z 1000cf20 f   MyIOCP.obj
 0001:0000c020       ?NotifyNewClientContext@ITIOCP@@UAEXPAUClientContext@@@Z 1000d020 f   MyIOCP.obj
 0001:0000c050       ?Packagetext@ITIOCP@@QAEXPAVCIOCPBuffer@@HPAUClientContext@@@Z 1000d050 f   MyIOCP.obj
 0001:0000c1e0       ?BuildPackageAndSend@ITIOCP@@QAEHPAUClientContext@@V?$basic_string@DU?$char_traits@D@std@@V?$allocator@D@2@@std@@@Z 1000d1e0 f   MyIOCP.obj
 0001:0000c320       ?Send@ITIOCP@@UAE_NIPADI@Z 1000d320 f   MyIOCP.obj
 0001:0000c390       ?CreateServerSocket@@YGPAVSocket@@XZ 1000d390 f   MyIOCP.obj
 0001:0000c400       ?ReleaseClientSocket@@YGXPAVSocket@@@Z 1000d400 f   MyIOCP.obj
 0001:0000c400       ?ReleaseServerSocket@@YGXPAVSocket@@@Z 1000d400 f   MyIOCP.obj
 0001:0000c440       ?CreateClientSocket@@YGPAVSocket@@XZ 1000d440 f   MyIOCP.obj
 0001:0000c4c0       ??0?$basic_string@DU?$char_traits@D@std@@V?$allocator@D@2@@std@@QAE@ABV01@@Z 1000d4c0 f i MyIOCP.obj
 0001:0000c550       ?select_on_container_copy_construction@?$_Wrap_alloc@V?$allocator@D@std@@@std@@QBE?AU12@U_Nil@2@@Z 1000d550 f i MyIOCP.obj
 0001:0000c580       ?select_on_container_copy_construction@?$allocator_traits@V?$allocator@D@std@@@std@@SA?AV?$allocator@D@2@ABV32@@Z 1000d580 f i MyIOCP.obj
 0001:0000c594       @__security_check_cookie@4 1000d594 f   MSVCRT:_secchk_.obj
 0001:0000c5a5       ??3@YAXPAXI@Z              1000d5a5 f   MSVCRT:delete_scalar_size.obj
 0001:0000c5b3       ??3@YAXPAX@Z               1000d5b3 f   MSVCRT:delete_scalar.obj
 0001:0000c5b8       ??2@YAPAXI@Z               1000d5b8 f   MSVCRT:new_scalar.obj
 0001:0000c5eb       ??_Etype_info@@UAEPAXI@Z   1000d5eb f i MSVCRT:std_type_info_static.obj
 0001:0000c5eb       ??_Gtype_info@@UAEPAXI@Z   1000d5eb f i MSVCRT:std_type_info_static.obj
 0001:0000c60e       ??_V@YAXPAX@Z              1000d60e f   MSVCRT:delete_array.obj
 0001:0000c91b       __DllMainCRTStartup@12     1000d91b f   MSVCRT:dll_dllmain.obj
 0001:0000c93e       ___raise_securityfailure   1000d93e f   MSVCRT:gs_report.obj
 0001:0000c966       ___report_gsfailure        1000d966 f   MSVCRT:gs_report.obj
 0001:0000ca61       ??0bad_alloc@std@@QAE@ABV01@@Z 1000da61 f i MSVCRT:throw_bad_alloc.obj
 0001:0000ca7c       ??0bad_alloc@std@@QAE@XZ   1000da7c f i MSVCRT:throw_bad_alloc.obj
 0001:0000ca94       ??0bad_array_new_length@std@@QAE@ABV01@@Z 1000da94 f i MSVCRT:throw_bad_alloc.obj
 0001:0000caaf       ??0bad_array_new_length@std@@QAE@XZ 1000daaf f i MSVCRT:throw_bad_alloc.obj
 0001:0000cac7       ??0exception@std@@QAE@ABV01@@Z 1000dac7 f i MSVCRT:throw_bad_alloc.obj
 0001:0000caf3       ??1bad_alloc@std@@UAE@XZ   1000daf3 f i MSVCRT:throw_bad_alloc.obj
 0001:0000caf3       ??1bad_array_new_length@std@@UAE@XZ 1000daf3 f i MSVCRT:throw_bad_alloc.obj
 0001:0000cb04       ??_Ebad_alloc@std@@UAEPAXI@Z 1000db04 f i MSVCRT:throw_bad_alloc.obj
 0001:0000cb04       ??_Ebad_array_new_length@std@@UAEPAXI@Z 1000db04 f i MSVCRT:throw_bad_alloc.obj
 0001:0000cb04       ??_Gbad_alloc@std@@UAEPAXI@Z 1000db04 f i MSVCRT:throw_bad_alloc.obj
 0001:0000cb04       ??_Gbad_array_new_length@std@@UAEPAXI@Z 1000db04 f i MSVCRT:throw_bad_alloc.obj
 0001:0000cb04       ??_Eexception@std@@UAEPAXI@Z 1000db04 f i MSVCRT:throw_bad_alloc.obj
 0001:0000cb04       ??_Gexception@std@@UAEPAXI@Z 1000db04 f i MSVCRT:throw_bad_alloc.obj
 0001:0000cb31       ?__scrt_throw_std_bad_alloc@@YAXXZ 1000db31 f   MSVCRT:throw_bad_alloc.obj
 0001:0000cb4e       ?__scrt_throw_std_bad_array_new_length@@YAXXZ 1000db4e f   MSVCRT:throw_bad_alloc.obj
 0001:0000cb6b       ?what@exception@std@@UBEPBDXZ 1000db6b f i MSVCRT:throw_bad_alloc.obj
 0001:0000cbbc       ___scrt_acquire_startup_lock 1000dbbc f   MSVCRT:utility.obj
 0001:0000cbf1       ___scrt_dllmain_after_initialize_c 1000dbf1 f   MSVCRT:utility.obj
 0001:0000cc1c       ___scrt_dllmain_before_initialize_c 1000dc1c f   MSVCRT:utility.obj
 0001:0000cc2a       ___scrt_dllmain_crt_thread_attach 1000dc2a f   MSVCRT:utility.obj
 0001:0000cc49       ___scrt_dllmain_crt_thread_detach 1000dc49 f   MSVCRT:utility.obj
 0001:0000cc56       ___scrt_dllmain_exception_filter 1000dc56 f   MSVCRT:utility.obj
 0001:0000cc89       ___scrt_dllmain_uninitialize_c 1000dc89 f   MSVCRT:utility.obj
 0001:0000ccac       ___scrt_dllmain_uninitialize_critical 1000dcac f   MSVCRT:utility.obj
 0001:0000ccb9       ___scrt_initialize_crt     1000dcb9 f   MSVCRT:utility.obj
 0001:0000ccf2       ___scrt_initialize_onexit_tables 1000dcf2 f   MSVCRT:utility.obj
 0001:0000cd89       ___scrt_is_nonwritable_in_current_image 1000dd89 f   MSVCRT:utility.obj
 0001:0000ce13       ___scrt_release_startup_lock 1000de13 f   MSVCRT:utility.obj
 0001:0000ce30       ___scrt_uninitialize_crt   1000de30 f   MSVCRT:utility.obj
 0001:0000ce58       __onexit                   1000de58 f   MSVCRT:utility.obj
 0001:0000ce93       _atexit                    1000de93 f   MSVCRT:utility.obj
 0001:0000cea8       ___security_init_cookie    1000dea8 f   MSVCRT:gs_support.obj
 0001:0000cf44       ?__scrt_initialize_type_info@@YAXXZ 1000df44 f   MSVCRT:tncleanup.obj
 0001:0000cf50       ?__scrt_uninitialize_type_info@@YAXXZ 1000df50 f   MSVCRT:tncleanup.obj
 0001:0000cf5c       ___local_stdio_printf_options 1000df5c f i MSVCRT:default_local_stdio_options.obj
 0001:0000cf62       ___local_stdio_scanf_options 1000df62 f i MSVCRT:default_local_stdio_options.obj
 0001:0000cf68       ___scrt_initialize_default_local_stdio_options 1000df68 f   MSVCRT:default_local_stdio_options.obj
 0001:0000cf85       ___scrt_get_dyn_tls_init_callback 1000df85 f   MSVCRT:dyn_tls_init.obj
 0001:0000cf8b       ___scrt_fastfail           1000df8b f   MSVCRT:utility_desktop.obj
 0001:0000d0a6       __RTC_Initialize           1000e0a6 f   MSVCRT:_initsect_.obj
 0001:0000d0d1       __RTC_Terminate            1000e0d1 f   MSVCRT:_initsect_.obj
 0001:0000d0fc       @_guard_check_icall@4      1000e0fc f i MSVCRT:checkcfg.obj
 0001:0000d110       __SEH_prolog4              1000e110 f   MSVCRT:_sehprolg4_.obj
 0001:0000d156       __SEH_epilog4              1000e156 f   MSVCRT:_sehprolg4_.obj
 0001:0000d16b       __except_handler4          1000e16b f   MSVCRT:_chandler4gs_.obj
 0001:0000d18e       ___isa_available_init      1000e18e f   MSVCRT:_cpu_disp_.obj
 0001:0000d328       __get_startup_argv_mode    1000e328 f   MSVCRT:argv_mode.obj
 0001:0000d32c       ___scrt_is_ucrt_dll_in_use 1000e32c f   MSVCRT:ucrt_detection.obj
 0001:0000d338       @_guard_check_icall_nop@4  1000e338 f i MSVCRT:guard_support.obj
 0001:0000d33a       __purecall                 1000e33a f   vcruntime:VCRUNTIME140.dll
 0001:0000d340       ___std_exception_copy      1000e340 f   vcruntime:VCRUNTIME140.dll
 0001:0000d346       ___std_exception_destroy   1000e346 f   vcruntime:VCRUNTIME140.dll
 0001:0000d34c       __CxxThrowException@8      1000e34c f   vcruntime:VCRUNTIME140.dll
 0001:0000d352       ___std_type_info_destroy_list 1000e352 f   vcruntime:VCRUNTIME140.dll
 0001:0000d358       _memset                    1000e358 f   vcruntime:VCRUNTIME140.dll
 0001:0000d35e       __except_handler4_common   1000e35e f   vcruntime:VCRUNTIME140.dll
 0001:0000d364       _free                      1000e364 f   ucrt:api-ms-win-crt-heap-l1-1-0.dll
 0001:0000d36a       __callnewh                 1000e36a f   ucrt:api-ms-win-crt-heap-l1-1-0.dll
 0001:0000d370       _malloc                    1000e370 f   ucrt:api-ms-win-crt-heap-l1-1-0.dll
 0001:0000d376       __initterm                 1000e376 f   ucrt:api-ms-win-crt-runtime-l1-1-0.dll
 0001:0000d37c       __initterm_e               1000e37c f   ucrt:api-ms-win-crt-runtime-l1-1-0.dll
 0001:0000d382       __seh_filter_dll           1000e382 f   ucrt:api-ms-win-crt-runtime-l1-1-0.dll
 0001:0000d388       __configure_narrow_argv    1000e388 f   ucrt:api-ms-win-crt-runtime-l1-1-0.dll
 0001:0000d38e       __initialize_narrow_environment 1000e38e f   ucrt:api-ms-win-crt-runtime-l1-1-0.dll
 0001:0000d394       __initialize_onexit_table  1000e394 f   ucrt:api-ms-win-crt-runtime-l1-1-0.dll
 0001:0000d39a       __register_onexit_function 1000e39a f   ucrt:api-ms-win-crt-runtime-l1-1-0.dll
 0001:0000d3a0       __execute_onexit_table     1000e3a0 f   ucrt:api-ms-win-crt-runtime-l1-1-0.dll
 0001:0000d3a6       __crt_atexit               1000e3a6 f   ucrt:api-ms-win-crt-runtime-l1-1-0.dll
 0001:0000d3ac       __cexit                    1000e3ac f   ucrt:api-ms-win-crt-runtime-l1-1-0.dll
 0001:0000d3b2       _IsProcessorFeaturePresent@4 1000e3b2 f   kernel32:KERNEL32.dll
 0001:0000d3b8       ___scrt_stub_for_acrt_initialize 1000e3b8 f   MSVCRT:ucrt_stubs.obj
 0001:0000d3b8       ___scrt_stub_for_acrt_thread_attach 1000e3b8 f   MSVCRT:ucrt_stubs.obj
 0001:0000d3b8       ___acrt_uninitialize       1000e3b8 f   MSVCRT:ucrt_stubs.obj
 0001:0000d3b8       ___scrt_stub_for_acrt_uninitialize 1000e3b8 f   MSVCRT:ucrt_stubs.obj
 0001:0000d3b8       ___vcrt_uninitialize       1000e3b8 f   MSVCRT:ucrt_stubs.obj
 0001:0000d3b8       ___scrt_stub_for_acrt_uninitialize_critical 1000e3b8 f   MSVCRT:ucrt_stubs.obj
 0001:0000d3b8       ___vcrt_thread_attach      1000e3b8 f   MSVCRT:ucrt_stubs.obj
 0001:0000d3b8       ___vcrt_initialize         1000e3b8 f   MSVCRT:ucrt_stubs.obj
 0001:0000d3b8       ___vcrt_thread_detach      1000e3b8 f   MSVCRT:ucrt_stubs.obj
 0001:0000d3b8       ___acrt_initialize         1000e3b8 f   MSVCRT:ucrt_stubs.obj
 0001:0000d3b8       ___acrt_thread_detach      1000e3b8 f   MSVCRT:ucrt_stubs.obj
 0001:0000d3b8       ___acrt_thread_attach      1000e3b8 f   MSVCRT:ucrt_stubs.obj
 0001:0000d3b8       ___scrt_stub_for_acrt_thread_detach 1000e3b8 f   MSVCRT:ucrt_stubs.obj
 0001:0000d3b8       ___vcrt_uninitialize_critical 1000e3b8 f   MSVCRT:ucrt_stubs.obj
 0001:0000d3b8       ___acrt_uninitialize_critical 1000e3b8 f   MSVCRT:ucrt_stubs.obj
 0001:0000d3bb       ___scrt_stub_for_is_c_termination_complete 1000e3bb f   MSVCRT:ucrt_stubs.obj
 0001:0000d3bb       __is_c_termination_complete 1000e3bb f   MSVCRT:ucrt_stubs.obj
 0001:0000d3c0       __alloca_probe             1000e3c0 f   MSVCRT:chkstk.obj
 0001:0000d3c0       __chkstk                   1000e3c0 f   MSVCRT:chkstk.obj
 0001:0000d3ee       ___CxxFrameHandler3        1000e3ee f   vcruntime:VCRUNTIME140.dll
 0001:0000d3f4       _memcpy                    1000e3f4 f   vcruntime:VCRUNTIME140.dll
 0002:00000000       __imp__Sleep@4             1000f000     kernel32:KERNEL32.dll
 0002:00000004       __imp__IsDebuggerPresent@0 1000f004     kernel32:KERNEL32.dll
 0002:00000008       __imp__InitializeSListHead@4 1000f008     kernel32:KERNEL32.dll
 0002:0000000c       __imp__GetSystemTimeAsFileTime@4 1000f00c     kernel32:KERNEL32.dll
 0002:00000010       __imp__GetCurrentProcessId@0 1000f010     kernel32:KERNEL32.dll
 0002:00000014       __imp__QueryPerformanceCounter@4 1000f014     kernel32:KERNEL32.dll
 0002:00000018       __imp__IsProcessorFeaturePresent@4 1000f018     kernel32:KERNEL32.dll
 0002:0000001c       __imp__TerminateProcess@8  1000f01c     kernel32:KERNEL32.dll
 0002:00000020       __imp__GetCurrentProcess@0 1000f020     kernel32:KERNEL32.dll
 0002:00000024       __imp__SetUnhandledExceptionFilter@4 1000f024     kernel32:KERNEL32.dll
 0002:00000028       __imp__UnhandledExceptionFilter@4 1000f028     kernel32:KERNEL32.dll
 0002:0000002c       __imp__GetCurrentThread@0  1000f02c     kernel32:KERNEL32.dll
 0002:00000030       __imp__SuspendThread@4     1000f030     kernel32:KERNEL32.dll
 0002:00000034       __imp__GetCurrentThreadId@0 1000f034     kernel32:KERNEL32.dll
 0002:00000038       __imp__PostQueuedCompletionStatus@16 1000f038     kernel32:KERNEL32.dll
 0002:0000003c       __imp__ResumeThread@4      1000f03c     kernel32:KERNEL32.dll
 0002:00000040       __imp__GetExitCodeThread@8 1000f040     kernel32:KERNEL32.dll
 0002:00000044       __imp__LocalFree@4         1000f044     kernel32:KERNEL32.dll
 0002:00000048       __imp__FormatMessageA@28   1000f048     kernel32:KERNEL32.dll
 0002:0000004c       __imp__CloseHandle@4       1000f04c     kernel32:KERNEL32.dll
 0002:00000050       __imp__LeaveCriticalSection@4 1000f050     kernel32:KERNEL32.dll
 0002:00000054       __imp__CancelIo@4          1000f054     kernel32:KERNEL32.dll
 0002:00000058       __imp__EnterCriticalSection@4 1000f058     kernel32:KERNEL32.dll
 0002:0000005c       __imp__CreateIoCompletionPort@16 1000f05c     kernel32:KERNEL32.dll
 0002:00000060       __imp__InitializeCriticalSection@4 1000f060     kernel32:KERNEL32.dll
 0002:00000064       __imp__GetQueuedCompletionStatus@20 1000f064     kernel32:KERNEL32.dll
 0002:00000068       __imp__GetLastError@0      1000f068     kernel32:KERNEL32.dll
 0002:0000006c       \177KERNEL32_NULL_THUNK_DATA 1000f06c     kernel32:KERNEL32.dll
 0002:00000070       __imp_?_Xlength_error@std@@YAXPBD@Z 1000f070     msvcprt:MSVCP140.dll
 0002:00000074       __imp_?_Xout_of_range@std@@YAXPBD@Z 1000f074     msvcprt:MSVCP140.dll
 0002:00000078       __imp_?_Xbad_alloc@std@@YAXXZ 1000f078     msvcprt:MSVCP140.dll
 0002:0000007c       \177MSVCP140_NULL_THUNK_DATA 1000f07c     msvcprt:MSVCP140.dll
 0002:00000080       __imp__memcpy              1000f080     vcruntime:VCRUNTIME140.dll
 0002:00000084       __imp__memmove             1000f084     vcruntime:VCRUNTIME140.dll
 0002:00000088       __imp___purecall           1000f088     vcruntime:VCRUNTIME140.dll
 0002:0000008c       __imp____std_exception_copy 1000f08c     vcruntime:VCRUNTIME140.dll
 0002:00000090       __imp____std_exception_destroy 1000f090     vcruntime:VCRUNTIME140.dll
 0002:00000094       __imp___CxxThrowException@8 1000f094     vcruntime:VCRUNTIME140.dll
 0002:00000098       __imp____std_type_info_destroy_list 1000f098     vcruntime:VCRUNTIME140.dll
 0002:0000009c       __imp__memset              1000f09c     vcruntime:VCRUNTIME140.dll
 0002:000000a0       __imp___except_handler4_common 1000f0a0     vcruntime:VCRUNTIME140.dll
 0002:000000a4       __imp____CxxFrameHandler3  1000f0a4     vcruntime:VCRUNTIME140.dll
 0002:000000a8       \177VCRUNTIME140_NULL_THUNK_DATA 1000f0a8     vcruntime:VCRUNTIME140.dll
 0002:000000ac       __imp__WSAStartup@8        1000f0ac     ws2_32:WS2_32.dll
 0002:000000b0       __imp__WSACleanup@0        1000f0b0     ws2_32:WS2_32.dll
 0002:000000b4       __imp__connect@12          1000f0b4     ws2_32:WS2_32.dll
 0002:000000b8       __imp__WSAIoctl@36         1000f0b8     ws2_32:WS2_32.dll
 0002:000000bc       __imp__inet_addr@4         1000f0bc     ws2_32:WS2_32.dll
 0002:000000c0       __imp__socket@12           1000f0c0     ws2_32:WS2_32.dll
 0002:000000c4       __imp__listen@8            1000f0c4     ws2_32:WS2_32.dll
 0002:000000c8       __imp__bind@12             1000f0c8     ws2_32:WS2_32.dll
 0002:000000cc       __imp__htons@4             1000f0cc     ws2_32:WS2_32.dll
 0002:000000d0       __imp__WSAEventSelect@12   1000f0d0     ws2_32:WS2_32.dll
 0002:000000d4       __imp__WSACreateEvent@0    1000f0d4     ws2_32:WS2_32.dll
 0002:000000d8       __imp__WSAEnumNetworkEvents@12 1000f0d8     ws2_32:WS2_32.dll
 0002:000000dc       __imp__WSAGetLastError@0   1000f0dc     ws2_32:WS2_32.dll
 0002:000000e0       __imp__WSAAccept@20        1000f0e0     ws2_32:WS2_32.dll
 0002:000000e4       __imp__closesocket@4       1000f0e4     ws2_32:WS2_32.dll
 0002:000000e8       __imp__setsockopt@20       1000f0e8     ws2_32:WS2_32.dll
 0002:000000ec       __imp__WSARecv@28          1000f0ec     ws2_32:WS2_32.dll
 0002:000000f0       __imp__WSASend@28          1000f0f0     ws2_32:WS2_32.dll
 0002:000000f4       __imp__getpeername@12      1000f0f4     ws2_32:WS2_32.dll
 0002:000000f8       __imp__inet_ntoa@4         1000f0f8     ws2_32:WS2_32.dll
 0002:000000fc       __imp__WSAWaitForMultipleEvents@20 1000f0fc     ws2_32:WS2_32.dll
 0002:00000100       __imp__WSACloseEvent@4     1000f100     ws2_32:WS2_32.dll
 0002:00000104       __imp__WSASocketA@24       1000f104     ws2_32:WS2_32.dll
 0002:00000108       \177WS2_32_NULL_THUNK_DATA 1000f108     ws2_32:WS2_32.dll
 0002:0000010c       __imp__free                1000f10c     ucrt:api-ms-win-crt-heap-l1-1-0.dll
 0002:00000110       __imp__malloc              1000f110     ucrt:api-ms-win-crt-heap-l1-1-0.dll
 0002:00000114       __imp___callnewh           1000f114     ucrt:api-ms-win-crt-heap-l1-1-0.dll
 0002:00000118       \177api-ms-win-crt-heap-l1-1-0_NULL_THUNK_DATA 1000f118     ucrt:api-ms-win-crt-heap-l1-1-0.dll
 0002:0000011c       __imp___cexit              1000f11c     ucrt:api-ms-win-crt-runtime-l1-1-0.dll
 0002:00000120       __imp___initialize_onexit_table 1000f120     ucrt:api-ms-win-crt-runtime-l1-1-0.dll
 0002:00000124       __imp___configure_narrow_argv 1000f124     ucrt:api-ms-win-crt-runtime-l1-1-0.dll
 0002:00000128       __imp___seh_filter_dll     1000f128     ucrt:api-ms-win-crt-runtime-l1-1-0.dll
 0002:0000012c       __imp___initterm_e         1000f12c     ucrt:api-ms-win-crt-runtime-l1-1-0.dll
 0002:00000130       __imp___initterm           1000f130     ucrt:api-ms-win-crt-runtime-l1-1-0.dll
 0002:00000134       __imp___crt_atexit         1000f134     ucrt:api-ms-win-crt-runtime-l1-1-0.dll
 0002:00000138       __imp___register_onexit_function 1000f138     ucrt:api-ms-win-crt-runtime-l1-1-0.dll
 0002:0000013c       __imp___execute_onexit_table 1000f13c     ucrt:api-ms-win-crt-runtime-l1-1-0.dll
 0002:00000140       __imp___beginthreadex      1000f140     ucrt:api-ms-win-crt-runtime-l1-1-0.dll
 0002:00000144       __imp___invalid_parameter_noinfo_noreturn 1000f144     ucrt:api-ms-win-crt-runtime-l1-1-0.dll
 0002:00000148       __imp___initialize_narrow_environment 1000f148     ucrt:api-ms-win-crt-runtime-l1-1-0.dll
 0002:0000014c       \177api-ms-win-crt-runtime-l1-1-0_NULL_THUNK_DATA 1000f14c     ucrt:api-ms-win-crt-runtime-l1-1-0.dll
 0002:00000150       __imp_?trace@log@stl@@YA_NIIPBDZZ 1000f150     xlogger:xLogger.dll
 0002:00000154       \177xLogger_NULL_THUNK_DATA 1000f154     xlogger:xLogger.dll
 0002:00000158       ___guard_check_icall_fptr  1000f158     MSVCRT:guard_support.obj
 0002:0000015c       ___xc_a                    1000f15c     MSVCRT:initializers.obj
 0002:00000160       ___xc_z                    1000f160     MSVCRT:initializers.obj
 0002:00000164       ___xi_a                    1000f164     MSVCRT:initializers.obj
 0002:00000168       ___xi_z                    1000f168     MSVCRT:initializers.obj
 0002:0000016c       ___xp_a                    1000f16c     MSVCRT:initializers.obj
 0002:00000170       ___xp_z                    1000f170     MSVCRT:initializers.obj
 0002:00000174       ___xt_a                    1000f174     MSVCRT:initializers.obj
 0002:00000178       ___xt_z                    1000f178     MSVCRT:initializers.obj
 0002:00000184       ??_7type_info@@6B@         1000f184     MSVCRT:std_type_info_static.obj
 0002:00000188       __pRawDllMain              1000f188     MSVCRT:dll_dllmain.obj
 0002:00000188       __pDefaultRawDllMain       1000f188     MSVCRT:dll_dllmain.obj
 0002:00000198       ??_7exception@std@@6B@     1000f198     MSVCRT:throw_bad_alloc.obj
 0002:000001a0       ??_C@_0BC@EOODALEL@Unknown?5exception?$AA@ 1000f1a0     MSVCRT:throw_bad_alloc.obj
 0002:000001b8       ??_7bad_alloc@std@@6B@     1000f1b8     MSVCRT:throw_bad_alloc.obj
 0002:000001c0       ??_C@_0P@GHFPNOJB@bad?5allocation?$AA@ 1000f1c0     MSVCRT:throw_bad_alloc.obj
 0002:000001d4       ??_7bad_array_new_length@std@@6B@ 1000f1d4     MSVCRT:throw_bad_alloc.obj
 0002:000001dc       ??_C@_0BF@KINCDENJ@bad?5array?5new?5length?$AA@ 1000f1dc     MSVCRT:throw_bad_alloc.obj
 0002:000001f4       ??_C@_0BA@JFNIOLAK@string?5too?5long?$AA@ 1000f1f4     IOCPBuffer.obj
 0002:00000204       ??_C@_0BI@CFPLBAOH@invalid?5string?5position?$AA@ 1000f204     IOCPBuffer.obj
 0002:00000220       ??_7CIOCPBuffer@@6B@       1000f220     IOCPBuffer.obj
 0002:00000df4       ??_C@_0DK@JKLDGEEE@IOCPS?3?3AssociateIncomingClientWi@ 1000fdf4     IOCPS.obj
 0002:00000e30       ??_C@_0EC@IBBCBBBC@IOCPS?3?3AssociateIncomingClientWi@ 1000fe30     IOCPS.obj
 0002:00000e74       ??_C@_0DG@IICBDPN@IOCPS?3?3AssociateIncomingClientWi@ 1000fe74     IOCPS.obj
 0002:00000eb0       ??_C@_0EN@KGMPOPED@IOCPS?3?3AssociateIncomingClientWi@ 1000feb0     IOCPS.obj
 0002:00000f00       ??_C@_0EF@PIEIDDNN@IOCPS?3?3AssociateIncomingClientWi@ 1000ff00     IOCPS.obj
 0002:00000f48       ??_C@_0FG@FCDBBCAK@IOCPS?3?3AssociateIncomingClientWi@ 1000ff48     IOCPS.obj
 0002:00000fa0       ??_C@_0GP@DCLBJJC@IOCPS?3?3AssociateIncomingClientWi@ 1000ffa0     IOCPS.obj
 0002:00001010       ??_C@_0EG@MKGJMCHD@IOCPS?3?3AddClientContext?0?5Dublica@ 10010010     IOCPS.obj
 0002:00001058       ??_C@_0CM@DLCDIFH@IOCPS?3?3FreeClientContext?0?5Remove@ 10010058     IOCPS.obj
 0002:00001084       ??_C@_0DN@HMFHOJGG@IOCPS?3?3OnRead?0?5FAILED?5TO?5Allocat@ 10010084     IOCPS.obj
 0002:000010c4       ??_C@_0DO@CEONKNBF@IOCPS?3?3OnRead?0?5Disconnect?5in?5Onr@ 100100c4     IOCPS.obj
 0002:00001108       ??_C@_0EC@OJKNMBGO@IOCPS?3?3OnPostedPackage?0?5FATAL?5ER@ 10010108     IOCPS.obj
 0002:00001150       ??_C@_0GJ@KCMICFDJ@IOCPS?3?3OnReadCompleted?0?5Disconne@ 10010150     IOCPS.obj
 0002:000011bc       ??_C@_0CH@JMDALFJJ@IOCPS?3?3OnWrite?0?5Error?5in?5OnWrite@ 100101bc     IOCPS.obj
 0002:000011e8       ??_C@_0EO@FOEKPNJI@IOCPS?3?3OnZeroByteRead?0?5FAILED?5TO@ 100101e8     IOCPS.obj
 0002:00001238       ??_C@_0EM@BMIEJJAC@IOCPS?3?3OnZeroByteRead?0?5Disconnec@ 10010238     IOCPS.obj
 0002:00001288       ??_C@_0EM@JOBADMDG@IOCPS?3?3AZeroByteRead?0?5Disconnect@ 10010288     IOCPS.obj
 0002:000012d8       ??_C@_0FN@DFIBHBPE@IOCPS?3?3CreateCompletionPort?0?5Err@ 100102d8     IOCPS.obj
 0002:00001338       ??_C@_0DP@CCLDJPFK@IOCPS?3?3CreateCompletionPort?0?5Cre@ 10010338     IOCPS.obj
 0002:00001378       ??_C@_0DM@NOOPPKFE@IOCPS?3?3GetNextReadBuffer?0?5ERROR?5@ 10010378     IOCPS.obj
 0002:000013b8       ??_C@_0EG@HFGHIHDK@IOCPS?3?3MakeOrderdRead?0?5Disconnec@ 100103b8     IOCPS.obj
 0002:00001400       ??_C@_0BB@MOGOBHAF@list?$DMT?$DO?5too?5long?$AA@ 10010400     IOCPS.obj
 0002:00001414       ??_C@_0BE@JONHPENG@map?1set?$DMT?$DO?5too?5long?$AA@ 10010414     IOCPS.obj
 0002:0000142c       ??_7IOCPS@@6B@             1001042c     IOCPS.obj
 0002:00001474       ??_7Socket@@6B@            10010474     IOCPS.obj
 0002:00001494       ?npos@?$basic_string@DU?$char_traits@D@std@@V?$allocator@D@2@@std@@2IB 10010494     MyIOCP.obj
 0002:0000149c       ??_7ITIOCP@@6B@            1001049c     MyIOCP.obj
 0002:00001550       __load_config_used         10010550     MSVCRT:loadcfg.obj
 0002:000015ac       ??_R4type_info@@6B@        100105ac     MSVCRT:std_type_info_static.obj
 0002:000015c0       ??_R3type_info@@8          100105c0     MSVCRT:std_type_info_static.obj
 0002:000015d0       ??_R2type_info@@8          100105d0     MSVCRT:std_type_info_static.obj
 0002:000015d8       ??_R1A@?0A@EA@type_info@@8 100105d8     MSVCRT:std_type_info_static.obj
 0002:000015f4       ??_R4exception@std@@6B@    100105f4     MSVCRT:throw_bad_alloc.obj
 0002:00001608       ??_R3exception@std@@8      10010608     MSVCRT:throw_bad_alloc.obj
 0002:00001618       ??_R2exception@std@@8      10010618     MSVCRT:throw_bad_alloc.obj
 0002:00001620       ??_R1A@?0A@EA@exception@std@@8 10010620     MSVCRT:throw_bad_alloc.obj
 0002:0000163c       ??_R4bad_alloc@std@@6B@    1001063c     MSVCRT:throw_bad_alloc.obj
 0002:00001650       ??_R3bad_alloc@std@@8      10010650     MSVCRT:throw_bad_alloc.obj
 0002:00001660       ??_R2bad_alloc@std@@8      10010660     MSVCRT:throw_bad_alloc.obj
 0002:0000166c       ??_R1A@?0A@EA@bad_alloc@std@@8 1001066c     MSVCRT:throw_bad_alloc.obj
 0002:00001688       ??_R4bad_array_new_length@std@@6B@ 10010688     MSVCRT:throw_bad_alloc.obj
 0002:0000169c       ??_R3bad_array_new_length@std@@8 1001069c     MSVCRT:throw_bad_alloc.obj
 0002:000016ac       ??_R2bad_array_new_length@std@@8 100106ac     MSVCRT:throw_bad_alloc.obj
 0002:000016bc       ??_R1A@?0A@EA@bad_array_new_length@std@@8 100106bc     MSVCRT:throw_bad_alloc.obj
 0002:000016d8       ??_R2CIOCPBuffer@@8        100106d8     IOCPBuffer.obj
 0002:000016e0       ??_R1A@?0A@EA@CIOCPBuffer@@8 100106e0     IOCPBuffer.obj
 0002:000016fc       ??_R3CIOCPBuffer@@8        100106fc     IOCPBuffer.obj
 0002:0000170c       ??_R4CIOCPBuffer@@6B@      1001070c     IOCPBuffer.obj
 0002:00001720       ??_R2IOCPS@@8              10010720     IOCPS.obj
 0002:0000172c       ??_R2Socket@@8             1001072c     IOCPS.obj
 0002:00001734       ??_R1A@?0A@EA@IOCPS@@8     10010734     IOCPS.obj
 0002:00001750       ??_R1A@?0A@EA@Socket@@8    10010750     IOCPS.obj
 0002:0000176c       ??_R3IOCPS@@8              1001076c     IOCPS.obj
 0002:0000177c       ??_R3Socket@@8             1001077c     IOCPS.obj
 0002:0000178c       ??_R4IOCPS@@6B@            1001078c     IOCPS.obj
 0002:000017a0       ??_R4Socket@@6B@           100107a0     IOCPS.obj
 0002:000017b4       ??_R2ITIOCP@@8             100107b4     MyIOCP.obj
 0002:000017c4       ??_R1A@?0A@EA@ITIOCP@@8    100107c4     MyIOCP.obj
 0002:000017e0       ??_R3ITIOCP@@8             100107e0     MyIOCP.obj
 0002:000017f0       ??_R4ITIOCP@@6B@           100107f0     MyIOCP.obj
 0002:00001810       ___safe_se_handler_table   10010810     <linker-defined>
 0002:00001b84       ___rtc_iaa                 10010b84     MSVCRT:_initsect_.obj
 0002:00001b88       ___rtc_izz                 10010b88     MSVCRT:_initsect_.obj
 0002:00001b8c       ___rtc_taa                 10010b8c     MSVCRT:_initsect_.obj
 0002:00001b90       ___rtc_tzz                 10010b90     MSVCRT:_initsect_.obj
 0002:000025c4       __TI2?AVbad_alloc@std@@    100115c4     MSVCRT:throw_bad_alloc.obj
 0002:000025d4       __CTA2?AVbad_alloc@std@@   100115d4     MSVCRT:throw_bad_alloc.obj
 0002:000025e0       __CT??_R0?AVbad_alloc@std@@@8??0bad_alloc@std@@QAE@ABV01@@Z12 100115e0     MSVCRT:throw_bad_alloc.obj
 0002:000025fc       __CT??_R0?AVexception@std@@@8??0exception@std@@QAE@ABV01@@Z12 100115fc     MSVCRT:throw_bad_alloc.obj
 0002:00002618       __TI3?AVbad_array_new_length@std@@ 10011618     MSVCRT:throw_bad_alloc.obj
 0002:00002628       __CTA3?AVbad_array_new_length@std@@ 10011628     MSVCRT:throw_bad_alloc.obj
 0002:00002638       __CT??_R0?AVbad_array_new_length@std@@@8??0bad_array_new_length@std@@QAE@ABV01@@Z12 10011638     MSVCRT:throw_bad_alloc.obj
 0002:00002774       __IMPORT_DESCRIPTOR_WS2_32 10011774     ws2_32:WS2_32.dll
 0002:00002788       __IMPORT_DESCRIPTOR_xLogger 10011788     xlogger:xLogger.dll
 0002:0000279c       __IMPORT_DESCRIPTOR_KERNEL32 1001179c     kernel32:KERNEL32.dll
 0002:000027b0       __IMPORT_DESCRIPTOR_MSVCP140 100117b0     msvcprt:MSVCP140.dll
 0002:000027c4       __IMPORT_DESCRIPTOR_VCRUNTIME140 100117c4     vcruntime:VCRUNTIME140.dll
 0002:000027d8       __IMPORT_DESCRIPTOR_api-ms-win-crt-runtime-l1-1-0 100117d8     ucrt:api-ms-win-crt-runtime-l1-1-0.dll
 0002:000027ec       __IMPORT_DESCRIPTOR_api-ms-win-crt-heap-l1-1-0 100117ec     ucrt:api-ms-win-crt-heap-l1-1-0.dll
 0002:00002800       __NULL_IMPORT_DESCRIPTOR   10011800     ws2_32:WS2_32.dll
 0003:00000000       ___security_cookie_complement 10012000     MSVCRT:gs_cookie.obj
 0003:00000004       ___security_cookie         10012004     MSVCRT:gs_cookie.obj
 0003:00000008       ___scrt_native_dllmain_reason 10012008     MSVCRT:utility.obj
 0003:00000010       ___isa_enabled             10012010     MSVCRT:_cpu_disp_.obj
 0003:00000014       ___scrt_ucrt_dll_is_in_use 10012014     MSVCRT:ucrt_stubs.obj
 0003:00000020       ??_R0?AVtype_info@@@8      10012020     MSVCRT:std_type_info_static.obj
 0003:00000038       ??_R0?AVbad_alloc@std@@@8  10012038     MSVCRT:throw_bad_alloc.obj
 0003:00000054       ??_R0?AVexception@std@@@8  10012054     MSVCRT:throw_bad_alloc.obj
 0003:00000070       ??_R0?AVbad_array_new_length@std@@@8 10012070     MSVCRT:throw_bad_alloc.obj
 0003:00000098       ??_R0?AVCIOCPBuffer@@@8    10012098     IOCPBuffer.obj
 0003:000000b4       ??_R0?AVIOCPS@@@8          100120b4     IOCPS.obj
 0003:000000c8       ??_R0?AVSocket@@@8         100120c8     IOCPS.obj
 0003:000000e0       ??_R0?AVITIOCP@@@8         100120e0     MyIOCP.obj
 0003:0000041c       ___scrt_current_native_startup_state 1001241c     MSVCRT:utility.obj
 0003:00000420       ___scrt_native_startup_lock 10012420     MSVCRT:utility.obj
 0003:00000440       ?__type_info_root_node@@3U__type_info_node@@A 10012440     MSVCRT:tncleanup.obj
 0003:00000448       ?_OptionsStorage@?1??__local_stdio_printf_options@@9@4_KA 10012448     MSVCRT:default_local_stdio_options.obj
 0003:00000450       ?_OptionsStorage@?1??__local_stdio_scanf_options@@9@4_KA 10012450     MSVCRT:default_local_stdio_options.obj
 0003:00000458       ___scrt_debugger_hook_flag 10012458     MSVCRT:utility_desktop.obj
 0003:0000045c       ___isa_available           1001245c     MSVCRT:_cpu_disp_.obj
 0003:00000460       ___favor                   10012460     MSVCRT:_cpu_disp_.obj
 0003:00000464       ___@@_PchSym_@00@UwvevolknvmgUvcxszmtvUlnvUhixUhlxpvgUyrmUivovzhvUhgwzucOlyq@6B34D00DC03FB1F7 10012464     stdafx.obj
 0003:00000468       ___dyn_tls_init_callback   10012468     <common>

 entry point at        0001:0000c91b

 Static symbols

 0000:fffea000       .debug$S                   10000000     ucrt:api-ms-win-crt-runtime-l1-1-0.dll
 0000:fffea000       .debug$S                   10000000     ws2_32:WS2_32.dll
 0000:fffea000       .debug$S                   10000000     ws2_32:WS2_32.dll
 0000:fffea000       .debug$S                   10000000     ws2_32:WS2_32.dll
 0000:fffea000       .debug$S                   10000000     ws2_32:WS2_32.dll
 0000:fffea000       .debug$S                   10000000     ws2_32:WS2_32.dll
 0000:fffea000       .debug$S                   10000000     ws2_32:WS2_32.dll
 0000:fffea000       .debug$S                   10000000     ws2_32:WS2_32.dll
 0000:fffea000       .debug$S                   10000000     ws2_32:WS2_32.dll
 0000:fffea000       .debug$S                   10000000     ws2_32:WS2_32.dll
 0000:fffea000       .debug$S                   10000000     Socket.exp
 0000:fffea000       .debug$S                   10000000     ws2_32:WS2_32.dll
 0000:fffea000       .debug$S                   10000000     ws2_32:WS2_32.dll
 0000:fffea000       .debug$S                   10000000     ws2_32:WS2_32.dll
 0000:fffea000       .debug$S                   10000000     ws2_32:WS2_32.dll
 0000:fffea000       .debug$S                   10000000     ws2_32:WS2_32.dll
 0000:fffea000       .debug$S                   10000000     ws2_32:WS2_32.dll
 0000:fffea000       .debug$S                   10000000     ws2_32:WS2_32.dll
 0000:fffea000       .debug$S                   10000000     ws2_32:WS2_32.dll
 0000:fffea000       .debug$S                   10000000     ws2_32:WS2_32.dll
 0000:fffea000       .debug$S                   10000000     ws2_32:WS2_32.dll
 0000:fffea000       .debug$S                   10000000     ws2_32:WS2_32.dll
 0000:fffea000       .debug$S                   10000000     ws2_32:WS2_32.dll
 0000:fffea000       .debug$S                   10000000     ws2_32:WS2_32.dll
 0000:fffea000       .debug$S                   10000000     ws2_32:WS2_32.dll
 0000:fffea000       .debug$S                   10000000     xlogger:xLogger.dll
 0000:fffea000       .debug$S                   10000000     kernel32:KERNEL32.dll
 0000:fffea000       .debug$S                   10000000     kernel32:KERNEL32.dll
 0000:fffea000       .debug$S                   10000000     kernel32:KERNEL32.dll
 0000:fffea000       .debug$S                   10000000     kernel32:KERNEL32.dll
 0000:fffea000       .debug$S                   10000000     kernel32:KERNEL32.dll
 0000:fffea000       .debug$S                   10000000     kernel32:KERNEL32.dll
 0000:fffea000       .debug$S                   10000000     kernel32:KERNEL32.dll
 0000:fffea000       .debug$S                   10000000     kernel32:KERNEL32.dll
 0000:fffea000       .debug$S                   10000000     kernel32:KERNEL32.dll
 0000:fffea000       .debug$S                   10000000     kernel32:KERNEL32.dll
 0000:fffea000       .debug$S                   10000000     kernel32:KERNEL32.dll
 0000:fffea000       .debug$S                   10000000     kernel32:KERNEL32.dll
 0000:fffea000       .debug$S                   10000000     kernel32:KERNEL32.dll
 0000:fffea000       .debug$S                   10000000     kernel32:KERNEL32.dll
 0000:fffea000       .debug$S                   10000000     kernel32:KERNEL32.dll
 0000:fffea000       .debug$S                   10000000     kernel32:KERNEL32.dll
 0000:fffea000       .debug$S                   10000000     kernel32:KERNEL32.dll
 0000:fffea000       .debug$S                   10000000     kernel32:KERNEL32.dll
 0000:fffea000       .debug$S                   10000000     kernel32:KERNEL32.dll
 0000:fffea000       .debug$S                   10000000     kernel32:KERNEL32.dll
 0000:fffea000       .debug$S                   10000000     kernel32:KERNEL32.dll
 0000:fffea000       .debug$S                   10000000     kernel32:KERNEL32.dll
 0000:fffea000       .debug$S                   10000000     kernel32:KERNEL32.dll
 0000:fffea000       .debug$S                   10000000     kernel32:KERNEL32.dll
 0000:fffea000       .debug$S                   10000000     kernel32:KERNEL32.dll
 0000:fffea000       .debug$S                   10000000     kernel32:KERNEL32.dll
 0000:fffea000       .debug$S                   10000000     kernel32:KERNEL32.dll
 0000:fffea000       .debug$S                   10000000     kernel32:KERNEL32.dll
 0000:fffea000       .debug$S                   10000000     kernel32:KERNEL32.dll
 0000:fffea000       .debug$S                   10000000     msvcprt:MSVCP140.dll
 0000:fffea000       .debug$S                   10000000     msvcprt:MSVCP140.dll
 0000:fffea000       .debug$S                   10000000     msvcprt:MSVCP140.dll
 0000:fffea000       .debug$S                   10000000     vcruntime:VCRUNTIME140.dll
 0000:fffea000       .debug$S                   10000000     vcruntime:VCRUNTIME140.dll
 0000:fffea000       .debug$S                   10000000     vcruntime:VCRUNTIME140.dll
 0000:fffea000       .debug$S                   10000000     vcruntime:VCRUNTIME140.dll
 0000:fffea000       .debug$S                   10000000     vcruntime:VCRUNTIME140.dll
 0000:fffea000       .debug$S                   10000000     vcruntime:VCRUNTIME140.dll
 0000:fffea000       .debug$S                   10000000     vcruntime:VCRUNTIME140.dll
 0000:fffea000       .debug$S                   10000000     vcruntime:VCRUNTIME140.dll
 0000:fffea000       .debug$S                   10000000     vcruntime:VCRUNTIME140.dll
 0000:fffea000       .debug$S                   10000000     vcruntime:VCRUNTIME140.dll
 0000:fffea000       .debug$S                   10000000     vcruntime:VCRUNTIME140.dll
 0000:fffea000       .debug$S                   10000000     ucrt:api-ms-win-crt-runtime-l1-1-0.dll
 0000:fffea000       .debug$S                   10000000     ucrt:api-ms-win-crt-runtime-l1-1-0.dll
 0000:fffea000       .debug$S                   10000000     ucrt:api-ms-win-crt-runtime-l1-1-0.dll
 0000:fffea000       .debug$S                   10000000     ucrt:api-ms-win-crt-runtime-l1-1-0.dll
 0000:fffea000       .debug$S                   10000000     ucrt:api-ms-win-crt-runtime-l1-1-0.dll
 0000:fffea000       .debug$S                   10000000     ucrt:api-ms-win-crt-runtime-l1-1-0.dll
 0000:fffea000       .debug$S                   10000000     ucrt:api-ms-win-crt-runtime-l1-1-0.dll
 0000:fffea000       .debug$S                   10000000     ucrt:api-ms-win-crt-runtime-l1-1-0.dll
 0000:fffea000       .debug$S                   10000000     ucrt:api-ms-win-crt-runtime-l1-1-0.dll
 0000:fffea000       .debug$S                   10000000     ucrt:api-ms-win-crt-runtime-l1-1-0.dll
 0000:fffea000       .debug$S                   10000000     ucrt:api-ms-win-crt-runtime-l1-1-0.dll
 0000:fffea000       .debug$S                   10000000     ucrt:api-ms-win-crt-runtime-l1-1-0.dll
 0000:fffea000       .debug$S                   10000000     ucrt:api-ms-win-crt-runtime-l1-1-0.dll
 0000:fffea000       .debug$S                   10000000     ws2_32:WS2_32.dll
 0000:fffea000       .debug$S                   10000000     ucrt:api-ms-win-crt-heap-l1-1-0.dll
 0000:fffea000       .debug$S                   10000000     ucrt:api-ms-win-crt-heap-l1-1-0.dll
 0000:fffea000       .debug$S                   10000000     ucrt:api-ms-win-crt-heap-l1-1-0.dll
 0001:00000d6f       __catch$?_Copy@?$basic_string@DU?$char_traits@D@std@@V?$allocator@D@2@@std@@QAEXII@Z$0 10001d6f f i IOCPBuffer.obj
 0001:00000d9d       __catch$?_Copy@?$basic_string@DU?$char_traits@D@std@@V?$allocator@D@2@@std@@QAEXII@Z$1 10001d9d f i IOCPBuffer.obj
 0001:000027a0       $LN15                      100037a0     IOCPS.obj
 0001:000040ec       $LN28                      100050ec     IOCPS.obj
 0001:00004130       $LN26                      10005130     IOCPS.obj
 0001:00008369       __catch$?_Buyheadnode@?$_Tree_comp_alloc@V?$_Tmap_traits@IPAVCIOCPBuffer@@U?$less@I@std@@V?$allocator@U?$pair@$$CBIPAVCIOCPBuffer@@@std@@@3@$0A@@std@@@std@@QAEPAU?$_Tree_node@U?$pair@$$CBIPAVCIOCPBuffer@@@std@@PAX@2@XZ$0 10009369 f i IOCPS.obj
 0001:00008369       __catch$?_Buyheadnode@?$_Tree_comp_alloc@V?$_Tmap_traits@IPAUClientContext@@U?$less@I@std@@V?$allocator@U?$pair@$$CBIPAUClientContext@@@std@@@3@$0A@@std@@@std@@QAEPAU?$_Tree_node@U?$pair@$$CBIPAUClientContext@@@std@@PAX@2@XZ$0 10009369 f i IOCPS.obj
 0001:00008369       __catch$?_Buyheadnode@?$_Tree_comp_alloc@V?$_Tmap_traits@GPAXU?$less@G@std@@V?$allocator@U?$pair@$$CBGPAX@std@@@2@$0A@@std@@@std@@QAEPAU?$_Tree_node@U?$pair@$$CBGPAX@std@@PAX@2@XZ$0 10009369 f i IOCPS.obj
 0001:0000848c       __catch$?_Buynode0@?$_List_alloc@U?$_List_base_types@PAVCIOCPBuffer@@V?$allocator@PAVCIOCPBuffer@@@std@@@std@@@std@@QAEPAU?$_List_node@PAVCIOCPBuffer@@PAX@2@PAU32@0@Z$0 1000948c f i IOCPS.obj
 0001:0000848c       __catch$?_Buynode0@?$_List_alloc@U?$_List_base_types@PAUJobItem@@V?$allocator@PAUJobItem@@@std@@@std@@@std@@QAEPAU?$_List_node@PAUJobItem@@PAX@2@PAU32@0@Z$0 1000948c f i IOCPS.obj
 0001:0000848c       __catch$?_Buynode0@?$_List_alloc@U?$_List_base_types@PAUClientContext@@V?$allocator@PAUClientContext@@@std@@@std@@@std@@QAEPAU?$_List_node@PAUClientContext@@PAX@2@PAU32@0@Z$0 1000948c f i IOCPS.obj
 0001:0000848c       __catch$?_Buynode0@?$_List_alloc@U?$_List_base_types@PAXV?$allocator@PAX@std@@@std@@@std@@QAEPAU?$_List_node@PAXPAX@2@PAU32@0@Z$0 1000948c f i IOCPS.obj
 0001:00008bf3       __catch$??$_Buynode@ABQAUClientContext@@@?$_List_buy@PAUClientContext@@V?$allocator@PAUClientContext@@@std@@@std@@QAEPAU?$_List_node@PAUClientContext@@PAX@1@PAU21@0ABQAUClientContext@@@Z$0 10009bf3 f i IOCPS.obj
 0001:00008bf3       __catch$??$_Buynode@ABQAVCIOCPBuffer@@@?$_List_buy@PAVCIOCPBuffer@@V?$allocator@PAVCIOCPBuffer@@@std@@@std@@QAEPAU?$_List_node@PAVCIOCPBuffer@@PAX@1@PAU21@0ABQAVCIOCPBuffer@@@Z$0 10009bf3 f i IOCPS.obj
 0001:00008bf3       __catch$??$_Buynode@ABQAX@?$_List_buy@PAXV?$allocator@PAX@std@@@std@@QAEPAU?$_List_node@PAXPAX@1@PAU21@0ABQAX@Z$0 10009bf3 f i IOCPS.obj
 0001:00008e89       __catch$??$_Buynode@U?$pair@GPAX@std@@@?$_Tree_comp_alloc@V?$_Tmap_traits@GPAXU?$less@G@std@@V?$allocator@U?$pair@$$CBGPAX@std@@@2@$0A@@std@@@std@@QAEPAU?$_Tree_node@U?$pair@$$CBGPAX@std@@PAX@1@$$QAU?$pair@GPAX@1@@Z$0 10009e89 f i IOCPS.obj
 0001:000091bd       __catch$??$_Insert_nohint@AAU?$pair@$$CBGPAX@std@@PAU?$_Tree_node@U?$pair@$$CBGPAX@std@@PAX@2@@?$_Tree@V?$_Tmap_traits@GPAXU?$less@G@std@@V?$allocator@U?$pair@$$CBGPAX@std@@@2@$0A@@std@@@std@@IAE?AU?$pair@V?$_Tree_iterator@V?$_Tree_val@U?$_Tree_simple_types@U?$pair@$$CBGPAX@std@@@std@@@std@@@std@@_N@1@_NAAU?$pair@$$CBGPAX@1@PAU?$_Tree_node@U?$pair@$$CBGPAX@std@@PAX@1@@Z$0 1000a1bd f i IOCPS.obj
 0001:00009299       __catch$??$_Buynode@U?$pair@IPAVCIOCPBuffer@@@std@@@?$_Tree_comp_alloc@V?$_Tmap_traits@IPAVCIOCPBuffer@@U?$less@I@std@@V?$allocator@U?$pair@$$CBIPAVCIOCPBuffer@@@std@@@3@$0A@@std@@@std@@QAEPAU?$_Tree_node@U?$pair@$$CBIPAVCIOCPBuffer@@@std@@PAX@1@$$QAU?$pair@IPAVCIOCPBuffer@@@1@@Z$0 1000a299 f i IOCPS.obj
 0001:000095cd       __catch$??$_Insert_nohint@AAU?$pair@$$CBIPAVCIOCPBuffer@@@std@@PAU?$_Tree_node@U?$pair@$$CBIPAVCIOCPBuffer@@@std@@PAX@2@@?$_Tree@V?$_Tmap_traits@IPAVCIOCPBuffer@@U?$less@I@std@@V?$allocator@U?$pair@$$CBIPAVCIOCPBuffer@@@std@@@3@$0A@@std@@@std@@IAE?AU?$pair@V?$_Tree_iterator@V?$_Tree_val@U?$_Tree_simple_types@U?$pair@$$CBIPAVCIOCPBuffer@@@std@@@std@@@std@@@std@@_N@1@_NAAU?$pair@$$CBIPAVCIOCPBuffer@@@1@PAU?$_Tree_node@U?$pair@$$CBIPAVCIOCPBuffer@@@std@@PAX@1@@Z$0 1000a5cd f i IOCPS.obj
 0001:000095cd       __catch$??$_Insert_nohint@AAU?$pair@$$CBIPAUClientContext@@@std@@PAU?$_Tree_node@U?$pair@$$CBIPAUClientContext@@@std@@PAX@2@@?$_Tree@V?$_Tmap_traits@IPAUClientContext@@U?$less@I@std@@V?$allocator@U?$pair@$$CBIPAUClientContext@@@std@@@3@$0A@@std@@@std@@IAE?AU?$pair@V?$_Tree_iterator@V?$_Tree_val@U?$_Tree_simple_types@U?$pair@$$CBIPAUClientContext@@@std@@@std@@@std@@@std@@_N@1@_NAAU?$pair@$$CBIPAUClientContext@@@1@PAU?$_Tree_node@U?$pair@$$CBIPAUClientContext@@@std@@PAX@1@@Z$0 1000a5cd f i IOCPS.obj
 0001:00009928       __catch$?_Buynode0@?$_Tree_comp_alloc@V?$_Tmap_traits@GPAXU?$less@G@std@@V?$allocator@U?$pair@$$CBGPAX@std@@@2@$0A@@std@@@std@@QAEPAU?$_Tree_node@U?$pair@$$CBGPAX@std@@PAX@2@XZ$0 1000a928 f i IOCPS.obj
 0001:00009928       __catch$?_Buynode0@?$_Tree_comp_alloc@V?$_Tmap_traits@IPAUClientContext@@U?$less@I@std@@V?$allocator@U?$pair@$$CBIPAUClientContext@@@std@@@3@$0A@@std@@@std@@QAEPAU?$_Tree_node@U?$pair@$$CBIPAUClientContext@@@std@@PAX@2@XZ$0 1000a928 f i IOCPS.obj
 0001:00009928       __catch$?_Buynode0@?$_Tree_comp_alloc@V?$_Tmap_traits@IPAVCIOCPBuffer@@U?$less@I@std@@V?$allocator@U?$pair@$$CBIPAVCIOCPBuffer@@@std@@@3@$0A@@std@@@std@@QAEPAU?$_Tree_node@U?$pair@$$CBIPAVCIOCPBuffer@@@std@@PAX@2@XZ$0 1000a928 f i IOCPS.obj
 0001:0000a093       __catch$??$_Buynode@ABUpiecewise_construct_t@std@@V?$tuple@ABG@2@V?$tuple@$$V@2@@?$_Tree_comp_alloc@V?$_Tmap_traits@GPAXU?$less@G@std@@V?$allocator@U?$pair@$$CBGPAX@std@@@2@$0A@@std@@@std@@QAEPAU?$_Tree_node@U?$pair@$$CBGPAX@std@@PAX@1@ABUpiecewise_construct_t@1@$$QAV?$tuple@ABG@1@$$QAV?$tuple@$$V@1@@Z$0 1000b093 f i IOCPS.obj
 0001:0000aad4       __catch$??$_Insert_hint@AAU?$pair@$$CBGPAX@std@@PAU?$_Tree_node@U?$pair@$$CBGPAX@std@@PAX@2@@?$_Tree@V?$_Tmap_traits@GPAXU?$less@G@std@@V?$allocator@U?$pair@$$CBGPAX@std@@@2@$0A@@std@@@std@@IAE?AV?$_Tree_iterator@V?$_Tree_val@U?$_Tree_simple_types@U?$pair@$$CBGPAX@std@@@std@@@std@@@1@V?$_Tree_const_iterator@V?$_Tree_val@U?$_Tree_simple_types@U?$pair@$$CBGPAX@std@@@std@@@std@@@1@AAU?$pair@$$CBGPAX@1@PAU?$_Tree_node@U?$pair@$$CBGPAX@std@@PAX@1@@Z$0 1000bad4 f i IOCPS.obj
 0001:0000ac03       __catch$??$_Buynode@ABUpiecewise_construct_t@std@@V?$tuple@ABI@2@V?$tuple@$$V@2@@?$_Tree_comp_alloc@V?$_Tmap_traits@IPAVCIOCPBuffer@@U?$less@I@std@@V?$allocator@U?$pair@$$CBIPAVCIOCPBuffer@@@std@@@3@$0A@@std@@@std@@QAEPAU?$_Tree_node@U?$pair@$$CBIPAVCIOCPBuffer@@@std@@PAX@1@ABUpiecewise_construct_t@1@$$QAV?$tuple@ABI@1@$$QAV?$tuple@$$V@1@@Z$0 1000bc03 f i IOCPS.obj
 0001:0000ac03       __catch$??$_Buynode@ABUpiecewise_construct_t@std@@V?$tuple@ABI@2@V?$tuple@$$V@2@@?$_Tree_comp_alloc@V?$_Tmap_traits@IPAUClientContext@@U?$less@I@std@@V?$allocator@U?$pair@$$CBIPAUClientContext@@@std@@@3@$0A@@std@@@std@@QAEPAU?$_Tree_node@U?$pair@$$CBIPAUClientContext@@@std@@PAX@1@ABUpiecewise_construct_t@1@$$QAV?$tuple@ABI@1@$$QAV?$tuple@$$V@1@@Z$0 1000bc03 f i IOCPS.obj
 0001:0000b644       __catch$??$_Insert_hint@AAU?$pair@$$CBIPAUClientContext@@@std@@PAU?$_Tree_node@U?$pair@$$CBIPAUClientContext@@@std@@PAX@2@@?$_Tree@V?$_Tmap_traits@IPAUClientContext@@U?$less@I@std@@V?$allocator@U?$pair@$$CBIPAUClientContext@@@std@@@3@$0A@@std@@@std@@IAE?AV?$_Tree_iterator@V?$_Tree_val@U?$_Tree_simple_types@U?$pair@$$CBIPAUClientContext@@@std@@@std@@@std@@@1@V?$_Tree_const_iterator@V?$_Tree_val@U?$_Tree_simple_types@U?$pair@$$CBIPAUClientContext@@@std@@@std@@@std@@@1@AAU?$pair@$$CBIPAUClientContext@@@1@PAU?$_Tree_node@U?$pair@$$CBIPAUClientContext@@@std@@PAX@1@@Z$0 1000c644 f i IOCPS.obj
 0001:0000b644       __catch$??$_Insert_hint@AAU?$pair@$$CBIPAVCIOCPBuffer@@@std@@PAU?$_Tree_node@U?$pair@$$CBIPAVCIOCPBuffer@@@std@@PAX@2@@?$_Tree@V?$_Tmap_traits@IPAVCIOCPBuffer@@U?$less@I@std@@V?$allocator@U?$pair@$$CBIPAVCIOCPBuffer@@@std@@@3@$0A@@std@@@std@@IAE?AV?$_Tree_iterator@V?$_Tree_val@U?$_Tree_simple_types@U?$pair@$$CBIPAVCIOCPBuffer@@@std@@@std@@@std@@@1@V?$_Tree_const_iterator@V?$_Tree_val@U?$_Tree_simple_types@U?$pair@$$CBIPAVCIOCPBuffer@@@std@@@std@@@std@@@1@AAU?$pair@$$CBIPAVCIOCPBuffer@@@1@PAU?$_Tree_node@U?$pair@$$CBIPAVCIOCPBuffer@@@std@@PAX@1@@Z$0 1000c644 f i IOCPS.obj
 0001:0000c613       ?dllmain_crt_dispatch@@YGHQAUHINSTANCE__@@KQAX@Z 1000d613 f   MSVCRT:dll_dllmain.obj
 0001:0000c666       ?dllmain_crt_process_attach@@YAHQAUHINSTANCE__@@QAX@Z 1000d666 f   MSVCRT:dll_dllmain.obj
 0001:0000c778       ?dllmain_crt_process_detach@@YAH_N@Z 1000d778 f   MSVCRT:dll_dllmain.obj
 0001:0000c7f5       ?dllmain_dispatch@@YAHQAUHINSTANCE__@@KQAX@Z 1000d7f5 f   MSVCRT:dll_dllmain.obj
 0001:0000c8f1       ?dllmain_raw@@YGHQAUHINSTANCE__@@KQAX@Z 1000d8f1 f   MSVCRT:dll_dllmain.obj
 0001:0000cb78       ?find_pe_section@@YAPAU_IMAGE_SECTION_HEADER@@QAEI@Z 1000db78 f   MSVCRT:utility.obj
 0001:0000d110       $$000000                   1000e110     MSVCRT:_sehprolg4_.obj
 0001:0000d3c0       $$000000                   1000e3c0     MSVCRT:chkstk.obj
 0001:0000d400       __unwindfunclet$?CreatePackage@CIOCPBuffer@@QAEHEV?$basic_string@DU?$char_traits@D@std@@V?$allocator@D@2@@std@@@Z$0 1000e400 f   IOCPBuffer.obj
 0001:0000d408       __ehhandler$?CreatePackage@CIOCPBuffer@@QAEHEV?$basic_string@DU?$char_traits@D@std@@V?$allocator@D@2@@std@@@Z 1000e408 f   IOCPBuffer.obj
 0001:0000d430       __ehhandler$??1?$_List_alloc@U?$_List_base_types@PAUJobItem@@V?$allocator@PAUJobItem@@@std@@@std@@@std@@QAE@XZ 1000e430 f   IOCPS.obj
 0001:0000d430       __ehhandler$??1?$_Tree_comp_alloc@V?$_Tmap_traits@GPAXU?$less@G@std@@V?$allocator@U?$pair@$$CBGPAX@std@@@2@$0A@@std@@@std@@QAE@XZ 1000e430 f   IOCPS.obj
 0001:0000d430       __ehhandler$??1?$_Tree_comp_alloc@V?$_Tmap_traits@IPAUClientContext@@U?$less@I@std@@V?$allocator@U?$pair@$$CBIPAUClientContext@@@std@@@3@$0A@@std@@@std@@QAE@XZ 1000e430 f   IOCPS.obj
 0001:0000d430       __ehhandler$??0?$basic_string@DU?$char_traits@D@std@@V?$allocator@D@2@@std@@QAE@XZ 1000e430 f   IOCPS.obj
 0001:0000d430       __ehhandler$??1?$_List_alloc@U?$_List_base_types@PAUClientContext@@V?$allocator@PAUClientContext@@@std@@@std@@@std@@QAE@XZ 1000e430 f   IOCPS.obj
 0001:0000d430       __ehhandler$?_Make_iter@?$list@PAVCIOCPBuffer@@V?$allocator@PAVCIOCPBuffer@@@std@@@std@@QBE?AV?$_List_iterator@V?$_List_val@U?$_List_simple_types@PAVCIOCPBuffer@@@std@@@std@@@2@V?$_List_const_iterator@V?$_List_val@U?$_List_simple_types@PAVCIOCPBuffer@@@std@@@std@@@2@@Z 1000e430 f   IOCPS.obj
 0001:0000d430       __ehhandler$??0?$basic_string@DU?$char_traits@D@std@@V?$allocator@D@2@@std@@QAE@$$QAV01@@Z 1000e430 f   IOCPS.obj
 0001:0000d430       __ehhandler$??1?$list@PAVCIOCPBuffer@@V?$allocator@PAVCIOCPBuffer@@@std@@@std@@QAE@XZ 1000e430 f   IOCPS.obj
 0001:0000d430       __ehhandler$?begin@?$list@PAVCIOCPBuffer@@V?$allocator@PAVCIOCPBuffer@@@std@@@std@@QAE?AV?$_List_iterator@V?$_List_val@U?$_List_simple_types@PAVCIOCPBuffer@@@std@@@std@@@2@XZ 1000e430 f   IOCPS.obj
 0001:0000d430       __ehhandler$?end@?$list@PAVCIOCPBuffer@@V?$allocator@PAVCIOCPBuffer@@@std@@@std@@QAE?AV?$_List_iterator@V?$_List_val@U?$_List_simple_types@PAVCIOCPBuffer@@@std@@@std@@@2@XZ 1000e430 f   IOCPS.obj
 0001:0000d430       __ehhandler$??1?$basic_string@DU?$char_traits@D@std@@V?$allocator@D@2@@std@@QAE@XZ 1000e430 f   IOCPBuffer.obj
 0001:0000d430       __ehhandler$??1?$_Tree_comp_alloc@V?$_Tmap_traits@IPAVCIOCPBuffer@@U?$less@I@std@@V?$allocator@U?$pair@$$CBIPAVCIOCPBuffer@@@std@@@3@$0A@@std@@@std@@QAE@XZ 1000e430 f   IOCPS.obj
 0001:0000d430       __ehhandler$?begin@?$_Tree@V?$_Tmap_traits@IPAVCIOCPBuffer@@U?$less@I@std@@V?$allocator@U?$pair@$$CBIPAVCIOCPBuffer@@@std@@@3@$0A@@std@@@std@@QAE?AV?$_Tree_iterator@V?$_Tree_val@U?$_Tree_simple_types@U?$pair@$$CBIPAVCIOCPBuffer@@@std@@@std@@@std@@@2@XZ 1000e430 f   IOCPS.obj
 0001:0000d430       __ehhandler$?end@?$_Tree@V?$_Tmap_traits@IPAVCIOCPBuffer@@U?$less@I@std@@V?$allocator@U?$pair@$$CBIPAVCIOCPBuffer@@@std@@@3@$0A@@std@@@std@@QAE?AV?$_Tree_iterator@V?$_Tree_val@U?$_Tree_simple_types@U?$pair@$$CBIPAVCIOCPBuffer@@@std@@@std@@@std@@@2@XZ 1000e430 f   IOCPS.obj
 0001:0000d430       __ehhandler$?_Make_iter@?$list@PAUClientContext@@V?$allocator@PAUClientContext@@@std@@@std@@QBE?AV?$_List_iterator@V?$_List_val@U?$_List_simple_types@PAUClientContext@@@std@@@std@@@2@V?$_List_const_iterator@V?$_List_val@U?$_List_simple_types@PAUClientContext@@@std@@@std@@@2@@Z 1000e430 f   IOCPS.obj
 0001:0000d430       __ehhandler$??1?$list@PAXV?$allocator@PAX@std@@@std@@QAE@XZ 1000e430 f   IOCPS.obj
 0001:0000d430       __ehhandler$?begin@?$list@PAXV?$allocator@PAX@std@@@std@@QAE?AV?$_List_iterator@V?$_List_val@U?$_List_simple_types@PAX@std@@@std@@@2@XZ 1000e430 f   IOCPS.obj
 0001:0000d430       __ehhandler$?end@?$list@PAXV?$allocator@PAX@std@@@std@@QAE?AV?$_List_iterator@V?$_List_val@U?$_List_simple_types@PAX@std@@@std@@@2@XZ 1000e430 f   IOCPS.obj
 0001:0000d430       __ehhandler$??1IOCPS@@UAE@XZ 1000e430 f   IOCPS.obj
 0001:0000d430       __ehhandler$??1?$list@PAUClientContext@@V?$allocator@PAUClientContext@@@std@@@std@@QAE@XZ 1000e430 f   IOCPS.obj
 0001:0000d430       __ehhandler$?begin@?$list@PAUClientContext@@V?$allocator@PAUClientContext@@@std@@@std@@QAE?AV?$_List_iterator@V?$_List_val@U?$_List_simple_types@PAUClientContext@@@std@@@std@@@2@XZ 1000e430 f   IOCPS.obj
 0001:0000d430       __ehhandler$?end@?$list@PAUClientContext@@V?$allocator@PAUClientContext@@@std@@@std@@QAE?AV?$_List_iterator@V?$_List_val@U?$_List_simple_types@PAUClientContext@@@std@@@std@@@2@XZ 1000e430 f   IOCPS.obj
 0001:0000d430       __ehhandler$??1?$_List_alloc@U?$_List_base_types@PAVCIOCPBuffer@@V?$allocator@PAVCIOCPBuffer@@@std@@@std@@@std@@QAE@XZ 1000e430 f   IOCPS.obj
 0001:0000d430       __ehhandler$??1?$list@PAUJobItem@@V?$allocator@PAUJobItem@@@std@@@std@@QAE@XZ 1000e430 f   IOCPS.obj
 0001:0000d430       __ehhandler$?begin@?$list@PAUJobItem@@V?$allocator@PAUJobItem@@@std@@@std@@QAE?AV?$_List_iterator@V?$_List_val@U?$_List_simple_types@PAUJobItem@@@std@@@std@@@2@XZ 1000e430 f   IOCPS.obj
 0001:0000d430       __ehhandler$?end@?$list@PAUJobItem@@V?$allocator@PAUJobItem@@@std@@@std@@QAE?AV?$_List_iterator@V?$_List_val@U?$_List_simple_types@PAUJobItem@@@std@@@std@@@2@XZ 1000e430 f   IOCPS.obj
 0001:0000d430       __ehhandler$??1?$_Tree@V?$_Tmap_traits@IPAVCIOCPBuffer@@U?$less@I@std@@V?$allocator@U?$pair@$$CBIPAVCIOCPBuffer@@@std@@@3@$0A@@std@@@std@@QAE@XZ 1000e430 f   IOCPS.obj
 0001:0000d430       __ehhandler$??1?$_Tree@V?$_Tmap_traits@GPAXU?$less@G@std@@V?$allocator@U?$pair@$$CBGPAX@std@@@2@$0A@@std@@@std@@QAE@XZ 1000e430 f   IOCPS.obj
 0001:0000d430       __ehhandler$?begin@?$_Tree@V?$_Tmap_traits@GPAXU?$less@G@std@@V?$allocator@U?$pair@$$CBGPAX@std@@@2@$0A@@std@@@std@@QAE?AV?$_Tree_iterator@V?$_Tree_val@U?$_Tree_simple_types@U?$pair@$$CBGPAX@std@@@std@@@std@@@2@XZ 1000e430 f   IOCPS.obj
 0001:0000d430       __ehhandler$?end@?$_Tree@V?$_Tmap_traits@GPAXU?$less@G@std@@V?$allocator@U?$pair@$$CBGPAX@std@@@2@$0A@@std@@@std@@QAE?AV?$_Tree_iterator@V?$_Tree_val@U?$_Tree_simple_types@U?$pair@$$CBGPAX@std@@@std@@@std@@@2@XZ 1000e430 f   IOCPS.obj
 0001:0000d430       __ehhandler$?_Make_iter@?$list@PAUJobItem@@V?$allocator@PAUJobItem@@@std@@@std@@QBE?AV?$_List_iterator@V?$_List_val@U?$_List_simple_types@PAUJobItem@@@std@@@std@@@2@V?$_List_const_iterator@V?$_List_val@U?$_List_simple_types@PAUJobItem@@@std@@@std@@@2@@Z 1000e430 f   IOCPS.obj
 0001:0000d430       __ehhandler$??1?$_Tree@V?$_Tmap_traits@IPAUClientContext@@U?$less@I@std@@V?$allocator@U?$pair@$$CBIPAUClientContext@@@std@@@3@$0A@@std@@@std@@QAE@XZ 1000e430 f   IOCPS.obj
 0001:0000d430       __ehhandler$?begin@?$_Tree@V?$_Tmap_traits@IPAUClientContext@@U?$less@I@std@@V?$allocator@U?$pair@$$CBIPAUClientContext@@@std@@@3@$0A@@std@@@std@@QAE?AV?$_Tree_iterator@V?$_Tree_val@U?$_Tree_simple_types@U?$pair@$$CBIPAUClientContext@@@std@@@std@@@std@@@2@XZ 1000e430 f   IOCPS.obj
 0001:0000d430       __ehhandler$?end@?$_Tree@V?$_Tmap_traits@IPAUClientContext@@U?$less@I@std@@V?$allocator@U?$pair@$$CBIPAUClientContext@@@std@@@3@$0A@@std@@@std@@QAE?AV?$_Tree_iterator@V?$_Tree_val@U?$_Tree_simple_types@U?$pair@$$CBIPAUClientContext@@@std@@@std@@@std@@@2@XZ 1000e430 f   IOCPS.obj
 0001:0000d430       __ehhandler$?c_str@?$basic_string@DU?$char_traits@D@std@@V?$allocator@D@2@@std@@QBEPBDXZ 1000e430 f   IOCPBuffer.obj
 0001:0000d430       __ehhandler$??1?$_List_alloc@U?$_List_base_types@PAXV?$allocator@PAX@std@@@std@@@std@@QAE@XZ 1000e430 f   IOCPS.obj
 0001:0000d450       __ehhandler$?_Copy@?$basic_string@DU?$char_traits@D@std@@V?$allocator@D@2@@std@@QAEXII@Z 1000e450 f   IOCPBuffer.obj
 0001:0000d470       __unwindfunclet$??0IOCPS@@QAE@XZ$0 1000e470 f   IOCPS.obj
 0001:0000d47b       __unwindfunclet$??0IOCPS@@QAE@XZ$1 1000e47b f   IOCPS.obj
 0001:0000d489       __unwindfunclet$??0IOCPS@@QAE@XZ$2 1000e489 f   IOCPS.obj
 0001:0000d497       __unwindfunclet$??0IOCPS@@QAE@XZ$3 1000e497 f   IOCPS.obj
 0001:0000d4a5       __unwindfunclet$??0IOCPS@@QAE@XZ$4 1000e4a5 f   IOCPS.obj
 0001:0000d4b6       __unwindfunclet$??0IOCPS@@QAE@XZ$5 1000e4b6 f   IOCPS.obj
 0001:0000d4c7       __unwindfunclet$??0IOCPS@@QAE@XZ$6 1000e4c7 f   IOCPS.obj
 0001:0000d4d8       __unwindfunclet$??0IOCPS@@QAE@XZ$7 1000e4d8 f   IOCPS.obj
 0001:0000d4e9       __unwindfunclet$??0IOCPS@@QAE@XZ$8 1000e4e9 f   IOCPS.obj
 0001:0000d4fa       __ehhandler$??0IOCPS@@QAE@XZ 1000e4fa f   IOCPS.obj
 0001:0000d530       __unwindfunclet$?FreeClientContext@IOCPS@@AAEXXZ$0 1000e530 f   IOCPS.obj
 0001:0000d530       __unwindfunclet$?ListnerThreadProc@IOCPS@@CGIPAX@Z$0 1000e530 f   IOCPS.obj
 0001:0000d538       __ehhandler$?FreeClientContext@IOCPS@@AAEXXZ 1000e538 f   IOCPS.obj
 0001:0000d538       __ehhandler$?ListnerThreadProc@IOCPS@@CGIPAX@Z 1000e538 f   IOCPS.obj
 0001:0000d560       __unwindfunclet$?AssociateIncomingClientWithContext@IOCPS@@AAEHI@Z$0 1000e560 f   IOCPS.obj
 0001:0000d568       __unwindfunclet$?AssociateIncomingClientWithContext@IOCPS@@AAEHI@Z$1 1000e568 f   IOCPS.obj
 0001:0000d570       __unwindfunclet$?AssociateIncomingClientWithContext@IOCPS@@AAEHI@Z$2 1000e570 f   IOCPS.obj
 0001:0000d578       __unwindfunclet$?AssociateIncomingClientWithContext@IOCPS@@AAEHI@Z$3 1000e578 f   IOCPS.obj
 0001:0000d580       __ehhandler$?AssociateIncomingClientWithContext@IOCPS@@AAEHI@Z 1000e580 f   IOCPS.obj
 0001:0000d5b0       __unwindfunclet$?OnZeroByteRead@IOCPS@@AAEXPAUClientContext@@PAVCIOCPBuffer@@@Z$0 1000e5b0 f   IOCPS.obj
 0001:0000d5b0       __unwindfunclet$?OnRead@IOCPS@@AAEXPAUClientContext@@PAVCIOCPBuffer@@@Z$0 1000e5b0 f   IOCPS.obj
 0001:0000d5b8       __unwindfunclet$?OnRead@IOCPS@@AAEXPAUClientContext@@PAVCIOCPBuffer@@@Z$1 1000e5b8 f   IOCPS.obj
 0001:0000d5b8       __unwindfunclet$?OnZeroByteRead@IOCPS@@AAEXPAUClientContext@@PAVCIOCPBuffer@@@Z$1 1000e5b8 f   IOCPS.obj
 0001:0000d5c0       __ehhandler$?OnRead@IOCPS@@AAEXPAUClientContext@@PAVCIOCPBuffer@@@Z 1000e5c0 f   IOCPS.obj
 0001:0000d5c0       __ehhandler$?OnZeroByteRead@IOCPS@@AAEXPAUClientContext@@PAVCIOCPBuffer@@@Z 1000e5c0 f   IOCPS.obj
 0001:0000d5f0       __unwindfunclet$?NotifyDisconnectedClient@ITIOCP@@UAEXPAUClientContext@@@Z$0 1000e5f0 f   MyIOCP.obj
 0001:0000d5f0       __unwindfunclet$?NotifyNewConnection@ITIOCP@@UAEXPAUClientContext@@@Z$0 1000e5f0 f   MyIOCP.obj
 0001:0000d5f0       __unwindfunclet$?OnReadCompleted@IOCPS@@AAEXPAUClientContext@@KPAVCIOCPBuffer@@@Z$0 1000e5f0 f   IOCPS.obj
 0001:0000d5f8       __ehhandler$?NotifyNewConnection@ITIOCP@@UAEXPAUClientContext@@@Z 1000e5f8 f   MyIOCP.obj
 0001:0000d5f8       __ehhandler$?OnReadCompleted@IOCPS@@AAEXPAUClientContext@@KPAVCIOCPBuffer@@@Z 1000e5f8 f   IOCPS.obj
 0001:0000d5f8       __ehhandler$?NotifyDisconnectedClient@ITIOCP@@UAEXPAUClientContext@@@Z 1000e5f8 f   MyIOCP.obj
 0001:0000d620       __unwindfunclet$?MakeOrderdRead@IOCPS@@AAEXPAUClientContext@@PAVCIOCPBuffer@@@Z$0 1000e620 f   IOCPS.obj
 0001:0000d620       __unwindfunclet$?OnWrite@IOCPS@@AAEXPAUClientContext@@KPAVCIOCPBuffer@@@Z$0 1000e620 f   IOCPS.obj
 0001:0000d628       __ehhandler$?OnWrite@IOCPS@@AAEXPAUClientContext@@KPAVCIOCPBuffer@@@Z 1000e628 f   IOCPS.obj
 0001:0000d628       __ehhandler$?MakeOrderdRead@IOCPS@@AAEXPAUClientContext@@PAVCIOCPBuffer@@@Z 1000e628 f   IOCPS.obj
 0001:0000d650       __unwindfunclet$?GetHostKeyName@IOCPS@@QAE?AV?$basic_string@DU?$char_traits@D@std@@V?$allocator@D@2@@std@@I@Z$0 1000e650 f   IOCPS.obj
 0001:0000d658       __ehhandler$?GetHostKeyName@IOCPS@@QAE?AV?$basic_string@DU?$char_traits@D@std@@V?$allocator@D@2@@std@@I@Z 1000e658 f   IOCPS.obj
 0001:0000d680       __unwindfunclet$?GetHostAddress@IOCPS@@QAE?AV?$basic_string@DU?$char_traits@D@std@@V?$allocator@D@2@@std@@I@Z$0 1000e680 f   IOCPS.obj
 0001:0000d688       __ehhandler$?GetHostAddress@IOCPS@@QAE?AV?$basic_string@DU?$char_traits@D@std@@V?$allocator@D@2@@std@@I@Z 1000e688 f   IOCPS.obj
 0001:0000d6b0       __unwindfunclet$?ShutDown@IOCPS@@UAEXXZ$0 1000e6b0 f   IOCPS.obj
 0001:0000d6b8       __ehhandler$?ShutDown@IOCPS@@UAEXXZ 1000e6b8 f   IOCPS.obj
 0001:0000d6e0       __unwindfunclet$?AZeroByteRead@IOCPS@@AAEHPAUClientContext@@PAVCIOCPBuffer@@@Z$0 1000e6e0 f   IOCPS.obj
 0001:0000d6e0       __unwindfunclet$?ErrorCode2Text@IOCPS@@IAE?AV?$basic_string@DU?$char_traits@D@std@@V?$allocator@D@2@@std@@K@Z$0 1000e6e0 f   IOCPS.obj
 0001:0000d6e8       __ehhandler$?AZeroByteRead@IOCPS@@AAEHPAUClientContext@@PAVCIOCPBuffer@@@Z 1000e6e8 f   IOCPS.obj
 0001:0000d6e8       __ehhandler$?ErrorCode2Text@IOCPS@@IAE?AV?$basic_string@DU?$char_traits@D@std@@V?$allocator@D@2@@std@@K@Z 1000e6e8 f   IOCPS.obj
 0001:0000d710       __unwindfunclet$?AllocateContext@IOCPS@@AAEPAUClientContext@@XZ$0 1000e710 f   IOCPS.obj
 0001:0000d71f       __ehhandler$?AllocateContext@IOCPS@@AAEPAUClientContext@@XZ 1000e71f f   IOCPS.obj
 0001:0000d740       __unwindfunclet$??0ClientContext@@QAE@XZ$0 1000e740 f   IOCPS.obj
 0001:0000d74b       __ehhandler$??0ClientContext@@QAE@XZ 1000e74b f   IOCPS.obj
 0001:0000d770       __unwindfunclet$?AllocateBuffer@IOCPS@@IAEPAVCIOCPBuffer@@H@Z$0 1000e770 f   IOCPS.obj
 0001:0000d782       __unwindfunclet$?AllocateBuffer@IOCPS@@IAEPAVCIOCPBuffer@@H@Z$1 1000e782 f   IOCPS.obj
 0001:0000d78a       __ehhandler$?AllocateBuffer@IOCPS@@IAEPAVCIOCPBuffer@@H@Z 1000e78a f   IOCPS.obj
 0001:0000d7b0       __unwindfunclet$?SetupListner@IOCPS@@AAEHXZ$0 1000e7b0 f   IOCPS.obj
 0001:0000d7b8       __unwindfunclet$?SetupListner@IOCPS@@AAEHXZ$1 1000e7b8 f   IOCPS.obj
 0001:0000d7c0       __unwindfunclet$?SetupListner@IOCPS@@AAEHXZ$2 1000e7c0 f   IOCPS.obj
 0001:0000d7c8       __unwindfunclet$?SetupListner@IOCPS@@AAEHXZ$3 1000e7c8 f   IOCPS.obj
 0001:0000d7d0       __unwindfunclet$?SetupListner@IOCPS@@AAEHXZ$4 1000e7d0 f   IOCPS.obj
 0001:0000d7db       __unwindfunclet$?SetupListner@IOCPS@@AAEHXZ$5 1000e7db f   IOCPS.obj
 0001:0000d7e6       __ehhandler$?SetupListner@IOCPS@@AAEHXZ 1000e7e6 f   IOCPS.obj
 0001:0000d810       __unwindfunclet$?CreateCompletionPort@IOCPS@@AAEHXZ$0 1000e810 f   IOCPS.obj
 0001:0000d818       __unwindfunclet$?CreateCompletionPort@IOCPS@@AAEHXZ$1 1000e818 f   IOCPS.obj
 0001:0000d820       __ehhandler$?CreateCompletionPort@IOCPS@@AAEHXZ 1000e820 f   IOCPS.obj
 0001:0000d850       __unwindfunclet$?SetupIOWorkers@IOCPS@@AAEHXZ$0 1000e850 f   IOCPS.obj
 0001:0000d858       __ehhandler$?SetupIOWorkers@IOCPS@@AAEHXZ 1000e858 f   IOCPS.obj
 0001:0000d880       __unwindfunclet$?Connect@IOCPS@@UAEHABV?$basic_string@DU?$char_traits@D@std@@V?$allocator@D@2@@std@@H@Z$0 1000e880 f   IOCPS.obj
 0001:0000d888       __ehhandler$?Connect@IOCPS@@UAEHABV?$basic_string@DU?$char_traits@D@std@@V?$allocator@D@2@@std@@H@Z 1000e888 f   IOCPS.obj
 0001:0000d8b0       __ehhandler$?clear@?$_Tree@V?$_Tmap_traits@GPAXU?$less@G@std@@V?$allocator@U?$pair@$$CBGPAX@std@@@2@$0A@@std@@@std@@QAEXXZ 1000e8b0 f   IOCPS.obj
 0001:0000d8b0       __ehhandler$?clear@?$_Tree@V?$_Tmap_traits@IPAUClientContext@@U?$less@I@std@@V?$allocator@U?$pair@$$CBIPAUClientContext@@@std@@@3@$0A@@std@@@std@@QAEXXZ 1000e8b0 f   IOCPS.obj
 0001:0000d8b0       __ehhandler$?clear@?$_Tree@V?$_Tmap_traits@IPAVCIOCPBuffer@@U?$less@I@std@@V?$allocator@U?$pair@$$CBIPAVCIOCPBuffer@@@std@@@3@$0A@@std@@@std@@QAEXXZ 1000e8b0 f   IOCPS.obj
 0001:0000d8d0       __ehhandler$?clear@?$list@PAUClientContext@@V?$allocator@PAUClientContext@@@std@@@std@@QAEXXZ 1000e8d0 f   IOCPS.obj
 0001:0000d8d0       __ehhandler$?clear@?$list@PAXV?$allocator@PAX@std@@@std@@QAEXXZ 1000e8d0 f   IOCPS.obj
 0001:0000d8d0       __ehhandler$?clear@?$list@PAUJobItem@@V?$allocator@PAUJobItem@@@std@@@std@@QAEXXZ 1000e8d0 f   IOCPS.obj
 0001:0000d8d0       __ehhandler$?clear@?$list@PAVCIOCPBuffer@@V?$allocator@PAVCIOCPBuffer@@@std@@@std@@QAEXXZ 1000e8d0 f   IOCPS.obj
 0001:0000d8f0       __unwindfunclet$??0?$basic_string@DU?$char_traits@D@std@@V?$allocator@D@2@@std@@QAE@PBD@Z$0 1000e8f0 f   IOCPS.obj
 0001:0000d8f8       __ehhandler$??0?$basic_string@DU?$char_traits@D@std@@V?$allocator@D@2@@std@@QAE@PBD@Z 1000e8f8 f   IOCPS.obj
 0001:0000d920       __ehhandler$?_Buyheadnode@?$_Tree_comp_alloc@V?$_Tmap_traits@IPAUClientContext@@U?$less@I@std@@V?$allocator@U?$pair@$$CBIPAUClientContext@@@std@@@3@$0A@@std@@@std@@QAEPAU?$_Tree_node@U?$pair@$$CBIPAUClientContext@@@std@@PAX@2@XZ 1000e920 f   IOCPS.obj
 0001:0000d920       __ehhandler$?_Buyheadnode@?$_Tree_comp_alloc@V?$_Tmap_traits@GPAXU?$less@G@std@@V?$allocator@U?$pair@$$CBGPAX@std@@@2@$0A@@std@@@std@@QAEPAU?$_Tree_node@U?$pair@$$CBGPAX@std@@PAX@2@XZ 1000e920 f   IOCPS.obj
 0001:0000d920       __ehhandler$?_Buyheadnode@?$_Tree_comp_alloc@V?$_Tmap_traits@IPAVCIOCPBuffer@@U?$less@I@std@@V?$allocator@U?$pair@$$CBIPAVCIOCPBuffer@@@std@@@3@$0A@@std@@@std@@QAEPAU?$_Tree_node@U?$pair@$$CBIPAVCIOCPBuffer@@@std@@PAX@2@XZ 1000e920 f   IOCPS.obj
 0001:0000d940       __ehhandler$?_Buynode0@?$_List_alloc@U?$_List_base_types@PAUJobItem@@V?$allocator@PAUJobItem@@@std@@@std@@@std@@QAEPAU?$_List_node@PAUJobItem@@PAX@2@PAU32@0@Z 1000e940 f   IOCPS.obj
 0001:0000d940       __ehhandler$?_Buynode0@?$_List_alloc@U?$_List_base_types@PAVCIOCPBuffer@@V?$allocator@PAVCIOCPBuffer@@@std@@@std@@@std@@QAEPAU?$_List_node@PAVCIOCPBuffer@@PAX@2@PAU32@0@Z 1000e940 f   IOCPS.obj
 0001:0000d940       __ehhandler$?_Buynode0@?$_List_alloc@U?$_List_base_types@PAUClientContext@@V?$allocator@PAUClientContext@@@std@@@std@@@std@@QAEPAU?$_List_node@PAUClientContext@@PAX@2@PAU32@0@Z 1000e940 f   IOCPS.obj
 0001:0000d940       __ehhandler$?_Buynode0@?$_List_alloc@U?$_List_base_types@PAXV?$allocator@PAX@std@@@std@@@std@@QAEPAU?$_List_node@PAXPAX@2@PAU32@0@Z 1000e940 f   IOCPS.obj
 0001:0000d960       __ehhandler$??$_Buynode@ABQAX@?$_List_buy@PAXV?$allocator@PAX@std@@@std@@QAEPAU?$_List_node@PAXPAX@1@PAU21@0ABQAX@Z 1000e960 f   IOCPS.obj
 0001:0000d960       __ehhandler$??$_Buynode@ABQAVCIOCPBuffer@@@?$_List_buy@PAVCIOCPBuffer@@V?$allocator@PAVCIOCPBuffer@@@std@@@std@@QAEPAU?$_List_node@PAVCIOCPBuffer@@PAX@1@PAU21@0ABQAVCIOCPBuffer@@@Z 1000e960 f   IOCPS.obj
 0001:0000d960       __ehhandler$??$_Buynode@ABQAUClientContext@@@?$_List_buy@PAUClientContext@@V?$allocator@PAUClientContext@@@std@@@std@@QAEPAU?$_List_node@PAUClientContext@@PAX@1@PAU21@0ABQAUClientContext@@@Z 1000e960 f   IOCPS.obj
 0001:0000d980       __ehhandler$??$_Buynode@U?$pair@GPAX@std@@@?$_Tree_comp_alloc@V?$_Tmap_traits@GPAXU?$less@G@std@@V?$allocator@U?$pair@$$CBGPAX@std@@@2@$0A@@std@@@std@@QAEPAU?$_Tree_node@U?$pair@$$CBGPAX@std@@PAX@1@$$QAU?$pair@GPAX@1@@Z 1000e980 f   IOCPS.obj
 0001:0000d9a0       __ehhandler$??$_Insert_nohint@AAU?$pair@$$CBGPAX@std@@PAU?$_Tree_node@U?$pair@$$CBGPAX@std@@PAX@2@@?$_Tree@V?$_Tmap_traits@GPAXU?$less@G@std@@V?$allocator@U?$pair@$$CBGPAX@std@@@2@$0A@@std@@@std@@IAE?AU?$pair@V?$_Tree_iterator@V?$_Tree_val@U?$_Tree_simple_types@U?$pair@$$CBGPAX@std@@@std@@@std@@@std@@_N@1@_NAAU?$pair@$$CBGPAX@1@PAU?$_Tree_node@U?$pair@$$CBGPAX@std@@PAX@1@@Z 1000e9a0 f   IOCPS.obj
 0001:0000d9c0       __ehhandler$??$_Buynode@U?$pair@IPAVCIOCPBuffer@@@std@@@?$_Tree_comp_alloc@V?$_Tmap_traits@IPAVCIOCPBuffer@@U?$less@I@std@@V?$allocator@U?$pair@$$CBIPAVCIOCPBuffer@@@std@@@3@$0A@@std@@@std@@QAEPAU?$_Tree_node@U?$pair@$$CBIPAVCIOCPBuffer@@@std@@PAX@1@$$QAU?$pair@IPAVCIOCPBuffer@@@1@@Z 1000e9c0 f   IOCPS.obj
 0001:0000d9e0       __ehhandler$??$_Insert_nohint@AAU?$pair@$$CBIPAUClientContext@@@std@@PAU?$_Tree_node@U?$pair@$$CBIPAUClientContext@@@std@@PAX@2@@?$_Tree@V?$_Tmap_traits@IPAUClientContext@@U?$less@I@std@@V?$allocator@U?$pair@$$CBIPAUClientContext@@@std@@@3@$0A@@std@@@std@@IAE?AU?$pair@V?$_Tree_iterator@V?$_Tree_val@U?$_Tree_simple_types@U?$pair@$$CBIPAUClientContext@@@std@@@std@@@std@@@std@@_N@1@_NAAU?$pair@$$CBIPAUClientContext@@@1@PAU?$_Tree_node@U?$pair@$$CBIPAUClientContext@@@std@@PAX@1@@Z 1000e9e0 f   IOCPS.obj
 0001:0000d9e0       __ehhandler$??$_Insert_nohint@AAU?$pair@$$CBIPAVCIOCPBuffer@@@std@@PAU?$_Tree_node@U?$pair@$$CBIPAVCIOCPBuffer@@@std@@PAX@2@@?$_Tree@V?$_Tmap_traits@IPAVCIOCPBuffer@@U?$less@I@std@@V?$allocator@U?$pair@$$CBIPAVCIOCPBuffer@@@std@@@3@$0A@@std@@@std@@IAE?AU?$pair@V?$_Tree_iterator@V?$_Tree_val@U?$_Tree_simple_types@U?$pair@$$CBIPAVCIOCPBuffer@@@std@@@std@@@std@@@std@@_N@1@_NAAU?$pair@$$CBIPAVCIOCPBuffer@@@1@PAU?$_Tree_node@U?$pair@$$CBIPAVCIOCPBuffer@@@std@@PAX@1@@Z 1000e9e0 f   IOCPS.obj
 0001:0000da00       __ehhandler$??$forward_as_tuple@ABG@std@@YA?AV?$tuple@ABG@0@ABG@Z 1000ea00 f   IOCPS.obj
 0001:0000da00       __ehhandler$??$forward_as_tuple@ABI@std@@YA?AV?$tuple@ABI@0@ABI@Z 1000ea00 f   IOCPS.obj
 0001:0000da20       __ehhandler$?_Buynode0@?$_Tree_comp_alloc@V?$_Tmap_traits@IPAUClientContext@@U?$less@I@std@@V?$allocator@U?$pair@$$CBIPAUClientContext@@@std@@@3@$0A@@std@@@std@@QAEPAU?$_Tree_node@U?$pair@$$CBIPAUClientContext@@@std@@PAX@2@XZ 1000ea20 f   IOCPS.obj
 0001:0000da20       __ehhandler$?_Buynode0@?$_Tree_comp_alloc@V?$_Tmap_traits@IPAVCIOCPBuffer@@U?$less@I@std@@V?$allocator@U?$pair@$$CBIPAVCIOCPBuffer@@@std@@@3@$0A@@std@@@std@@QAEPAU?$_Tree_node@U?$pair@$$CBIPAVCIOCPBuffer@@@std@@PAX@2@XZ 1000ea20 f   IOCPS.obj
 0001:0000da20       __ehhandler$?_Buynode0@?$_Tree_comp_alloc@V?$_Tmap_traits@GPAXU?$less@G@std@@V?$allocator@U?$pair@$$CBGPAX@std@@@2@$0A@@std@@@std@@QAEPAU?$_Tree_node@U?$pair@$$CBGPAX@std@@PAX@2@XZ 1000ea20 f   IOCPS.obj
 0001:0000da40       __ehhandler$??$_Buynode@ABUpiecewise_construct_t@std@@V?$tuple@ABG@2@V?$tuple@$$V@2@@?$_Tree_comp_alloc@V?$_Tmap_traits@GPAXU?$less@G@std@@V?$allocator@U?$pair@$$CBGPAX@std@@@2@$0A@@std@@@std@@QAEPAU?$_Tree_node@U?$pair@$$CBGPAX@std@@PAX@1@ABUpiecewise_construct_t@1@$$QAV?$tuple@ABG@1@$$QAV?$tuple@$$V@1@@Z 1000ea40 f   IOCPS.obj
 0001:0000da60       __ehhandler$??$_Insert_hint@AAU?$pair@$$CBGPAX@std@@PAU?$_Tree_node@U?$pair@$$CBGPAX@std@@PAX@2@@?$_Tree@V?$_Tmap_traits@GPAXU?$less@G@std@@V?$allocator@U?$pair@$$CBGPAX@std@@@2@$0A@@std@@@std@@IAE?AV?$_Tree_iterator@V?$_Tree_val@U?$_Tree_simple_types@U?$pair@$$CBGPAX@std@@@std@@@std@@@1@V?$_Tree_const_iterator@V?$_Tree_val@U?$_Tree_simple_types@U?$pair@$$CBGPAX@std@@@std@@@std@@@1@AAU?$pair@$$CBGPAX@1@PAU?$_Tree_node@U?$pair@$$CBGPAX@std@@PAX@1@@Z 1000ea60 f   IOCPS.obj
 0001:0000da80       __ehhandler$??$_Buynode@ABUpiecewise_construct_t@std@@V?$tuple@ABI@2@V?$tuple@$$V@2@@?$_Tree_comp_alloc@V?$_Tmap_traits@IPAVCIOCPBuffer@@U?$less@I@std@@V?$allocator@U?$pair@$$CBIPAVCIOCPBuffer@@@std@@@3@$0A@@std@@@std@@QAEPAU?$_Tree_node@U?$pair@$$CBIPAVCIOCPBuffer@@@std@@PAX@1@ABUpiecewise_construct_t@1@$$QAV?$tuple@ABI@1@$$QAV?$tuple@$$V@1@@Z 1000ea80 f   IOCPS.obj
 0001:0000da80       __ehhandler$??$_Buynode@ABUpiecewise_construct_t@std@@V?$tuple@ABI@2@V?$tuple@$$V@2@@?$_Tree_comp_alloc@V?$_Tmap_traits@IPAUClientContext@@U?$less@I@std@@V?$allocator@U?$pair@$$CBIPAUClientContext@@@std@@@3@$0A@@std@@@std@@QAEPAU?$_Tree_node@U?$pair@$$CBIPAUClientContext@@@std@@PAX@1@ABUpiecewise_construct_t@1@$$QAV?$tuple@ABI@1@$$QAV?$tuple@$$V@1@@Z 1000ea80 f   IOCPS.obj
 0001:0000daa0       __ehhandler$??$_Insert_hint@AAU?$pair@$$CBIPAVCIOCPBuffer@@@std@@PAU?$_Tree_node@U?$pair@$$CBIPAVCIOCPBuffer@@@std@@PAX@2@@?$_Tree@V?$_Tmap_traits@IPAVCIOCPBuffer@@U?$less@I@std@@V?$allocator@U?$pair@$$CBIPAVCIOCPBuffer@@@std@@@3@$0A@@std@@@std@@IAE?AV?$_Tree_iterator@V?$_Tree_val@U?$_Tree_simple_types@U?$pair@$$CBIPAVCIOCPBuffer@@@std@@@std@@@std@@@1@V?$_Tree_const_iterator@V?$_Tree_val@U?$_Tree_simple_types@U?$pair@$$CBIPAVCIOCPBuffer@@@std@@@std@@@std@@@1@AAU?$pair@$$CBIPAVCIOCPBuffer@@@1@PAU?$_Tree_node@U?$pair@$$CBIPAVCIOCPBuffer@@@std@@PAX@1@@Z 1000eaa0 f   IOCPS.obj
 0001:0000daa0       __ehhandler$??$_Insert_hint@AAU?$pair@$$CBIPAUClientContext@@@std@@PAU?$_Tree_node@U?$pair@$$CBIPAUClientContext@@@std@@PAX@2@@?$_Tree@V?$_Tmap_traits@IPAUClientContext@@U?$less@I@std@@V?$allocator@U?$pair@$$CBIPAUClientContext@@@std@@@3@$0A@@std@@@std@@IAE?AV?$_Tree_iterator@V?$_Tree_val@U?$_Tree_simple_types@U?$pair@$$CBIPAUClientContext@@@std@@@std@@@std@@@1@V?$_Tree_const_iterator@V?$_Tree_val@U?$_Tree_simple_types@U?$pair@$$CBIPAUClientContext@@@std@@@std@@@std@@@1@AAU?$pair@$$CBIPAUClientContext@@@1@PAU?$_Tree_node@U?$pair@$$CBIPAUClientContext@@@std@@PAX@1@@Z 1000eaa0 f   IOCPS.obj
 0001:0000dac0       __unwindfunclet$??$construct@U?$pair@$$CBIPAVCIOCPBuffer@@@std@@ABUpiecewise_construct_t@2@V?$tuple@ABI@2@V?$tuple@$$V@2@@?$allocator@U?$_Tree_node@U?$pair@$$CBIPAVCIOCPBuffer@@@std@@PAX@std@@@std@@QAEXPAU?$pair@$$CBIPAVCIOCPBuffer@@@1@ABUpiecewise_construct_t@1@$$QAV?$tuple@ABI@1@$$QAV?$tuple@$$V@1@@Z$0 1000eac0 f   IOCPS.obj
 0001:0000dac0       __unwindfunclet$??$construct@U?$pair@$$CBGPAX@std@@ABUpiecewise_construct_t@2@V?$tuple@ABG@2@V?$tuple@$$V@2@@?$allocator@U?$_Tree_node@U?$pair@$$CBGPAX@std@@PAX@std@@@std@@QAEXPAU?$pair@$$CBGPAX@1@ABUpiecewise_construct_t@1@$$QAV?$tuple@ABG@1@$$QAV?$tuple@$$V@1@@Z$0 1000eac0 f   IOCPS.obj
 0001:0000dac0       __unwindfunclet$??$construct@U?$pair@$$CBIPAUClientContext@@@std@@ABUpiecewise_construct_t@2@V?$tuple@ABI@2@V?$tuple@$$V@2@@?$allocator@U?$_Tree_node@U?$pair@$$CBIPAUClientContext@@@std@@PAX@std@@@std@@QAEXPAU?$pair@$$CBIPAUClientContext@@@1@ABUpiecewise_construct_t@1@$$QAV?$tuple@ABI@1@$$QAV?$tuple@$$V@1@@Z$0 1000eac0 f   IOCPS.obj
 0001:0000dad1       __ehhandler$??$construct@U?$pair@$$CBIPAUClientContext@@@std@@ABUpiecewise_construct_t@2@V?$tuple@ABI@2@V?$tuple@$$V@2@@?$allocator@U?$_Tree_node@U?$pair@$$CBIPAUClientContext@@@std@@PAX@std@@@std@@QAEXPAU?$pair@$$CBIPAUClientContext@@@1@ABUpiecewise_construct_t@1@$$QAV?$tuple@ABI@1@$$QAV?$tuple@$$V@1@@Z 1000ead1 f   IOCPS.obj
 0001:0000dad1       __ehhandler$??$construct@U?$pair@$$CBGPAX@std@@ABUpiecewise_construct_t@2@V?$tuple@ABG@2@V?$tuple@$$V@2@@?$allocator@U?$_Tree_node@U?$pair@$$CBGPAX@std@@PAX@std@@@std@@QAEXPAU?$pair@$$CBGPAX@1@ABUpiecewise_construct_t@1@$$QAV?$tuple@ABG@1@$$QAV?$tuple@$$V@1@@Z 1000ead1 f   IOCPS.obj
 0001:0000dad1       __ehhandler$??$construct@U?$pair@$$CBIPAVCIOCPBuffer@@@std@@ABUpiecewise_construct_t@2@V?$tuple@ABI@2@V?$tuple@$$V@2@@?$allocator@U?$_Tree_node@U?$pair@$$CBIPAVCIOCPBuffer@@@std@@PAX@std@@@std@@QAEXPAU?$pair@$$CBIPAVCIOCPBuffer@@@1@ABUpiecewise_construct_t@1@$$QAV?$tuple@ABI@1@$$QAV?$tuple@$$V@1@@Z 1000ead1 f   IOCPS.obj
 0001:0000daf0       __unwindfunclet$??0ITIOCP@@QAE@XZ$0 1000eaf0 f   MyIOCP.obj
 0001:0000daf8       __unwindfunclet$??0ITIOCP@@QAE@XZ$1 1000eaf8 f   MyIOCP.obj
 0001:0000db06       __unwindfunclet$??0ITIOCP@@QAE@XZ$2 1000eb06 f   MyIOCP.obj
 0001:0000db14       __ehhandler$??0ITIOCP@@QAE@XZ 1000eb14 f   MyIOCP.obj
 0001:0000db30       __unwindfunclet$?BuildPackageAndSend@ITIOCP@@QAEHPAUClientContext@@V?$basic_string@DU?$char_traits@D@std@@V?$allocator@D@2@@std@@@Z$0 1000eb30 f   MyIOCP.obj
 0001:0000db38       __ehhandler$?BuildPackageAndSend@ITIOCP@@QAEHPAUClientContext@@V?$basic_string@DU?$char_traits@D@std@@V?$allocator@D@2@@std@@@Z 1000eb38 f   MyIOCP.obj
 0001:0000db60       __unwindfunclet$?CreateServerSocket@@YGPAVSocket@@XZ$0 1000eb60 f   MyIOCP.obj
 0001:0000db72       __ehhandler$?CreateServerSocket@@YGPAVSocket@@XZ 1000eb72 f   MyIOCP.obj
 0001:0000db90       __unwindfunclet$?CreateClientSocket@@YGPAVSocket@@XZ$0 1000eb90 f   MyIOCP.obj
 0001:0000dba2       __ehhandler$?CreateClientSocket@@YGPAVSocket@@XZ 1000eba2 f   MyIOCP.obj
 0001:0000dbc0       __unwindfunclet$??0?$basic_string@DU?$char_traits@D@std@@V?$allocator@D@2@@std@@QAE@ABV01@@Z$0 1000ebc0 f   MyIOCP.obj
 0001:0000dbc8       __ehhandler$??0?$basic_string@DU?$char_traits@D@std@@V?$allocator@D@2@@std@@QAE@ABV01@@Z 1000ebc8 f   MyIOCP.obj
 0002:0000018c       _GS_ExceptionPointers      1000f18c     MSVCRT:gs_report.obj
 0002:00000228       $SG4294965846              1000f228     IOCPS.obj
 0002:0000026e       $SG4294965810              1000f26e     IOCPS.obj
 0002:0000026f       $SG4294965809              1000f26f     IOCPS.obj
 0002:00000270       $SG4294965845              1000f270     IOCPS.obj
 0002:000002dc       $SG4294965844              1000f2dc     IOCPS.obj
 0002:00000315       $SG4294965802              1000f315     IOCPS.obj
 0002:00000316       $SG4294965785              1000f316     IOCPS.obj
 0002:00000317       $SG4294965784              1000f317     IOCPS.obj
 0002:00000318       $SG4294965843              1000f318     IOCPS.obj
 0002:00000349       $SG4294965771              1000f349     IOCPS.obj
 0002:0000034a       $SG4294965770              1000f34a     IOCPS.obj
 0002:0000034b       ?piecewise_construct@std@@3Upiecewise_construct_t@1@B 1000f34b     IOCPS.obj
 0002:0000034c       $SG4294965842              1000f34c     IOCPS.obj
 0002:00000386       $SG4294961264              1000f386     MyIOCP.obj
 0002:00000387       $SG4294961263              1000f387     MyIOCP.obj
 0002:00000388       $SG4294965841              1000f388     IOCPS.obj
 0002:000003c0       $SG4294965812              1000f3c0     IOCPS.obj
 0002:00000404       $SG4294965811              1000f404     IOCPS.obj
 0002:00000440       $SG4294965801              1000f440     IOCPS.obj
 0002:000004a4       $SG4294965800              1000f4a4     IOCPS.obj
 0002:000004d0       $SG4294965799              1000f4d0     IOCPS.obj
 0002:0000051c       $SG4294965798              1000f51c     IOCPS.obj
 0002:00000550       $SG4294965797              1000f550     IOCPS.obj
 0002:000005a8       $SG4294965796              1000f5a8     IOCPS.obj
 0002:000005d8       $SG4294965795              1000f5d8     IOCPS.obj
 0002:00000660       $SG4294965794              1000f660     IOCPS.obj
 0002:000006e8       $SG4294965793              1000f6e8     IOCPS.obj
 0002:000007e8       $SG4294965792              1000f7e8     IOCPS.obj
 0002:00000888       $SG4294965791              1000f888     IOCPS.obj
 0002:000008e8       $SG4294965790              1000f8e8     IOCPS.obj
 0002:00000948       $SG4294965789              1000f948     IOCPS.obj
 0002:00000a20       $SG4294965788              1000fa20     IOCPS.obj
 0002:00000ac0       $SG4294965787              1000fac0     IOCPS.obj
 0002:00000b3c       $SG4294965786              1000fb3c     IOCPS.obj
 0002:00000b60       $SG4294965783              1000fb60     IOCPS.obj
 0002:00000bac       $SG4294965782              1000fbac     IOCPS.obj
 0002:00000be4       $SG4294965781              1000fbe4     IOCPS.obj
 0002:00000c18       $SG4294965780              1000fc18     IOCPS.obj
 0002:00000c48       $SG4294965779              1000fc48     IOCPS.obj
 0002:00000c70       $SG4294965778              1000fc70     IOCPS.obj
 0002:00000c98       $SG4294965777              1000fc98     IOCPS.obj
 0002:00000ce0       $SG4294965772              1000fce0     IOCPS.obj
 0002:00000d18       $SG4294965769              1000fd18     IOCPS.obj
 0002:00000d5c       $SG4294965768              1000fd5c     IOCPS.obj
 0002:00000d80       $SG4294961262              1000fd80     MyIOCP.obj
 0002:00000db8       $SG4294961261              1000fdb8     MyIOCP.obj
 0002:00001b98       __ehfuncinfo$?CreatePackage@CIOCPBuffer@@QAEHEV?$basic_string@DU?$char_traits@D@std@@V?$allocator@D@2@@std@@@Z 10010b98     IOCPBuffer.obj
 0002:00001bbc       __unwindtable$?CreatePackage@CIOCPBuffer@@QAEHEV?$basic_string@DU?$char_traits@D@std@@V?$allocator@D@2@@std@@@Z 10010bbc     IOCPBuffer.obj
 0002:00001bc4       __ehfuncinfo$?_Make_iter@?$list@PAVCIOCPBuffer@@V?$allocator@PAVCIOCPBuffer@@@std@@@std@@QBE?AV?$_List_iterator@V?$_List_val@U?$_List_simple_types@PAVCIOCPBuffer@@@std@@@std@@@2@V?$_List_const_iterator@V?$_List_val@U?$_List_simple_types@PAVCIOCPBuffer@@@std@@@std@@@2@@Z 10010bc4     IOCPS.obj
 0002:00001bc4       __ehfuncinfo$?_Make_iter@?$list@PAUClientContext@@V?$allocator@PAUClientContext@@@std@@@std@@QBE?AV?$_List_iterator@V?$_List_val@U?$_List_simple_types@PAUClientContext@@@std@@@std@@@2@V?$_List_const_iterator@V?$_List_val@U?$_List_simple_types@PAUClientContext@@@std@@@std@@@2@@Z 10010bc4     IOCPS.obj
 0002:00001bc4       __ehfuncinfo$?_Make_iter@?$list@PAUJobItem@@V?$allocator@PAUJobItem@@@std@@@std@@QBE?AV?$_List_iterator@V?$_List_val@U?$_List_simple_types@PAUJobItem@@@std@@@std@@@2@V?$_List_const_iterator@V?$_List_val@U?$_List_simple_types@PAUJobItem@@@std@@@std@@@2@@Z 10010bc4     IOCPS.obj
 0002:00001bc4       __ehfuncinfo$??1?$_List_alloc@U?$_List_base_types@PAVCIOCPBuffer@@V?$allocator@PAVCIOCPBuffer@@@std@@@std@@@std@@QAE@XZ 10010bc4     IOCPS.obj
 0002:00001bc4       __ehfuncinfo$??1?$basic_string@DU?$char_traits@D@std@@V?$allocator@D@2@@std@@QAE@XZ 10010bc4     IOCPBuffer.obj
 0002:00001bc4       __ehfuncinfo$??1?$_List_alloc@U?$_List_base_types@PAXV?$allocator@PAX@std@@@std@@@std@@QAE@XZ 10010bc4     IOCPS.obj
 0002:00001bc4       __ehfuncinfo$??1?$_List_alloc@U?$_List_base_types@PAUClientContext@@V?$allocator@PAUClientContext@@@std@@@std@@@std@@QAE@XZ 10010bc4     IOCPS.obj
 0002:00001bc4       __ehfuncinfo$??1?$_List_alloc@U?$_List_base_types@PAUJobItem@@V?$allocator@PAUJobItem@@@std@@@std@@@std@@QAE@XZ 10010bc4     IOCPS.obj
 0002:00001bc4       __ehfuncinfo$??1?$_Tree_comp_alloc@V?$_Tmap_traits@GPAXU?$less@G@std@@V?$allocator@U?$pair@$$CBGPAX@std@@@2@$0A@@std@@@std@@QAE@XZ 10010bc4     IOCPS.obj
 0002:00001bc4       __ehfuncinfo$??1?$_Tree_comp_alloc@V?$_Tmap_traits@IPAUClientContext@@U?$less@I@std@@V?$allocator@U?$pair@$$CBIPAUClientContext@@@std@@@3@$0A@@std@@@std@@QAE@XZ 10010bc4     IOCPS.obj
 0002:00001bc4       __ehfuncinfo$??0?$basic_string@DU?$char_traits@D@std@@V?$allocator@D@2@@std@@QAE@XZ 10010bc4     IOCPS.obj
 0002:00001bc4       __ehfuncinfo$?c_str@?$basic_string@DU?$char_traits@D@std@@V?$allocator@D@2@@std@@QBEPBDXZ 10010bc4     IOCPBuffer.obj
 0002:00001bc4       __ehfuncinfo$??1?$_Tree_comp_alloc@V?$_Tmap_traits@IPAVCIOCPBuffer@@U?$less@I@std@@V?$allocator@U?$pair@$$CBIPAVCIOCPBuffer@@@std@@@3@$0A@@std@@@std@@QAE@XZ 10010bc4     IOCPS.obj
 0002:00001bc4       __ehfuncinfo$??0?$basic_string@DU?$char_traits@D@std@@V?$allocator@D@2@@std@@QAE@$$QAV01@@Z 10010bc4     IOCPS.obj
 0002:00001bc4       __ehfuncinfo$??1?$list@PAVCIOCPBuffer@@V?$allocator@PAVCIOCPBuffer@@@std@@@std@@QAE@XZ 10010bc4     IOCPS.obj
 0002:00001bc4       __ehfuncinfo$?begin@?$list@PAVCIOCPBuffer@@V?$allocator@PAVCIOCPBuffer@@@std@@@std@@QAE?AV?$_List_iterator@V?$_List_val@U?$_List_simple_types@PAVCIOCPBuffer@@@std@@@std@@@2@XZ 10010bc4     IOCPS.obj
 0002:00001bc4       __ehfuncinfo$?end@?$list@PAVCIOCPBuffer@@V?$allocator@PAVCIOCPBuffer@@@std@@@std@@QAE?AV?$_List_iterator@V?$_List_val@U?$_List_simple_types@PAVCIOCPBuffer@@@std@@@std@@@2@XZ 10010bc4     IOCPS.obj
 0002:00001bc4       __ehfuncinfo$?clear@?$list@PAVCIOCPBuffer@@V?$allocator@PAVCIOCPBuffer@@@std@@@std@@QAEXXZ 10010bc4     IOCPS.obj
 0002:00001bc4       __ehfuncinfo$??1?$_Tree@V?$_Tmap_traits@IPAVCIOCPBuffer@@U?$less@I@std@@V?$allocator@U?$pair@$$CBIPAVCIOCPBuffer@@@std@@@3@$0A@@std@@@std@@QAE@XZ 10010bc4     IOCPS.obj
 0002:00001bc4       __ehfuncinfo$?begin@?$_Tree@V?$_Tmap_traits@IPAVCIOCPBuffer@@U?$less@I@std@@V?$allocator@U?$pair@$$CBIPAVCIOCPBuffer@@@std@@@3@$0A@@std@@@std@@QAE?AV?$_Tree_iterator@V?$_Tree_val@U?$_Tree_simple_types@U?$pair@$$CBIPAVCIOCPBuffer@@@std@@@std@@@std@@@2@XZ 10010bc4     IOCPS.obj
 0002:00001bc4       __ehfuncinfo$?end@?$_Tree@V?$_Tmap_traits@IPAVCIOCPBuffer@@U?$less@I@std@@V?$allocator@U?$pair@$$CBIPAVCIOCPBuffer@@@std@@@3@$0A@@std@@@std@@QAE?AV?$_Tree_iterator@V?$_Tree_val@U?$_Tree_simple_types@U?$pair@$$CBIPAVCIOCPBuffer@@@std@@@std@@@std@@@2@XZ 10010bc4     IOCPS.obj
 0002:00001bc4       __ehfuncinfo$?clear@?$_Tree@V?$_Tmap_traits@IPAVCIOCPBuffer@@U?$less@I@std@@V?$allocator@U?$pair@$$CBIPAVCIOCPBuffer@@@std@@@3@$0A@@std@@@std@@QAEXXZ 10010bc4     IOCPS.obj
 0002:00001bc4       __ehfuncinfo$??1?$list@PAXV?$allocator@PAX@std@@@std@@QAE@XZ 10010bc4     IOCPS.obj
 0002:00001bc4       __ehfuncinfo$?begin@?$list@PAXV?$allocator@PAX@std@@@std@@QAE?AV?$_List_iterator@V?$_List_val@U?$_List_simple_types@PAX@std@@@std@@@2@XZ 10010bc4     IOCPS.obj
 0002:00001bc4       __ehfuncinfo$?end@?$list@PAXV?$allocator@PAX@std@@@std@@QAE?AV?$_List_iterator@V?$_List_val@U?$_List_simple_types@PAX@std@@@std@@@2@XZ 10010bc4     IOCPS.obj
 0002:00001bc4       __ehfuncinfo$?clear@?$list@PAXV?$allocator@PAX@std@@@std@@QAEXXZ 10010bc4     IOCPS.obj
 0002:00001bc4       __ehfuncinfo$??1?$list@PAUClientContext@@V?$allocator@PAUClientContext@@@std@@@std@@QAE@XZ 10010bc4     IOCPS.obj
 0002:00001bc4       __ehfuncinfo$?begin@?$list@PAUClientContext@@V?$allocator@PAUClientContext@@@std@@@std@@QAE?AV?$_List_iterator@V?$_List_val@U?$_List_simple_types@PAUClientContext@@@std@@@std@@@2@XZ 10010bc4     IOCPS.obj
 0002:00001bc4       __ehfuncinfo$?end@?$list@PAUClientContext@@V?$allocator@PAUClientContext@@@std@@@std@@QAE?AV?$_List_iterator@V?$_List_val@U?$_List_simple_types@PAUClientContext@@@std@@@std@@@2@XZ 10010bc4     IOCPS.obj
 0002:00001bc4       __ehfuncinfo$?clear@?$list@PAUClientContext@@V?$allocator@PAUClientContext@@@std@@@std@@QAEXXZ 10010bc4     IOCPS.obj
 0002:00001bc4       __ehfuncinfo$??1?$list@PAUJobItem@@V?$allocator@PAUJobItem@@@std@@@std@@QAE@XZ 10010bc4     IOCPS.obj
 0002:00001bc4       __ehfuncinfo$?begin@?$list@PAUJobItem@@V?$allocator@PAUJobItem@@@std@@@std@@QAE?AV?$_List_iterator@V?$_List_val@U?$_List_simple_types@PAUJobItem@@@std@@@std@@@2@XZ 10010bc4     IOCPS.obj
 0002:00001bc4       __ehfuncinfo$?end@?$list@PAUJobItem@@V?$allocator@PAUJobItem@@@std@@@std@@QAE?AV?$_List_iterator@V?$_List_val@U?$_List_simple_types@PAUJobItem@@@std@@@std@@@2@XZ 10010bc4     IOCPS.obj
 0002:00001bc4       __ehfuncinfo$?clear@?$list@PAUJobItem@@V?$allocator@PAUJobItem@@@std@@@std@@QAEXXZ 10010bc4     IOCPS.obj
 0002:00001bc4       __ehfuncinfo$??1?$_Tree@V?$_Tmap_traits@GPAXU?$less@G@std@@V?$allocator@U?$pair@$$CBGPAX@std@@@2@$0A@@std@@@std@@QAE@XZ 10010bc4     IOCPS.obj
 0002:00001bc4       __ehfuncinfo$?begin@?$_Tree@V?$_Tmap_traits@GPAXU?$less@G@std@@V?$allocator@U?$pair@$$CBGPAX@std@@@2@$0A@@std@@@std@@QAE?AV?$_Tree_iterator@V?$_Tree_val@U?$_Tree_simple_types@U?$pair@$$CBGPAX@std@@@std@@@std@@@2@XZ 10010bc4     IOCPS.obj
 0002:00001bc4       __ehfuncinfo$?end@?$_Tree@V?$_Tmap_traits@GPAXU?$less@G@std@@V?$allocator@U?$pair@$$CBGPAX@std@@@2@$0A@@std@@@std@@QAE?AV?$_Tree_iterator@V?$_Tree_val@U?$_Tree_simple_types@U?$pair@$$CBGPAX@std@@@std@@@std@@@2@XZ 10010bc4     IOCPS.obj
 0002:00001bc4       __ehfuncinfo$?clear@?$_Tree@V?$_Tmap_traits@GPAXU?$less@G@std@@V?$allocator@U?$pair@$$CBGPAX@std@@@2@$0A@@std@@@std@@QAEXXZ 10010bc4     IOCPS.obj
 0002:00001bc4       __ehfuncinfo$??1?$_Tree@V?$_Tmap_traits@IPAUClientContext@@U?$less@I@std@@V?$allocator@U?$pair@$$CBIPAUClientContext@@@std@@@3@$0A@@std@@@std@@QAE@XZ 10010bc4     IOCPS.obj
 0002:00001bc4       __ehfuncinfo$?begin@?$_Tree@V?$_Tmap_traits@IPAUClientContext@@U?$less@I@std@@V?$allocator@U?$pair@$$CBIPAUClientContext@@@std@@@3@$0A@@std@@@std@@QAE?AV?$_Tree_iterator@V?$_Tree_val@U?$_Tree_simple_types@U?$pair@$$CBIPAUClientContext@@@std@@@std@@@std@@@2@XZ 10010bc4     IOCPS.obj
 0002:00001bc4       __ehfuncinfo$?end@?$_Tree@V?$_Tmap_traits@IPAUClientContext@@U?$less@I@std@@V?$allocator@U?$pair@$$CBIPAUClientContext@@@std@@@3@$0A@@std@@@std@@QAE?AV?$_Tree_iterator@V?$_Tree_val@U?$_Tree_simple_types@U?$pair@$$CBIPAUClientContext@@@std@@@std@@@std@@@2@XZ 10010bc4     IOCPS.obj
 0002:00001bc4       __ehfuncinfo$?clear@?$_Tree@V?$_Tmap_traits@IPAUClientContext@@U?$less@I@std@@V?$allocator@U?$pair@$$CBIPAUClientContext@@@std@@@3@$0A@@std@@@std@@QAEXXZ 10010bc4     IOCPS.obj
 0002:00001bc4       __ehfuncinfo$??$forward_as_tuple@ABG@std@@YA?AV?$tuple@ABG@0@ABG@Z 10010bc4     IOCPS.obj
 0002:00001bc4       __ehfuncinfo$??1IOCPS@@UAE@XZ 10010bc4     IOCPS.obj
 0002:00001bc4       __ehfuncinfo$??$forward_as_tuple@ABI@std@@YA?AV?$tuple@ABI@0@ABI@Z 10010bc4     IOCPS.obj
 0002:00001be8       __ehfuncinfo$?_Copy@?$basic_string@DU?$char_traits@D@std@@V?$allocator@D@2@@std@@QAEXII@Z 10010be8     IOCPBuffer.obj
 0002:00001c0c       __unwindtable$?_Copy@?$basic_string@DU?$char_traits@D@std@@V?$allocator@D@2@@std@@QAEXII@Z 10010c0c     IOCPBuffer.obj
 0002:00001c2c       __tryblocktable$?_Copy@?$basic_string@DU?$char_traits@D@std@@V?$allocator@D@2@@std@@QAEXII@Z 10010c2c     IOCPBuffer.obj
 0002:00001c54       __catchsym$?_Copy@?$basic_string@DU?$char_traits@D@std@@V?$allocator@D@2@@std@@QAEXII@Z$4 10010c54     IOCPBuffer.obj
 0002:00001c64       __catchsym$?_Copy@?$basic_string@DU?$char_traits@D@std@@V?$allocator@D@2@@std@@QAEXII@Z$5 10010c64     IOCPBuffer.obj
 0002:00001c78       __ehfuncinfo$??0IOCPS@@QAE@XZ 10010c78     IOCPS.obj
 0002:00001ca0       __unwindtable$??0IOCPS@@QAE@XZ 10010ca0     IOCPS.obj
 0002:00001ce8       __ehfuncinfo$?ListnerThreadProc@IOCPS@@CGIPAX@Z 10010ce8     IOCPS.obj
 0002:00001ce8       __ehfuncinfo$?FreeClientContext@IOCPS@@AAEXXZ 10010ce8     IOCPS.obj
 0002:00001d0c       __unwindtable$?FreeClientContext@IOCPS@@AAEXXZ 10010d0c     IOCPS.obj
 0002:00001d0c       __unwindtable$?ListnerThreadProc@IOCPS@@CGIPAX@Z 10010d0c     IOCPS.obj
 0002:00001d14       __ehfuncinfo$?AssociateIncomingClientWithContext@IOCPS@@AAEHI@Z 10010d14     IOCPS.obj
 0002:00001d38       __unwindtable$?AssociateIncomingClientWithContext@IOCPS@@AAEHI@Z 10010d38     IOCPS.obj
 0002:00001d58       __ehfuncinfo$?OnRead@IOCPS@@AAEXPAUClientContext@@PAVCIOCPBuffer@@@Z 10010d58     IOCPS.obj
 0002:00001d58       __ehfuncinfo$?OnZeroByteRead@IOCPS@@AAEXPAUClientContext@@PAVCIOCPBuffer@@@Z 10010d58     IOCPS.obj
 0002:00001d7c       __unwindtable$?OnZeroByteRead@IOCPS@@AAEXPAUClientContext@@PAVCIOCPBuffer@@@Z 10010d7c     IOCPS.obj
 0002:00001d7c       __unwindtable$?OnRead@IOCPS@@AAEXPAUClientContext@@PAVCIOCPBuffer@@@Z 10010d7c     IOCPS.obj
 0002:00001d8c       __ehfuncinfo$?NotifyDisconnectedClient@ITIOCP@@UAEXPAUClientContext@@@Z 10010d8c     MyIOCP.obj
 0002:00001d8c       __ehfuncinfo$?OnReadCompleted@IOCPS@@AAEXPAUClientContext@@KPAVCIOCPBuffer@@@Z 10010d8c     IOCPS.obj
 0002:00001d8c       __ehfuncinfo$?NotifyNewConnection@ITIOCP@@UAEXPAUClientContext@@@Z 10010d8c     MyIOCP.obj
 0002:00001db0       __unwindtable$?NotifyNewConnection@ITIOCP@@UAEXPAUClientContext@@@Z 10010db0     MyIOCP.obj
 0002:00001db0       __unwindtable$?NotifyDisconnectedClient@ITIOCP@@UAEXPAUClientContext@@@Z 10010db0     MyIOCP.obj
 0002:00001db0       __unwindtable$?OnReadCompleted@IOCPS@@AAEXPAUClientContext@@KPAVCIOCPBuffer@@@Z 10010db0     IOCPS.obj
 0002:00001db8       __ehfuncinfo$?OnWrite@IOCPS@@AAEXPAUClientContext@@KPAVCIOCPBuffer@@@Z 10010db8     IOCPS.obj
 0002:00001db8       __ehfuncinfo$?MakeOrderdRead@IOCPS@@AAEXPAUClientContext@@PAVCIOCPBuffer@@@Z 10010db8     IOCPS.obj
 0002:00001ddc       __unwindtable$?OnWrite@IOCPS@@AAEXPAUClientContext@@KPAVCIOCPBuffer@@@Z 10010ddc     IOCPS.obj
 0002:00001ddc       __unwindtable$?MakeOrderdRead@IOCPS@@AAEXPAUClientContext@@PAVCIOCPBuffer@@@Z 10010ddc     IOCPS.obj
 0002:00001de4       __ehfuncinfo$?GetHostKeyName@IOCPS@@QAE?AV?$basic_string@DU?$char_traits@D@std@@V?$allocator@D@2@@std@@I@Z 10010de4     IOCPS.obj
 0002:00001e08       __unwindtable$?GetHostKeyName@IOCPS@@QAE?AV?$basic_string@DU?$char_traits@D@std@@V?$allocator@D@2@@std@@I@Z 10010e08     IOCPS.obj
 0002:00001e10       __ehfuncinfo$?GetHostAddress@IOCPS@@QAE?AV?$basic_string@DU?$char_traits@D@std@@V?$allocator@D@2@@std@@I@Z 10010e10     IOCPS.obj
 0002:00001e34       __unwindtable$?GetHostAddress@IOCPS@@QAE?AV?$basic_string@DU?$char_traits@D@std@@V?$allocator@D@2@@std@@I@Z 10010e34     IOCPS.obj
 0002:00001e3c       __ehfuncinfo$?ShutDown@IOCPS@@UAEXXZ 10010e3c     IOCPS.obj
 0002:00001e60       __unwindtable$?ShutDown@IOCPS@@UAEXXZ 10010e60     IOCPS.obj
 0002:00001e68       __ehfuncinfo$?ErrorCode2Text@IOCPS@@IAE?AV?$basic_string@DU?$char_traits@D@std@@V?$allocator@D@2@@std@@K@Z 10010e68     IOCPS.obj
 0002:00001e68       __ehfuncinfo$?AZeroByteRead@IOCPS@@AAEHPAUClientContext@@PAVCIOCPBuffer@@@Z 10010e68     IOCPS.obj
 0002:00001e8c       __unwindtable$?ErrorCode2Text@IOCPS@@IAE?AV?$basic_string@DU?$char_traits@D@std@@V?$allocator@D@2@@std@@K@Z 10010e8c     IOCPS.obj
 0002:00001e8c       __unwindtable$?AZeroByteRead@IOCPS@@AAEHPAUClientContext@@PAVCIOCPBuffer@@@Z 10010e8c     IOCPS.obj
 0002:00001e94       __ehfuncinfo$?AllocateContext@IOCPS@@AAEPAUClientContext@@XZ 10010e94     IOCPS.obj
 0002:00001eb8       __unwindtable$?AllocateContext@IOCPS@@AAEPAUClientContext@@XZ 10010eb8     IOCPS.obj
 0002:00001ec0       __ehfuncinfo$??0ClientContext@@QAE@XZ 10010ec0     IOCPS.obj
 0002:00001ee4       __unwindtable$??0ClientContext@@QAE@XZ 10010ee4     IOCPS.obj
 0002:00001eec       __ehfuncinfo$?AllocateBuffer@IOCPS@@IAEPAVCIOCPBuffer@@H@Z 10010eec     IOCPS.obj
 0002:00001f10       __unwindtable$?AllocateBuffer@IOCPS@@IAEPAVCIOCPBuffer@@H@Z 10010f10     IOCPS.obj
 0002:00001f20       __ehfuncinfo$?SetupListner@IOCPS@@AAEHXZ 10010f20     IOCPS.obj
 0002:00001f44       __unwindtable$?SetupListner@IOCPS@@AAEHXZ 10010f44     IOCPS.obj
 0002:00001f74       __ehfuncinfo$?CreateCompletionPort@IOCPS@@AAEHXZ 10010f74     IOCPS.obj
 0002:00001f98       __unwindtable$?CreateCompletionPort@IOCPS@@AAEHXZ 10010f98     IOCPS.obj
 0002:00001fa8       __ehfuncinfo$?SetupIOWorkers@IOCPS@@AAEHXZ 10010fa8     IOCPS.obj
 0002:00001fcc       __unwindtable$?SetupIOWorkers@IOCPS@@AAEHXZ 10010fcc     IOCPS.obj
 0002:00001fd4       __ehfuncinfo$?Connect@IOCPS@@UAEHABV?$basic_string@DU?$char_traits@D@std@@V?$allocator@D@2@@std@@H@Z 10010fd4     IOCPS.obj
 0002:00001ff8       __unwindtable$?Connect@IOCPS@@UAEHABV?$basic_string@DU?$char_traits@D@std@@V?$allocator@D@2@@std@@H@Z 10010ff8     IOCPS.obj
 0002:00002000       __ehfuncinfo$??0?$basic_string@DU?$char_traits@D@std@@V?$allocator@D@2@@std@@QAE@PBD@Z 10011000     IOCPS.obj
 0002:00002024       __unwindtable$??0?$basic_string@DU?$char_traits@D@std@@V?$allocator@D@2@@std@@QAE@PBD@Z 10011024     IOCPS.obj
 0002:0000202c       __ehfuncinfo$?_Buyheadnode@?$_Tree_comp_alloc@V?$_Tmap_traits@IPAVCIOCPBuffer@@U?$less@I@std@@V?$allocator@U?$pair@$$CBIPAVCIOCPBuffer@@@std@@@3@$0A@@std@@@std@@QAEPAU?$_Tree_node@U?$pair@$$CBIPAVCIOCPBuffer@@@std@@PAX@2@XZ 1001102c     IOCPS.obj
 0002:0000202c       __ehfuncinfo$?_Buyheadnode@?$_Tree_comp_alloc@V?$_Tmap_traits@GPAXU?$less@G@std@@V?$allocator@U?$pair@$$CBGPAX@std@@@2@$0A@@std@@@std@@QAEPAU?$_Tree_node@U?$pair@$$CBGPAX@std@@PAX@2@XZ 1001102c     IOCPS.obj
 0002:0000202c       __ehfuncinfo$?_Buyheadnode@?$_Tree_comp_alloc@V?$_Tmap_traits@IPAUClientContext@@U?$less@I@std@@V?$allocator@U?$pair@$$CBIPAUClientContext@@@std@@@3@$0A@@std@@@std@@QAEPAU?$_Tree_node@U?$pair@$$CBIPAUClientContext@@@std@@PAX@2@XZ 1001102c     IOCPS.obj
 0002:00002050       __unwindtable$?_Buyheadnode@?$_Tree_comp_alloc@V?$_Tmap_traits@GPAXU?$less@G@std@@V?$allocator@U?$pair@$$CBGPAX@std@@@2@$0A@@std@@@std@@QAEPAU?$_Tree_node@U?$pair@$$CBGPAX@std@@PAX@2@XZ 10011050     IOCPS.obj
 0002:00002050       __unwindtable$?_Buyheadnode@?$_Tree_comp_alloc@V?$_Tmap_traits@IPAVCIOCPBuffer@@U?$less@I@std@@V?$allocator@U?$pair@$$CBIPAVCIOCPBuffer@@@std@@@3@$0A@@std@@@std@@QAEPAU?$_Tree_node@U?$pair@$$CBIPAVCIOCPBuffer@@@std@@PAX@2@XZ 10011050     IOCPS.obj
 0002:00002050       __unwindtable$?_Buyheadnode@?$_Tree_comp_alloc@V?$_Tmap_traits@IPAUClientContext@@U?$less@I@std@@V?$allocator@U?$pair@$$CBIPAUClientContext@@@std@@@3@$0A@@std@@@std@@QAEPAU?$_Tree_node@U?$pair@$$CBIPAUClientContext@@@std@@PAX@2@XZ 10011050     IOCPS.obj
 0002:00002060       __tryblocktable$?_Buyheadnode@?$_Tree_comp_alloc@V?$_Tmap_traits@IPAVCIOCPBuffer@@U?$less@I@std@@V?$allocator@U?$pair@$$CBIPAVCIOCPBuffer@@@std@@@3@$0A@@std@@@std@@QAEPAU?$_Tree_node@U?$pair@$$CBIPAVCIOCPBuffer@@@std@@PAX@2@XZ 10011060     IOCPS.obj
 0002:00002060       __tryblocktable$?_Buyheadnode@?$_Tree_comp_alloc@V?$_Tmap_traits@GPAXU?$less@G@std@@V?$allocator@U?$pair@$$CBGPAX@std@@@2@$0A@@std@@@std@@QAEPAU?$_Tree_node@U?$pair@$$CBGPAX@std@@PAX@2@XZ 10011060     IOCPS.obj
 0002:00002060       __tryblocktable$?_Buyheadnode@?$_Tree_comp_alloc@V?$_Tmap_traits@IPAUClientContext@@U?$less@I@std@@V?$allocator@U?$pair@$$CBIPAUClientContext@@@std@@@3@$0A@@std@@@std@@QAEPAU?$_Tree_node@U?$pair@$$CBIPAUClientContext@@@std@@PAX@2@XZ 10011060     IOCPS.obj
 0002:00002074       __catchsym$?_Buyheadnode@?$_Tree_comp_alloc@V?$_Tmap_traits@IPAUClientContext@@U?$less@I@std@@V?$allocator@U?$pair@$$CBIPAUClientContext@@@std@@@3@$0A@@std@@@std@@QAEPAU?$_Tree_node@U?$pair@$$CBIPAUClientContext@@@std@@PAX@2@XZ$2 10011074     IOCPS.obj
 0002:00002074       __catchsym$?_Buyheadnode@?$_Tree_comp_alloc@V?$_Tmap_traits@IPAVCIOCPBuffer@@U?$less@I@std@@V?$allocator@U?$pair@$$CBIPAVCIOCPBuffer@@@std@@@3@$0A@@std@@@std@@QAEPAU?$_Tree_node@U?$pair@$$CBIPAVCIOCPBuffer@@@std@@PAX@2@XZ$2 10011074     IOCPS.obj
 0002:00002074       __catchsym$?_Buyheadnode@?$_Tree_comp_alloc@V?$_Tmap_traits@GPAXU?$less@G@std@@V?$allocator@U?$pair@$$CBGPAX@std@@@2@$0A@@std@@@std@@QAEPAU?$_Tree_node@U?$pair@$$CBGPAX@std@@PAX@2@XZ$2 10011074     IOCPS.obj
 0002:00002084       __ehfuncinfo$?_Buynode0@?$_List_alloc@U?$_List_base_types@PAXV?$allocator@PAX@std@@@std@@@std@@QAEPAU?$_List_node@PAXPAX@2@PAU32@0@Z 10011084     IOCPS.obj
 0002:00002084       __ehfuncinfo$?_Buynode0@?$_List_alloc@U?$_List_base_types@PAUJobItem@@V?$allocator@PAUJobItem@@@std@@@std@@@std@@QAEPAU?$_List_node@PAUJobItem@@PAX@2@PAU32@0@Z 10011084     IOCPS.obj
 0002:00002084       __ehfuncinfo$?_Buynode0@?$_List_alloc@U?$_List_base_types@PAVCIOCPBuffer@@V?$allocator@PAVCIOCPBuffer@@@std@@@std@@@std@@QAEPAU?$_List_node@PAVCIOCPBuffer@@PAX@2@PAU32@0@Z 10011084     IOCPS.obj
 0002:00002084       __ehfuncinfo$?_Buynode0@?$_List_alloc@U?$_List_base_types@PAUClientContext@@V?$allocator@PAUClientContext@@@std@@@std@@@std@@QAEPAU?$_List_node@PAUClientContext@@PAX@2@PAU32@0@Z 10011084     IOCPS.obj
 0002:000020a8       __unwindtable$?_Buynode0@?$_List_alloc@U?$_List_base_types@PAXV?$allocator@PAX@std@@@std@@@std@@QAEPAU?$_List_node@PAXPAX@2@PAU32@0@Z 100110a8     IOCPS.obj
 0002:000020a8       __unwindtable$?_Buynode0@?$_List_alloc@U?$_List_base_types@PAUJobItem@@V?$allocator@PAUJobItem@@@std@@@std@@@std@@QAEPAU?$_List_node@PAUJobItem@@PAX@2@PAU32@0@Z 100110a8     IOCPS.obj
 0002:000020a8       __unwindtable$?_Buynode0@?$_List_alloc@U?$_List_base_types@PAUClientContext@@V?$allocator@PAUClientContext@@@std@@@std@@@std@@QAEPAU?$_List_node@PAUClientContext@@PAX@2@PAU32@0@Z 100110a8     IOCPS.obj
 0002:000020a8       __unwindtable$?_Buynode0@?$_List_alloc@U?$_List_base_types@PAVCIOCPBuffer@@V?$allocator@PAVCIOCPBuffer@@@std@@@std@@@std@@QAEPAU?$_List_node@PAVCIOCPBuffer@@PAX@2@PAU32@0@Z 100110a8     IOCPS.obj
 0002:000020b8       __tryblocktable$?_Buynode0@?$_List_alloc@U?$_List_base_types@PAUJobItem@@V?$allocator@PAUJobItem@@@std@@@std@@@std@@QAEPAU?$_List_node@PAUJobItem@@PAX@2@PAU32@0@Z 100110b8     IOCPS.obj
 0002:000020b8       __tryblocktable$?_Buynode0@?$_List_alloc@U?$_List_base_types@PAUClientContext@@V?$allocator@PAUClientContext@@@std@@@std@@@std@@QAEPAU?$_List_node@PAUClientContext@@PAX@2@PAU32@0@Z 100110b8     IOCPS.obj
 0002:000020b8       __tryblocktable$?_Buynode0@?$_List_alloc@U?$_List_base_types@PAXV?$allocator@PAX@std@@@std@@@std@@QAEPAU?$_List_node@PAXPAX@2@PAU32@0@Z 100110b8     IOCPS.obj
 0002:000020b8       __tryblocktable$?_Buynode0@?$_List_alloc@U?$_List_base_types@PAVCIOCPBuffer@@V?$allocator@PAVCIOCPBuffer@@@std@@@std@@@std@@QAEPAU?$_List_node@PAVCIOCPBuffer@@PAX@2@PAU32@0@Z 100110b8     IOCPS.obj
 0002:000020cc       __catchsym$?_Buynode0@?$_List_alloc@U?$_List_base_types@PAUJobItem@@V?$allocator@PAUJobItem@@@std@@@std@@@std@@QAEPAU?$_List_node@PAUJobItem@@PAX@2@PAU32@0@Z$2 100110cc     IOCPS.obj
 0002:000020cc       __catchsym$?_Buynode0@?$_List_alloc@U?$_List_base_types@PAUClientContext@@V?$allocator@PAUClientContext@@@std@@@std@@@std@@QAEPAU?$_List_node@PAUClientContext@@PAX@2@PAU32@0@Z$2 100110cc     IOCPS.obj
 0002:000020cc       __catchsym$?_Buynode0@?$_List_alloc@U?$_List_base_types@PAXV?$allocator@PAX@std@@@std@@@std@@QAEPAU?$_List_node@PAXPAX@2@PAU32@0@Z$2 100110cc     IOCPS.obj
 0002:000020cc       __catchsym$?_Buynode0@?$_List_alloc@U?$_List_base_types@PAVCIOCPBuffer@@V?$allocator@PAVCIOCPBuffer@@@std@@@std@@@std@@QAEPAU?$_List_node@PAVCIOCPBuffer@@PAX@2@PAU32@0@Z$2 100110cc     IOCPS.obj
 0002:000020dc       __ehfuncinfo$??$_Buynode@ABQAVCIOCPBuffer@@@?$_List_buy@PAVCIOCPBuffer@@V?$allocator@PAVCIOCPBuffer@@@std@@@std@@QAEPAU?$_List_node@PAVCIOCPBuffer@@PAX@1@PAU21@0ABQAVCIOCPBuffer@@@Z 100110dc     IOCPS.obj
 0002:000020dc       __ehfuncinfo$??$_Buynode@ABQAX@?$_List_buy@PAXV?$allocator@PAX@std@@@std@@QAEPAU?$_List_node@PAXPAX@1@PAU21@0ABQAX@Z 100110dc     IOCPS.obj
 0002:000020dc       __ehfuncinfo$??$_Buynode@ABQAUClientContext@@@?$_List_buy@PAUClientContext@@V?$allocator@PAUClientContext@@@std@@@std@@QAEPAU?$_List_node@PAUClientContext@@PAX@1@PAU21@0ABQAUClientContext@@@Z 100110dc     IOCPS.obj
 0002:00002100       __unwindtable$??$_Buynode@ABQAUClientContext@@@?$_List_buy@PAUClientContext@@V?$allocator@PAUClientContext@@@std@@@std@@QAEPAU?$_List_node@PAUClientContext@@PAX@1@PAU21@0ABQAUClientContext@@@Z 10011100     IOCPS.obj
 0002:00002100       __unwindtable$??$_Buynode@ABQAX@?$_List_buy@PAXV?$allocator@PAX@std@@@std@@QAEPAU?$_List_node@PAXPAX@1@PAU21@0ABQAX@Z 10011100     IOCPS.obj
 0002:00002100       __unwindtable$??$_Buynode@ABQAVCIOCPBuffer@@@?$_List_buy@PAVCIOCPBuffer@@V?$allocator@PAVCIOCPBuffer@@@std@@@std@@QAEPAU?$_List_node@PAVCIOCPBuffer@@PAX@1@PAU21@0ABQAVCIOCPBuffer@@@Z 10011100     IOCPS.obj
 0002:00002110       __tryblocktable$??$_Buynode@ABQAX@?$_List_buy@PAXV?$allocator@PAX@std@@@std@@QAEPAU?$_List_node@PAXPAX@1@PAU21@0ABQAX@Z 10011110     IOCPS.obj
 0002:00002110       __tryblocktable$??$_Buynode@ABQAVCIOCPBuffer@@@?$_List_buy@PAVCIOCPBuffer@@V?$allocator@PAVCIOCPBuffer@@@std@@@std@@QAEPAU?$_List_node@PAVCIOCPBuffer@@PAX@1@PAU21@0ABQAVCIOCPBuffer@@@Z 10011110     IOCPS.obj
 0002:00002110       __tryblocktable$??$_Buynode@ABQAUClientContext@@@?$_List_buy@PAUClientContext@@V?$allocator@PAUClientContext@@@std@@@std@@QAEPAU?$_List_node@PAUClientContext@@PAX@1@PAU21@0ABQAUClientContext@@@Z 10011110     IOCPS.obj
 0002:00002124       __catchsym$??$_Buynode@ABQAX@?$_List_buy@PAXV?$allocator@PAX@std@@@std@@QAEPAU?$_List_node@PAXPAX@1@PAU21@0ABQAX@Z$2 10011124     IOCPS.obj
 0002:00002124       __catchsym$??$_Buynode@ABQAVCIOCPBuffer@@@?$_List_buy@PAVCIOCPBuffer@@V?$allocator@PAVCIOCPBuffer@@@std@@@std@@QAEPAU?$_List_node@PAVCIOCPBuffer@@PAX@1@PAU21@0ABQAVCIOCPBuffer@@@Z$2 10011124     IOCPS.obj
 0002:00002124       __catchsym$??$_Buynode@ABQAUClientContext@@@?$_List_buy@PAUClientContext@@V?$allocator@PAUClientContext@@@std@@@std@@QAEPAU?$_List_node@PAUClientContext@@PAX@1@PAU21@0ABQAUClientContext@@@Z$2 10011124     IOCPS.obj
 0002:00002134       __ehfuncinfo$??$_Buynode@U?$pair@GPAX@std@@@?$_Tree_comp_alloc@V?$_Tmap_traits@GPAXU?$less@G@std@@V?$allocator@U?$pair@$$CBGPAX@std@@@2@$0A@@std@@@std@@QAEPAU?$_Tree_node@U?$pair@$$CBGPAX@std@@PAX@1@$$QAU?$pair@GPAX@1@@Z 10011134     IOCPS.obj
 0002:00002158       __unwindtable$??$_Buynode@U?$pair@GPAX@std@@@?$_Tree_comp_alloc@V?$_Tmap_traits@GPAXU?$less@G@std@@V?$allocator@U?$pair@$$CBGPAX@std@@@2@$0A@@std@@@std@@QAEPAU?$_Tree_node@U?$pair@$$CBGPAX@std@@PAX@1@$$QAU?$pair@GPAX@1@@Z 10011158     IOCPS.obj
 0002:00002168       __tryblocktable$??$_Buynode@U?$pair@GPAX@std@@@?$_Tree_comp_alloc@V?$_Tmap_traits@GPAXU?$less@G@std@@V?$allocator@U?$pair@$$CBGPAX@std@@@2@$0A@@std@@@std@@QAEPAU?$_Tree_node@U?$pair@$$CBGPAX@std@@PAX@1@$$QAU?$pair@GPAX@1@@Z 10011168     IOCPS.obj
 0002:0000217c       __catchsym$??$_Buynode@U?$pair@GPAX@std@@@?$_Tree_comp_alloc@V?$_Tmap_traits@GPAXU?$less@G@std@@V?$allocator@U?$pair@$$CBGPAX@std@@@2@$0A@@std@@@std@@QAEPAU?$_Tree_node@U?$pair@$$CBGPAX@std@@PAX@1@$$QAU?$pair@GPAX@1@@Z$2 1001117c     IOCPS.obj
 0002:0000218c       __ehfuncinfo$??$_Insert_nohint@AAU?$pair@$$CBGPAX@std@@PAU?$_Tree_node@U?$pair@$$CBGPAX@std@@PAX@2@@?$_Tree@V?$_Tmap_traits@GPAXU?$less@G@std@@V?$allocator@U?$pair@$$CBGPAX@std@@@2@$0A@@std@@@std@@IAE?AU?$pair@V?$_Tree_iterator@V?$_Tree_val@U?$_Tree_simple_types@U?$pair@$$CBGPAX@std@@@std@@@std@@@std@@_N@1@_NAAU?$pair@$$CBGPAX@1@PAU?$_Tree_node@U?$pair@$$CBGPAX@std@@PAX@1@@Z 1001118c     IOCPS.obj
 0002:000021b0       __unwindtable$??$_Insert_nohint@AAU?$pair@$$CBGPAX@std@@PAU?$_Tree_node@U?$pair@$$CBGPAX@std@@PAX@2@@?$_Tree@V?$_Tmap_traits@GPAXU?$less@G@std@@V?$allocator@U?$pair@$$CBGPAX@std@@@2@$0A@@std@@@std@@IAE?AU?$pair@V?$_Tree_iterator@V?$_Tree_val@U?$_Tree_simple_types@U?$pair@$$CBGPAX@std@@@std@@@std@@@std@@_N@1@_NAAU?$pair@$$CBGPAX@1@PAU?$_Tree_node@U?$pair@$$CBGPAX@std@@PAX@1@@Z 100111b0     IOCPS.obj
 0002:000021c0       __tryblocktable$??$_Insert_nohint@AAU?$pair@$$CBGPAX@std@@PAU?$_Tree_node@U?$pair@$$CBGPAX@std@@PAX@2@@?$_Tree@V?$_Tmap_traits@GPAXU?$less@G@std@@V?$allocator@U?$pair@$$CBGPAX@std@@@2@$0A@@std@@@std@@IAE?AU?$pair@V?$_Tree_iterator@V?$_Tree_val@U?$_Tree_simple_types@U?$pair@$$CBGPAX@std@@@std@@@std@@@std@@_N@1@_NAAU?$pair@$$CBGPAX@1@PAU?$_Tree_node@U?$pair@$$CBGPAX@std@@PAX@1@@Z 100111c0     IOCPS.obj
 0002:000021d4       __catchsym$??$_Insert_nohint@AAU?$pair@$$CBGPAX@std@@PAU?$_Tree_node@U?$pair@$$CBGPAX@std@@PAX@2@@?$_Tree@V?$_Tmap_traits@GPAXU?$less@G@std@@V?$allocator@U?$pair@$$CBGPAX@std@@@2@$0A@@std@@@std@@IAE?AU?$pair@V?$_Tree_iterator@V?$_Tree_val@U?$_Tree_simple_types@U?$pair@$$CBGPAX@std@@@std@@@std@@@std@@_N@1@_NAAU?$pair@$$CBGPAX@1@PAU?$_Tree_node@U?$pair@$$CBGPAX@std@@PAX@1@@Z$2 100111d4     IOCPS.obj
 0002:000021e4       __ehfuncinfo$??$_Buynode@U?$pair@IPAVCIOCPBuffer@@@std@@@?$_Tree_comp_alloc@V?$_Tmap_traits@IPAVCIOCPBuffer@@U?$less@I@std@@V?$allocator@U?$pair@$$CBIPAVCIOCPBuffer@@@std@@@3@$0A@@std@@@std@@QAEPAU?$_Tree_node@U?$pair@$$CBIPAVCIOCPBuffer@@@std@@PAX@1@$$QAU?$pair@IPAVCIOCPBuffer@@@1@@Z 100111e4     IOCPS.obj
 0002:00002208       __unwindtable$??$_Buynode@U?$pair@IPAVCIOCPBuffer@@@std@@@?$_Tree_comp_alloc@V?$_Tmap_traits@IPAVCIOCPBuffer@@U?$less@I@std@@V?$allocator@U?$pair@$$CBIPAVCIOCPBuffer@@@std@@@3@$0A@@std@@@std@@QAEPAU?$_Tree_node@U?$pair@$$CBIPAVCIOCPBuffer@@@std@@PAX@1@$$QAU?$pair@IPAVCIOCPBuffer@@@1@@Z 10011208     IOCPS.obj
 0002:00002218       __tryblocktable$??$_Buynode@U?$pair@IPAVCIOCPBuffer@@@std@@@?$_Tree_comp_alloc@V?$_Tmap_traits@IPAVCIOCPBuffer@@U?$less@I@std@@V?$allocator@U?$pair@$$CBIPAVCIOCPBuffer@@@std@@@3@$0A@@std@@@std@@QAEPAU?$_Tree_node@U?$pair@$$CBIPAVCIOCPBuffer@@@std@@PAX@1@$$QAU?$pair@IPAVCIOCPBuffer@@@1@@Z 10011218     IOCPS.obj
 0002:0000222c       __catchsym$??$_Buynode@U?$pair@IPAVCIOCPBuffer@@@std@@@?$_Tree_comp_alloc@V?$_Tmap_traits@IPAVCIOCPBuffer@@U?$less@I@std@@V?$allocator@U?$pair@$$CBIPAVCIOCPBuffer@@@std@@@3@$0A@@std@@@std@@QAEPAU?$_Tree_node@U?$pair@$$CBIPAVCIOCPBuffer@@@std@@PAX@1@$$QAU?$pair@IPAVCIOCPBuffer@@@1@@Z$2 1001122c     IOCPS.obj
 0002:0000223c       __ehfuncinfo$??$_Insert_nohint@AAU?$pair@$$CBIPAUClientContext@@@std@@PAU?$_Tree_node@U?$pair@$$CBIPAUClientContext@@@std@@PAX@2@@?$_Tree@V?$_Tmap_traits@IPAUClientContext@@U?$less@I@std@@V?$allocator@U?$pair@$$CBIPAUClientContext@@@std@@@3@$0A@@std@@@std@@IAE?AU?$pair@V?$_Tree_iterator@V?$_Tree_val@U?$_Tree_simple_types@U?$pair@$$CBIPAUClientContext@@@std@@@std@@@std@@@std@@_N@1@_NAAU?$pair@$$CBIPAUClientContext@@@1@PAU?$_Tree_node@U?$pair@$$CBIPAUClientContext@@@std@@PAX@1@@Z 1001123c     IOCPS.obj
 0002:0000223c       __ehfuncinfo$??$_Insert_nohint@AAU?$pair@$$CBIPAVCIOCPBuffer@@@std@@PAU?$_Tree_node@U?$pair@$$CBIPAVCIOCPBuffer@@@std@@PAX@2@@?$_Tree@V?$_Tmap_traits@IPAVCIOCPBuffer@@U?$less@I@std@@V?$allocator@U?$pair@$$CBIPAVCIOCPBuffer@@@std@@@3@$0A@@std@@@std@@IAE?AU?$pair@V?$_Tree_iterator@V?$_Tree_val@U?$_Tree_simple_types@U?$pair@$$CBIPAVCIOCPBuffer@@@std@@@std@@@std@@@std@@_N@1@_NAAU?$pair@$$CBIPAVCIOCPBuffer@@@1@PAU?$_Tree_node@U?$pair@$$CBIPAVCIOCPBuffer@@@std@@PAX@1@@Z 1001123c     IOCPS.obj
 0002:00002260       __unwindtable$??$_Insert_nohint@AAU?$pair@$$CBIPAUClientContext@@@std@@PAU?$_Tree_node@U?$pair@$$CBIPAUClientContext@@@std@@PAX@2@@?$_Tree@V?$_Tmap_traits@IPAUClientContext@@U?$less@I@std@@V?$allocator@U?$pair@$$CBIPAUClientContext@@@std@@@3@$0A@@std@@@std@@IAE?AU?$pair@V?$_Tree_iterator@V?$_Tree_val@U?$_Tree_simple_types@U?$pair@$$CBIPAUClientContext@@@std@@@std@@@std@@@std@@_N@1@_NAAU?$pair@$$CBIPAUClientContext@@@1@PAU?$_Tree_node@U?$pair@$$CBIPAUClientContext@@@std@@PAX@1@@Z 10011260     IOCPS.obj
 0002:00002260       __unwindtable$??$_Insert_nohint@AAU?$pair@$$CBIPAVCIOCPBuffer@@@std@@PAU?$_Tree_node@U?$pair@$$CBIPAVCIOCPBuffer@@@std@@PAX@2@@?$_Tree@V?$_Tmap_traits@IPAVCIOCPBuffer@@U?$less@I@std@@V?$allocator@U?$pair@$$CBIPAVCIOCPBuffer@@@std@@@3@$0A@@std@@@std@@IAE?AU?$pair@V?$_Tree_iterator@V?$_Tree_val@U?$_Tree_simple_types@U?$pair@$$CBIPAVCIOCPBuffer@@@std@@@std@@@std@@@std@@_N@1@_NAAU?$pair@$$CBIPAVCIOCPBuffer@@@1@PAU?$_Tree_node@U?$pair@$$CBIPAVCIOCPBuffer@@@std@@PAX@1@@Z 10011260     IOCPS.obj
 0002:00002270       __tryblocktable$??$_Insert_nohint@AAU?$pair@$$CBIPAUClientContext@@@std@@PAU?$_Tree_node@U?$pair@$$CBIPAUClientContext@@@std@@PAX@2@@?$_Tree@V?$_Tmap_traits@IPAUClientContext@@U?$less@I@std@@V?$allocator@U?$pair@$$CBIPAUClientContext@@@std@@@3@$0A@@std@@@std@@IAE?AU?$pair@V?$_Tree_iterator@V?$_Tree_val@U?$_Tree_simple_types@U?$pair@$$CBIPAUClientContext@@@std@@@std@@@std@@@std@@_N@1@_NAAU?$pair@$$CBIPAUClientContext@@@1@PAU?$_Tree_node@U?$pair@$$CBIPAUClientContext@@@std@@PAX@1@@Z 10011270     IOCPS.obj
 0002:00002270       __tryblocktable$??$_Insert_nohint@AAU?$pair@$$CBIPAVCIOCPBuffer@@@std@@PAU?$_Tree_node@U?$pair@$$CBIPAVCIOCPBuffer@@@std@@PAX@2@@?$_Tree@V?$_Tmap_traits@IPAVCIOCPBuffer@@U?$less@I@std@@V?$allocator@U?$pair@$$CBIPAVCIOCPBuffer@@@std@@@3@$0A@@std@@@std@@IAE?AU?$pair@V?$_Tree_iterator@V?$_Tree_val@U?$_Tree_simple_types@U?$pair@$$CBIPAVCIOCPBuffer@@@std@@@std@@@std@@@std@@_N@1@_NAAU?$pair@$$CBIPAVCIOCPBuffer@@@1@PAU?$_Tree_node@U?$pair@$$CBIPAVCIOCPBuffer@@@std@@PAX@1@@Z 10011270     IOCPS.obj
 0002:00002284       __catchsym$??$_Insert_nohint@AAU?$pair@$$CBIPAVCIOCPBuffer@@@std@@PAU?$_Tree_node@U?$pair@$$CBIPAVCIOCPBuffer@@@std@@PAX@2@@?$_Tree@V?$_Tmap_traits@IPAVCIOCPBuffer@@U?$less@I@std@@V?$allocator@U?$pair@$$CBIPAVCIOCPBuffer@@@std@@@3@$0A@@std@@@std@@IAE?AU?$pair@V?$_Tree_iterator@V?$_Tree_val@U?$_Tree_simple_types@U?$pair@$$CBIPAVCIOCPBuffer@@@std@@@std@@@std@@@std@@_N@1@_NAAU?$pair@$$CBIPAVCIOCPBuffer@@@1@PAU?$_Tree_node@U?$pair@$$CBIPAVCIOCPBuffer@@@std@@PAX@1@@Z$2 10011284     IOCPS.obj
 0002:00002284       __catchsym$??$_Insert_nohint@AAU?$pair@$$CBIPAUClientContext@@@std@@PAU?$_Tree_node@U?$pair@$$CBIPAUClientContext@@@std@@PAX@2@@?$_Tree@V?$_Tmap_traits@IPAUClientContext@@U?$less@I@std@@V?$allocator@U?$pair@$$CBIPAUClientContext@@@std@@@3@$0A@@std@@@std@@IAE?AU?$pair@V?$_Tree_iterator@V?$_Tree_val@U?$_Tree_simple_types@U?$pair@$$CBIPAUClientContext@@@std@@@std@@@std@@@std@@_N@1@_NAAU?$pair@$$CBIPAUClientContext@@@1@PAU?$_Tree_node@U?$pair@$$CBIPAUClientContext@@@std@@PAX@1@@Z$2 10011284     IOCPS.obj
 0002:00002294       __ehfuncinfo$?_Buynode0@?$_Tree_comp_alloc@V?$_Tmap_traits@IPAVCIOCPBuffer@@U?$less@I@std@@V?$allocator@U?$pair@$$CBIPAVCIOCPBuffer@@@std@@@3@$0A@@std@@@std@@QAEPAU?$_Tree_node@U?$pair@$$CBIPAVCIOCPBuffer@@@std@@PAX@2@XZ 10011294     IOCPS.obj
 0002:00002294       __ehfuncinfo$?_Buynode0@?$_Tree_comp_alloc@V?$_Tmap_traits@GPAXU?$less@G@std@@V?$allocator@U?$pair@$$CBGPAX@std@@@2@$0A@@std@@@std@@QAEPAU?$_Tree_node@U?$pair@$$CBGPAX@std@@PAX@2@XZ 10011294     IOCPS.obj
 0002:00002294       __ehfuncinfo$?_Buynode0@?$_Tree_comp_alloc@V?$_Tmap_traits@IPAUClientContext@@U?$less@I@std@@V?$allocator@U?$pair@$$CBIPAUClientContext@@@std@@@3@$0A@@std@@@std@@QAEPAU?$_Tree_node@U?$pair@$$CBIPAUClientContext@@@std@@PAX@2@XZ 10011294     IOCPS.obj
 0002:000022b8       __unwindtable$?_Buynode0@?$_Tree_comp_alloc@V?$_Tmap_traits@GPAXU?$less@G@std@@V?$allocator@U?$pair@$$CBGPAX@std@@@2@$0A@@std@@@std@@QAEPAU?$_Tree_node@U?$pair@$$CBGPAX@std@@PAX@2@XZ 100112b8     IOCPS.obj
 0002:000022b8       __unwindtable$?_Buynode0@?$_Tree_comp_alloc@V?$_Tmap_traits@IPAVCIOCPBuffer@@U?$less@I@std@@V?$allocator@U?$pair@$$CBIPAVCIOCPBuffer@@@std@@@3@$0A@@std@@@std@@QAEPAU?$_Tree_node@U?$pair@$$CBIPAVCIOCPBuffer@@@std@@PAX@2@XZ 100112b8     IOCPS.obj
 0002:000022b8       __unwindtable$?_Buynode0@?$_Tree_comp_alloc@V?$_Tmap_traits@IPAUClientContext@@U?$less@I@std@@V?$allocator@U?$pair@$$CBIPAUClientContext@@@std@@@3@$0A@@std@@@std@@QAEPAU?$_Tree_node@U?$pair@$$CBIPAUClientContext@@@std@@PAX@2@XZ 100112b8     IOCPS.obj
 0002:000022c8       __tryblocktable$?_Buynode0@?$_Tree_comp_alloc@V?$_Tmap_traits@GPAXU?$less@G@std@@V?$allocator@U?$pair@$$CBGPAX@std@@@2@$0A@@std@@@std@@QAEPAU?$_Tree_node@U?$pair@$$CBGPAX@std@@PAX@2@XZ 100112c8     IOCPS.obj
 0002:000022c8       __tryblocktable$?_Buynode0@?$_Tree_comp_alloc@V?$_Tmap_traits@IPAVCIOCPBuffer@@U?$less@I@std@@V?$allocator@U?$pair@$$CBIPAVCIOCPBuffer@@@std@@@3@$0A@@std@@@std@@QAEPAU?$_Tree_node@U?$pair@$$CBIPAVCIOCPBuffer@@@std@@PAX@2@XZ 100112c8     IOCPS.obj
 0002:000022c8       __tryblocktable$?_Buynode0@?$_Tree_comp_alloc@V?$_Tmap_traits@IPAUClientContext@@U?$less@I@std@@V?$allocator@U?$pair@$$CBIPAUClientContext@@@std@@@3@$0A@@std@@@std@@QAEPAU?$_Tree_node@U?$pair@$$CBIPAUClientContext@@@std@@PAX@2@XZ 100112c8     IOCPS.obj
 0002:000022dc       __catchsym$?_Buynode0@?$_Tree_comp_alloc@V?$_Tmap_traits@IPAVCIOCPBuffer@@U?$less@I@std@@V?$allocator@U?$pair@$$CBIPAVCIOCPBuffer@@@std@@@3@$0A@@std@@@std@@QAEPAU?$_Tree_node@U?$pair@$$CBIPAVCIOCPBuffer@@@std@@PAX@2@XZ$2 100112dc     IOCPS.obj
 0002:000022dc       __catchsym$?_Buynode0@?$_Tree_comp_alloc@V?$_Tmap_traits@IPAUClientContext@@U?$less@I@std@@V?$allocator@U?$pair@$$CBIPAUClientContext@@@std@@@3@$0A@@std@@@std@@QAEPAU?$_Tree_node@U?$pair@$$CBIPAUClientContext@@@std@@PAX@2@XZ$2 100112dc     IOCPS.obj
 0002:000022dc       __catchsym$?_Buynode0@?$_Tree_comp_alloc@V?$_Tmap_traits@GPAXU?$less@G@std@@V?$allocator@U?$pair@$$CBGPAX@std@@@2@$0A@@std@@@std@@QAEPAU?$_Tree_node@U?$pair@$$CBGPAX@std@@PAX@2@XZ$2 100112dc     IOCPS.obj
 0002:000022ec       __ehfuncinfo$??$_Buynode@ABUpiecewise_construct_t@std@@V?$tuple@ABG@2@V?$tuple@$$V@2@@?$_Tree_comp_alloc@V?$_Tmap_traits@GPAXU?$less@G@std@@V?$allocator@U?$pair@$$CBGPAX@std@@@2@$0A@@std@@@std@@QAEPAU?$_Tree_node@U?$pair@$$CBGPAX@std@@PAX@1@ABUpiecewise_construct_t@1@$$QAV?$tuple@ABG@1@$$QAV?$tuple@$$V@1@@Z 100112ec     IOCPS.obj
 0002:00002310       __unwindtable$??$_Buynode@ABUpiecewise_construct_t@std@@V?$tuple@ABG@2@V?$tuple@$$V@2@@?$_Tree_comp_alloc@V?$_Tmap_traits@GPAXU?$less@G@std@@V?$allocator@U?$pair@$$CBGPAX@std@@@2@$0A@@std@@@std@@QAEPAU?$_Tree_node@U?$pair@$$CBGPAX@std@@PAX@1@ABUpiecewise_construct_t@1@$$QAV?$tuple@ABG@1@$$QAV?$tuple@$$V@1@@Z 10011310     IOCPS.obj
 0002:00002320       __tryblocktable$??$_Buynode@ABUpiecewise_construct_t@std@@V?$tuple@ABG@2@V?$tuple@$$V@2@@?$_Tree_comp_alloc@V?$_Tmap_traits@GPAXU?$less@G@std@@V?$allocator@U?$pair@$$CBGPAX@std@@@2@$0A@@std@@@std@@QAEPAU?$_Tree_node@U?$pair@$$CBGPAX@std@@PAX@1@ABUpiecewise_construct_t@1@$$QAV?$tuple@ABG@1@$$QAV?$tuple@$$V@1@@Z 10011320     IOCPS.obj
 0002:00002334       __catchsym$??$_Buynode@ABUpiecewise_construct_t@std@@V?$tuple@ABG@2@V?$tuple@$$V@2@@?$_Tree_comp_alloc@V?$_Tmap_traits@GPAXU?$less@G@std@@V?$allocator@U?$pair@$$CBGPAX@std@@@2@$0A@@std@@@std@@QAEPAU?$_Tree_node@U?$pair@$$CBGPAX@std@@PAX@1@ABUpiecewise_construct_t@1@$$QAV?$tuple@ABG@1@$$QAV?$tuple@$$V@1@@Z$2 10011334     IOCPS.obj
 0002:00002344       __ehfuncinfo$??$_Insert_hint@AAU?$pair@$$CBGPAX@std@@PAU?$_Tree_node@U?$pair@$$CBGPAX@std@@PAX@2@@?$_Tree@V?$_Tmap_traits@GPAXU?$less@G@std@@V?$allocator@U?$pair@$$CBGPAX@std@@@2@$0A@@std@@@std@@IAE?AV?$_Tree_iterator@V?$_Tree_val@U?$_Tree_simple_types@U?$pair@$$CBGPAX@std@@@std@@@std@@@1@V?$_Tree_const_iterator@V?$_Tree_val@U?$_Tree_simple_types@U?$pair@$$CBGPAX@std@@@std@@@std@@@1@AAU?$pair@$$CBGPAX@1@PAU?$_Tree_node@U?$pair@$$CBGPAX@std@@PAX@1@@Z 10011344     IOCPS.obj
 0002:00002368       __unwindtable$??$_Insert_hint@AAU?$pair@$$CBGPAX@std@@PAU?$_Tree_node@U?$pair@$$CBGPAX@std@@PAX@2@@?$_Tree@V?$_Tmap_traits@GPAXU?$less@G@std@@V?$allocator@U?$pair@$$CBGPAX@std@@@2@$0A@@std@@@std@@IAE?AV?$_Tree_iterator@V?$_Tree_val@U?$_Tree_simple_types@U?$pair@$$CBGPAX@std@@@std@@@std@@@1@V?$_Tree_const_iterator@V?$_Tree_val@U?$_Tree_simple_types@U?$pair@$$CBGPAX@std@@@std@@@std@@@1@AAU?$pair@$$CBGPAX@1@PAU?$_Tree_node@U?$pair@$$CBGPAX@std@@PAX@1@@Z 10011368     IOCPS.obj
 0002:00002378       __tryblocktable$??$_Insert_hint@AAU?$pair@$$CBGPAX@std@@PAU?$_Tree_node@U?$pair@$$CBGPAX@std@@PAX@2@@?$_Tree@V?$_Tmap_traits@GPAXU?$less@G@std@@V?$allocator@U?$pair@$$CBGPAX@std@@@2@$0A@@std@@@std@@IAE?AV?$_Tree_iterator@V?$_Tree_val@U?$_Tree_simple_types@U?$pair@$$CBGPAX@std@@@std@@@std@@@1@V?$_Tree_const_iterator@V?$_Tree_val@U?$_Tree_simple_types@U?$pair@$$CBGPAX@std@@@std@@@std@@@1@AAU?$pair@$$CBGPAX@1@PAU?$_Tree_node@U?$pair@$$CBGPAX@std@@PAX@1@@Z 10011378     IOCPS.obj
 0002:0000238c       __catchsym$??$_Insert_hint@AAU?$pair@$$CBGPAX@std@@PAU?$_Tree_node@U?$pair@$$CBGPAX@std@@PAX@2@@?$_Tree@V?$_Tmap_traits@GPAXU?$less@G@std@@V?$allocator@U?$pair@$$CBGPAX@std@@@2@$0A@@std@@@std@@IAE?AV?$_Tree_iterator@V?$_Tree_val@U?$_Tree_simple_types@U?$pair@$$CBGPAX@std@@@std@@@std@@@1@V?$_Tree_const_iterator@V?$_Tree_val@U?$_Tree_simple_types@U?$pair@$$CBGPAX@std@@@std@@@std@@@1@AAU?$pair@$$CBGPAX@1@PAU?$_Tree_node@U?$pair@$$CBGPAX@std@@PAX@1@@Z$2 1001138c     IOCPS.obj
 0002:0000239c       __ehfuncinfo$??$_Buynode@ABUpiecewise_construct_t@std@@V?$tuple@ABI@2@V?$tuple@$$V@2@@?$_Tree_comp_alloc@V?$_Tmap_traits@IPAUClientContext@@U?$less@I@std@@V?$allocator@U?$pair@$$CBIPAUClientContext@@@std@@@3@$0A@@std@@@std@@QAEPAU?$_Tree_node@U?$pair@$$CBIPAUClientContext@@@std@@PAX@1@ABUpiecewise_construct_t@1@$$QAV?$tuple@ABI@1@$$QAV?$tuple@$$V@1@@Z 1001139c     IOCPS.obj
 0002:0000239c       __ehfuncinfo$??$_Buynode@ABUpiecewise_construct_t@std@@V?$tuple@ABI@2@V?$tuple@$$V@2@@?$_Tree_comp_alloc@V?$_Tmap_traits@IPAVCIOCPBuffer@@U?$less@I@std@@V?$allocator@U?$pair@$$CBIPAVCIOCPBuffer@@@std@@@3@$0A@@std@@@std@@QAEPAU?$_Tree_node@U?$pair@$$CBIPAVCIOCPBuffer@@@std@@PAX@1@ABUpiecewise_construct_t@1@$$QAV?$tuple@ABI@1@$$QAV?$tuple@$$V@1@@Z 1001139c     IOCPS.obj
 0002:000023c0       __unwindtable$??$_Buynode@ABUpiecewise_construct_t@std@@V?$tuple@ABI@2@V?$tuple@$$V@2@@?$_Tree_comp_alloc@V?$_Tmap_traits@IPAUClientContext@@U?$less@I@std@@V?$allocator@U?$pair@$$CBIPAUClientContext@@@std@@@3@$0A@@std@@@std@@QAEPAU?$_Tree_node@U?$pair@$$CBIPAUClientContext@@@std@@PAX@1@ABUpiecewise_construct_t@1@$$QAV?$tuple@ABI@1@$$QAV?$tuple@$$V@1@@Z 100113c0     IOCPS.obj
 0002:000023c0       __unwindtable$??$_Buynode@ABUpiecewise_construct_t@std@@V?$tuple@ABI@2@V?$tuple@$$V@2@@?$_Tree_comp_alloc@V?$_Tmap_traits@IPAVCIOCPBuffer@@U?$less@I@std@@V?$allocator@U?$pair@$$CBIPAVCIOCPBuffer@@@std@@@3@$0A@@std@@@std@@QAEPAU?$_Tree_node@U?$pair@$$CBIPAVCIOCPBuffer@@@std@@PAX@1@ABUpiecewise_construct_t@1@$$QAV?$tuple@ABI@1@$$QAV?$tuple@$$V@1@@Z 100113c0     IOCPS.obj
 0002:000023d0       __tryblocktable$??$_Buynode@ABUpiecewise_construct_t@std@@V?$tuple@ABI@2@V?$tuple@$$V@2@@?$_Tree_comp_alloc@V?$_Tmap_traits@IPAUClientContext@@U?$less@I@std@@V?$allocator@U?$pair@$$CBIPAUClientContext@@@std@@@3@$0A@@std@@@std@@QAEPAU?$_Tree_node@U?$pair@$$CBIPAUClientContext@@@std@@PAX@1@ABUpiecewise_construct_t@1@$$QAV?$tuple@ABI@1@$$QAV?$tuple@$$V@1@@Z 100113d0     IOCPS.obj
 0002:000023d0       __tryblocktable$??$_Buynode@ABUpiecewise_construct_t@std@@V?$tuple@ABI@2@V?$tuple@$$V@2@@?$_Tree_comp_alloc@V?$_Tmap_traits@IPAVCIOCPBuffer@@U?$less@I@std@@V?$allocator@U?$pair@$$CBIPAVCIOCPBuffer@@@std@@@3@$0A@@std@@@std@@QAEPAU?$_Tree_node@U?$pair@$$CBIPAVCIOCPBuffer@@@std@@PAX@1@ABUpiecewise_construct_t@1@$$QAV?$tuple@ABI@1@$$QAV?$tuple@$$V@1@@Z 100113d0     IOCPS.obj
 0002:000023e4       __catchsym$??$_Buynode@ABUpiecewise_construct_t@std@@V?$tuple@ABI@2@V?$tuple@$$V@2@@?$_Tree_comp_alloc@V?$_Tmap_traits@IPAUClientContext@@U?$less@I@std@@V?$allocator@U?$pair@$$CBIPAUClientContext@@@std@@@3@$0A@@std@@@std@@QAEPAU?$_Tree_node@U?$pair@$$CBIPAUClientContext@@@std@@PAX@1@ABUpiecewise_construct_t@1@$$QAV?$tuple@ABI@1@$$QAV?$tuple@$$V@1@@Z$2 100113e4     IOCPS.obj
 0002:000023e4       __catchsym$??$_Buynode@ABUpiecewise_construct_t@std@@V?$tuple@ABI@2@V?$tuple@$$V@2@@?$_Tree_comp_alloc@V?$_Tmap_traits@IPAVCIOCPBuffer@@U?$less@I@std@@V?$allocator@U?$pair@$$CBIPAVCIOCPBuffer@@@std@@@3@$0A@@std@@@std@@QAEPAU?$_Tree_node@U?$pair@$$CBIPAVCIOCPBuffer@@@std@@PAX@1@ABUpiecewise_construct_t@1@$$QAV?$tuple@ABI@1@$$QAV?$tuple@$$V@1@@Z$2 100113e4     IOCPS.obj
 0002:000023f4       __ehfuncinfo$??$_Insert_hint@AAU?$pair@$$CBIPAVCIOCPBuffer@@@std@@PAU?$_Tree_node@U?$pair@$$CBIPAVCIOCPBuffer@@@std@@PAX@2@@?$_Tree@V?$_Tmap_traits@IPAVCIOCPBuffer@@U?$less@I@std@@V?$allocator@U?$pair@$$CBIPAVCIOCPBuffer@@@std@@@3@$0A@@std@@@std@@IAE?AV?$_Tree_iterator@V?$_Tree_val@U?$_Tree_simple_types@U?$pair@$$CBIPAVCIOCPBuffer@@@std@@@std@@@std@@@1@V?$_Tree_const_iterator@V?$_Tree_val@U?$_Tree_simple_types@U?$pair@$$CBIPAVCIOCPBuffer@@@std@@@std@@@std@@@1@AAU?$pair@$$CBIPAVCIOCPBuffer@@@1@PAU?$_Tree_node@U?$pair@$$CBIPAVCIOCPBuffer@@@std@@PAX@1@@Z 100113f4     IOCPS.obj
 0002:000023f4       __ehfuncinfo$??$_Insert_hint@AAU?$pair@$$CBIPAUClientContext@@@std@@PAU?$_Tree_node@U?$pair@$$CBIPAUClientContext@@@std@@PAX@2@@?$_Tree@V?$_Tmap_traits@IPAUClientContext@@U?$less@I@std@@V?$allocator@U?$pair@$$CBIPAUClientContext@@@std@@@3@$0A@@std@@@std@@IAE?AV?$_Tree_iterator@V?$_Tree_val@U?$_Tree_simple_types@U?$pair@$$CBIPAUClientContext@@@std@@@std@@@std@@@1@V?$_Tree_const_iterator@V?$_Tree_val@U?$_Tree_simple_types@U?$pair@$$CBIPAUClientContext@@@std@@@std@@@std@@@1@AAU?$pair@$$CBIPAUClientContext@@@1@PAU?$_Tree_node@U?$pair@$$CBIPAUClientContext@@@std@@PAX@1@@Z 100113f4     IOCPS.obj
 0002:00002418       __unwindtable$??$_Insert_hint@AAU?$pair@$$CBIPAUClientContext@@@std@@PAU?$_Tree_node@U?$pair@$$CBIPAUClientContext@@@std@@PAX@2@@?$_Tree@V?$_Tmap_traits@IPAUClientContext@@U?$less@I@std@@V?$allocator@U?$pair@$$CBIPAUClientContext@@@std@@@3@$0A@@std@@@std@@IAE?AV?$_Tree_iterator@V?$_Tree_val@U?$_Tree_simple_types@U?$pair@$$CBIPAUClientContext@@@std@@@std@@@std@@@1@V?$_Tree_const_iterator@V?$_Tree_val@U?$_Tree_simple_types@U?$pair@$$CBIPAUClientContext@@@std@@@std@@@std@@@1@AAU?$pair@$$CBIPAUClientContext@@@1@PAU?$_Tree_node@U?$pair@$$CBIPAUClientContext@@@std@@PAX@1@@Z 10011418     IOCPS.obj
 0002:00002418       __unwindtable$??$_Insert_hint@AAU?$pair@$$CBIPAVCIOCPBuffer@@@std@@PAU?$_Tree_node@U?$pair@$$CBIPAVCIOCPBuffer@@@std@@PAX@2@@?$_Tree@V?$_Tmap_traits@IPAVCIOCPBuffer@@U?$less@I@std@@V?$allocator@U?$pair@$$CBIPAVCIOCPBuffer@@@std@@@3@$0A@@std@@@std@@IAE?AV?$_Tree_iterator@V?$_Tree_val@U?$_Tree_simple_types@U?$pair@$$CBIPAVCIOCPBuffer@@@std@@@std@@@std@@@1@V?$_Tree_const_iterator@V?$_Tree_val@U?$_Tree_simple_types@U?$pair@$$CBIPAVCIOCPBuffer@@@std@@@std@@@std@@@1@AAU?$pair@$$CBIPAVCIOCPBuffer@@@1@PAU?$_Tree_node@U?$pair@$$CBIPAVCIOCPBuffer@@@std@@PAX@1@@Z 10011418     IOCPS.obj
 0002:00002428       __tryblocktable$??$_Insert_hint@AAU?$pair@$$CBIPAVCIOCPBuffer@@@std@@PAU?$_Tree_node@U?$pair@$$CBIPAVCIOCPBuffer@@@std@@PAX@2@@?$_Tree@V?$_Tmap_traits@IPAVCIOCPBuffer@@U?$less@I@std@@V?$allocator@U?$pair@$$CBIPAVCIOCPBuffer@@@std@@@3@$0A@@std@@@std@@IAE?AV?$_Tree_iterator@V?$_Tree_val@U?$_Tree_simple_types@U?$pair@$$CBIPAVCIOCPBuffer@@@std@@@std@@@std@@@1@V?$_Tree_const_iterator@V?$_Tree_val@U?$_Tree_simple_types@U?$pair@$$CBIPAVCIOCPBuffer@@@std@@@std@@@std@@@1@AAU?$pair@$$CBIPAVCIOCPBuffer@@@1@PAU?$_Tree_node@U?$pair@$$CBIPAVCIOCPBuffer@@@std@@PAX@1@@Z 10011428     IOCPS.obj
 0002:00002428       __tryblocktable$??$_Insert_hint@AAU?$pair@$$CBIPAUClientContext@@@std@@PAU?$_Tree_node@U?$pair@$$CBIPAUClientContext@@@std@@PAX@2@@?$_Tree@V?$_Tmap_traits@IPAUClientContext@@U?$less@I@std@@V?$allocator@U?$pair@$$CBIPAUClientContext@@@std@@@3@$0A@@std@@@std@@IAE?AV?$_Tree_iterator@V?$_Tree_val@U?$_Tree_simple_types@U?$pair@$$CBIPAUClientContext@@@std@@@std@@@std@@@1@V?$_Tree_const_iterator@V?$_Tree_val@U?$_Tree_simple_types@U?$pair@$$CBIPAUClientContext@@@std@@@std@@@std@@@1@AAU?$pair@$$CBIPAUClientContext@@@1@PAU?$_Tree_node@U?$pair@$$CBIPAUClientContext@@@std@@PAX@1@@Z 10011428     IOCPS.obj
 0002:0000243c       __catchsym$??$_Insert_hint@AAU?$pair@$$CBIPAUClientContext@@@std@@PAU?$_Tree_node@U?$pair@$$CBIPAUClientContext@@@std@@PAX@2@@?$_Tree@V?$_Tmap_traits@IPAUClientContext@@U?$less@I@std@@V?$allocator@U?$pair@$$CBIPAUClientContext@@@std@@@3@$0A@@std@@@std@@IAE?AV?$_Tree_iterator@V?$_Tree_val@U?$_Tree_simple_types@U?$pair@$$CBIPAUClientContext@@@std@@@std@@@std@@@1@V?$_Tree_const_iterator@V?$_Tree_val@U?$_Tree_simple_types@U?$pair@$$CBIPAUClientContext@@@std@@@std@@@std@@@1@AAU?$pair@$$CBIPAUClientContext@@@1@PAU?$_Tree_node@U?$pair@$$CBIPAUClientContext@@@std@@PAX@1@@Z$2 1001143c     IOCPS.obj
 0002:0000243c       __catchsym$??$_Insert_hint@AAU?$pair@$$CBIPAVCIOCPBuffer@@@std@@PAU?$_Tree_node@U?$pair@$$CBIPAVCIOCPBuffer@@@std@@PAX@2@@?$_Tree@V?$_Tmap_traits@IPAVCIOCPBuffer@@U?$less@I@std@@V?$allocator@U?$pair@$$CBIPAVCIOCPBuffer@@@std@@@3@$0A@@std@@@std@@IAE?AV?$_Tree_iterator@V?$_Tree_val@U?$_Tree_simple_types@U?$pair@$$CBIPAVCIOCPBuffer@@@std@@@std@@@std@@@1@V?$_Tree_const_iterator@V?$_Tree_val@U?$_Tree_simple_types@U?$pair@$$CBIPAVCIOCPBuffer@@@std@@@std@@@std@@@1@AAU?$pair@$$CBIPAVCIOCPBuffer@@@1@PAU?$_Tree_node@U?$pair@$$CBIPAVCIOCPBuffer@@@std@@PAX@1@@Z$2 1001143c     IOCPS.obj
 0002:0000244c       __ehfuncinfo$??$construct@U?$pair@$$CBIPAVCIOCPBuffer@@@std@@ABUpiecewise_construct_t@2@V?$tuple@ABI@2@V?$tuple@$$V@2@@?$allocator@U?$_Tree_node@U?$pair@$$CBIPAVCIOCPBuffer@@@std@@PAX@std@@@std@@QAEXPAU?$pair@$$CBIPAVCIOCPBuffer@@@1@ABUpiecewise_construct_t@1@$$QAV?$tuple@ABI@1@$$QAV?$tuple@$$V@1@@Z 1001144c     IOCPS.obj
 0002:0000244c       __ehfuncinfo$??$construct@U?$pair@$$CBGPAX@std@@ABUpiecewise_construct_t@2@V?$tuple@ABG@2@V?$tuple@$$V@2@@?$allocator@U?$_Tree_node@U?$pair@$$CBGPAX@std@@PAX@std@@@std@@QAEXPAU?$pair@$$CBGPAX@1@ABUpiecewise_construct_t@1@$$QAV?$tuple@ABG@1@$$QAV?$tuple@$$V@1@@Z 1001144c     IOCPS.obj
 0002:0000244c       __ehfuncinfo$??$construct@U?$pair@$$CBIPAUClientContext@@@std@@ABUpiecewise_construct_t@2@V?$tuple@ABI@2@V?$tuple@$$V@2@@?$allocator@U?$_Tree_node@U?$pair@$$CBIPAUClientContext@@@std@@PAX@std@@@std@@QAEXPAU?$pair@$$CBIPAUClientContext@@@1@ABUpiecewise_construct_t@1@$$QAV?$tuple@ABI@1@$$QAV?$tuple@$$V@1@@Z 1001144c     IOCPS.obj
 0002:00002470       __unwindtable$??$construct@U?$pair@$$CBIPAVCIOCPBuffer@@@std@@ABUpiecewise_construct_t@2@V?$tuple@ABI@2@V?$tuple@$$V@2@@?$allocator@U?$_Tree_node@U?$pair@$$CBIPAVCIOCPBuffer@@@std@@PAX@std@@@std@@QAEXPAU?$pair@$$CBIPAVCIOCPBuffer@@@1@ABUpiecewise_construct_t@1@$$QAV?$tuple@ABI@1@$$QAV?$tuple@$$V@1@@Z 10011470     IOCPS.obj
 0002:00002470       __unwindtable$??$construct@U?$pair@$$CBIPAUClientContext@@@std@@ABUpiecewise_construct_t@2@V?$tuple@ABI@2@V?$tuple@$$V@2@@?$allocator@U?$_Tree_node@U?$pair@$$CBIPAUClientContext@@@std@@PAX@std@@@std@@QAEXPAU?$pair@$$CBIPAUClientContext@@@1@ABUpiecewise_construct_t@1@$$QAV?$tuple@ABI@1@$$QAV?$tuple@$$V@1@@Z 10011470     IOCPS.obj
 0002:00002470       __unwindtable$??$construct@U?$pair@$$CBGPAX@std@@ABUpiecewise_construct_t@2@V?$tuple@ABG@2@V?$tuple@$$V@2@@?$allocator@U?$_Tree_node@U?$pair@$$CBGPAX@std@@PAX@std@@@std@@QAEXPAU?$pair@$$CBGPAX@1@ABUpiecewise_construct_t@1@$$QAV?$tuple@ABG@1@$$QAV?$tuple@$$V@1@@Z 10011470     IOCPS.obj
 0002:00002478       __ehfuncinfo$??0ITIOCP@@QAE@XZ 10011478     MyIOCP.obj
 0002:0000249c       __unwindtable$??0ITIOCP@@QAE@XZ 1001149c     MyIOCP.obj
 0002:000024b4       __ehfuncinfo$?BuildPackageAndSend@ITIOCP@@QAEHPAUClientContext@@V?$basic_string@DU?$char_traits@D@std@@V?$allocator@D@2@@std@@@Z 100114b4     MyIOCP.obj
 0002:000024d8       __unwindtable$?BuildPackageAndSend@ITIOCP@@QAEHPAUClientContext@@V?$basic_string@DU?$char_traits@D@std@@V?$allocator@D@2@@std@@@Z 100114d8     MyIOCP.obj
 0002:000024e0       __ehfuncinfo$?CreateServerSocket@@YGPAVSocket@@XZ 100114e0     MyIOCP.obj
 0002:00002504       __unwindtable$?CreateServerSocket@@YGPAVSocket@@XZ 10011504     MyIOCP.obj
 0002:0000250c       __ehfuncinfo$?CreateClientSocket@@YGPAVSocket@@XZ 1001150c     MyIOCP.obj
 0002:00002530       __unwindtable$?CreateClientSocket@@YGPAVSocket@@XZ 10011530     MyIOCP.obj
 0002:00002538       __ehfuncinfo$??0?$basic_string@DU?$char_traits@D@std@@V?$allocator@D@2@@std@@QAE@ABV01@@Z 10011538     MyIOCP.obj
 0002:0000255c       __unwindtable$??0?$basic_string@DU?$char_traits@D@std@@V?$allocator@D@2@@std@@QAE@ABV01@@Z 1001155c     MyIOCP.obj
 0002:00002568       __sehtable$?dllmain_crt_process_attach@@YAHQAUHINSTANCE__@@QAX@Z 10011568     MSVCRT:dll_dllmain.obj
 0002:00002588       __sehtable$?dllmain_crt_process_detach@@YAH_N@Z 10011588     MSVCRT:dll_dllmain.obj
 0002:000025a8       __sehtable$?dllmain_dispatch@@YAHQAUHINSTANCE__@@KQAX@Z 100115a8     MSVCRT:dll_dllmain.obj
 0002:00002658       __sehtable$___scrt_is_nonwritable_in_current_image 10011658     MSVCRT:utility.obj
 0002:00002680       .edata                     10011680     Socket.exp
 0002:000026a8       rgpv                       100116a8     Socket.exp
 0002:000026b8       rgszName                   100116b8     Socket.exp
 0002:000026c8       rgwOrd                     100116c8     Socket.exp
 0002:000026d0       szName                     100116d0     Socket.exp
 0002:000026db       $N00001                    100116db     Socket.exp
 0002:00002700       $N00002                    10011700     Socket.exp
 0002:00002725       $N00003                    10011725     Socket.exp
 0002:0000274c       $N00004                    1001174c     Socket.exp
 0002:00002a0e       .idata$6                   10011a0e     ws2_32:WS2_32.dll
 0002:00002a38       .idata$6                   10011a38     xlogger:xLogger.dll
 0002:00002b92       .idata$6                   10011b92     kernel32:KERNEL32.dll
 0002:00002bfa       .idata$6                   10011bfa     msvcprt:MSVCP140.dll
 0002:00002caa       .idata$6                   10011caa     vcruntime:VCRUNTIME140.dll
 0002:00002de2       .idata$6                   10011de2     ucrt:api-ms-win-crt-runtime-l1-1-0.dll
 0002:00002e04       .idata$6                   10011e04     ucrt:api-ms-win-crt-heap-l1-1-0.dll
 0003:000000f8       ?__proc_attached@@3HA      100120f8     MSVCRT:dll_dllmain.obj
 0003:00000100       _GS_ExceptionRecord        10012100     MSVCRT:gs_report.obj
 0003:00000150       _GS_ContextRecord          10012150     MSVCRT:gs_report.obj
 0003:00000424       ?module_local_atexit_table@@3U_onexit_table_t@@A 10012424     MSVCRT:utility.obj
 0003:00000430       ?module_local_at_quick_exit_table@@3U_onexit_table_t@@A 10012430     MSVCRT:utility.obj
 0003:0000043c       ?is_initialized_as_dll@@3_NA 1001243c     MSVCRT:utility.obj
 0004:00000000       __guard_fids__             10013000     MSVCRT:std_type_info_static.obj
 0004:00000004       __guard_fids_?dllmain_crt_process_attach@@YAHQAUHINSTANCE__@@QAX@Z 10013004     MSVCRT:dll_dllmain.obj
 0004:0000000c       __guard_fids_?dllmain_dispatch@@YAHQAUHINSTANCE__@@KQAX@Z 1001300c     MSVCRT:dll_dllmain.obj
 0004:00000010       __guard_fids__             10013010     MSVCRT:throw_bad_alloc.obj
 0004:00000018       __guard_fids__             10013018     MSVCRT:throw_bad_alloc.obj
 0004:00000020       __guard_fids__             10013020     MSVCRT:throw_bad_alloc.obj
 0004:00000028       __guard_fids__             10013028     MSVCRT:throw_bad_alloc.obj
 0004:0000002c       __guard_fids__             1001302c     MSVCRT:throw_bad_alloc.obj
 0004:00000030       __guard_fids__             10013030     MSVCRT:throw_bad_alloc.obj
 0004:00000034       __guard_fids__             10013034     MSVCRT:throw_bad_alloc.obj
 0004:00000038       __guard_fids__             10013038     MSVCRT:throw_bad_alloc.obj
 0004:0000003c       __guard_fids___except_handler4 1001303c     MSVCRT:_chandler4gs_.obj
 0004:00000040       __guard_fids__             10013040     MSVCRT:guard_support.obj
 0005:000000a0       $R000000                   100140a0     Socket1.res
 0005:000003c0       $R000320                   100143c0     Socket1.res
