 ProtocolLib

 Timestamp is 595de3c8 (Thu Jul  6 12:46:24 2017)

 Preferred load address is 10000000

 Start         Length     Name                   Class
 0001:00000000 00000020H .text$di                CODE
 0001:00000020 000266d0H .text$mn                CODE
 0001:000266f0 00002810H .text$x                 CODE
 0001:00028f00 0000000aH .text$yd                CODE
 0002:00000000 00000280H .idata$5                DATA
 0002:00000280 00000004H .00cfg                  DATA
 0002:00000284 00000004H .CRT$XCA                DATA
 0002:00000288 00000004H .CRT$XCL                DATA
 0002:0000028c 00000000H .CRT$XCU                DATA
 0002:0000028c 00000004H .CRT$XCZ                DATA
 0002:00000290 00000004H .CRT$XIA                DATA
 0002:00000294 00000004H .CRT$XIC                DATA
 0002:00000298 00000004H .CRT$XIZ                DATA
 0002:0000029c 00000004H .CRT$XLA                DATA
 0002:000002a0 00000004H .CRT$XLZ                DATA
 0002:000002a4 00000004H .CRT$XPA                DATA
 0002:000002a8 00000004H .CRT$XPZ                DATA
 0002:000002ac 00000004H .CRT$XTA                DATA
 0002:000002b0 00000010H .CRT$XTZ                DATA
 0002:000002c0 0000458cH .rdata                  DATA
 0002:0000484c 00000018H .rdata$T                DATA
 0002:00004864 0000076cH .rdata$r                DATA
 0002:00004fd0 000000d4H .rdata$sxdata           DATA
 0002:000050a4 0000038cH .rdata$zzzdbg           DATA
 0002:00005430 00000004H .rtc$IAA                DATA
 0002:00005434 00000004H .rtc$IZZ                DATA
 0002:00005438 00000004H .rtc$TAA                DATA
 0002:0000543c 00000004H .rtc$TZZ                DATA
 0002:00005440 00002690H .xdata$x                DATA
 0002:00007ac8 00000000H ATL$__a                 DATA
 0002:00007ac8 00000000H ATL$__z                 DATA
 0002:00007ad0 00000124H .edata                  DATA
 0002:00007bf4 00000118H .idata$2                DATA
 0002:00007d0c 00000014H .idata$3                DATA
 0002:00007d20 00000280H .idata$4                DATA
 0002:00007fa0 0000170cH .idata$6                DATA
 0003:00000000 00000038H .data                   DATA
 0003:00000038 00000408H .data$r                 DATA
 0003:00000440 000003e4H .bss                    DATA
 0004:00000000 00000004H .tls                    DATA
 0004:00000004 00000004H .tls$                   DATA
 0004:00000008 00000001H .tls$ZZZ                DATA
 0005:00000000 00000048H .gfids$y                DATA
 0006:00000000 000000a0H .rsrc$01                DATA
 0006:000000a0 000004a8H .rsrc$02                DATA

  Address         Publics by Value              Rva+Base       Lib:Object

 0000:00000000       ___guard_fids_count        00000000     <absolute>
 0000:00000000       ___guard_iat_count         00000000     <absolute>
 0000:00000000       ___guard_iat_table         00000000     <absolute>
 0000:00000000       ___guard_longjmp_table     00000000     <absolute>
 0000:00000000       ___guard_longjmp_count     00000000     <absolute>
 0000:00000000       ___dynamic_value_reloc_table 00000000     <absolute>
 0000:00000000       ___guard_fids_table        00000000     <absolute>
 0000:0000002c       __tls_array                0000002c     <absolute>
 0000:00000035       ___safe_se_handler_count   00000035     <absolute>
 0000:00000100       ___guard_flags             00000100     <absolute>
 0000:00000000       ___ImageBase               10000000     <linker-defined>
 0001:00000020       _HRESULT_FROM_WIN32        10001020 f i ClientProtocolImpl.obj
 0001:00000060       ??0exception@std@@QAE@QBD@Z 10001060 f i ClientProtocolImpl.obj
 0001:000000b0       ??0exception@std@@QAE@ABV01@@Z 100010b0 f i ClientProtocolImpl.obj
 0001:000000f0       ??1exception@std@@UAE@XZ   100010f0 f i ClientProtocolImpl.obj
 0001:00000120       ?what@exception@std@@UBEPBDXZ 10001120 f i ClientProtocolImpl.obj
 0001:00000150       ??_Gexception@std@@UAEPAXI@Z 10001150 f i ClientProtocolImpl.obj
 0001:00000150       ??_Eexception@std@@UAEPAXI@Z 10001150 f i * CIL library *:* CIL module *
 0001:00000180       ??2@YAPAXIPAX@Z            10001180 f i ClientProtocolImpl.obj
 0001:00000190       ?length@?$char_traits@D@std@@SAIPBD@Z 10001190 f i ClientProtocolImpl.obj
 0001:000001e0       ?copy@?$char_traits@D@std@@SAPADPADPBDI@Z 100011e0 f i ClientProtocolImpl.obj
 0001:00000210       ?move@?$char_traits@D@std@@SAPADPADPBDI@Z 10001210 f i ClientProtocolImpl.obj
 0001:00000250       ?assign@?$char_traits@D@std@@SAXAADABD@Z 10001250 f i ClientProtocolImpl.obj
 0001:00000260       ?_Allocate@std@@YAPAXII_N@Z 10001260 f i ClientProtocolImpl.obj
 0001:00000320       ?_Deallocate@std@@YAXPAXII@Z 10001320 f i ClientProtocolImpl.obj
 0001:000003c0       ??1IClientProtocol@@UAE@XZ 100013c0 f i ClientProtocolImpl.obj
 0001:000003e0       ??_EIClientProtocol@@UAEPAXI@Z 100013e0 f i * CIL library *:* CIL module *
 0001:000003e0       ??_GIClientProtocol@@UAEPAXI@Z 100013e0 f i ClientProtocolImpl.obj
 0001:00000410       ?_AtlInitializeCriticalSectionEx@ATL@@YAHPAU_RTL_CRITICAL_SECTION@@KK@Z 10001410 f i ClientProtocolImpl.obj
 0001:00000430       ?Init@CComCriticalSection@ATL@@QAEJXZ 10001430 f i ClientProtocolImpl.obj
 0001:00000470       ??0CTimeSpan@ATL@@QAE@_J@Z 10001470 f i ClientProtocolImpl.obj
 0001:00000470       ??0CTime@ATL@@QAE@_J@Z     10001470 f i ClientProtocolImpl.obj
 0001:00000490       ?GetTotalSeconds@CTimeSpan@ATL@@QBE_JXZ 10001490 f i ClientProtocolImpl.obj
 0001:000004b0       ?GetTickCount@CTime@ATL@@SG?AV12@XZ 100014b0 f i ClientProtocolImpl.obj
 0001:000004d0       ??0CTime@ATL@@QAE@XZ       100014d0 f i ClientProtocolImpl.obj
 0001:000004f0       ??GCTime@ATL@@QBE?AVCTimeSpan@1@V01@@Z 100014f0 f i ClientProtocolImpl.obj
 0001:000009a0       ??0ClientProtocol@@QAE@XZ  100019a0 f   ClientProtocolImpl.obj
 0001:00000b00       ??_EClientProtocol@@UAEPAXI@Z 10001b00 f i * CIL library *:* CIL module *
 0001:00000b00       ??_GClientProtocol@@UAEPAXI@Z 10001b00 f i ClientProtocolImpl.obj
 0001:00000b40       ??0IClientProtocol@@QAE@XZ 10001b40 f i ClientProtocolImpl.obj
 0001:00000b60       ??0ISocketEvents@@QAE@XZ   10001b60 f i ClientProtocolImpl.obj
 0001:00000b80       ??1ClientProtocol@@UAE@XZ  10001b80 f   ClientProtocolImpl.obj
 0001:00000c10       ?Connect@ClientProtocol@@UAE_NPADGI@Z 10001c10 f   ClientProtocolImpl.obj
 0001:00000d40       ?Send@ClientProtocol@@UAE_NIPAXI@Z 10001d40 f   ClientProtocolImpl.obj
 0001:00000dd0       ?HeartbeatToBeSent@ClientProtocol@@UAEHXZ 10001dd0 f   ClientProtocolImpl.obj
 0001:00000e40       ?RegisterClient@ClientProtocol@@UAEXPAVIClientProtocolEvents@@@Z 10001e40 f   ClientProtocolImpl.obj
 0001:00000e40       ?RegisterServerEvents@ServerProtocol@@UAEXPAVIServerProtocolEvents@@@Z 10001e40 f   ServerProtocolImpl.obj
 0001:00000e60       ?Disconnect@ClientProtocol@@UAE_NXZ 10001e60 f   ClientProtocolImpl.obj
 0001:00000eb0       ?OnConnect@ClientProtocol@@UAEXI_NPADG@Z 10001eb0 f   ClientProtocolImpl.obj
 0001:00000f30       ?OnReceive@ClientProtocol@@UAEXIPADI@Z 10001f30 f   ClientProtocolImpl.obj
 0001:00000f60       ?OnSend@ClientProtocol@@UAEXIIW4SocketError@@@Z 10001f60 f   ClientProtocolImpl.obj
 0001:00000fb0       ?CreateClientProtocol@@YGPAVIClientProtocol@@XZ 10001fb0 f   ClientProtocolImpl.obj
 0001:00001020       ?ReleaseClientProtocol@@YGXPAVIClientProtocol@@@Z 10002020 f   ClientProtocolImpl.obj
 0001:00001060       ?IsShutdown@ClientProtocol@@UAE_NXZ 10002060 f   ClientProtocolImpl.obj
 0001:00001080       ?CheckConnectionStatus@ClientProtocol@@UAE_NXZ 10002080 f   ClientProtocolImpl.obj
 0001:000010c0       ?Connect@ClientProtocol@@UAE_NXZ 100020c0 f   ClientProtocolImpl.obj
 0001:00001100       ?GetConnectionStatus@ClientProtocol@@UAEHXZ 10002100 f   ClientProtocolImpl.obj
 0001:00001100       ?GetClientSessionManager@ServerProtocol@@UAEPAVIClientSessionMgr@@XZ 10002100 f   ServerProtocolImpl.obj
 0001:00001120       ?ConnectionMonitor@ClientProtocol@@SAKPAX@Z 10002120 f   ClientProtocolImpl.obj
 0001:000011a0       ??1?$basic_string@DU?$char_traits@D@std@@V?$allocator@D@2@@std@@QAE@XZ 100021a0 f i ClientProtocolImpl.obj
 0001:000011f0       ??0?$basic_string@DU?$char_traits@D@std@@V?$allocator@D@2@@std@@QAE@PBD@Z 100021f0 f i ClientProtocolImpl.obj
 0001:00001260       ??1?$_String_alloc@U?$_String_base_types@_WV?$allocator@_W@std@@@std@@@std@@QAE@XZ 10002260 f i JSONHandler.obj
 0001:00001260       ??1?$_String_alloc@U?$_String_base_types@DV?$allocator@D@std@@@std@@@std@@QAE@XZ 10002260 f i ClientProtocolImpl.obj
 0001:00001280       ??1?$_Compressed_pair@U?$_Wrap_alloc@V?$allocator@D@std@@@std@@V?$_String_val@U?$_Simple_types@D@std@@@2@$00@std@@QAE@XZ 10002280 f i ClientProtocolImpl.obj
 0001:00001280       ??1?$_Compressed_pair@U?$_Wrap_alloc@V?$allocator@_W@std@@@std@@V?$_String_val@U?$_Simple_types@_W@std@@@2@$00@std@@QAE@XZ 10002280 f i JSONHandler.obj
 0001:000012a0       ??1?$_String_val@U?$_Simple_types@_W@std@@@std@@QAE@XZ 100022a0 f i JSONHandler.obj
 0001:000012a0       ??1?$_String_val@U?$_Simple_types@D@std@@@std@@QAE@XZ 100022a0 f i ClientProtocolImpl.obj
 0001:000012c0       ??1_Bxty@?$_String_val@U?$_Simple_types@D@std@@@std@@QAE@XZ 100022c0 f i ClientProtocolImpl.obj
 0001:000012c0       ??1_Bxty@?$_String_val@U?$_Simple_types@_W@std@@@std@@QAE@XZ 100022c0 f i JSONHandler.obj
 0001:000012d0       ?_Mysize@?$_String_alloc@U?$_String_base_types@_WV?$allocator@_W@std@@@std@@@std@@QAEAAIXZ 100022d0 f i JSONHandler.obj
 0001:000012d0       ?_Mysize@?$_String_alloc@U?$_String_base_types@DV?$allocator@D@std@@@std@@@std@@QAEAAIXZ 100022d0 f i ClientProtocolImpl.obj
 0001:000012d0       ?_Mysize@?$_String_alloc@U?$_String_base_types@DV?$allocator@D@std@@@std@@@std@@QBEABIXZ 100022d0 f i ClientProtocolImpl.obj
 0001:000012d0       ?_Mysize@?$_String_alloc@U?$_String_base_types@_WV?$allocator@_W@std@@@std@@@std@@QBEABIXZ 100022d0 f i JSONHandler.obj
 0001:000012f0       ?_Getcomp@?$_Tree_comp_alloc@V?$_Tmap_traits@IPAVIClientSession@@U?$less@I@std@@V?$allocator@U?$pair@$$CBIPAVIClientSession@@@std@@@3@$0A@@std@@@std@@QBEABU?$less@I@2@XZ 100022f0 f i ClientSession.obj
 0001:000012f0       ?_Get_data@?$_List_alloc@U?$_List_base_types@PAVIClientSession@@V?$allocator@PAVIClientSession@@@std@@@std@@@std@@QAEAAV?$_List_val@U?$_List_simple_types@PAVIClientSession@@@std@@@2@XZ 100022f0 f i ClientSession.obj
 0001:000012f0       ?_Get_data@?$_String_alloc@U?$_String_base_types@_WV?$allocator@_W@std@@@std@@@std@@QBEABV?$_String_val@U?$_Simple_types@_W@std@@@2@XZ 100022f0 f i JSONHandler.obj
 0001:000012f0       ?_Get_data@?$_List_alloc@U?$_List_base_types@IV?$allocator@I@std@@@std@@@std@@QBEABV?$_List_val@U?$_List_simple_types@I@std@@@2@XZ 100022f0 f i ClientSession.obj
 0001:000012f0       ?_Get_data@?$_String_alloc@U?$_String_base_types@DV?$allocator@D@std@@@std@@@std@@QBEABV?$_String_val@U?$_Simple_types@D@std@@@2@XZ 100022f0 f i ClientProtocolImpl.obj
 0001:000012f0       ?_Getal@?$_String_alloc@U?$_String_base_types@DV?$allocator@D@std@@@std@@@std@@QBEABU?$_Wrap_alloc@V?$allocator@D@std@@@2@XZ 100022f0 f i ClientProtocolImpl.obj
 0001:000012f0       ?_Getcomp@?$_Tree_comp_alloc@V?$_Tmap_traits@IPAVIClientSession@@U?$less@I@std@@V?$allocator@U?$pair@$$CBIPAVIClientSession@@@std@@@3@$0A@@std@@@std@@QAEAAU?$less@I@2@XZ 100022f0 f i ClientSession.obj
 0001:000012f0       ?_Get_data@?$_String_alloc@U?$_String_base_types@_WV?$allocator@_W@std@@@std@@@std@@QAEAAV?$_String_val@U?$_Simple_types@_W@std@@@2@XZ 100022f0 f i JSONHandler.obj
 0001:000012f0       ?_Getal@?$_List_alloc@U?$_List_base_types@PAVIAccount@@V?$allocator@PAVIAccount@@@std@@@std@@@std@@QBEABU?$_Wrap_alloc@V?$allocator@U?$_List_node@PAVIAccount@@PAX@std@@@std@@@2@XZ 100022f0 f i ClientSession.obj
 0001:000012f0       ?_Getal@?$_String_alloc@U?$_String_base_types@DV?$allocator@D@std@@@std@@@std@@QAEAAU?$_Wrap_alloc@V?$allocator@D@std@@@2@XZ 100022f0 f i ClientProtocolImpl.obj
 0001:000012f0       ?_Getcomp@?$_Tree_comp_alloc@V?$_Tmap_traits@V?$basic_string@DU?$char_traits@D@std@@V?$allocator@D@2@@std@@V?$list@IV?$allocator@I@std@@@2@U?$less@V?$basic_string@DU?$char_traits@D@std@@V?$allocator@D@2@@std@@@2@V?$allocator@U?$pair@$$CBV?$basic_string@DU?$char_traits@D@std@@V?$allocator@D@2@@std@@V?$list@IV?$allocator@I@std@@@2@@std@@@2@$0A@@std@@@std@@QAEAAU?$less@V?$basic_string@DU?$char_traits@D@std@@V?$allocator@D@2@@std@@@2@XZ 100022f0 f i ClientSession.obj
 0001:000012f0       ?_Getal@?$_List_alloc@U?$_List_base_types@IV?$allocator@I@std@@@std@@@std@@QBEABU?$_Wrap_alloc@V?$allocator@U?$_List_node@IPAX@std@@@std@@@2@XZ 100022f0 f i ClientSession.obj
 0001:000012f0       ?get_deleter@?$_Unique_ptr_base@V_Value@details@json@web@@U?$default_delete@V_Value@details@json@web@@@std@@@std@@QAEAAU?$default_delete@V_Value@details@json@web@@@2@XZ 100022f0 f i JSONHandler.obj
 0001:000012f0       ?_Getal@?$_List_alloc@U?$_List_base_types@IV?$allocator@I@std@@@std@@@std@@QAEAAU?$_Wrap_alloc@V?$allocator@U?$_List_node@IPAX@std@@@std@@@2@XZ 100022f0 f i ClientSession.obj
 0001:000012f0       ?_Get_data@?$_List_alloc@U?$_List_base_types@PAVIAccount@@V?$allocator@PAVIAccount@@@std@@@std@@@std@@QBEABV?$_List_val@U?$_List_simple_types@PAVIAccount@@@std@@@2@XZ 100022f0 f i ClientSession.obj
 0001:000012f0       ?_Get_data@?$_List_alloc@U?$_List_base_types@PAVIAccount@@V?$allocator@PAVIAccount@@@std@@@std@@@std@@QAEAAV?$_List_val@U?$_List_simple_types@PAVIAccount@@@std@@@2@XZ 100022f0 f i ClientSession.obj
 0001:000012f0       ?_Get_data@?$_String_alloc@U?$_String_base_types@DV?$allocator@D@std@@@std@@@std@@QAEAAV?$_String_val@U?$_Simple_types@D@std@@@2@XZ 100022f0 f i ClientProtocolImpl.obj
 0001:000012f0       ?_Getal@?$_String_alloc@U?$_String_base_types@_WV?$allocator@_W@std@@@std@@@std@@QBEABU?$_Wrap_alloc@V?$allocator@_W@std@@@2@XZ 100022f0 f i JSONHandler.obj
 0001:000012f0       ?_Getal@?$_String_alloc@U?$_String_base_types@_WV?$allocator@_W@std@@@std@@@std@@QAEAAU?$_Wrap_alloc@V?$allocator@_W@std@@@2@XZ 100022f0 f i JSONHandler.obj
 0001:000012f0       ?_Getcomp@?$_Tree_comp_alloc@V?$_Tmap_traits@V?$basic_string@DU?$char_traits@D@std@@V?$allocator@D@2@@std@@V?$list@IV?$allocator@I@std@@@2@U?$less@V?$basic_string@DU?$char_traits@D@std@@V?$allocator@D@2@@std@@@2@V?$allocator@U?$pair@$$CBV?$basic_string@DU?$char_traits@D@std@@V?$allocator@D@2@@std@@V?$list@IV?$allocator@I@std@@@2@@std@@@2@$0A@@std@@@std@@QBEABU?$less@V?$basic_string@DU?$char_traits@D@std@@V?$allocator@D@2@@std@@@2@XZ 100022f0 f i ClientSession.obj
 0001:000012f0       ?_Getal@?$_List_alloc@U?$_List_base_types@PAVIClientSession@@V?$allocator@PAVIClientSession@@@std@@@std@@@std@@QAEAAU?$_Wrap_alloc@V?$allocator@U?$_List_node@PAVIClientSession@@PAX@std@@@std@@@2@XZ 100022f0 f i ClientSession.obj
 0001:000012f0       ?_Getal@?$_List_alloc@U?$_List_base_types@PAVIClientSession@@V?$allocator@PAVIClientSession@@@std@@@std@@@std@@QBEABU?$_Wrap_alloc@V?$allocator@U?$_List_node@PAVIClientSession@@PAX@std@@@std@@@2@XZ 100022f0 f i ClientSession.obj
 0001:000012f0       ?_Myptr@?$_Unique_ptr_base@V_Value@details@json@web@@U?$default_delete@V_Value@details@json@web@@@std@@@std@@QBEABQAV_Value@details@json@web@@XZ 100022f0 f i JSONHandler.obj
 0001:000012f0       ?_Getal@?$_List_alloc@U?$_List_base_types@PAVIAccount@@V?$allocator@PAVIAccount@@@std@@@std@@@std@@QAEAAU?$_Wrap_alloc@V?$allocator@U?$_List_node@PAVIAccount@@PAX@std@@@std@@@2@XZ 100022f0 f i ClientSession.obj
 0001:000012f0       ?_Get_data@?$_List_alloc@U?$_List_base_types@IV?$allocator@I@std@@@std@@@std@@QAEAAV?$_List_val@U?$_List_simple_types@I@std@@@2@XZ 100022f0 f i ClientSession.obj
 0001:00001310       ??0?$_String_alloc@U?$_String_base_types@_WV?$allocator@_W@std@@@std@@@std@@QAE@XZ 10002310 f i JSONHandler.obj
 0001:00001310       ??0?$_String_alloc@U?$_String_base_types@DV?$allocator@D@std@@@std@@@std@@QAE@XZ 10002310 f i ClientProtocolImpl.obj
 0001:00001330       ?_Myptr@?$_String_alloc@U?$_String_base_types@DV?$allocator@D@std@@@std@@@std@@QBEPBDXZ 10002330 f i ClientProtocolImpl.obj
 0001:00001330       ?_Myptr@?$_String_alloc@U?$_String_base_types@DV?$allocator@D@std@@@std@@@std@@QAEPADXZ 10002330 f i ClientProtocolImpl.obj
 0001:00001350       ?_Xlen@?$basic_string@DU?$char_traits@D@std@@V?$allocator@D@2@@std@@QBEXXZ 10002350 f i ClientProtocolImpl.obj
 0001:00001350       ?_Xlen@?$basic_string@_WU?$char_traits@_W@std@@V?$allocator@_W@2@@std@@QBEXXZ 10002350 f i JSONHandler.obj
 0001:00001370       ?_Tidy@?$basic_string@DU?$char_traits@D@std@@V?$allocator@D@2@@std@@QAEX_NI@Z 10002370 f i ClientProtocolImpl.obj
 0001:00001430       ?_Grow@?$basic_string@DU?$char_traits@D@std@@V?$allocator@D@2@@std@@QAE_NI_N@Z 10002430 f i ClientProtocolImpl.obj
 0001:000014f0       ?_Eos@?$basic_string@DU?$char_traits@D@std@@V?$allocator@D@2@@std@@QAEXI@Z 100024f0 f i ClientProtocolImpl.obj
 0001:00001530       ?assign@?$basic_string@DU?$char_traits@D@std@@V?$allocator@D@2@@std@@QAEAAV12@PBD@Z 10002530 f i ClientProtocolImpl.obj
 0001:00001560       ?assign@?$basic_string@DU?$char_traits@D@std@@V?$allocator@D@2@@std@@QAEAAV12@PBDI@Z 10002560 f i ClientProtocolImpl.obj
 0001:000015e0       ?assign@?$basic_string@DU?$char_traits@D@std@@V?$allocator@D@2@@std@@QAEAAV12@ABV12@II@Z 100025e0 f i ClientProtocolImpl.obj
 0001:00001680       ??0?$allocator@U?$_List_node@PAVIClientSession@@PAX@std@@@std@@QAE@XZ 10002680 f i ClientSession.obj
 0001:00001680       ?_Get_second@?$_Compressed_pair@U?$_Wrap_alloc@V?$allocator@_W@std@@@std@@V?$_String_val@U?$_Simple_types@_W@std@@@2@$00@std@@QAEAAV?$_String_val@U?$_Simple_types@_W@std@@@2@XZ 10002680 f i JSONHandler.obj
 0001:00001680       ??0?$allocator@D@std@@QAE@XZ 10002680 f i ClientProtocolImpl.obj
 0001:00001680       ?_Get_first@?$_Compressed_pair@U?$_Wrap_alloc@V?$allocator@_W@std@@@std@@V?$_String_val@U?$_Simple_types@_W@std@@@2@$00@std@@QBEABU?$_Wrap_alloc@V?$allocator@_W@std@@@2@XZ 10002680 f i JSONHandler.obj
 0001:00001680       ??0?$allocator@U?$_List_node@PAVIAccount@@PAX@std@@@std@@QAE@XZ 10002680 f i ClientSession.obj
 0001:00001680       ?_Get_second@?$_Compressed_pair@U?$_Wrap_alloc@V?$allocator@U?$_Tree_node@U?$pair@$$CBV?$basic_string@DU?$char_traits@D@std@@V?$allocator@D@2@@std@@V?$list@IV?$allocator@I@std@@@2@@std@@PAX@std@@@std@@@std@@V?$_Tree_val@U?$_Tree_simple_types@U?$pair@$$CBV?$basic_string@DU?$char_traits@D@std@@V?$allocator@D@2@@std@@V?$list@IV?$allocator@I@std@@@2@@std@@@std@@@2@$00@std@@QAEAAV?$_Tree_val@U?$_Tree_simple_types@U?$pair@$$CBV?$basic_string@DU?$char_traits@D@std@@V?$allocator@D@2@@std@@V?$list@IV?$allocator@I@std@@@2@@std@@@std@@@2@XZ 10002680 f i ClientSession.obj
 0001:00001680       ??0?$tuple@$$V@std@@QAE@XZ 10002680 f i ClientSession.obj
 0001:00001680       ??0?$allocator@U?$_Tree_node@U?$pair@$$CBIPAVIClientSession@@@std@@PAX@std@@@std@@QAE@XZ 10002680 f i ClientSession.obj
 0001:00001680       ?_Get_second@?$_Compressed_pair@U?$default_delete@V_Value@details@json@web@@@std@@PAV_Value@details@json@web@@$00@std@@QBEABQAV_Value@details@json@web@@XZ 10002680 f i JSONHandler.obj
 0001:00001680       ??0_Bxty@?$_String_val@U?$_Simple_types@D@std@@@std@@QAE@XZ 10002680 f i ClientProtocolImpl.obj
 0001:00001680       ?_Get_first@?$_Compressed_pair@U?$_Wrap_alloc@V?$allocator@U?$_Tree_node@U?$pair@$$CBIPAVIClientSession@@@std@@PAX@std@@@std@@@std@@V?$_Tree_val@U?$_Tree_simple_types@U?$pair@$$CBIPAVIClientSession@@@std@@@std@@@2@$00@std@@QBEABU?$_Wrap_alloc@V?$allocator@U?$_Tree_node@U?$pair@$$CBIPAVIClientSession@@@std@@PAX@std@@@std@@@2@XZ 10002680 f i ClientSession.obj
 0001:00001680       ?_Get_second@?$_Compressed_pair@U?$_Wrap_alloc@V?$allocator@U?$_List_node@IPAX@std@@@std@@@std@@V?$_List_val@U?$_List_simple_types@I@std@@@2@$00@std@@QBEABV?$_List_val@U?$_List_simple_types@I@std@@@2@XZ 10002680 f i ClientSession.obj
 0001:00001680       ??0?$allocator@U?$_Tree_node@U?$pair@$$CBV?$basic_string@DU?$char_traits@D@std@@V?$allocator@D@2@@std@@V?$list@IV?$allocator@I@std@@@2@@std@@PAX@std@@@std@@QAE@XZ 10002680 f i ClientSession.obj
 0001:00001680       ?_Get_first@?$_Compressed_pair@U?$_Wrap_alloc@V?$allocator@_W@std@@@std@@V?$_String_val@U?$_Simple_types@_W@std@@@2@$00@std@@QAEAAU?$_Wrap_alloc@V?$allocator@_W@std@@@2@XZ 10002680 f i JSONHandler.obj
 0001:00001680       ?_Get_first@?$_Compressed_pair@U?$_Wrap_alloc@V?$allocator@U?$_Tree_node@U?$pair@$$CBIPAVIClientSession@@@std@@PAX@std@@@std@@@std@@V?$_Tree_val@U?$_Tree_simple_types@U?$pair@$$CBIPAVIClientSession@@@std@@@std@@@2@$00@std@@QAEAAU?$_Wrap_alloc@V?$allocator@U?$_Tree_node@U?$pair@$$CBIPAVIClientSession@@@std@@PAX@std@@@std@@@2@XZ 10002680 f i ClientSession.obj
 0001:00001680       ?_Get_second@?$_Compressed_pair@U?$less@V?$basic_string@DU?$char_traits@D@std@@V?$allocator@D@2@@std@@@std@@V?$_Compressed_pair@U?$_Wrap_alloc@V?$allocator@U?$_Tree_node@U?$pair@$$CBV?$basic_string@DU?$char_traits@D@std@@V?$allocator@D@2@@std@@V?$list@IV?$allocator@I@std@@@2@@std@@PAX@std@@@std@@@std@@V?$_Tree_val@U?$_Tree_simple_types@U?$pair@$$CBV?$basic_string@DU?$char_traits@D@std@@V?$allocator@D@2@@std@@V?$list@IV?$allocator@I@std@@@2@@std@@@std@@@2@$00@2@$00@std@@QBEABV?$_Compressed_pair@U?$_Wrap_alloc@V?$allocator@U?$_Tree_node@U?$pair@$$CBV?$basic_string@DU?$char_traits@D@std@@V?$allocator@D@2@@std@@V?$list@IV?$allocator@I@std@@@2@@std@@PAX@std@@@std@@@std@@V?$_Tree_val@U?$_Tree_simple_types@U?$pair@$$CBV?$basic_string@DU?$char_traits@D@std@@V?$allocator@D@2@@std@@V?$list@IV?$allocator@I@std@@@2@@std@@@std@@@2@$00@2@XZ 10002680 f i ClientSession.obj
 0001:00001680       ?_Get_second@?$_Compressed_pair@U?$less@I@std@@V?$_Compressed_pair@U?$_Wrap_alloc@V?$allocator@U?$_Tree_node@U?$pair@$$CBIPAVIClientSession@@@std@@PAX@std@@@std@@@std@@V?$_Tree_val@U?$_Tree_simple_types@U?$pair@$$CBIPAVIClientSession@@@std@@@std@@@2@$00@2@$00@std@@QBEABV?$_Compressed_pair@U?$_Wrap_alloc@V?$allocator@U?$_Tree_node@U?$pair@$$CBIPAVIClientSession@@@std@@PAX@std@@@std@@@std@@V?$_Tree_val@U?$_Tree_simple_types@U?$pair@$$CBIPAVIClientSession@@@std@@@std@@@2@$00@2@XZ 10002680 f i ClientSession.obj
 0001:00001680       ?_Get_second@?$_Compressed_pair@U?$_Wrap_alloc@V?$allocator@U?$_Tree_node@U?$pair@$$CBIPAVIClientSession@@@std@@PAX@std@@@std@@@std@@V?$_Tree_val@U?$_Tree_simple_types@U?$pair@$$CBIPAVIClientSession@@@std@@@std@@@2@$00@std@@QBEABV?$_Tree_val@U?$_Tree_simple_types@U?$pair@$$CBIPAVIClientSession@@@std@@@std@@@2@XZ 10002680 f i ClientSession.obj
 0001:00001680       ?_Get_second@?$_Compressed_pair@U?$_Wrap_alloc@V?$allocator@U?$_List_node@PAVIAccount@@PAX@std@@@std@@@std@@V?$_List_val@U?$_List_simple_types@PAVIAccount@@@std@@@2@$00@std@@QBEABV?$_List_val@U?$_List_simple_types@PAVIAccount@@@std@@@2@XZ 10002680 f i ClientSession.obj
 0001:00001680       ?_Get_first@?$_Compressed_pair@U?$less@V?$basic_string@DU?$char_traits@D@std@@V?$allocator@D@2@@std@@@std@@V?$_Compressed_pair@U?$_Wrap_alloc@V?$allocator@U?$_Tree_node@U?$pair@$$CBV?$basic_string@DU?$char_traits@D@std@@V?$allocator@D@2@@std@@V?$list@IV?$allocator@I@std@@@2@@std@@PAX@std@@@std@@@std@@V?$_Tree_val@U?$_Tree_simple_types@U?$pair@$$CBV?$basic_string@DU?$char_traits@D@std@@V?$allocator@D@2@@std@@V?$list@IV?$allocator@I@std@@@2@@std@@@std@@@2@$00@2@$00@std@@QBEABU?$less@V?$basic_string@DU?$char_traits@D@std@@V?$allocator@D@2@@std@@@2@XZ 10002680 f i ClientSession.obj
 0001:00001680       ?_Get_first@?$_Compressed_pair@U?$_Wrap_alloc@V?$allocator@U?$_List_node@PAVIAccount@@PAX@std@@@std@@@std@@V?$_List_val@U?$_List_simple_types@PAVIAccount@@@std@@@2@$00@std@@QAEAAU?$_Wrap_alloc@V?$allocator@U?$_List_node@PAVIAccount@@PAX@std@@@std@@@2@XZ 10002680 f i ClientSession.obj
 0001:00001680       ?_Get_second@?$_Compressed_pair@U?$_Wrap_alloc@V?$allocator@D@std@@@std@@V?$_String_val@U?$_Simple_types@D@std@@@2@$00@std@@QAEAAV?$_String_val@U?$_Simple_types@D@std@@@2@XZ 10002680 f i ClientProtocolImpl.obj
 0001:00001680       ?_Get_second@?$_Compressed_pair@U?$_Wrap_alloc@V?$allocator@_W@std@@@std@@V?$_String_val@U?$_Simple_types@_W@std@@@2@$00@std@@QBEABV?$_String_val@U?$_Simple_types@_W@std@@@2@XZ 10002680 f i JSONHandler.obj
 0001:00001680       ?_Get_first@?$_Compressed_pair@U?$_Wrap_alloc@V?$allocator@D@std@@@std@@V?$_String_val@U?$_Simple_types@D@std@@@2@$00@std@@QBEABU?$_Wrap_alloc@V?$allocator@D@std@@@2@XZ 10002680 f i ClientProtocolImpl.obj
 0001:00001680       ?_Get_first@?$_Compressed_pair@U?$_Wrap_alloc@V?$allocator@D@std@@@std@@V?$_String_val@U?$_Simple_types@D@std@@@2@$00@std@@QAEAAU?$_Wrap_alloc@V?$allocator@D@std@@@2@XZ 10002680 f i ClientProtocolImpl.obj
 0001:00001680       ?_Get_first@?$_Compressed_pair@U?$_Wrap_alloc@V?$allocator@U?$_List_node@IPAX@std@@@std@@@std@@V?$_List_val@U?$_List_simple_types@I@std@@@2@$00@std@@QBEABU?$_Wrap_alloc@V?$allocator@U?$_List_node@IPAX@std@@@std@@@2@XZ 10002680 f i ClientSession.obj
 0001:00001680       ?_Get_first@?$_Compressed_pair@U?$_Wrap_alloc@V?$allocator@U?$_List_node@PAVIAccount@@PAX@std@@@std@@@std@@V?$_List_val@U?$_List_simple_types@PAVIAccount@@@std@@@2@$00@std@@QBEABU?$_Wrap_alloc@V?$allocator@U?$_List_node@PAVIAccount@@PAX@std@@@std@@@2@XZ 10002680 f i ClientSession.obj
 0001:00001680       ?_Get_second@?$_Compressed_pair@U?$_Wrap_alloc@V?$allocator@U?$_List_node@PAVIAccount@@PAX@std@@@std@@@std@@V?$_List_val@U?$_List_simple_types@PAVIAccount@@@std@@@2@$00@std@@QAEAAV?$_List_val@U?$_List_simple_types@PAVIAccount@@@std@@@2@XZ 10002680 f i ClientSession.obj
 0001:00001680       ?_Get_second@?$_Compressed_pair@U?$_Wrap_alloc@V?$allocator@D@std@@@std@@V?$_String_val@U?$_Simple_types@D@std@@@2@$00@std@@QBEABV?$_String_val@U?$_Simple_types@D@std@@@2@XZ 10002680 f i ClientProtocolImpl.obj
 0001:00001680       ?_Get_second@?$_Compressed_pair@U?$_Wrap_alloc@V?$allocator@U?$_List_node@IPAX@std@@@std@@@std@@V?$_List_val@U?$_List_simple_types@I@std@@@2@$00@std@@QAEAAV?$_List_val@U?$_List_simple_types@I@std@@@2@XZ 10002680 f i ClientSession.obj
 0001:00001680       ?_Get_first@?$_Compressed_pair@U?$_Wrap_alloc@V?$allocator@U?$_List_node@PAVIClientSession@@PAX@std@@@std@@@std@@V?$_List_val@U?$_List_simple_types@PAVIClientSession@@@std@@@2@$00@std@@QAEAAU?$_Wrap_alloc@V?$allocator@U?$_List_node@PAVIClientSession@@PAX@std@@@std@@@2@XZ 10002680 f i ClientSession.obj
 0001:00001680       ??0_Bxty@?$_String_val@U?$_Simple_types@_W@std@@@std@@QAE@XZ 10002680 f i JSONHandler.obj
 0001:00001680       ?_Get_first@?$_Compressed_pair@U?$less@I@std@@V?$_Compressed_pair@U?$_Wrap_alloc@V?$allocator@U?$_Tree_node@U?$pair@$$CBIPAVIClientSession@@@std@@PAX@std@@@std@@@std@@V?$_Tree_val@U?$_Tree_simple_types@U?$pair@$$CBIPAVIClientSession@@@std@@@std@@@2@$00@2@$00@std@@QAEAAU?$less@I@2@XZ 10002680 f i ClientSession.obj
 0001:00001680       ?_Get_first@?$_Compressed_pair@U?$less@V?$basic_string@DU?$char_traits@D@std@@V?$allocator@D@2@@std@@@std@@V?$_Compressed_pair@U?$_Wrap_alloc@V?$allocator@U?$_Tree_node@U?$pair@$$CBV?$basic_string@DU?$char_traits@D@std@@V?$allocator@D@2@@std@@V?$list@IV?$allocator@I@std@@@2@@std@@PAX@std@@@std@@@std@@V?$_Tree_val@U?$_Tree_simple_types@U?$pair@$$CBV?$basic_string@DU?$char_traits@D@std@@V?$allocator@D@2@@std@@V?$list@IV?$allocator@I@std@@@2@@std@@@std@@@2@$00@2@$00@std@@QAEAAU?$less@V?$basic_string@DU?$char_traits@D@std@@V?$allocator@D@2@@std@@@2@XZ 10002680 f i ClientSession.obj
 0001:00001680       ?_Get_second@?$_Compressed_pair@U?$_Wrap_alloc@V?$allocator@U?$_List_node@PAVIClientSession@@PAX@std@@@std@@@std@@V?$_List_val@U?$_List_simple_types@PAVIClientSession@@@std@@@2@$00@std@@QAEAAV?$_List_val@U?$_List_simple_types@PAVIClientSession@@@std@@@2@XZ 10002680 f i ClientSession.obj
 0001:00001680       ?_Get_second@?$_Compressed_pair@U?$less@I@std@@V?$_Compressed_pair@U?$_Wrap_alloc@V?$allocator@U?$_Tree_node@U?$pair@$$CBIPAVIClientSession@@@std@@PAX@std@@@std@@@std@@V?$_Tree_val@U?$_Tree_simple_types@U?$pair@$$CBIPAVIClientSession@@@std@@@std@@@2@$00@2@$00@std@@QAEAAV?$_Compressed_pair@U?$_Wrap_alloc@V?$allocator@U?$_Tree_node@U?$pair@$$CBIPAVIClientSession@@@std@@PAX@std@@@std@@@std@@V?$_Tree_val@U?$_Tree_simple_types@U?$pair@$$CBIPAVIClientSession@@@std@@@std@@@2@$00@2@XZ 10002680 f i ClientSession.obj
 0001:00001680       ?_Get_second@?$_Compressed_pair@U?$_Wrap_alloc@V?$allocator@U?$_Tree_node@U?$pair@$$CBV?$basic_string@DU?$char_traits@D@std@@V?$allocator@D@2@@std@@V?$list@IV?$allocator@I@std@@@2@@std@@PAX@std@@@std@@@std@@V?$_Tree_val@U?$_Tree_simple_types@U?$pair@$$CBV?$basic_string@DU?$char_traits@D@std@@V?$allocator@D@2@@std@@V?$list@IV?$allocator@I@std@@@2@@std@@@std@@@2@$00@std@@QBEABV?$_Tree_val@U?$_Tree_simple_types@U?$pair@$$CBV?$basic_string@DU?$char_traits@D@std@@V?$allocator@D@2@@std@@V?$list@IV?$allocator@I@std@@@2@@std@@@std@@@2@XZ 10002680 f i ClientSession.obj
 0001:00001680       ??0?$allocator@_W@std@@QAE@XZ 10002680 f i JSONHandler.obj
 0001:00001680       ?_Get_first@?$_Compressed_pair@U?$_Wrap_alloc@V?$allocator@U?$_Tree_node@U?$pair@$$CBV?$basic_string@DU?$char_traits@D@std@@V?$allocator@D@2@@std@@V?$list@IV?$allocator@I@std@@@2@@std@@PAX@std@@@std@@@std@@V?$_Tree_val@U?$_Tree_simple_types@U?$pair@$$CBV?$basic_string@DU?$char_traits@D@std@@V?$allocator@D@2@@std@@V?$list@IV?$allocator@I@std@@@2@@std@@@std@@@2@$00@std@@QAEAAU?$_Wrap_alloc@V?$allocator@U?$_Tree_node@U?$pair@$$CBV?$basic_string@DU?$char_traits@D@std@@V?$allocator@D@2@@std@@V?$list@IV?$allocator@I@std@@@2@@std@@PAX@std@@@std@@@2@XZ 10002680 f i ClientSession.obj
 0001:00001680       ?_Get_first@?$_Compressed_pair@U?$default_delete@V_Value@details@json@web@@@std@@PAV_Value@details@json@web@@$00@std@@QAEAAU?$default_delete@V_Value@details@json@web@@@2@XZ 10002680 f i JSONHandler.obj
 0001:00001680       ??0?$allocator@U?$_List_node@IPAX@std@@@std@@QAE@XZ 10002680 f i ClientSession.obj
 0001:00001680       ?_Get_first@?$_Compressed_pair@U?$_Wrap_alloc@V?$allocator@U?$_List_node@PAVIClientSession@@PAX@std@@@std@@@std@@V?$_List_val@U?$_List_simple_types@PAVIClientSession@@@std@@@2@$00@std@@QBEABU?$_Wrap_alloc@V?$allocator@U?$_List_node@PAVIClientSession@@PAX@std@@@std@@@2@XZ 10002680 f i ClientSession.obj
 0001:00001680       ?_Get_first@?$_Compressed_pair@U?$_Wrap_alloc@V?$allocator@U?$_Tree_node@U?$pair@$$CBV?$basic_string@DU?$char_traits@D@std@@V?$allocator@D@2@@std@@V?$list@IV?$allocator@I@std@@@2@@std@@PAX@std@@@std@@@std@@V?$_Tree_val@U?$_Tree_simple_types@U?$pair@$$CBV?$basic_string@DU?$char_traits@D@std@@V?$allocator@D@2@@std@@V?$list@IV?$allocator@I@std@@@2@@std@@@std@@@2@$00@std@@QBEABU?$_Wrap_alloc@V?$allocator@U?$_Tree_node@U?$pair@$$CBV?$basic_string@DU?$char_traits@D@std@@V?$allocator@D@2@@std@@V?$list@IV?$allocator@I@std@@@2@@std@@PAX@std@@@std@@@2@XZ 10002680 f i ClientSession.obj
 0001:00001680       ?_Get_second@?$_Compressed_pair@U?$less@V?$basic_string@DU?$char_traits@D@std@@V?$allocator@D@2@@std@@@std@@V?$_Compressed_pair@U?$_Wrap_alloc@V?$allocator@U?$_Tree_node@U?$pair@$$CBV?$basic_string@DU?$char_traits@D@std@@V?$allocator@D@2@@std@@V?$list@IV?$allocator@I@std@@@2@@std@@PAX@std@@@std@@@std@@V?$_Tree_val@U?$_Tree_simple_types@U?$pair@$$CBV?$basic_string@DU?$char_traits@D@std@@V?$allocator@D@2@@std@@V?$list@IV?$allocator@I@std@@@2@@std@@@std@@@2@$00@2@$00@std@@QAEAAV?$_Compressed_pair@U?$_Wrap_alloc@V?$allocator@U?$_Tree_node@U?$pair@$$CBV?$basic_string@DU?$char_traits@D@std@@V?$allocator@D@2@@std@@V?$list@IV?$allocator@I@std@@@2@@std@@PAX@std@@@std@@@std@@V?$_Tree_val@U?$_Tree_simple_types@U?$pair@$$CBV?$basic_string@DU?$char_traits@D@std@@V?$allocator@D@2@@std@@V?$list@IV?$allocator@I@std@@@2@@std@@@std@@@2@$00@2@XZ 10002680 f i ClientSession.obj
 0001:00001680       ?_Get_first@?$_Compressed_pair@U?$_Wrap_alloc@V?$allocator@U?$_List_node@IPAX@std@@@std@@@std@@V?$_List_val@U?$_List_simple_types@I@std@@@2@$00@std@@QAEAAU?$_Wrap_alloc@V?$allocator@U?$_List_node@IPAX@std@@@std@@@2@XZ 10002680 f i ClientSession.obj
 0001:00001680       ?_Get_first@?$_Compressed_pair@U?$less@I@std@@V?$_Compressed_pair@U?$_Wrap_alloc@V?$allocator@U?$_Tree_node@U?$pair@$$CBIPAVIClientSession@@@std@@PAX@std@@@std@@@std@@V?$_Tree_val@U?$_Tree_simple_types@U?$pair@$$CBIPAVIClientSession@@@std@@@std@@@2@$00@2@$00@std@@QBEABU?$less@I@2@XZ 10002680 f i ClientSession.obj
 0001:00001680       ?_Get_second@?$_Compressed_pair@U?$_Wrap_alloc@V?$allocator@U?$_Tree_node@U?$pair@$$CBIPAVIClientSession@@@std@@PAX@std@@@std@@@std@@V?$_Tree_val@U?$_Tree_simple_types@U?$pair@$$CBIPAVIClientSession@@@std@@@std@@@2@$00@std@@QAEAAV?$_Tree_val@U?$_Tree_simple_types@U?$pair@$$CBIPAVIClientSession@@@std@@@std@@@2@XZ 10002680 f i ClientSession.obj
 0001:00001690       ?_Myptr@?$_String_val@U?$_Simple_types@D@std@@@std@@QBEPBDXZ 10002690 f i ClientProtocolImpl.obj
 0001:00001690       ?_Myptr@?$_String_val@U?$_Simple_types@D@std@@@std@@QAEPADXZ 10002690 f i ClientProtocolImpl.obj
 0001:000016d0       ?deallocate@?$_Wrap_alloc@V?$allocator@D@std@@@std@@QAEXPADI@Z 100026d0 f i ClientProtocolImpl.obj
 0001:000016f0       ?_Myres@?$_String_alloc@U?$_String_base_types@DV?$allocator@D@std@@@std@@@std@@QAEAAIXZ 100026f0 f i ClientProtocolImpl.obj
 0001:000016f0       ?_Myres@?$_String_alloc@U?$_String_base_types@_WV?$allocator@_W@std@@@std@@@std@@QAEAAIXZ 100026f0 f i JSONHandler.obj
 0001:00001710       ?_Myhead@?$_List_alloc@U?$_List_base_types@PAVIClientSession@@V?$allocator@PAVIClientSession@@@std@@@std@@@std@@QAEAAPAU?$_List_node@PAVIClientSession@@PAX@2@XZ 10002710 f i ClientSession.obj
 0001:00001710       ?_Bx@?$_String_alloc@U?$_String_base_types@DV?$allocator@D@std@@@std@@@std@@QAEAAT_Bxty@?$_String_val@U?$_Simple_types@D@std@@@2@XZ 10002710 f i ClientProtocolImpl.obj
 0001:00001710       ?_Bx@?$_String_alloc@U?$_String_base_types@_WV?$allocator@_W@std@@@std@@@std@@QAEAAT_Bxty@?$_String_val@U?$_Simple_types@_W@std@@@2@XZ 10002710 f i JSONHandler.obj
 0001:00001710       ?_Myhead@?$_List_alloc@U?$_List_base_types@IV?$allocator@I@std@@@std@@@std@@QAEAAPAU?$_List_node@IPAX@2@XZ 10002710 f i ClientSession.obj
 0001:00001710       ?_Myhead@?$_List_alloc@U?$_List_base_types@PAVIAccount@@V?$allocator@PAVIAccount@@@std@@@std@@@std@@QAEAAPAU?$_List_node@PAVIAccount@@PAX@2@XZ 10002710 f i ClientSession.obj
 0001:00001710       ?_Myhead@?$_List_alloc@U?$_List_base_types@IV?$allocator@I@std@@@std@@@std@@QBEABQAU?$_List_node@IPAX@2@XZ 10002710 f i ClientSession.obj
 0001:00001730       ?_Xran@?$basic_string@_WU?$char_traits@_W@std@@V?$allocator@_W@2@@std@@QBEXXZ 10002730 f i JSONHandler.obj
 0001:00001730       ?_Xran@?$basic_string@DU?$char_traits@D@std@@V?$allocator@D@2@@std@@QBEXXZ 10002730 f i ClientProtocolImpl.obj
 0001:00001750       ?_Check_offset@?$basic_string@DU?$char_traits@D@std@@V?$allocator@D@2@@std@@QBEXI@Z 10002750 f i ClientProtocolImpl.obj
 0001:00001750       ?_Check_offset@?$basic_string@_WU?$char_traits@_W@std@@V?$allocator@_W@2@@std@@QBEXI@Z 10002750 f i JSONHandler.obj
 0001:00001780       ?_Inside@?$basic_string@DU?$char_traits@D@std@@V?$allocator@D@2@@std@@QAE_NPBD@Z 10002780 f i ClientProtocolImpl.obj
 0001:000017d0       ?_Copy@?$basic_string@DU?$char_traits@D@std@@V?$allocator@D@2@@std@@QAEXII@Z 100027d0 f i ClientProtocolImpl.obj
 0001:000019b0       ?_Clamp_suffix_size@?$basic_string@DU?$char_traits@D@std@@V?$allocator@D@2@@std@@QBEIII@Z 100029b0 f i ClientProtocolImpl.obj
 0001:000019b0       ?_Clamp_suffix_size@?$basic_string@_WU?$char_traits@_W@std@@V?$allocator@_W@2@@std@@QBEIII@Z 100029b0 f i JSONHandler.obj
 0001:000019f0       ?max_size@?$basic_string@DU?$char_traits@D@std@@V?$allocator@D@2@@std@@QBEIXZ 100029f0 f i ClientProtocolImpl.obj
 0001:00001a30       ?erase@?$basic_string@DU?$char_traits@D@std@@V?$allocator@D@2@@std@@QAEAAV12@II@Z 10002a30 f i ClientProtocolImpl.obj
 0001:00001ac0       ?erase@?$basic_string@DU?$char_traits@D@std@@V?$allocator@D@2@@std@@QAEAAV12@I@Z 10002ac0 f i ClientProtocolImpl.obj
 0001:00001af0       ?max_size@?$_Wrap_alloc@V?$allocator@D@std@@@std@@QBEIU_Nil@2@@Z 10002af0 f i ClientProtocolImpl.obj
 0001:00001b10       ?allocate@?$_Wrap_alloc@V?$allocator@D@std@@@std@@QAEPADI@Z 10002b10 f i ClientProtocolImpl.obj
 0001:00001b30       ?deallocate@?$allocator@D@std@@QAEXPADI@Z 10002b30 f i ClientProtocolImpl.obj
 0001:00001b50       ?max_size@?$allocator_traits@V?$allocator@D@std@@@std@@SAIABV?$allocator@D@2@@Z 10002b50 f i ClientProtocolImpl.obj
 0001:00001b60       ?allocate@?$allocator@D@std@@QAEPADI@Z 10002b60 f i ClientProtocolImpl.obj
 0001:00001b80       ?max_size@?$allocator@D@std@@QBEIXZ 10002b80 f i ClientProtocolImpl.obj
 0001:00001b90       ??$?0$$V@?$_Compressed_pair@U?$_Wrap_alloc@V?$allocator@D@std@@@std@@V?$_String_val@U?$_Simple_types@D@std@@@2@$00@std@@QAE@U_Zero_then_variadic_args_t@1@@Z 10002b90 f i ClientProtocolImpl.obj
 0001:00001b90       ??$?0$$V@?$_Compressed_pair@U?$_Wrap_alloc@V?$allocator@_W@std@@@std@@V?$_String_val@U?$_Simple_types@_W@std@@@2@$00@std@@QAE@U_Zero_then_variadic_args_t@1@@Z 10002b90 f i JSONHandler.obj
 0001:00001bb0       ??$_Unfancy@_W@std@@YAPA_WPA_W@Z 10002bb0 f i JSONHandler.obj
 0001:00001bb0       ??$forward@ABQAVIAccount@@@std@@YAABQAVIAccount@@ABQAV1@@Z 10002bb0 f i ClientSession.obj
 0001:00001bb0       ??$addressof@U?$pair@$$CBV?$basic_string@DU?$char_traits@D@std@@V?$allocator@D@2@@std@@V?$list@IV?$allocator@I@std@@@2@@std@@@std@@YAPAU?$pair@$$CBV?$basic_string@DU?$char_traits@D@std@@V?$allocator@D@2@@std@@V?$list@IV?$allocator@I@std@@@2@@0@AAU10@@Z 10002bb0 f i ClientSession.obj
 0001:00001bb0       ??$forward@AAU?$pair@$$CBV?$basic_string@DU?$char_traits@D@std@@V?$allocator@D@2@@std@@V?$list@IV?$allocator@I@std@@@2@@std@@@std@@YAAAU?$pair@$$CBV?$basic_string@DU?$char_traits@D@std@@V?$allocator@D@2@@std@@V?$list@IV?$allocator@I@std@@@2@@0@AAU10@@Z 10002bb0 f i ClientSession.obj
 0001:00001bb0       ??$addressof@$$CBI@std@@YAPBIABI@Z 10002bb0 f i ClientSession.obj
 0001:00001bb0       ??$forward@AAV?$_Tree_iterator@V?$_Tree_val@U?$_Tree_simple_types@U?$pair@$$CBIPAVIClientSession@@@std@@@std@@@std@@@std@@@std@@YAAAV?$_Tree_iterator@V?$_Tree_val@U?$_Tree_simple_types@U?$pair@$$CBIPAVIClientSession@@@std@@@std@@@std@@@0@AAV10@@Z 10002bb0 f i ClientSession.obj
 0001:00001bb0       ??$forward@AAPAU?$_List_node@PAVIAccount@@PAX@std@@@std@@YAAAPAU?$_List_node@PAVIAccount@@PAX@0@AAPAU10@@Z 10002bb0 f i ClientSession.obj
 0001:00001bb0       ??$move@AAD@std@@YA$$QADAAD@Z 10002bb0 f i ClientSession.obj
 0001:00001bb0       ??$forward@U?$_Wrap_alloc@V?$allocator@D@std@@@std@@@std@@YA$$QAU?$_Wrap_alloc@V?$allocator@D@std@@@0@AAU10@@Z 10002bb0 f i ClientSession.obj
 0001:00001bb0       ??$move@AAV?$tuple@ABI@std@@@std@@YA$$QAV?$tuple@ABI@0@AAV10@@Z 10002bb0 f i ClientSession.obj
 0001:00001bb0       ??$_Kfn@$$CBV?$basic_string@DU?$char_traits@D@std@@V?$allocator@D@2@@std@@V?$list@IV?$allocator@I@std@@@2@@?$_Tmap_traits@V?$basic_string@DU?$char_traits@D@std@@V?$allocator@D@2@@std@@V?$list@IV?$allocator@I@std@@@2@U?$less@V?$basic_string@DU?$char_traits@D@std@@V?$allocator@D@2@@std@@@2@V?$allocator@U?$pair@$$CBV?$basic_string@DU?$char_traits@D@std@@V?$allocator@D@2@@std@@V?$list@IV?$allocator@I@std@@@2@@std@@@2@$0A@@std@@SAABV?$basic_string@DU?$char_traits@D@std@@V?$allocator@D@2@@1@ABU?$pair@$$CBV?$basic_string@DU?$char_traits@D@std@@V?$allocator@D@2@@std@@V?$list@IV?$allocator@I@std@@@2@@1@@Z 10002bb0 f i ClientSession.obj
 0001:00001bb0       ?_Nextnode@?$_List_val@U?$_List_simple_types@PAVIClientSession@@@std@@@std@@SAAAPAU?$_List_node@PAVIClientSession@@PAX@2@PAU32@@Z 10002bb0 f i ClientSession.obj
 0001:00001bb0       ??$forward@I@std@@YA$$QAIAAI@Z 10002bb0 f i ClientSession.obj
 0001:00001bb0       ??$addressof@D@std@@YAPADAAD@Z 10002bb0 f i ClientSession.obj
 0001:00001bb0       ??$forward@U?$_Wrap_alloc@V?$allocator@U?$_List_node@IPAX@std@@@std@@@std@@@std@@YA$$QAU?$_Wrap_alloc@V?$allocator@U?$_List_node@IPAX@std@@@std@@@0@AAU10@@Z 10002bb0 f i ClientSession.obj
 0001:00001bb0       ??$addressof@PAD@std@@YAPAPADAAPAD@Z 10002bb0 f i ClientProtocolImpl.obj
 0001:00001bb0       ??$move@AAU?$_Wrap_alloc@V?$allocator@U?$_Tree_node@U?$pair@$$CBIPAVIClientSession@@@std@@PAX@std@@@std@@@std@@@std@@YA$$QAU?$_Wrap_alloc@V?$allocator@U?$_Tree_node@U?$pair@$$CBIPAVIClientSession@@@std@@PAX@std@@@std@@@0@AAU10@@Z 10002bb0 f i ClientSession.obj
 0001:00001bb0       ??$forward@AAPAU?$_Tree_node@U?$pair@$$CBV?$basic_string@DU?$char_traits@D@std@@V?$allocator@D@2@@std@@V?$list@IV?$allocator@I@std@@@2@@std@@PAX@std@@@std@@YAAAPAU?$_Tree_node@U?$pair@$$CBV?$basic_string@DU?$char_traits@D@std@@V?$allocator@D@2@@std@@V?$list@IV?$allocator@I@std@@@2@@std@@PAX@0@AAPAU10@@Z 10002bb0 f i ClientSession.obj
 0001:00001bb0       ??$forward@U?$_Wrap_alloc@V?$allocator@U?$_Tree_node@U?$pair@$$CBIPAVIClientSession@@@std@@PAX@std@@@std@@@std@@@std@@YA$$QAU?$_Wrap_alloc@V?$allocator@U?$_Tree_node@U?$pair@$$CBIPAVIClientSession@@@std@@PAX@std@@@std@@@0@AAU10@@Z 10002bb0 f i ClientSession.obj
 0001:00001bb0       ??$forward@V?$allocator@U?$_Tree_node@U?$pair@$$CBIPAVIClientSession@@@std@@PAX@std@@@std@@@std@@YA$$QAV?$allocator@U?$_Tree_node@U?$pair@$$CBIPAVIClientSession@@@std@@PAX@std@@@0@AAV10@@Z 10002bb0 f i ClientSession.obj
 0001:00001bb0       ?_Nextnode@?$_List_val@U?$_List_simple_types@I@std@@@std@@SAAAPAU?$_List_node@IPAX@2@PAU32@@Z 10002bb0 f i ClientSession.obj
 0001:00001bb0       ??$forward@AAPAU?$_List_node@PAVIClientSession@@PAX@std@@@std@@YAAAPAU?$_List_node@PAVIClientSession@@PAX@0@AAPAU10@@Z 10002bb0 f i ClientSession.obj
 0001:00001bb0       ??$addressof@U?$pair@$$CBIPAVIClientSession@@@std@@@std@@YAPAU?$pair@$$CBIPAVIClientSession@@@0@AAU10@@Z 10002bb0 f i ClientSession.obj
 0001:00001bb0       ??$addressof@PAU?$_List_node@PAVIClientSession@@PAX@std@@@std@@YAPAPAU?$_List_node@PAVIClientSession@@PAX@0@AAPAU10@@Z 10002bb0 f i ClientSession.obj
 0001:00001bb0       ?_Left@?$_Tree_val@U?$_Tree_simple_types@U?$pair@$$CBV?$basic_string@DU?$char_traits@D@std@@V?$allocator@D@2@@std@@V?$list@IV?$allocator@I@std@@@2@@std@@@std@@@std@@SAAAPAU?$_Tree_node@U?$pair@$$CBV?$basic_string@DU?$char_traits@D@std@@V?$allocator@D@2@@std@@V?$list@IV?$allocator@I@std@@@2@@std@@PAX@2@PAU32@@Z 10002bb0 f i ClientSession.obj
 0001:00001bb0       ??$forward@AAV?$_Tree_iterator@V?$_Tree_val@U?$_Tree_simple_types@U?$pair@$$CBV?$basic_string@DU?$char_traits@D@std@@V?$allocator@D@2@@std@@V?$list@IV?$allocator@I@std@@@2@@std@@@std@@@std@@@std@@@std@@YAAAV?$_Tree_iterator@V?$_Tree_val@U?$_Tree_simple_types@U?$pair@$$CBV?$basic_string@DU?$char_traits@D@std@@V?$allocator@D@2@@std@@V?$list@IV?$allocator@I@std@@@2@@std@@@std@@@std@@@0@AAV10@@Z 10002bb0 f i ClientSession.obj
 0001:00001bb0       ??$addressof@PAVIClientSession@@@std@@YAPAPAVIClientSession@@AAPAV1@@Z 10002bb0 f i ClientSession.obj
 0001:00001bb0       ??$addressof@I@std@@YAPAIAAI@Z 10002bb0 f i ClientSession.obj
 0001:00001bb0       ??$forward@ABV?$allocator@D@std@@@std@@YAABV?$allocator@D@0@ABV10@@Z 10002bb0 f i ClientSession.obj
 0001:00001bb0       ??$addressof@V_Value@details@json@web@@@std@@YAPAV_Value@details@json@web@@AAV1234@@Z 10002bb0 f i JSONHandler.obj
 0001:00001bb0       ??$forward@U_One_then_variadic_args_t@std@@@std@@YA$$QAU_One_then_variadic_args_t@0@AAU10@@Z 10002bb0 f i ClientSession.obj
 0001:00001bb0       ??$forward@ABI@std@@YAABIABI@Z 10002bb0 f i ClientSession.obj
 0001:00001bb0       ??$addressof@PAU?$_List_node@IPAX@std@@@std@@YAPAPAU?$_List_node@IPAX@0@AAPAU10@@Z 10002bb0 f i ClientSession.obj
 0001:00001bb0       ??$forward@V?$allocator@U?$_List_node@IPAX@std@@@std@@@std@@YA$$QAV?$allocator@U?$_List_node@IPAX@std@@@0@AAV10@@Z 10002bb0 f i ClientSession.obj
 0001:00001bb0       ??$addressof@PAVIAccount@@@std@@YAPAPAVIAccount@@AAPAV1@@Z 10002bb0 f i ClientSession.obj
 0001:00001bb0       ??$_Unfancy@D@std@@YAPADPAD@Z 10002bb0 f i ClientProtocolImpl.obj
 0001:00001bb0       ??$addressof@PAU?$_List_node@PAVIAccount@@PAX@std@@@std@@YAPAPAU?$_List_node@PAVIAccount@@PAX@0@AAPAU10@@Z 10002bb0 f i ClientSession.obj
 0001:00001bb0       ??$addressof@PAU?$_Tree_node@U?$pair@$$CBV?$basic_string@DU?$char_traits@D@std@@V?$allocator@D@2@@std@@V?$list@IV?$allocator@I@std@@@2@@std@@PAX@std@@@std@@YAPAPAU?$_Tree_node@U?$pair@$$CBV?$basic_string@DU?$char_traits@D@std@@V?$allocator@D@2@@std@@V?$list@IV?$allocator@I@std@@@2@@std@@PAX@0@AAPAU10@@Z 10002bb0 f i ClientSession.obj
 0001:00001bb0       ??$addressof@PA_W@std@@YAPAPA_WAAPA_W@Z 10002bb0 f i JSONHandler.obj
 0001:00001bb0       ??$forward@ABUpiecewise_construct_t@std@@@std@@YAABUpiecewise_construct_t@0@ABU10@@Z 10002bb0 f i ClientSession.obj
 0001:00001bb0       ??$forward@AAU?$pair@V?$basic_string@DU?$char_traits@D@std@@V?$allocator@D@2@@std@@V?$list@IV?$allocator@I@std@@@2@@std@@@std@@YAAAU?$pair@V?$basic_string@DU?$char_traits@D@std@@V?$allocator@D@2@@std@@V?$list@IV?$allocator@I@std@@@2@@0@AAU10@@Z 10002bb0 f i ClientSession.obj
 0001:00001bb0       ??$forward@AAU?$pair@IPAVIClientSession@@@std@@@std@@YAAAU?$pair@IPAVIClientSession@@@0@AAU10@@Z 10002bb0 f i ClientSession.obj
 0001:00001bb0       ??$move@AAU?$_Wrap_alloc@V?$allocator@_W@std@@@std@@@std@@YA$$QAU?$_Wrap_alloc@V?$allocator@_W@std@@@0@AAU10@@Z 10002bb0 f i JSONHandler.obj
 0001:00001bb0       ??$forward@AAPA_W@std@@YAAAPA_WAAPA_W@Z 10002bb0 f i JSONHandler.obj
 0001:00001bb0       ??$forward@AAPAVIClientSession@@@std@@YAAAPAVIClientSession@@AAPAV1@@Z 10002bb0 f i ClientSession.obj
 0001:00001bb0       ??$forward@AAPAU?$_Tree_node@U?$pair@$$CBIPAVIClientSession@@@std@@PAX@std@@@std@@YAAAPAU?$_Tree_node@U?$pair@$$CBIPAVIClientSession@@@std@@PAX@0@AAPAU10@@Z 10002bb0 f i ClientSession.obj
 0001:00001bb0       ?_Nextnode@?$_List_val@U?$_List_simple_types@PAVIAccount@@@std@@@std@@SAAAPAU?$_List_node@PAVIAccount@@PAX@2@PAU32@@Z 10002bb0 f i ClientSession.obj
 0001:00001bb0       ??$forward@ABQAVIClientSession@@@std@@YAABQAVIClientSession@@ABQAV1@@Z 10002bb0 f i ClientSession.obj
 0001:00001bb0       ??$forward@AAU?$pair@$$CBIPAVIClientSession@@@std@@@std@@YAAAU?$pair@$$CBIPAVIClientSession@@@0@AAU10@@Z 10002bb0 f i ClientSession.obj
 0001:00001bb0       ??$forward@V?$_Tree_iterator@V?$_Tree_val@U?$_Tree_simple_types@U?$pair@$$CBV?$basic_string@DU?$char_traits@D@std@@V?$allocator@D@2@@std@@V?$list@IV?$allocator@I@std@@@2@@std@@@std@@@std@@@std@@@std@@YA$$QAV?$_Tree_iterator@V?$_Tree_val@U?$_Tree_simple_types@U?$pair@$$CBV?$basic_string@DU?$char_traits@D@std@@V?$allocator@D@2@@std@@V?$list@IV?$allocator@I@std@@@2@@std@@@std@@@std@@@0@AAV10@@Z 10002bb0 f i ClientSession.obj
 0001:00001bb0       ??$addressof@PAU?$_Tree_node@U?$pair@$$CBIPAVIClientSession@@@std@@PAX@std@@@std@@YAPAPAU?$_Tree_node@U?$pair@$$CBIPAVIClientSession@@@std@@PAX@0@AAPAU10@@Z 10002bb0 f i ClientSession.obj
 0001:00001bb0       ??$forward@V?$allocator@_W@std@@@std@@YA$$QAV?$allocator@_W@0@AAV10@@Z 10002bb0 f i JSONHandler.obj
 0001:00001bb0       ??$forward@AAV?$list@IV?$allocator@I@std@@@std@@@std@@YAAAV?$list@IV?$allocator@I@std@@@0@AAV10@@Z 10002bb0 f i ClientSession.obj
 0001:00001bb0       ??$forward@AAV?$basic_string@DU?$char_traits@D@std@@V?$allocator@D@2@@std@@@std@@YAAAV?$basic_string@DU?$char_traits@D@std@@V?$allocator@D@2@@0@AAV10@@Z 10002bb0 f i ClientSession.obj
 0001:00001bb0       ??$forward@V?$basic_string@DU?$char_traits@D@std@@V?$allocator@D@2@@std@@@std@@YA$$QAV?$basic_string@DU?$char_traits@D@std@@V?$allocator@D@2@@0@AAV10@@Z 10002bb0 f i ClientSession.obj
 0001:00001bb0       ??$forward@V?$tuple@ABI@std@@@std@@YA$$QAV?$tuple@ABI@0@AAV10@@Z 10002bb0 f i ClientSession.obj
 0001:00001bb0       ??$move@AAU?$_Wrap_alloc@V?$allocator@D@std@@@std@@@std@@YA$$QAU?$_Wrap_alloc@V?$allocator@D@std@@@0@AAU10@@Z 10002bb0 f i ClientSession.obj
 0001:00001bb0       ??$forward@U?$_Wrap_alloc@V?$allocator@_W@std@@@std@@@std@@YA$$QAU?$_Wrap_alloc@V?$allocator@_W@std@@@0@AAU10@@Z 10002bb0 f i JSONHandler.obj
 0001:00001bb0       ?_Left@?$_Tree_val@U?$_Tree_simple_types@U?$pair@$$CBIPAVIClientSession@@@std@@@std@@@std@@SAAAPAU?$_Tree_node@U?$pair@$$CBIPAVIClientSession@@@std@@PAX@2@PAU32@@Z 10002bb0 f i ClientSession.obj
 0001:00001bb0       ??$forward@V?$allocator@D@std@@@std@@YA$$QAV?$allocator@D@0@AAV10@@Z 10002bb0 f i ClientSession.obj
 0001:00001bb0       ??$forward@V?$_Tree_iterator@V?$_Tree_val@U?$_Tree_simple_types@U?$pair@$$CBIPAVIClientSession@@@std@@@std@@@std@@@std@@@std@@YA$$QAV?$_Tree_iterator@V?$_Tree_val@U?$_Tree_simple_types@U?$pair@$$CBIPAVIClientSession@@@std@@@std@@@std@@@0@AAV10@@Z 10002bb0 f i ClientSession.obj
 0001:00001bb0       ??$forward@AAPAD@std@@YAAAPADAAPAD@Z 10002bb0 f i ClientProtocolImpl.obj
 0001:00001bb0       ??$move@AAU?$_Wrap_alloc@V?$allocator@U?$_List_node@IPAX@std@@@std@@@std@@@std@@YA$$QAU?$_Wrap_alloc@V?$allocator@U?$_List_node@IPAX@std@@@std@@@0@AAU10@@Z 10002bb0 f i ClientSession.obj
 0001:00001bb0       ??$forward@ABU?$less@I@std@@@std@@YAABU?$less@I@0@ABU10@@Z 10002bb0 f i ClientSession.obj
 0001:00001bb0       ??$forward@V?$tuple@$$V@std@@@std@@YA$$QAV?$tuple@$$V@0@AAV10@@Z 10002bb0 f i ClientSession.obj
 0001:00001bb0       ??$forward@U_Zero_then_variadic_args_t@std@@@std@@YA$$QAU_Zero_then_variadic_args_t@0@AAU10@@Z 10002bb0 f i ClientSession.obj
 0001:00001bb0       ??$forward@ABU?$less@V?$basic_string@DU?$char_traits@D@std@@V?$allocator@D@2@@std@@@std@@@std@@YAABU?$less@V?$basic_string@DU?$char_traits@D@std@@V?$allocator@D@2@@std@@@0@ABU10@@Z 10002bb0 f i ClientSession.obj
 0001:00001bb0       ??$forward@AAPAU?$_List_node@IPAX@std@@@std@@YAAAPAU?$_List_node@IPAX@0@AAPAU10@@Z 10002bb0 f i ClientSession.obj
 0001:00001bb0       ??$forward@_N@std@@YA$$QA_NAA_N@Z 10002bb0 f i ClientSession.obj
 0001:00001bb0       ??$_Kfn@$$CBIPAVIClientSession@@@?$_Tmap_traits@IPAVIClientSession@@U?$less@I@std@@V?$allocator@U?$pair@$$CBIPAVIClientSession@@@std@@@3@$0A@@std@@SAABIABU?$pair@$$CBIPAVIClientSession@@@1@@Z 10002bb0 f i ClientSession.obj
 0001:00001bc0       ??$destroy@PAU?$_List_node@PAVIClientSession@@PAX@std@@@?$_Wrap_alloc@V?$allocator@U?$_List_node@PAVIClientSession@@PAX@std@@@std@@@std@@QAEXPAPAU?$_List_node@PAVIClientSession@@PAX@1@@Z 10002bc0 f i ClientSession.obj
 0001:00001bc0       ??$destroy@PAU?$_List_node@PAVIAccount@@PAX@std@@@?$_Wrap_alloc@V?$allocator@U?$_List_node@PAVIAccount@@PAX@std@@@std@@@std@@QAEXPAPAU?$_List_node@PAVIAccount@@PAX@1@@Z 10002bc0 f i ClientSession.obj
 0001:00001bc0       ??$destroy@PAVIAccount@@@?$_Wrap_alloc@V?$allocator@U?$_List_node@PAVIAccount@@PAX@std@@@std@@@std@@QAEXPAPAVIAccount@@@Z 10002bc0 f i ClientSession.obj
 0001:00001bc0       ??$destroy@PAVIClientSession@@@?$_Wrap_alloc@V?$allocator@U?$_List_node@PAVIClientSession@@PAX@std@@@std@@@std@@QAEXPAPAVIClientSession@@@Z 10002bc0 f i ClientSession.obj
 0001:00001bc0       ??$destroy@PAU?$_Tree_node@U?$pair@$$CBIPAVIClientSession@@@std@@PAX@std@@@?$_Wrap_alloc@V?$allocator@U?$_Tree_node@U?$pair@$$CBIPAVIClientSession@@@std@@PAX@std@@@std@@@std@@QAEXPAPAU?$_Tree_node@U?$pair@$$CBIPAVIClientSession@@@std@@PAX@1@@Z 10002bc0 f i ClientSession.obj
 0001:00001bc0       ??$destroy@PAU?$_List_node@IPAX@std@@@?$_Wrap_alloc@V?$allocator@U?$_List_node@IPAX@std@@@std@@@std@@QAEXPAPAU?$_List_node@IPAX@1@@Z 10002bc0 f i ClientSession.obj
 0001:00001bc0       ??$destroy@PA_W@?$_Wrap_alloc@V?$allocator@_W@std@@@std@@QAEXPAPA_W@Z 10002bc0 f i JSONHandler.obj
 0001:00001bc0       ??$destroy@I@?$_Wrap_alloc@V?$allocator@U?$_List_node@IPAX@std@@@std@@@std@@QAEXPAI@Z 10002bc0 f i ClientSession.obj
 0001:00001bc0       ??$destroy@PAD@?$_Wrap_alloc@V?$allocator@D@std@@@std@@QAEXPAPAD@Z 10002bc0 f i ClientProtocolImpl.obj
 0001:00001bc0       ??$destroy@U?$pair@$$CBIPAVIClientSession@@@std@@@?$_Wrap_alloc@V?$allocator@U?$_Tree_node@U?$pair@$$CBIPAVIClientSession@@@std@@PAX@std@@@std@@@std@@QAEXPAU?$pair@$$CBIPAVIClientSession@@@1@@Z 10002bc0 f i ClientSession.obj
 0001:00001bc0       ??$destroy@PAU?$_Tree_node@U?$pair@$$CBV?$basic_string@DU?$char_traits@D@std@@V?$allocator@D@2@@std@@V?$list@IV?$allocator@I@std@@@2@@std@@PAX@std@@@?$_Wrap_alloc@V?$allocator@U?$_Tree_node@U?$pair@$$CBV?$basic_string@DU?$char_traits@D@std@@V?$allocator@D@2@@std@@V?$list@IV?$allocator@I@std@@@2@@std@@PAX@std@@@std@@@std@@QAEXPAPAU?$_Tree_node@U?$pair@$$CBV?$basic_string@DU?$char_traits@D@std@@V?$allocator@D@2@@std@@V?$list@IV?$allocator@I@std@@@2@@std@@PAX@1@@Z 10002bc0 f i ClientSession.obj
 0001:00001be0       ??$construct@PAU?$_List_node@PAVIAccount@@PAX@std@@AAPAU12@@?$_Wrap_alloc@V?$allocator@U?$_List_node@PAVIAccount@@PAX@std@@@std@@@std@@QAEXPAPAU?$_List_node@PAVIAccount@@PAX@1@AAPAU21@@Z 10002be0 f i ClientSession.obj
 0001:00001be0       ??$construct@PAVIClientSession@@ABQAV1@@?$_Wrap_alloc@V?$allocator@U?$_List_node@PAVIClientSession@@PAX@std@@@std@@@std@@QAEXPAPAVIClientSession@@ABQAV2@@Z 10002be0 f i ClientSession.obj
 0001:00001be0       ??$construct@PAU?$_List_node@PAVIClientSession@@PAX@std@@AAPAU12@@?$_Wrap_alloc@V?$allocator@U?$_List_node@PAVIClientSession@@PAX@std@@@std@@@std@@QAEXPAPAU?$_List_node@PAVIClientSession@@PAX@1@AAPAU21@@Z 10002be0 f i ClientSession.obj
 0001:00001be0       ??$construct@II@?$_Wrap_alloc@V?$allocator@U?$_List_node@IPAX@std@@@std@@@std@@QAEXPAI$$QAI@Z 10002be0 f i ClientSession.obj
 0001:00001be0       ??$construct@PAU?$_Tree_node@U?$pair@$$CBV?$basic_string@DU?$char_traits@D@std@@V?$allocator@D@2@@std@@V?$list@IV?$allocator@I@std@@@2@@std@@PAX@std@@AAPAU12@@?$_Wrap_alloc@V?$allocator@U?$_Tree_node@U?$pair@$$CBV?$basic_string@DU?$char_traits@D@std@@V?$allocator@D@2@@std@@V?$list@IV?$allocator@I@std@@@2@@std@@PAX@std@@@std@@@std@@QAEXPAPAU?$_Tree_node@U?$pair@$$CBV?$basic_string@DU?$char_traits@D@std@@V?$allocator@D@2@@std@@V?$list@IV?$allocator@I@std@@@2@@std@@PAX@1@AAPAU21@@Z 10002be0 f i ClientSession.obj
 0001:00001be0       ??$construct@PAU?$_List_node@IPAX@std@@AAPAU12@@?$_Wrap_alloc@V?$allocator@U?$_List_node@IPAX@std@@@std@@@std@@QAEXPAPAU?$_List_node@IPAX@1@AAPAU21@@Z 10002be0 f i ClientSession.obj
 0001:00001be0       ??$construct@PA_WAAPA_W@?$_Wrap_alloc@V?$allocator@_W@std@@@std@@QAEXPAPA_WAAPA_W@Z 10002be0 f i JSONHandler.obj
 0001:00001be0       ??$construct@IABI@?$_Wrap_alloc@V?$allocator@U?$_List_node@IPAX@std@@@std@@@std@@QAEXPAIABI@Z 10002be0 f i ClientSession.obj
 0001:00001be0       ??$construct@PADAAPAD@?$_Wrap_alloc@V?$allocator@D@std@@@std@@QAEXPAPADAAPAD@Z 10002be0 f i ClientProtocolImpl.obj
 0001:00001be0       ??$construct@PAU?$_Tree_node@U?$pair@$$CBIPAVIClientSession@@@std@@PAX@std@@AAPAU12@@?$_Wrap_alloc@V?$allocator@U?$_Tree_node@U?$pair@$$CBIPAVIClientSession@@@std@@PAX@std@@@std@@@std@@QAEXPAPAU?$_Tree_node@U?$pair@$$CBIPAVIClientSession@@@std@@PAX@1@AAPAU21@@Z 10002be0 f i ClientSession.obj
 0001:00001be0       ??$construct@PAVIAccount@@ABQAV1@@?$_Wrap_alloc@V?$allocator@U?$_List_node@PAVIAccount@@PAX@std@@@std@@@std@@QAEXPAPAVIAccount@@ABQAV2@@Z 10002be0 f i ClientSession.obj
 0001:00001c10       ??0?$_String_val@U?$_Simple_types@_W@std@@@std@@QAE@XZ 10002c10 f i JSONHandler.obj
 0001:00001c10       ??0?$_String_val@U?$_Simple_types@D@std@@@std@@QAE@XZ 10002c10 f i ClientProtocolImpl.obj
 0001:00001c40       ??0?$_Wrap_alloc@V?$allocator@_W@std@@@std@@QAE@XZ 10002c40 f i JSONHandler.obj
 0001:00001c40       ??0?$_Wrap_alloc@V?$allocator@U?$_Tree_node@U?$pair@$$CBIPAVIClientSession@@@std@@PAX@std@@@std@@@std@@QAE@XZ 10002c40 f i ClientSession.obj
 0001:00001c40       ??0?$_Wrap_alloc@V?$allocator@U?$_Tree_node@U?$pair@$$CBV?$basic_string@DU?$char_traits@D@std@@V?$allocator@D@2@@std@@V?$list@IV?$allocator@I@std@@@2@@std@@PAX@std@@@std@@@std@@QAE@XZ 10002c40 f i ClientSession.obj
 0001:00001c40       ??0?$_Wrap_alloc@V?$allocator@D@std@@@std@@QAE@XZ 10002c40 f i ClientProtocolImpl.obj
 0001:00001c40       ??0?$_Wrap_alloc@V?$allocator@U?$_List_node@PAVIClientSession@@PAX@std@@@std@@@std@@QAE@XZ 10002c40 f i ClientSession.obj
 0001:00001c40       ??0?$_Wrap_alloc@V?$allocator@U?$_List_node@IPAX@std@@@std@@@std@@QAE@XZ 10002c40 f i ClientSession.obj
 0001:00001c40       ??0?$_Wrap_alloc@V?$allocator@U?$_List_node@PAVIAccount@@PAX@std@@@std@@@std@@QAE@XZ 10002c40 f i ClientSession.obj
 0001:00001c60       ??$destroy@PAU?$_Tree_node@U?$pair@$$CBIPAVIClientSession@@@std@@PAX@std@@@?$allocator_traits@V?$allocator@U?$_Tree_node@U?$pair@$$CBIPAVIClientSession@@@std@@PAX@std@@@std@@@std@@SAXAAV?$allocator@U?$_Tree_node@U?$pair@$$CBIPAVIClientSession@@@std@@PAX@std@@@1@PAPAU?$_Tree_node@U?$pair@$$CBIPAVIClientSession@@@std@@PAX@1@@Z 10002c60 f i ClientSession.obj
 0001:00001c60       ??$destroy@PA_W@?$allocator_traits@V?$allocator@_W@std@@@std@@SAXAAV?$allocator@_W@1@PAPA_W@Z 10002c60 f i JSONHandler.obj
 0001:00001c60       ??$destroy@PAU?$_List_node@PAVIClientSession@@PAX@std@@@?$allocator_traits@V?$allocator@U?$_List_node@PAVIClientSession@@PAX@std@@@std@@@std@@SAXAAV?$allocator@U?$_List_node@PAVIClientSession@@PAX@std@@@1@PAPAU?$_List_node@PAVIClientSession@@PAX@1@@Z 10002c60 f i ClientSession.obj
 0001:00001c60       ??$destroy@PAU?$_List_node@IPAX@std@@@?$allocator_traits@V?$allocator@U?$_List_node@IPAX@std@@@std@@@std@@SAXAAV?$allocator@U?$_List_node@IPAX@std@@@1@PAPAU?$_List_node@IPAX@1@@Z 10002c60 f i ClientSession.obj
 0001:00001c60       ??$destroy@PAU?$_Tree_node@U?$pair@$$CBV?$basic_string@DU?$char_traits@D@std@@V?$allocator@D@2@@std@@V?$list@IV?$allocator@I@std@@@2@@std@@PAX@std@@@?$allocator_traits@V?$allocator@U?$_Tree_node@U?$pair@$$CBV?$basic_string@DU?$char_traits@D@std@@V?$allocator@D@2@@std@@V?$list@IV?$allocator@I@std@@@2@@std@@PAX@std@@@std@@@std@@SAXAAV?$allocator@U?$_Tree_node@U?$pair@$$CBV?$basic_string@DU?$char_traits@D@std@@V?$allocator@D@2@@std@@V?$list@IV?$allocator@I@std@@@2@@std@@PAX@std@@@1@PAPAU?$_Tree_node@U?$pair@$$CBV?$basic_string@DU?$char_traits@D@std@@V?$allocator@D@2@@std@@V?$list@IV?$allocator@I@std@@@2@@std@@PAX@1@@Z 10002c60 f i ClientSession.obj
 0001:00001c60       ??$destroy@I@?$allocator_traits@V?$allocator@U?$_List_node@IPAX@std@@@std@@@std@@SAXAAV?$allocator@U?$_List_node@IPAX@std@@@1@PAI@Z 10002c60 f i ClientSession.obj
 0001:00001c60       ??$destroy@PAVIAccount@@@?$allocator_traits@V?$allocator@U?$_List_node@PAVIAccount@@PAX@std@@@std@@@std@@SAXAAV?$allocator@U?$_List_node@PAVIAccount@@PAX@std@@@1@PAPAVIAccount@@@Z 10002c60 f i ClientSession.obj
 0001:00001c60       ??$destroy@PAD@?$allocator_traits@V?$allocator@D@std@@@std@@SAXAAV?$allocator@D@1@PAPAD@Z 10002c60 f i ClientProtocolImpl.obj
 0001:00001c60       ??$destroy@U?$pair@$$CBIPAVIClientSession@@@std@@@?$allocator_traits@V?$allocator@U?$_Tree_node@U?$pair@$$CBIPAVIClientSession@@@std@@PAX@std@@@std@@@std@@SAXAAV?$allocator@U?$_Tree_node@U?$pair@$$CBIPAVIClientSession@@@std@@PAX@std@@@1@PAU?$pair@$$CBIPAVIClientSession@@@1@@Z 10002c60 f i ClientSession.obj
 0001:00001c60       ??$destroy@PAU?$_List_node@PAVIAccount@@PAX@std@@@?$allocator_traits@V?$allocator@U?$_List_node@PAVIAccount@@PAX@std@@@std@@@std@@SAXAAV?$allocator@U?$_List_node@PAVIAccount@@PAX@std@@@1@PAPAU?$_List_node@PAVIAccount@@PAX@1@@Z 10002c60 f i ClientSession.obj
 0001:00001c60       ??$destroy@PAVIClientSession@@@?$allocator_traits@V?$allocator@U?$_List_node@PAVIClientSession@@PAX@std@@@std@@@std@@SAXAAV?$allocator@U?$_List_node@PAVIClientSession@@PAX@std@@@1@PAPAVIClientSession@@@Z 10002c60 f i ClientSession.obj
 0001:00001c80       ??$construct@PAVIClientSession@@ABQAV1@@?$allocator_traits@V?$allocator@U?$_List_node@PAVIClientSession@@PAX@std@@@std@@@std@@SAXAAV?$allocator@U?$_List_node@PAVIClientSession@@PAX@std@@@1@PAPAVIClientSession@@ABQAV3@@Z 10002c80 f i ClientSession.obj
 0001:00001c80       ??$construct@II@?$allocator_traits@V?$allocator@U?$_List_node@IPAX@std@@@std@@@std@@SAXAAV?$allocator@U?$_List_node@IPAX@std@@@1@PAI$$QAI@Z 10002c80 f i ClientSession.obj
 0001:00001c80       ??$construct@PAU?$_Tree_node@U?$pair@$$CBIPAVIClientSession@@@std@@PAX@std@@AAPAU12@@?$allocator_traits@V?$allocator@U?$_Tree_node@U?$pair@$$CBIPAVIClientSession@@@std@@PAX@std@@@std@@@std@@SAXAAV?$allocator@U?$_Tree_node@U?$pair@$$CBIPAVIClientSession@@@std@@PAX@std@@@1@PAPAU?$_Tree_node@U?$pair@$$CBIPAVIClientSession@@@std@@PAX@1@AAPAU31@@Z 10002c80 f i ClientSession.obj
 0001:00001c80       ??$construct@PAU?$_List_node@IPAX@std@@AAPAU12@@?$allocator_traits@V?$allocator@U?$_List_node@IPAX@std@@@std@@@std@@SAXAAV?$allocator@U?$_List_node@IPAX@std@@@1@PAPAU?$_List_node@IPAX@1@AAPAU31@@Z 10002c80 f i ClientSession.obj
 0001:00001c80       ??$construct@PADAAPAD@?$allocator_traits@V?$allocator@D@std@@@std@@SAXAAV?$allocator@D@1@PAPADAAPAD@Z 10002c80 f i ClientProtocolImpl.obj
 0001:00001c80       ??$construct@PAU?$_Tree_node@U?$pair@$$CBV?$basic_string@DU?$char_traits@D@std@@V?$allocator@D@2@@std@@V?$list@IV?$allocator@I@std@@@2@@std@@PAX@std@@AAPAU12@@?$allocator_traits@V?$allocator@U?$_Tree_node@U?$pair@$$CBV?$basic_string@DU?$char_traits@D@std@@V?$allocator@D@2@@std@@V?$list@IV?$allocator@I@std@@@2@@std@@PAX@std@@@std@@@std@@SAXAAV?$allocator@U?$_Tree_node@U?$pair@$$CBV?$basic_string@DU?$char_traits@D@std@@V?$allocator@D@2@@std@@V?$list@IV?$allocator@I@std@@@2@@std@@PAX@std@@@1@PAPAU?$_Tree_node@U?$pair@$$CBV?$basic_string@DU?$char_traits@D@std@@V?$allocator@D@2@@std@@V?$list@IV?$allocator@I@std@@@2@@std@@PAX@1@AAPAU31@@Z 10002c80 f i ClientSession.obj
 0001:00001c80       ??$construct@IABI@?$allocator_traits@V?$allocator@U?$_List_node@IPAX@std@@@std@@@std@@SAXAAV?$allocator@U?$_List_node@IPAX@std@@@1@PAIABI@Z 10002c80 f i ClientSession.obj
 0001:00001c80       ??$construct@PAU?$_List_node@PAVIClientSession@@PAX@std@@AAPAU12@@?$allocator_traits@V?$allocator@U?$_List_node@PAVIClientSession@@PAX@std@@@std@@@std@@SAXAAV?$allocator@U?$_List_node@PAVIClientSession@@PAX@std@@@1@PAPAU?$_List_node@PAVIClientSession@@PAX@1@AAPAU31@@Z 10002c80 f i ClientSession.obj
 0001:00001c80       ??$construct@PA_WAAPA_W@?$allocator_traits@V?$allocator@_W@std@@@std@@SAXAAV?$allocator@_W@1@PAPA_WAAPA_W@Z 10002c80 f i JSONHandler.obj
 0001:00001c80       ??$construct@PAU?$_List_node@PAVIAccount@@PAX@std@@AAPAU12@@?$allocator_traits@V?$allocator@U?$_List_node@PAVIAccount@@PAX@std@@@std@@@std@@SAXAAV?$allocator@U?$_List_node@PAVIAccount@@PAX@std@@@1@PAPAU?$_List_node@PAVIAccount@@PAX@1@AAPAU31@@Z 10002c80 f i ClientSession.obj
 0001:00001c80       ??$construct@PAVIAccount@@ABQAV1@@?$allocator_traits@V?$allocator@U?$_List_node@PAVIAccount@@PAX@std@@@std@@@std@@SAXAAV?$allocator@U?$_List_node@PAVIAccount@@PAX@std@@@1@PAPAVIAccount@@ABQAV3@@Z 10002c80 f i ClientSession.obj
 0001:00001ca0       ?_Compat@?$_String_const_iterator@V?$_String_val@U?$_Simple_types@D@std@@@std@@@std@@QBEXABV12@@Z 10002ca0 f i ClientSession.obj
 0001:00001ca0       ??$destroy@U?$pair@$$CBIPAVIClientSession@@@std@@@?$allocator@U?$_Tree_node@U?$pair@$$CBIPAVIClientSession@@@std@@PAX@std@@@std@@QAEXPAU?$pair@$$CBIPAVIClientSession@@@1@@Z 10002ca0 f i ClientSession.obj
 0001:00001ca0       ??$destroy@PAD@?$allocator@D@std@@QAEXPAPAD@Z 10002ca0 f i ClientProtocolImpl.obj
 0001:00001ca0       ??$destroy@PAU?$_List_node@PAVIAccount@@PAX@std@@@?$allocator@U?$_List_node@PAVIAccount@@PAX@std@@@std@@QAEXPAPAU?$_List_node@PAVIAccount@@PAX@1@@Z 10002ca0 f i ClientSession.obj
 0001:00001ca0       ??$destroy@PAU?$_Tree_node@U?$pair@$$CBIPAVIClientSession@@@std@@PAX@std@@@?$allocator@U?$_Tree_node@U?$pair@$$CBIPAVIClientSession@@@std@@PAX@std@@@std@@QAEXPAPAU?$_Tree_node@U?$pair@$$CBIPAVIClientSession@@@std@@PAX@1@@Z 10002ca0 f i ClientSession.obj
 0001:00001ca0       ??$destroy@PAU?$_Tree_node@U?$pair@$$CBV?$basic_string@DU?$char_traits@D@std@@V?$allocator@D@2@@std@@V?$list@IV?$allocator@I@std@@@2@@std@@PAX@std@@@?$allocator@U?$_Tree_node@U?$pair@$$CBV?$basic_string@DU?$char_traits@D@std@@V?$allocator@D@2@@std@@V?$list@IV?$allocator@I@std@@@2@@std@@PAX@std@@@std@@QAEXPAPAU?$_Tree_node@U?$pair@$$CBV?$basic_string@DU?$char_traits@D@std@@V?$allocator@D@2@@std@@V?$list@IV?$allocator@I@std@@@2@@std@@PAX@1@@Z 10002ca0 f i ClientSession.obj
 0001:00001ca0       ??$destroy@PAVIClientSession@@@?$allocator@U?$_List_node@PAVIClientSession@@PAX@std@@@std@@QAEXPAPAVIClientSession@@@Z 10002ca0 f i ClientSession.obj
 0001:00001ca0       ??$destroy@I@?$allocator@U?$_List_node@IPAX@std@@@std@@QAEXPAI@Z 10002ca0 f i ClientSession.obj
 0001:00001ca0       ??$destroy@PAU?$_List_node@IPAX@std@@@?$allocator@U?$_List_node@IPAX@std@@@std@@QAEXPAPAU?$_List_node@IPAX@1@@Z 10002ca0 f i ClientSession.obj
 0001:00001ca0       ??$destroy@PAVIAccount@@@?$allocator@U?$_List_node@PAVIAccount@@PAX@std@@@std@@QAEXPAPAVIAccount@@@Z 10002ca0 f i ClientSession.obj
 0001:00001ca0       ??$destroy@PA_W@?$allocator@_W@std@@QAEXPAPA_W@Z 10002ca0 f i JSONHandler.obj
 0001:00001ca0       ?_Adopt@_Iterator_base0@std@@QAEXPBX@Z 10002ca0 f i ClientSession.obj
 0001:00001ca0       ??$destroy@PAU?$_List_node@PAVIClientSession@@PAX@std@@@?$allocator@U?$_List_node@PAVIClientSession@@PAX@std@@@std@@QAEXPAPAU?$_List_node@PAVIClientSession@@PAX@1@@Z 10002ca0 f i ClientSession.obj
 0001:00001cb0       ??$construct@PAVIAccount@@ABQAV1@@?$allocator@U?$_List_node@PAVIAccount@@PAX@std@@@std@@QAEXPAPAVIAccount@@ABQAV2@@Z 10002cb0 f i ClientSession.obj
 0001:00001cb0       ??$construct@II@?$allocator@U?$_List_node@IPAX@std@@@std@@QAEXPAI$$QAI@Z 10002cb0 f i ClientSession.obj
 0001:00001cb0       ??$construct@PAU?$_Tree_node@U?$pair@$$CBV?$basic_string@DU?$char_traits@D@std@@V?$allocator@D@2@@std@@V?$list@IV?$allocator@I@std@@@2@@std@@PAX@std@@AAPAU12@@?$allocator@U?$_Tree_node@U?$pair@$$CBV?$basic_string@DU?$char_traits@D@std@@V?$allocator@D@2@@std@@V?$list@IV?$allocator@I@std@@@2@@std@@PAX@std@@@std@@QAEXPAPAU?$_Tree_node@U?$pair@$$CBV?$basic_string@DU?$char_traits@D@std@@V?$allocator@D@2@@std@@V?$list@IV?$allocator@I@std@@@2@@std@@PAX@1@AAPAU21@@Z 10002cb0 f i ClientSession.obj
 0001:00001cb0       ??$construct@PAU?$_List_node@IPAX@std@@AAPAU12@@?$allocator@U?$_List_node@IPAX@std@@@std@@QAEXPAPAU?$_List_node@IPAX@1@AAPAU21@@Z 10002cb0 f i ClientSession.obj
 0001:00001cb0       ??$construct@PAU?$_Tree_node@U?$pair@$$CBIPAVIClientSession@@@std@@PAX@std@@AAPAU12@@?$allocator@U?$_Tree_node@U?$pair@$$CBIPAVIClientSession@@@std@@PAX@std@@@std@@QAEXPAPAU?$_Tree_node@U?$pair@$$CBIPAVIClientSession@@@std@@PAX@1@AAPAU21@@Z 10002cb0 f i ClientSession.obj
 0001:00001cb0       ??$construct@PAU?$_List_node@PAVIAccount@@PAX@std@@AAPAU12@@?$allocator@U?$_List_node@PAVIAccount@@PAX@std@@@std@@QAEXPAPAU?$_List_node@PAVIAccount@@PAX@1@AAPAU21@@Z 10002cb0 f i ClientSession.obj
 0001:00001cb0       ??$construct@PA_WAAPA_W@?$allocator@_W@std@@QAEXPAPA_WAAPA_W@Z 10002cb0 f i JSONHandler.obj
 0001:00001cb0       ??$construct@PADAAPAD@?$allocator@D@std@@QAEXPAPADAAPAD@Z 10002cb0 f i ClientProtocolImpl.obj
 0001:00001cb0       ??$construct@IABI@?$allocator@U?$_List_node@IPAX@std@@@std@@QAEXPAIABI@Z 10002cb0 f i ClientSession.obj
 0001:00001cb0       ??$construct@PAVIClientSession@@ABQAV1@@?$allocator@U?$_List_node@PAVIClientSession@@PAX@std@@@std@@QAEXPAPAVIClientSession@@ABQAV2@@Z 10002cb0 f i ClientSession.obj
 0001:00001cb0       ??$construct@PAU?$_List_node@PAVIClientSession@@PAX@std@@AAPAU12@@?$allocator@U?$_List_node@PAVIClientSession@@PAX@std@@@std@@QAEXPAPAU?$_List_node@PAVIClientSession@@PAX@1@AAPAU21@@Z 10002cb0 f i ClientSession.obj
 0001:00001d00       ?strstr@@YAPADQADQBD@Z     10002d00 f i ClientSession.obj
 0001:00001d20       ??$__vcrt_va_start_verify_argument_type@QB_W@@YAXXZ 10002d20 f i ClientSession.obj
 0001:00001d20       ??3@YAXPAX0@Z              10002d20 f i ClientSession.obj
 0001:00001d20       ??$__vcrt_va_start_verify_argument_type@QBD@@YAXXZ 10002d20 f i ClientSession.obj
 0001:00001d30       ___local_stdio_printf_options 10002d30 f i ClientSession.obj
 0001:00001d40       __vfwprintf_l              10002d40 f i ClientSession.obj
 0001:00001d70       _wprintf                   10002d70 f i ClientSession.obj
 0001:00001db0       __vfprintf_l               10002db0 f i ClientSession.obj
 0001:00001de0       _printf                    10002de0 f i ClientSession.obj
 0001:00001e20       __vsprintf_s_l             10002e20 f i ClientSession.obj
 0001:00001e70       _sprintf_s                 10002e70 f i ClientSession.obj
 0001:00001eb0       ?compare@?$char_traits@D@std@@SAHPBD0I@Z 10002eb0 f i ClientSession.obj
 0001:00001ef0       ?find@?$char_traits@D@std@@SAPBDPBDIABD@Z 10002ef0 f i ClientSession.obj
 0001:00001f30       ?_Getcont@_Iterator_base0@std@@QBEPBU_Container_base0@2@XZ 10002f30 f i ClientSession.obj
 0001:00001f40       ??0?$allocator@_W@std@@QAE@ABV01@@Z 10002f40 f i JSONHandler.obj
 0001:00001f40       ??0?$tuple@$$V@std@@QAE@ABV01@@Z 10002f40 f i ClientSession.obj
 0001:00001f40       ??0?$allocator@U?$_Tree_node@U?$pair@$$CBIPAVIClientSession@@@std@@PAX@std@@@std@@QAE@ABV01@@Z 10002f40 f i ClientSession.obj
 0001:00001f40       ??0?$allocator@U?$_List_node@IPAX@std@@@std@@QAE@ABV01@@Z 10002f40 f i ClientSession.obj
 0001:00001f40       ??$?0U_Exact_args_t@std@@$0A@@?$tuple@$$V@std@@QAE@U_Exact_args_t@1@@Z 10002f40 f i ClientSession.obj
 0001:00001f40       ??0?$allocator@D@std@@QAE@ABV01@@Z 10002f40 f i ClientSession.obj
 0001:00001f50       ??0_com_error@@QAE@JPAUIErrorInfo@@_N@Z 10002f50 f i ClientSession.obj
 0001:00001fb0       ??1_com_error@@UAE@XZ      10002fb0 f i ClientSession.obj
 0001:00002000       ?WCode@_com_error@@QBEGXZ  10003000 f i ClientSession.obj
 0001:00002020       ?ErrorMessage@_com_error@@QBEPBDXZ 10003020 f i ClientSession.obj
 0001:00002160       ?HRESULTToWCode@_com_error@@SAGJ@Z 10003160 f i ClientSession.obj
 0001:000021a0       ??_E_com_error@@UAEPAXI@Z  100031a0 f i * CIL library *:* CIL module *
 0001:000021a0       ??_G_com_error@@UAEPAXI@Z  100031a0 f i ClientSession.obj
 0001:000021d0       ??1IClientSession@@UAE@XZ  100031d0 f i ClientSession.obj
 0001:000021f0       ??_GIClientSession@@UAEPAXI@Z 100031f0 f i ClientSession.obj
 0001:000021f0       ??_EIClientSession@@UAEPAXI@Z 100031f0 f i * CIL library *:* CIL module *
 0001:00002220       ??1IClientSessionMgr@@UAE@XZ 10003220 f i ClientSession.obj
 0001:00002240       ??_GIClientSessionMgr@@UAEPAXI@Z 10003240 f i ClientSession.obj
 0001:00002240       ??_EIClientSessionMgr@@UAEPAXI@Z 10003240 f i * CIL library *:* CIL module *
 0001:00002270       ?GetAccountList@ClientSession@@UAEAAV?$list@PAVIAccount@@V?$allocator@PAVIAccount@@@std@@@std@@XZ 10003270 f i ClientSession.obj
 0001:00002290       ??0ClientSession@@QAE@IPADG@Z 10003290 f   ClientSession.obj
 0001:00002420       ??_GClientSession@@UAEPAXI@Z 10003420 f i ClientSession.obj
 0001:00002420       ??_EClientSession@@UAEPAXI@Z 10003420 f i * CIL library *:* CIL module *
 0001:00002460       ??0IClientSession@@QAE@XZ  10003460 f i ClientSession.obj
 0001:00002480       ?CreateWebsocketServerHandle@ClientSession@@QAE_NXZ 10003480 f   ClientSession.obj
 0001:000024e0       ??1ClientSession@@UAE@XZ   100034e0 f   ClientSession.obj
 0001:000025b0       ?GetClientId@ClientSession@@UAEIXZ 100035b0 f   ClientSession.obj
 0001:000025d0       ?GetClientIp@ClientSession@@UAEPADXZ 100035d0 f   ClientSession.obj
 0001:000025f0       ?GetclientPort@ClientSession@@UAEGXZ 100035f0 f   ClientSession.obj
 0001:00002610       ?IsHandShakeDone@ClientSession@@UAE_NXZ 10003610 f   ClientSession.obj
 0001:00002630       ?HandleBinaryRecdBuffer@ClientSession@@QAEXPADIPAVIServerProtocolEvents@@@Z 10003630 f   ClientSession.obj
 0001:000026a0       ?HandleWebsocketDataFrame@ClientSession@@QAEHPADIPAVIServerProtocolEvents@@@Z 100036a0 f   ClientSession.obj
 0001:000037e0       ?HandleRecdBuffer@ClientSession@@UAEXPADIPAVIServerProtocolEvents@@0AAH@Z 100047e0 f   ClientSession.obj
 0001:00004ac0       ?CheckHeartbeat@ClientSession@@UAEHXZ 10005ac0 f   ClientSession.obj
 0001:00004b40       ?AddAccount@ClientSession@@UAEXPAVIAccount@@@Z 10005b40 f   ClientSession.obj
 0001:00004b80       ?RemoveAccount@ClientSession@@UAE?AV?$_List_iterator@V?$_List_val@U?$_List_simple_types@PAVIAccount@@@std@@@std@@@std@@PAVIAccount@@AAV23@@Z 10005b80 f   ClientSession.obj
 0001:00004be0       ?SetUserName@ClientSession@@UAEXPAD@Z 10005be0 f   ClientSession.obj
 0001:00004c00       ?GetUserNameA@ClientSession@@UAEPBDXZ 10005c00 f   ClientSession.obj
 0001:00004c20       ??0ClientSessionMgr@@QAE@PAVIServerProtocol@@@Z 10005c20 f   ClientSession.obj
 0001:00004cf0       ??_EClientSessionMgr@@UAEPAXI@Z 10005cf0 f i * CIL library *:* CIL module *
 0001:00004cf0       ??_GClientSessionMgr@@UAEPAXI@Z 10005cf0 f i ClientSession.obj
 0001:00004d20       ??0IClientSessionMgr@@QAE@XZ 10005d20 f i ClientSession.obj
 0001:00004d40       ??1?$map@IPAVIClientSession@@U?$less@I@std@@V?$allocator@U?$pair@$$CBIPAVIClientSession@@@std@@@3@@std@@QAE@XZ 10005d40 f i ClientSession.obj
 0001:00004d60       ??1?$map@V?$basic_string@DU?$char_traits@D@std@@V?$allocator@D@2@@std@@V?$list@IV?$allocator@I@std@@@2@U?$less@V?$basic_string@DU?$char_traits@D@std@@V?$allocator@D@2@@std@@@2@V?$allocator@U?$pair@$$CBV?$basic_string@DU?$char_traits@D@std@@V?$allocator@D@2@@std@@V?$list@IV?$allocator@I@std@@@2@@std@@@2@@std@@QAE@XZ 10005d60 f i ClientSession.obj
 0001:00004d80       ??1ClientSessionMgr@@UAE@XZ 10005d80 f   ClientSession.obj
 0001:00004ea0       ?UpdateSendTime@ClientSessionMgr@@UAE_NI@Z 10005ea0 f   ClientSession.obj
 0001:00004f30       ?Add@ClientSessionMgr@@UAEXIPADG@Z 10005f30 f   ClientSession.obj
 0001:00005000       ?AcquireSessionLock@ClientSessionMgr@@UAEXXZ 10006000 f   ClientSession.obj
 0001:00005030       ?ReleaseSessionLock@ClientSessionMgr@@UAEXXZ 10006030 f   ClientSession.obj
 0001:00005060       ?AddUserName@ClientSessionMgr@@UAEXIV?$basic_string@DU?$char_traits@D@std@@V?$allocator@D@2@@std@@@Z 10006060 f   ClientSession.obj
 0001:00005230       ??1?$pair@V?$basic_string@DU?$char_traits@D@std@@V?$allocator@D@2@@std@@V?$list@IV?$allocator@I@std@@@2@@std@@QAE@XZ 10006230 f i ClientSession.obj
 0001:00005230       ??1?$pair@$$CBV?$basic_string@DU?$char_traits@D@std@@V?$allocator@D@2@@std@@V?$list@IV?$allocator@I@std@@@2@@std@@QAE@XZ 10006230 f i ClientSession.obj
 0001:00005250       ?Remove@ClientSessionMgr@@UAEXI@Z 10006250 f   ClientSession.obj
 0001:000053e0       ?GetClientSessionList@ClientSessionMgr@@UAEPAV?$list@IV?$allocator@I@std@@@std@@V?$basic_string@DU?$char_traits@D@std@@V?$allocator@D@2@@3@@Z 100063e0 f   ClientSession.obj
 0001:00005480       ?GetClientSession@ClientSessionMgr@@UAEPAVIClientSession@@I@Z 10006480 f   ClientSession.obj
 0001:00005500       ?DisconnectClient@ClientSessionMgr@@UAEXI@Z 10006500 f   ClientSession.obj
 0001:00005530       ?IsShutdown@ClientSessionMgr@@UAE_NXZ 10006530 f   ClientSession.obj
 0001:00005550       ?ConnectionReviewer@ClientSessionMgr@@SAKPAX@Z 10006550 f   ClientSession.obj
 0001:00005720       ?GetClientSessionMap@ClientSessionMgr@@QAEAAV?$map@IPAVIClientSession@@U?$less@I@std@@V?$allocator@U?$pair@$$CBIPAVIClientSession@@@std@@@3@@std@@XZ 10006720 f   ClientSession.obj
 0001:00005740       ?AcquireCS@ClientSessionMgr@@QAEXXZ 10006740 f   ClientSession.obj
 0001:00005760       ?ReleaseCS@ClientSessionMgr@@QAEXXZ 10006760 f   ClientSession.obj
 0001:00005780       ?SetGroupID@ClientSession@@UAEXH@Z 10006780 f   ClientSession.obj
 0001:000057a0       ?GetGroupID@ClientSession@@UAEHXZ 100067a0 f   ClientSession.obj
 0001:000057c0       ?WebsocketSend@ClientSession@@UAE_NPAXIPAVSocket@@@Z 100067c0 f   ClientSession.obj
 0001:00005ee0       ?HandleProcessedWebsocketData@ClientSession@@QAEHPADIPAVIServerProtocolEvents@@@Z 10006ee0 f   ClientSession.obj
 0001:00006460       ??D?$_Tree_iterator@V?$_Tree_val@U?$_Tree_simple_types@U?$pair@$$CBV?$basic_string@DU?$char_traits@D@std@@V?$allocator@D@2@@std@@V?$list@IV?$allocator@I@std@@@2@@std@@@std@@@std@@@std@@QBEAAU?$pair@$$CBV?$basic_string@DU?$char_traits@D@std@@V?$allocator@D@2@@std@@V?$list@IV?$allocator@I@std@@@2@@1@XZ 10007460 f i ClientSession.obj
 0001:00006460       ??D?$_Tree_iterator@V?$_Tree_val@U?$_Tree_simple_types@U?$pair@$$CBIPAVIClientSession@@@std@@@std@@@std@@@std@@QBEAAU?$pair@$$CBIPAVIClientSession@@@1@XZ 10007460 f i ClientSession.obj
 0001:00006480       ??9?$_List_const_iterator@V?$_List_val@U?$_List_simple_types@PAVIClientSession@@@std@@@std@@@std@@QBE_NABV01@@Z 10007480 f i ClientSession.obj
 0001:00006480       ??9?$_Tree_const_iterator@V?$_Tree_val@U?$_Tree_simple_types@U?$pair@$$CBV?$basic_string@DU?$char_traits@D@std@@V?$allocator@D@2@@std@@V?$list@IV?$allocator@I@std@@@2@@std@@@std@@@std@@@std@@QBE_NABV01@@Z 10007480 f i ClientSession.obj
 0001:00006480       ??9?$_Tree_const_iterator@V?$_Tree_val@U?$_Tree_simple_types@U?$pair@$$CBIPAVIClientSession@@@std@@@std@@@std@@@std@@QBE_NABV01@@Z 10007480 f i ClientSession.obj
 0001:00006480       ??9?$_List_const_iterator@V?$_List_val@U?$_List_simple_types@I@std@@@std@@@std@@QBE_NABV01@@Z 10007480 f i ClientSession.obj
 0001:000064c0       ?find@?$_Tree@V?$_Tmap_traits@V?$basic_string@DU?$char_traits@D@std@@V?$allocator@D@2@@std@@V?$list@IV?$allocator@I@std@@@2@U?$less@V?$basic_string@DU?$char_traits@D@std@@V?$allocator@D@2@@std@@@2@V?$allocator@U?$pair@$$CBV?$basic_string@DU?$char_traits@D@std@@V?$allocator@D@2@@std@@V?$list@IV?$allocator@I@std@@@2@@std@@@2@$0A@@std@@@std@@QAE?AV?$_Tree_iterator@V?$_Tree_val@U?$_Tree_simple_types@U?$pair@$$CBV?$basic_string@DU?$char_traits@D@std@@V?$allocator@D@2@@std@@V?$list@IV?$allocator@I@std@@@2@@std@@@std@@@std@@@2@ABV?$basic_string@DU?$char_traits@D@std@@V?$allocator@D@2@@2@@Z 100074c0 f i ClientSession.obj
 0001:00006560       ?erase@?$_Tree@V?$_Tmap_traits@V?$basic_string@DU?$char_traits@D@std@@V?$allocator@D@2@@std@@V?$list@IV?$allocator@I@std@@@2@U?$less@V?$basic_string@DU?$char_traits@D@std@@V?$allocator@D@2@@std@@@2@V?$allocator@U?$pair@$$CBV?$basic_string@DU?$char_traits@D@std@@V?$allocator@D@2@@std@@V?$list@IV?$allocator@I@std@@@2@@std@@@2@$0A@@std@@@std@@QAE?AV?$_Tree_iterator@V?$_Tree_val@U?$_Tree_simple_types@U?$pair@$$CBV?$basic_string@DU?$char_traits@D@std@@V?$allocator@D@2@@std@@V?$list@IV?$allocator@I@std@@@2@@std@@@std@@@std@@@2@V?$_Tree_const_iterator@V?$_Tree_val@U?$_Tree_simple_types@U?$pair@$$CBV?$basic_string@DU?$char_traits@D@std@@V?$allocator@D@2@@std@@V?$list@IV?$allocator@I@std@@@2@@std@@@std@@@std@@@2@@Z 10007560 f i ClientSession.obj
 0001:00006ce0       ?end@?$_Tree@V?$_Tmap_traits@V?$basic_string@DU?$char_traits@D@std@@V?$allocator@D@2@@std@@V?$list@IV?$allocator@I@std@@@2@U?$less@V?$basic_string@DU?$char_traits@D@std@@V?$allocator@D@2@@std@@@2@V?$allocator@U?$pair@$$CBV?$basic_string@DU?$char_traits@D@std@@V?$allocator@D@2@@std@@V?$list@IV?$allocator@I@std@@@2@@std@@@2@$0A@@std@@@std@@QAE?AV?$_Tree_iterator@V?$_Tree_val@U?$_Tree_simple_types@U?$pair@$$CBV?$basic_string@DU?$char_traits@D@std@@V?$allocator@D@2@@std@@V?$list@IV?$allocator@I@std@@@2@@std@@@std@@@std@@@2@XZ 10007ce0 f i ClientSession.obj
 0001:00006ce0       ?end@?$_Tree@V?$_Tmap_traits@IPAVIClientSession@@U?$less@I@std@@V?$allocator@U?$pair@$$CBIPAVIClientSession@@@std@@@3@$0A@@std@@@std@@QAE?AV?$_Tree_iterator@V?$_Tree_val@U?$_Tree_simple_types@U?$pair@$$CBIPAVIClientSession@@@std@@@std@@@std@@@2@XZ 10007ce0 f i ClientSession.obj
 0001:00006d40       ??1?$_Tree@V?$_Tmap_traits@V?$basic_string@DU?$char_traits@D@std@@V?$allocator@D@2@@std@@V?$list@IV?$allocator@I@std@@@2@U?$less@V?$basic_string@DU?$char_traits@D@std@@V?$allocator@D@2@@std@@@2@V?$allocator@U?$pair@$$CBV?$basic_string@DU?$char_traits@D@std@@V?$allocator@D@2@@std@@V?$list@IV?$allocator@I@std@@@2@@std@@@2@$0A@@std@@@std@@QAE@XZ 10007d40 f i ClientSession.obj
 0001:00006d90       ??0?$map@V?$basic_string@DU?$char_traits@D@std@@V?$allocator@D@2@@std@@V?$list@IV?$allocator@I@std@@@2@U?$less@V?$basic_string@DU?$char_traits@D@std@@V?$allocator@D@2@@std@@@2@V?$allocator@U?$pair@$$CBV?$basic_string@DU?$char_traits@D@std@@V?$allocator@D@2@@std@@V?$list@IV?$allocator@I@std@@@2@@std@@@2@@std@@QAE@XZ 10007d90 f i ClientSession.obj
 0001:00006db0       ??E?$_Tree_iterator@V?$_Tree_val@U?$_Tree_simple_types@U?$pair@$$CBIPAVIClientSession@@@std@@@std@@@std@@@std@@QAE?AV01@H@Z 10007db0 f i ClientSession.obj
 0001:00006de0       ??C?$_Tree_iterator@V?$_Tree_val@U?$_Tree_simple_types@U?$pair@$$CBIPAVIClientSession@@@std@@@std@@@std@@@std@@QBEPAU?$pair@$$CBIPAVIClientSession@@@1@XZ 10007de0 f i ClientSession.obj
 0001:00006e00       ??0?$_Tree_iterator@V?$_Tree_val@U?$_Tree_simple_types@U?$pair@$$CBIPAVIClientSession@@@std@@@std@@@std@@@std@@QAE@XZ 10007e00 f i ClientSession.obj
 0001:00006e20       ?find@?$_Tree@V?$_Tmap_traits@IPAVIClientSession@@U?$less@I@std@@V?$allocator@U?$pair@$$CBIPAVIClientSession@@@std@@@3@$0A@@std@@@std@@QAE?AV?$_Tree_iterator@V?$_Tree_val@U?$_Tree_simple_types@U?$pair@$$CBIPAVIClientSession@@@std@@@std@@@std@@@2@ABI@Z 10007e20 f i ClientSession.obj
 0001:00006ec0       ?clear@?$_Tree@V?$_Tmap_traits@IPAVIClientSession@@U?$less@I@std@@V?$allocator@U?$pair@$$CBIPAVIClientSession@@@std@@@3@$0A@@std@@@std@@QAEXXZ 10007ec0 f i ClientSession.obj
 0001:00006f60       ?erase@?$_Tree@V?$_Tmap_traits@IPAVIClientSession@@U?$less@I@std@@V?$allocator@U?$pair@$$CBIPAVIClientSession@@@std@@@3@$0A@@std@@@std@@QAE?AV?$_Tree_iterator@V?$_Tree_val@U?$_Tree_simple_types@U?$pair@$$CBIPAVIClientSession@@@std@@@std@@@std@@@2@V?$_Tree_const_iterator@V?$_Tree_val@U?$_Tree_simple_types@U?$pair@$$CBIPAVIClientSession@@@std@@@std@@@std@@@2@@Z 10007f60 f i ClientSession.obj
 0001:000076e0       ?size@?$_Tree@V?$_Tmap_traits@IPAVIClientSession@@U?$less@I@std@@V?$allocator@U?$pair@$$CBIPAVIClientSession@@@std@@@3@$0A@@std@@@std@@QBEIXZ 100086e0 f i ClientSession.obj
 0001:00007700       ?begin@?$_Tree@V?$_Tmap_traits@IPAVIClientSession@@U?$less@I@std@@V?$allocator@U?$pair@$$CBIPAVIClientSession@@@std@@@3@$0A@@std@@@std@@QAE?AV?$_Tree_iterator@V?$_Tree_val@U?$_Tree_simple_types@U?$pair@$$CBIPAVIClientSession@@@std@@@std@@@std@@@2@XZ 10008700 f i ClientSession.obj
 0001:00007700       ?begin@?$_Tree@V?$_Tmap_traits@V?$basic_string@DU?$char_traits@D@std@@V?$allocator@D@2@@std@@V?$list@IV?$allocator@I@std@@@2@U?$less@V?$basic_string@DU?$char_traits@D@std@@V?$allocator@D@2@@std@@@2@V?$allocator@U?$pair@$$CBV?$basic_string@DU?$char_traits@D@std@@V?$allocator@D@2@@std@@V?$list@IV?$allocator@I@std@@@2@@std@@@2@$0A@@std@@@std@@QAE?AV?$_Tree_iterator@V?$_Tree_val@U?$_Tree_simple_types@U?$pair@$$CBV?$basic_string@DU?$char_traits@D@std@@V?$allocator@D@2@@std@@V?$list@IV?$allocator@I@std@@@2@@std@@@std@@@std@@@2@XZ 10008700 f i ClientSession.obj
 0001:00007760       ??1?$_Tree@V?$_Tmap_traits@IPAVIClientSession@@U?$less@I@std@@V?$allocator@U?$pair@$$CBIPAVIClientSession@@@std@@@3@$0A@@std@@@std@@QAE@XZ 10008760 f i ClientSession.obj
 0001:000077b0       ??A?$map@IPAVIClientSession@@U?$less@I@std@@V?$allocator@U?$pair@$$CBIPAVIClientSession@@@std@@@3@@std@@QAEAAPAVIClientSession@@ABI@Z 100087b0 f i ClientSession.obj
 0001:000077e0       ??0?$map@IPAVIClientSession@@U?$less@I@std@@V?$allocator@U?$pair@$$CBIPAVIClientSession@@@std@@@3@@std@@QAE@ABV01@@Z 100087e0 f i ClientSession.obj
 0001:00007820       ??0?$map@IPAVIClientSession@@U?$less@I@std@@V?$allocator@U?$pair@$$CBIPAVIClientSession@@@std@@@3@@std@@QAE@XZ 10008820 f i ClientSession.obj
 0001:00007840       ?remove@?$list@IV?$allocator@I@std@@@std@@QAEXABI@Z 10008840 f i ClientSession.obj
 0001:00007930       ?empty@?$list@IV?$allocator@I@std@@@std@@QBE_NXZ 10008930 f i ClientSession.obj
 0001:00007960       ??1?$list@PAVIAccount@@V?$allocator@PAVIAccount@@@std@@@std@@QAE@XZ 10008960 f i ClientSession.obj
 0001:00007960       ??1?$list@IV?$allocator@I@std@@@std@@QAE@XZ 10008960 f i ClientSession.obj
 0001:00007960       ??1?$list@PAVIClientSession@@V?$allocator@PAVIClientSession@@@std@@@std@@QAE@XZ 10008960 f i ClientSession.obj
 0001:000079b0       ?push_back@?$list@IV?$allocator@I@std@@@std@@QAEX$$QAI@Z 100089b0 f i ClientSession.obj
 0001:000079f0       ??0?$list@IV?$allocator@I@std@@@std@@QAE@XZ 100089f0 f i ClientSession.obj
 0001:000079f0       ??0?$list@PAVIClientSession@@V?$allocator@PAVIClientSession@@@std@@@std@@QAE@XZ 100089f0 f i ClientSession.obj
 0001:000079f0       ??0?$list@PAVIAccount@@V?$allocator@PAVIAccount@@@std@@@std@@QAE@XZ 100089f0 f i ClientSession.obj
 0001:00007a10       ?erase@?$list@IV?$allocator@I@std@@@std@@QAE?AV?$_List_iterator@V?$_List_val@U?$_List_simple_types@I@std@@@std@@@2@V?$_List_const_iterator@V?$_List_val@U?$_List_simple_types@I@std@@@std@@@2@@Z 10008a10 f i ClientSession.obj
 0001:00007a10       ?erase@?$list@PAVIAccount@@V?$allocator@PAVIAccount@@@std@@@std@@QAE?AV?$_List_iterator@V?$_List_val@U?$_List_simple_types@PAVIAccount@@@std@@@std@@@2@V?$_List_const_iterator@V?$_List_val@U?$_List_simple_types@PAVIAccount@@@std@@@std@@@2@@Z 10008a10 f i ClientSession.obj
 0001:00007a60       ?push_back@?$list@PAVIClientSession@@V?$allocator@PAVIClientSession@@@std@@@std@@QAEXABQAVIClientSession@@@Z 10008a60 f i ClientSession.obj
 0001:00007a60       ?push_back@?$list@PAVIAccount@@V?$allocator@PAVIAccount@@@std@@@std@@QAEXABQAVIAccount@@@Z 10008a60 f i ClientSession.obj
 0001:00007a90       ??E?$_List_iterator@V?$_List_val@U?$_List_simple_types@I@std@@@std@@@std@@QAE?AV01@H@Z 10008a90 f i ClientSession.obj
 0001:00007a90       ??E?$_List_iterator@V?$_List_val@U?$_List_simple_types@PAVIClientSession@@@std@@@std@@@std@@QAE?AV01@H@Z 10008a90 f i ClientSession.obj
 0001:00007ac0       ??D?$_List_iterator@V?$_List_val@U?$_List_simple_types@PAVIClientSession@@@std@@@std@@@std@@QBEAAPAVIClientSession@@XZ 10008ac0 f i ClientSession.obj
 0001:00007ac0       ??D?$_List_iterator@V?$_List_val@U?$_List_simple_types@I@std@@@std@@@std@@QBEAAIXZ 10008ac0 f i ClientSession.obj
 0001:00007ae0       ?clear@?$list@PAVIClientSession@@V?$allocator@PAVIClientSession@@@std@@@std@@QAEXXZ 10008ae0 f i ClientSession.obj
 0001:00007ae0       ?clear@?$list@PAVIAccount@@V?$allocator@PAVIAccount@@@std@@@std@@QAEXXZ 10008ae0 f i ClientSession.obj
 0001:00007ae0       ?clear@?$list@IV?$allocator@I@std@@@std@@QAEXXZ 10008ae0 f i ClientSession.obj
 0001:00007bc0       ?end@?$list@PAVIClientSession@@V?$allocator@PAVIClientSession@@@std@@@std@@QAE?AV?$_List_iterator@V?$_List_val@U?$_List_simple_types@PAVIClientSession@@@std@@@std@@@2@XZ 10008bc0 f i ClientSession.obj
 0001:00007bc0       ?end@?$list@IV?$allocator@I@std@@@std@@QAE?AV?$_List_iterator@V?$_List_val@U?$_List_simple_types@I@std@@@std@@@2@XZ 10008bc0 f i ClientSession.obj
 0001:00007c20       ?begin@?$list@IV?$allocator@I@std@@@std@@QAE?AV?$_List_iterator@V?$_List_val@U?$_List_simple_types@I@std@@@std@@@2@XZ 10008c20 f i ClientSession.obj
 0001:00007c20       ?begin@?$list@PAVIClientSession@@V?$allocator@PAVIClientSession@@@std@@@std@@QAE?AV?$_List_iterator@V?$_List_val@U?$_List_simple_types@PAVIClientSession@@@std@@@std@@@2@XZ 10008c20 f i ClientSession.obj
 0001:00007c90       ?compare@?$basic_string@DU?$char_traits@D@std@@V?$allocator@D@2@@std@@QBEHABV12@@Z 10008c90 f i ClientSession.obj
 0001:00007d00       ?substr@?$basic_string@DU?$char_traits@D@std@@V?$allocator@D@2@@std@@QBE?AV12@II@Z 10008d00 f i ClientSession.obj
 0001:00007d50       ?find@?$basic_string@DU?$char_traits@D@std@@V?$allocator@D@2@@std@@QBEIPBDI@Z 10008d50 f i ClientSession.obj
 0001:00007d80       ?length@?$basic_string@_WU?$char_traits@_W@std@@V?$allocator@_W@2@@std@@QBEIXZ 10008d80 f i JSONHandler.obj
 0001:00007d80       ?size@?$basic_string@DU?$char_traits@D@std@@V?$allocator@D@2@@std@@QBEIXZ 10008d80 f i ClientSession.obj
 0001:00007d80       ?size@?$basic_string@_WU?$char_traits@_W@std@@V?$allocator@_W@2@@std@@QBEIXZ 10008d80 f i JSONHandler.obj
 0001:00007d80       ?length@?$basic_string@DU?$char_traits@D@std@@V?$allocator@D@2@@std@@QBEIXZ 10008d80 f i ClientSession.obj
 0001:00007da0       ?c_str@?$basic_string@DU?$char_traits@D@std@@V?$allocator@D@2@@std@@QBEPBDXZ 10008da0 f i ClientSession.obj
 0001:00007de0       ??4?$basic_string@DU?$char_traits@D@std@@V?$allocator@D@2@@std@@QAEAAV01@PBD@Z 10008de0 f i ClientSession.obj
 0001:00007e00       ??4?$basic_string@DU?$char_traits@D@std@@V?$allocator@D@2@@std@@QAEAAV01@$$QAV01@@Z 10008e00 f i ClientSession.obj
 0001:00007ef0       ??0?$basic_string@DU?$char_traits@D@std@@V?$allocator@D@2@@std@@QAE@XZ 10008ef0 f i ClientSession.obj
 0001:00007f40       ??0?$basic_string@DU?$char_traits@D@std@@V?$allocator@D@2@@std@@QAE@ABV01@@Z 10008f40 f i ClientSession.obj
 0001:00007fd0       ??1?$_List_buy@IV?$allocator@I@std@@@std@@QAE@XZ 10008fd0 f i ClientSession.obj
 0001:00007fd0       ??1?$_List_buy@PAVIAccount@@V?$allocator@PAVIAccount@@@std@@@std@@QAE@XZ 10008fd0 f i ClientSession.obj
 0001:00007fd0       ??1?$_List_buy@PAVIClientSession@@V?$allocator@PAVIClientSession@@@std@@@std@@QAE@XZ 10008fd0 f i ClientSession.obj
 0001:00007ff0       ?pointer_to@?$pointer_traits@PAV_Value@details@json@web@@@std@@SAPAV_Value@details@json@web@@AAV3456@@Z 10008ff0 f i JSONHandler.obj
 0001:00007ff0       ?_Left@?$_Tree_comp_alloc@V?$_Tmap_traits@V?$basic_string@DU?$char_traits@D@std@@V?$allocator@D@2@@std@@V?$list@IV?$allocator@I@std@@@2@U?$less@V?$basic_string@DU?$char_traits@D@std@@V?$allocator@D@2@@std@@@2@V?$allocator@U?$pair@$$CBV?$basic_string@DU?$char_traits@D@std@@V?$allocator@D@2@@std@@V?$list@IV?$allocator@I@std@@@2@@std@@@2@$0A@@std@@@std@@SAAAPAU?$_Tree_node@U?$pair@$$CBV?$basic_string@DU?$char_traits@D@std@@V?$allocator@D@2@@std@@V?$list@IV?$allocator@I@std@@@2@@std@@PAX@2@PAU32@@Z 10008ff0 f i ClientSession.obj
 0001:00007ff0       ?_Nextnode@?$_List_alloc@U?$_List_base_types@IV?$allocator@I@std@@@std@@@std@@SAAAPAU?$_List_node@IPAX@2@PAU32@@Z 10008ff0 f i ClientSession.obj
 0001:00007ff0       ?_Left@?$_Tree_comp_alloc@V?$_Tmap_traits@IPAVIClientSession@@U?$less@I@std@@V?$allocator@U?$pair@$$CBIPAVIClientSession@@@std@@@3@$0A@@std@@@std@@SAAAPAU?$_Tree_node@U?$pair@$$CBIPAVIClientSession@@@std@@PAX@2@PAU32@@Z 10008ff0 f i ClientSession.obj
 0001:00007ff0       ?_Nextnode@?$_List_alloc@U?$_List_base_types@PAVIClientSession@@V?$allocator@PAVIClientSession@@@std@@@std@@@std@@SAAAPAU?$_List_node@PAVIClientSession@@PAX@2@PAU32@@Z 10008ff0 f i ClientSession.obj
 0001:00007ff0       ?pointer_to@?$pointer_traits@PAD@std@@SAPADAAD@Z 10008ff0 f i ClientSession.obj
 0001:00007ff0       ?pointer_to@?$pointer_traits@PAU?$pair@$$CBIPAVIClientSession@@@std@@@std@@SAPAU?$pair@$$CBIPAVIClientSession@@@2@AAU32@@Z 10008ff0 f i ClientSession.obj
 0001:00007ff0       ?_Nextnode@?$_List_alloc@U?$_List_base_types@PAVIAccount@@V?$allocator@PAVIAccount@@@std@@@std@@@std@@SAAAPAU?$_List_node@PAVIAccount@@PAX@2@PAU32@@Z 10008ff0 f i ClientSession.obj
 0001:00008010       ??E?$_List_iterator@V?$_List_val@U?$_List_simple_types@PAVIClientSession@@@std@@@std@@@std@@QAEAAV01@XZ 10009010 f i ClientSession.obj
 0001:00008010       ??E?$_List_iterator@V?$_List_val@U?$_List_simple_types@I@std@@@std@@@std@@QAEAAV01@XZ 10009010 f i ClientSession.obj
 0001:00008030       ?_Mysize@?$_List_alloc@U?$_List_base_types@PAVIClientSession@@V?$allocator@PAVIClientSession@@@std@@@std@@@std@@QAEAAIXZ 10009030 f i ClientSession.obj
 0001:00008030       ?_Mysize@?$_List_alloc@U?$_List_base_types@IV?$allocator@I@std@@@std@@@std@@QBEABIXZ 10009030 f i ClientSession.obj
 0001:00008030       ?_Mysize@?$_List_alloc@U?$_List_base_types@IV?$allocator@I@std@@@std@@@std@@QAEAAIXZ 10009030 f i ClientSession.obj
 0001:00008030       ?_Mysize@?$_List_alloc@U?$_List_base_types@PAVIAccount@@V?$allocator@PAVIAccount@@@std@@@std@@@std@@QAEAAIXZ 10009030 f i ClientSession.obj
 0001:00008050       ??1?$_List_alloc@U?$_List_base_types@PAVIClientSession@@V?$allocator@PAVIClientSession@@@std@@@std@@@std@@QAE@XZ 10009050 f i ClientSession.obj
 0001:00008050       ??1?$_List_alloc@U?$_List_base_types@PAVIAccount@@V?$allocator@PAVIAccount@@@std@@@std@@@std@@QAE@XZ 10009050 f i ClientSession.obj
 0001:00008050       ??1?$_List_alloc@U?$_List_base_types@IV?$allocator@I@std@@@std@@@std@@QAE@XZ 10009050 f i ClientSession.obj
 0001:000080a0       ??0?$_List_buy@IV?$allocator@I@std@@@std@@QAE@XZ 100090a0 f i ClientSession.obj
 0001:000080a0       ??0?$_List_buy@PAVIAccount@@V?$allocator@PAVIAccount@@@std@@@std@@QAE@XZ 100090a0 f i ClientSession.obj
 0001:000080a0       ??0?$_List_buy@PAVIClientSession@@V?$allocator@PAVIClientSession@@@std@@@std@@QAE@XZ 100090a0 f i ClientSession.obj
 0001:000080c0       ??D?$_String_const_iterator@V?$_String_val@U?$_Simple_types@D@std@@@std@@@std@@QBEABDXZ 100090c0 f i ClientSession.obj
 0001:000080c0       ?_Mynode@?$_Tree_unchecked_const_iterator@V?$_Tree_val@U?$_Tree_simple_types@U?$pair@$$CBV?$basic_string@DU?$char_traits@D@std@@V?$allocator@D@2@@std@@V?$list@IV?$allocator@I@std@@@2@@std@@@std@@@std@@U_Iterator_base0@2@@std@@QBEPAU?$_Tree_node@U?$pair@$$CBV?$basic_string@DU?$char_traits@D@std@@V?$allocator@D@2@@std@@V?$list@IV?$allocator@I@std@@@2@@std@@PAX@2@XZ 100090c0 f i ClientSession.obj
 0001:000080c0       ?_Mynode@?$_Tree_unchecked_const_iterator@V?$_Tree_val@U?$_Tree_simple_types@U?$pair@$$CBIPAVIClientSession@@@std@@@std@@@std@@U_Iterator_base0@2@@std@@QBEPAU?$_Tree_node@U?$pair@$$CBIPAVIClientSession@@@std@@PAX@2@XZ 100090c0 f i ClientSession.obj
 0001:000080c0       ?_Mynode@?$_List_unchecked_const_iterator@V?$_List_val@U?$_List_simple_types@PAVIClientSession@@@std@@@std@@U_Iterator_base0@2@@std@@QBEPAU?$_List_node@PAVIClientSession@@PAX@2@XZ 100090c0 f i ClientSession.obj
 0001:000080c0       ??B?$CA2WEX@$0IA@@ATL@@QBEPA_WXZ 100090c0 f i JSONHandler.obj
 0001:000080c0       ?_Mynode@?$_List_unchecked_const_iterator@V?$_List_val@U?$_List_simple_types@PAVIAccount@@@std@@@std@@U_Iterator_base0@2@@std@@QBEPAU?$_List_node@PAVIAccount@@PAX@2@XZ 100090c0 f i ClientSession.obj
 0001:000080c0       ?_Mynode@?$_List_unchecked_const_iterator@V?$_List_val@U?$_List_simple_types@I@std@@@std@@U_Iterator_base0@2@@std@@QBEPAU?$_List_node@IPAX@2@XZ 100090c0 f i ClientSession.obj
 0001:000080d0       ??0?$_Tree_iterator@V?$_Tree_val@U?$_Tree_simple_types@U?$pair@$$CBV?$basic_string@DU?$char_traits@D@std@@V?$allocator@D@2@@std@@V?$list@IV?$allocator@I@std@@@2@@std@@@std@@@std@@@std@@QAE@PAU?$_Tree_node@U?$pair@$$CBV?$basic_string@DU?$char_traits@D@std@@V?$allocator@D@2@@std@@V?$list@IV?$allocator@I@std@@@2@@std@@PAX@1@PBV?$_Tree_val@U?$_Tree_simple_types@U?$pair@$$CBV?$basic_string@DU?$char_traits@D@std@@V?$allocator@D@2@@std@@V?$list@IV?$allocator@I@std@@@2@@std@@@std@@@1@@Z 100090d0 f i ClientSession.obj
 0001:000080d0       ??0?$_List_iterator@V?$_List_val@U?$_List_simple_types@I@std@@@std@@@std@@QAE@PAU?$_List_node@IPAX@1@PBV?$_List_val@U?$_List_simple_types@I@std@@@1@@Z 100090d0 f i ClientSession.obj
 0001:000080d0       ??0?$_List_iterator@V?$_List_val@U?$_List_simple_types@PAVIAccount@@@std@@@std@@@std@@QAE@PAU?$_List_node@PAVIAccount@@PAX@1@PBV?$_List_val@U?$_List_simple_types@PAVIAccount@@@std@@@1@@Z 100090d0 f i ClientSession.obj
 0001:000080d0       ??0?$_List_iterator@V?$_List_val@U?$_List_simple_types@PAVIClientSession@@@std@@@std@@@std@@QAE@PAU?$_List_node@PAVIClientSession@@PAX@1@PBV?$_List_val@U?$_List_simple_types@PAVIClientSession@@@std@@@1@@Z 100090d0 f i ClientSession.obj
 0001:000080d0       ??0?$_Tree_iterator@V?$_Tree_val@U?$_Tree_simple_types@U?$pair@$$CBIPAVIClientSession@@@std@@@std@@@std@@@std@@QAE@PAU?$_Tree_node@U?$pair@$$CBIPAVIClientSession@@@std@@PAX@1@PBV?$_Tree_val@U?$_Tree_simple_types@U?$pair@$$CBIPAVIClientSession@@@std@@@std@@@1@@Z 100090d0 f i ClientSession.obj
 0001:000080f0       ??8?$_Tree_const_iterator@V?$_Tree_val@U?$_Tree_simple_types@U?$pair@$$CBV?$basic_string@DU?$char_traits@D@std@@V?$allocator@D@2@@std@@V?$list@IV?$allocator@I@std@@@2@@std@@@std@@@std@@@std@@QBE_NABV01@@Z 100090f0 f i ClientSession.obj
 0001:000080f0       ??8?$_Tree_const_iterator@V?$_Tree_val@U?$_Tree_simple_types@U?$pair@$$CBIPAVIClientSession@@@std@@@std@@@std@@@std@@QBE_NABV01@@Z 100090f0 f i ClientSession.obj
 0001:000080f0       ??8?$_List_const_iterator@V?$_List_val@U?$_List_simple_types@PAVIClientSession@@@std@@@std@@@std@@QBE_NABV01@@Z 100090f0 f i ClientSession.obj
 0001:000080f0       ??8?$_List_const_iterator@V?$_List_val@U?$_List_simple_types@I@std@@@std@@@std@@QBE_NABV01@@Z 100090f0 f i ClientSession.obj
 0001:00008120       ??E?$_Tree_const_iterator@V?$_Tree_val@U?$_Tree_simple_types@U?$pair@$$CBV?$basic_string@DU?$char_traits@D@std@@V?$allocator@D@2@@std@@V?$list@IV?$allocator@I@std@@@2@@std@@@std@@@std@@@std@@QAEAAV01@XZ 10009120 f i ClientSession.obj
 0001:00008120       ??E?$_Tree_const_iterator@V?$_Tree_val@U?$_Tree_simple_types@U?$pair@$$CBIPAVIClientSession@@@std@@@std@@@std@@@std@@QAEAAV01@XZ 10009120 f i ClientSession.obj
 0001:00008140       ??D?$_Tree_const_iterator@V?$_Tree_val@U?$_Tree_simple_types@U?$pair@$$CBV?$basic_string@DU?$char_traits@D@std@@V?$allocator@D@2@@std@@V?$list@IV?$allocator@I@std@@@2@@std@@@std@@@std@@@std@@QBEABU?$pair@$$CBV?$basic_string@DU?$char_traits@D@std@@V?$allocator@D@2@@std@@V?$list@IV?$allocator@I@std@@@2@@1@XZ 10009140 f i ClientSession.obj
 0001:00008140       ??D?$_Tree_const_iterator@V?$_Tree_val@U?$_Tree_simple_types@U?$pair@$$CBIPAVIClientSession@@@std@@@std@@@std@@@std@@QBEABU?$pair@$$CBIPAVIClientSession@@@1@XZ 10009140 f i ClientSession.obj
 0001:00008160       ?deallocate@?$_Wrap_alloc@V?$allocator@U?$_Tree_node@U?$pair@$$CBV?$basic_string@DU?$char_traits@D@std@@V?$allocator@D@2@@std@@V?$list@IV?$allocator@I@std@@@2@@std@@PAX@std@@@std@@@std@@QAEXPAU?$_Tree_node@U?$pair@$$CBV?$basic_string@DU?$char_traits@D@std@@V?$allocator@D@2@@std@@V?$list@IV?$allocator@I@std@@@2@@std@@PAX@2@I@Z 10009160 f i ClientSession.obj
 0001:00008180       ?_Mysize@?$_Tree_comp_alloc@V?$_Tmap_traits@IPAVIClientSession@@U?$less@I@std@@V?$allocator@U?$pair@$$CBIPAVIClientSession@@@std@@@3@$0A@@std@@@std@@QAEAAIXZ 10009180 f i ClientSession.obj
 0001:00008180       ?_Mysize@?$_Tree_comp_alloc@V?$_Tmap_traits@V?$basic_string@DU?$char_traits@D@std@@V?$allocator@D@2@@std@@V?$list@IV?$allocator@I@std@@@2@U?$less@V?$basic_string@DU?$char_traits@D@std@@V?$allocator@D@2@@std@@@2@V?$allocator@U?$pair@$$CBV?$basic_string@DU?$char_traits@D@std@@V?$allocator@D@2@@std@@V?$list@IV?$allocator@I@std@@@2@@std@@@2@$0A@@std@@@std@@QAEAAIXZ 10009180 f i ClientSession.obj
 0001:00008180       ?_Mysize@?$_Tree_comp_alloc@V?$_Tmap_traits@IPAVIClientSession@@U?$less@I@std@@V?$allocator@U?$pair@$$CBIPAVIClientSession@@@std@@@3@$0A@@std@@@std@@QBEABIXZ 10009180 f i ClientSession.obj
 0001:000081a0       ?_Myhead@?$_Tree_comp_alloc@V?$_Tmap_traits@V?$basic_string@DU?$char_traits@D@std@@V?$allocator@D@2@@std@@V?$list@IV?$allocator@I@std@@@2@U?$less@V?$basic_string@DU?$char_traits@D@std@@V?$allocator@D@2@@std@@@2@V?$allocator@U?$pair@$$CBV?$basic_string@DU?$char_traits@D@std@@V?$allocator@D@2@@std@@V?$list@IV?$allocator@I@std@@@2@@std@@@2@$0A@@std@@@std@@QAEAAPAU?$_Tree_node@U?$pair@$$CBV?$basic_string@DU?$char_traits@D@std@@V?$allocator@D@2@@std@@V?$list@IV?$allocator@I@std@@@2@@std@@PAX@2@XZ 100091a0 f i ClientSession.obj
 0001:000081a0       ?_Myhead@?$_Tree_comp_alloc@V?$_Tmap_traits@IPAVIClientSession@@U?$less@I@std@@V?$allocator@U?$pair@$$CBIPAVIClientSession@@@std@@@3@$0A@@std@@@std@@QBEABQAU?$_Tree_node@U?$pair@$$CBIPAVIClientSession@@@std@@PAX@2@XZ 100091a0 f i ClientSession.obj
 0001:000081a0       ?_Myhead@?$_Tree_comp_alloc@V?$_Tmap_traits@V?$basic_string@DU?$char_traits@D@std@@V?$allocator@D@2@@std@@V?$list@IV?$allocator@I@std@@@2@U?$less@V?$basic_string@DU?$char_traits@D@std@@V?$allocator@D@2@@std@@@2@V?$allocator@U?$pair@$$CBV?$basic_string@DU?$char_traits@D@std@@V?$allocator@D@2@@std@@V?$list@IV?$allocator@I@std@@@2@@std@@@2@$0A@@std@@@std@@QBEABQAU?$_Tree_node@U?$pair@$$CBV?$basic_string@DU?$char_traits@D@std@@V?$allocator@D@2@@std@@V?$list@IV?$allocator@I@std@@@2@@std@@PAX@2@XZ 100091a0 f i ClientSession.obj
 0001:000081a0       ?_Myhead@?$_Tree_comp_alloc@V?$_Tmap_traits@IPAVIClientSession@@U?$less@I@std@@V?$allocator@U?$pair@$$CBIPAVIClientSession@@@std@@@3@$0A@@std@@@std@@QAEAAPAU?$_Tree_node@U?$pair@$$CBIPAVIClientSession@@@std@@PAX@2@XZ 100091a0 f i ClientSession.obj
 0001:000081c0       ?_Get_data@?$_Tree_comp_alloc@V?$_Tmap_traits@V?$basic_string@DU?$char_traits@D@std@@V?$allocator@D@2@@std@@V?$list@IV?$allocator@I@std@@@2@U?$less@V?$basic_string@DU?$char_traits@D@std@@V?$allocator@D@2@@std@@@2@V?$allocator@U?$pair@$$CBV?$basic_string@DU?$char_traits@D@std@@V?$allocator@D@2@@std@@V?$list@IV?$allocator@I@std@@@2@@std@@@2@$0A@@std@@@std@@QAEAAV?$_Tree_val@U?$_Tree_simple_types@U?$pair@$$CBV?$basic_string@DU?$char_traits@D@std@@V?$allocator@D@2@@std@@V?$list@IV?$allocator@I@std@@@2@@std@@@std@@@2@XZ 100091c0 f i ClientSession.obj
 0001:000081c0       ?_Getal@?$_Tree_comp_alloc@V?$_Tmap_traits@V?$basic_string@DU?$char_traits@D@std@@V?$allocator@D@2@@std@@V?$list@IV?$allocator@I@std@@@2@U?$less@V?$basic_string@DU?$char_traits@D@std@@V?$allocator@D@2@@std@@@2@V?$allocator@U?$pair@$$CBV?$basic_string@DU?$char_traits@D@std@@V?$allocator@D@2@@std@@V?$list@IV?$allocator@I@std@@@2@@std@@@2@$0A@@std@@@std@@QAEAAU?$_Wrap_alloc@V?$allocator@U?$_Tree_node@U?$pair@$$CBV?$basic_string@DU?$char_traits@D@std@@V?$allocator@D@2@@std@@V?$list@IV?$allocator@I@std@@@2@@std@@PAX@std@@@std@@@2@XZ 100091c0 f i ClientSession.obj
 0001:000081c0       ?_Getal@?$_Tree_comp_alloc@V?$_Tmap_traits@V?$basic_string@DU?$char_traits@D@std@@V?$allocator@D@2@@std@@V?$list@IV?$allocator@I@std@@@2@U?$less@V?$basic_string@DU?$char_traits@D@std@@V?$allocator@D@2@@std@@@2@V?$allocator@U?$pair@$$CBV?$basic_string@DU?$char_traits@D@std@@V?$allocator@D@2@@std@@V?$list@IV?$allocator@I@std@@@2@@std@@@2@$0A@@std@@@std@@QBEABU?$_Wrap_alloc@V?$allocator@U?$_Tree_node@U?$pair@$$CBV?$basic_string@DU?$char_traits@D@std@@V?$allocator@D@2@@std@@V?$list@IV?$allocator@I@std@@@2@@std@@PAX@std@@@std@@@2@XZ 100091c0 f i ClientSession.obj
 0001:000081c0       ?_Get_data@?$_Tree_comp_alloc@V?$_Tmap_traits@IPAVIClientSession@@U?$less@I@std@@V?$allocator@U?$pair@$$CBIPAVIClientSession@@@std@@@3@$0A@@std@@@std@@QBEABV?$_Tree_val@U?$_Tree_simple_types@U?$pair@$$CBIPAVIClientSession@@@std@@@std@@@2@XZ 100091c0 f i ClientSession.obj
 0001:000081c0       ?_Get_data@?$_Tree_comp_alloc@V?$_Tmap_traits@IPAVIClientSession@@U?$less@I@std@@V?$allocator@U?$pair@$$CBIPAVIClientSession@@@std@@@3@$0A@@std@@@std@@QAEAAV?$_Tree_val@U?$_Tree_simple_types@U?$pair@$$CBIPAVIClientSession@@@std@@@std@@@2@XZ 100091c0 f i ClientSession.obj
 0001:000081c0       ?_Get_data@?$_Tree_comp_alloc@V?$_Tmap_traits@V?$basic_string@DU?$char_traits@D@std@@V?$allocator@D@2@@std@@V?$list@IV?$allocator@I@std@@@2@U?$less@V?$basic_string@DU?$char_traits@D@std@@V?$allocator@D@2@@std@@@2@V?$allocator@U?$pair@$$CBV?$basic_string@DU?$char_traits@D@std@@V?$allocator@D@2@@std@@V?$list@IV?$allocator@I@std@@@2@@std@@@2@$0A@@std@@@std@@QBEABV?$_Tree_val@U?$_Tree_simple_types@U?$pair@$$CBV?$basic_string@DU?$char_traits@D@std@@V?$allocator@D@2@@std@@V?$list@IV?$allocator@I@std@@@2@@std@@@std@@@2@XZ 100091c0 f i ClientSession.obj
 0001:000081c0       ?_Getal@?$_Tree_comp_alloc@V?$_Tmap_traits@IPAVIClientSession@@U?$less@I@std@@V?$allocator@U?$pair@$$CBIPAVIClientSession@@@std@@@3@$0A@@std@@@std@@QBEABU?$_Wrap_alloc@V?$allocator@U?$_Tree_node@U?$pair@$$CBIPAVIClientSession@@@std@@PAX@std@@@std@@@2@XZ 100091c0 f i ClientSession.obj
 0001:000081c0       ?_Getal@?$_Tree_comp_alloc@V?$_Tmap_traits@IPAVIClientSession@@U?$less@I@std@@V?$allocator@U?$pair@$$CBIPAVIClientSession@@@std@@@3@$0A@@std@@@std@@QAEAAU?$_Wrap_alloc@V?$allocator@U?$_Tree_node@U?$pair@$$CBIPAVIClientSession@@@std@@PAX@std@@@std@@@2@XZ 100091c0 f i ClientSession.obj
 0001:000081e0       ??1?$_Tree_comp_alloc@V?$_Tmap_traits@V?$basic_string@DU?$char_traits@D@std@@V?$allocator@D@2@@std@@V?$list@IV?$allocator@I@std@@@2@U?$less@V?$basic_string@DU?$char_traits@D@std@@V?$allocator@D@2@@std@@@2@V?$allocator@U?$pair@$$CBV?$basic_string@DU?$char_traits@D@std@@V?$allocator@D@2@@std@@V?$list@IV?$allocator@I@std@@@2@@std@@@2@$0A@@std@@@std@@QAE@XZ 100091e0 f i ClientSession.obj
 0001:00008230       ?_Min@?$_Tree_comp_alloc@V?$_Tmap_traits@IPAVIClientSession@@U?$less@I@std@@V?$allocator@U?$pair@$$CBIPAVIClientSession@@@std@@@3@$0A@@std@@@std@@SAPAU?$_Tree_node@U?$pair@$$CBIPAVIClientSession@@@std@@PAX@2@PAU32@@Z 10009230 f i ClientSession.obj
 0001:00008230       ?_Min@?$_Tree_comp_alloc@V?$_Tmap_traits@V?$basic_string@DU?$char_traits@D@std@@V?$allocator@D@2@@std@@V?$list@IV?$allocator@I@std@@@2@U?$less@V?$basic_string@DU?$char_traits@D@std@@V?$allocator@D@2@@std@@@2@V?$allocator@U?$pair@$$CBV?$basic_string@DU?$char_traits@D@std@@V?$allocator@D@2@@std@@V?$list@IV?$allocator@I@std@@@2@@std@@@2@$0A@@std@@@std@@SAPAU?$_Tree_node@U?$pair@$$CBV?$basic_string@DU?$char_traits@D@std@@V?$allocator@D@2@@std@@V?$list@IV?$allocator@I@std@@@2@@std@@PAX@2@PAU32@@Z 10009230 f i ClientSession.obj
 0001:00008250       ?_Max@?$_Tree_comp_alloc@V?$_Tmap_traits@IPAVIClientSession@@U?$less@I@std@@V?$allocator@U?$pair@$$CBIPAVIClientSession@@@std@@@3@$0A@@std@@@std@@SAPAU?$_Tree_node@U?$pair@$$CBIPAVIClientSession@@@std@@PAX@2@PAU32@@Z 10009250 f i ClientSession.obj
 0001:00008250       ?_Max@?$_Tree_comp_alloc@V?$_Tmap_traits@V?$basic_string@DU?$char_traits@D@std@@V?$allocator@D@2@@std@@V?$list@IV?$allocator@I@std@@@2@U?$less@V?$basic_string@DU?$char_traits@D@std@@V?$allocator@D@2@@std@@@2@V?$allocator@U?$pair@$$CBV?$basic_string@DU?$char_traits@D@std@@V?$allocator@D@2@@std@@V?$list@IV?$allocator@I@std@@@2@@std@@@2@$0A@@std@@@std@@SAPAU?$_Tree_node@U?$pair@$$CBV?$basic_string@DU?$char_traits@D@std@@V?$allocator@D@2@@std@@V?$list@IV?$allocator@I@std@@@2@@std@@PAX@2@PAU32@@Z 10009250 f i ClientSession.obj
 0001:00008270       ?_Myval@?$_Tree_comp_alloc@V?$_Tmap_traits@IPAVIClientSession@@U?$less@I@std@@V?$allocator@U?$pair@$$CBIPAVIClientSession@@@std@@@3@$0A@@std@@@std@@SAAAU?$pair@$$CBIPAVIClientSession@@@2@PAU?$_Tree_node@U?$pair@$$CBIPAVIClientSession@@@std@@PAX@2@@Z 10009270 f i ClientSession.obj
 0001:00008270       ?_Myval@?$_Tree_comp_alloc@V?$_Tmap_traits@V?$basic_string@DU?$char_traits@D@std@@V?$allocator@D@2@@std@@V?$list@IV?$allocator@I@std@@@2@U?$less@V?$basic_string@DU?$char_traits@D@std@@V?$allocator@D@2@@std@@@2@V?$allocator@U?$pair@$$CBV?$basic_string@DU?$char_traits@D@std@@V?$allocator@D@2@@std@@V?$list@IV?$allocator@I@std@@@2@@std@@@2@$0A@@std@@@std@@SAAAU?$pair@$$CBV?$basic_string@DU?$char_traits@D@std@@V?$allocator@D@2@@std@@V?$list@IV?$allocator@I@std@@@2@@2@PAU?$_Tree_node@U?$pair@$$CBV?$basic_string@DU?$char_traits@D@std@@V?$allocator@D@2@@std@@V?$list@IV?$allocator@I@std@@@2@@std@@PAX@2@@Z 10009270 f i ClientSession.obj
 0001:00008290       ?_Myval@?$_List_alloc@U?$_List_base_types@PAVIAccount@@V?$allocator@PAVIAccount@@@std@@@std@@@std@@SAAAPAVIAccount@@PAU?$_List_node@PAVIAccount@@PAX@2@@Z 10009290 f i ClientSession.obj
 0001:00008290       ?_Myval@?$_List_alloc@U?$_List_base_types@PAVIClientSession@@V?$allocator@PAVIClientSession@@@std@@@std@@@std@@SAAAPAVIClientSession@@PAU?$_List_node@PAVIClientSession@@PAX@2@@Z 10009290 f i ClientSession.obj
 0001:00008290       ?_Right@?$_Tree_comp_alloc@V?$_Tmap_traits@IPAVIClientSession@@U?$less@I@std@@V?$allocator@U?$pair@$$CBIPAVIClientSession@@@std@@@3@$0A@@std@@@std@@SAAAPAU?$_Tree_node@U?$pair@$$CBIPAVIClientSession@@@std@@PAX@2@PAU32@@Z 10009290 f i ClientSession.obj
 0001:00008290       ?_Right@?$_Tree_comp_alloc@V?$_Tmap_traits@V?$basic_string@DU?$char_traits@D@std@@V?$allocator@D@2@@std@@V?$list@IV?$allocator@I@std@@@2@U?$less@V?$basic_string@DU?$char_traits@D@std@@V?$allocator@D@2@@std@@@2@V?$allocator@U?$pair@$$CBV?$basic_string@DU?$char_traits@D@std@@V?$allocator@D@2@@std@@V?$list@IV?$allocator@I@std@@@2@@std@@@2@$0A@@std@@@std@@SAAAPAU?$_Tree_node@U?$pair@$$CBV?$basic_string@DU?$char_traits@D@std@@V?$allocator@D@2@@std@@V?$list@IV?$allocator@I@std@@@2@@std@@PAX@2@PAU32@@Z 10009290 f i ClientSession.obj
 0001:00008290       ?_Myval@?$_List_alloc@U?$_List_base_types@IV?$allocator@I@std@@@std@@@std@@SAAAIPAU?$_List_node@IPAX@2@@Z 10009290 f i ClientSession.obj
 0001:000082b0       ?_Parent@?$_Tree_comp_alloc@V?$_Tmap_traits@IPAVIClientSession@@U?$less@I@std@@V?$allocator@U?$pair@$$CBIPAVIClientSession@@@std@@@3@$0A@@std@@@std@@SAAAPAU?$_Tree_node@U?$pair@$$CBIPAVIClientSession@@@std@@PAX@2@PAU32@@Z 100092b0 f i ClientSession.obj
 0001:000082b0       ?_Prevnode@?$_List_alloc@U?$_List_base_types@PAVIAccount@@V?$allocator@PAVIAccount@@@std@@@std@@@std@@SAAAPAU?$_List_node@PAVIAccount@@PAX@2@PAU32@@Z 100092b0 f i ClientSession.obj
 0001:000082b0       ?_Prevnode@?$_List_alloc@U?$_List_base_types@PAVIClientSession@@V?$allocator@PAVIClientSession@@@std@@@std@@@std@@SAAAPAU?$_List_node@PAVIClientSession@@PAX@2@PAU32@@Z 100092b0 f i ClientSession.obj
 0001:000082b0       ?_Parent@?$_Tree_comp_alloc@V?$_Tmap_traits@V?$basic_string@DU?$char_traits@D@std@@V?$allocator@D@2@@std@@V?$list@IV?$allocator@I@std@@@2@U?$less@V?$basic_string@DU?$char_traits@D@std@@V?$allocator@D@2@@std@@@2@V?$allocator@U?$pair@$$CBV?$basic_string@DU?$char_traits@D@std@@V?$allocator@D@2@@std@@V?$list@IV?$allocator@I@std@@@2@@std@@@2@$0A@@std@@@std@@SAAAPAU?$_Tree_node@U?$pair@$$CBV?$basic_string@DU?$char_traits@D@std@@V?$allocator@D@2@@std@@V?$list@IV?$allocator@I@std@@@2@@std@@PAX@2@PAU32@@Z 100092b0 f i ClientSession.obj
 0001:000082b0       ?_Prevnode@?$_List_alloc@U?$_List_base_types@IV?$allocator@I@std@@@std@@@std@@SAAAPAU?$_List_node@IPAX@2@PAU32@@Z 100092b0 f i ClientSession.obj
 0001:000082d0       ?_Isnil@?$_Tree_comp_alloc@V?$_Tmap_traits@V?$basic_string@DU?$char_traits@D@std@@V?$allocator@D@2@@std@@V?$list@IV?$allocator@I@std@@@2@U?$less@V?$basic_string@DU?$char_traits@D@std@@V?$allocator@D@2@@std@@@2@V?$allocator@U?$pair@$$CBV?$basic_string@DU?$char_traits@D@std@@V?$allocator@D@2@@std@@V?$list@IV?$allocator@I@std@@@2@@std@@@2@$0A@@std@@@std@@SAAADPAU?$_Tree_node@U?$pair@$$CBV?$basic_string@DU?$char_traits@D@std@@V?$allocator@D@2@@std@@V?$list@IV?$allocator@I@std@@@2@@std@@PAX@2@@Z 100092d0 f i ClientSession.obj
 0001:000082d0       ?_Isnil@?$_Tree_comp_alloc@V?$_Tmap_traits@IPAVIClientSession@@U?$less@I@std@@V?$allocator@U?$pair@$$CBIPAVIClientSession@@@std@@@3@$0A@@std@@@std@@SAAADPAU?$_Tree_node@U?$pair@$$CBIPAVIClientSession@@@std@@PAX@2@@Z 100092d0 f i ClientSession.obj
 0001:000082f0       ?_Color@?$_Tree_comp_alloc@V?$_Tmap_traits@IPAVIClientSession@@U?$less@I@std@@V?$allocator@U?$pair@$$CBIPAVIClientSession@@@std@@@3@$0A@@std@@@std@@SAAADPAU?$_Tree_node@U?$pair@$$CBIPAVIClientSession@@@std@@PAX@2@@Z 100092f0 f i ClientSession.obj
 0001:000082f0       ?_Color@?$_Tree_comp_alloc@V?$_Tmap_traits@V?$basic_string@DU?$char_traits@D@std@@V?$allocator@D@2@@std@@V?$list@IV?$allocator@I@std@@@2@U?$less@V?$basic_string@DU?$char_traits@D@std@@V?$allocator@D@2@@std@@@2@V?$allocator@U?$pair@$$CBV?$basic_string@DU?$char_traits@D@std@@V?$allocator@D@2@@std@@V?$list@IV?$allocator@I@std@@@2@@std@@@2@$0A@@std@@@std@@SAAADPAU?$_Tree_node@U?$pair@$$CBV?$basic_string@DU?$char_traits@D@std@@V?$allocator@D@2@@std@@V?$list@IV?$allocator@I@std@@@2@@std@@PAX@2@@Z 100092f0 f i ClientSession.obj
 0001:00008310       ?_Key@?$_Tree@V?$_Tmap_traits@V?$basic_string@DU?$char_traits@D@std@@V?$allocator@D@2@@std@@V?$list@IV?$allocator@I@std@@@2@U?$less@V?$basic_string@DU?$char_traits@D@std@@V?$allocator@D@2@@std@@@2@V?$allocator@U?$pair@$$CBV?$basic_string@DU?$char_traits@D@std@@V?$allocator@D@2@@std@@V?$list@IV?$allocator@I@std@@@2@@std@@@2@$0A@@std@@@std@@IBEABV?$basic_string@DU?$char_traits@D@std@@V?$allocator@D@2@@2@PAU?$_Tree_node@U?$pair@$$CBV?$basic_string@DU?$char_traits@D@std@@V?$allocator@D@2@@std@@V?$list@IV?$allocator@I@std@@@2@@std@@PAX@2@@Z 10009310 f i ClientSession.obj
 0001:00008310       ?_Key@?$_Tree@V?$_Tmap_traits@IPAVIClientSession@@U?$less@I@std@@V?$allocator@U?$pair@$$CBIPAVIClientSession@@@std@@@3@$0A@@std@@@std@@IBEABIPAU?$_Tree_node@U?$pair@$$CBIPAVIClientSession@@@std@@PAX@2@@Z 10009310 f i ClientSession.obj
 0001:00008340       ?_Tidy@?$_Tree@V?$_Tmap_traits@V?$basic_string@DU?$char_traits@D@std@@V?$allocator@D@2@@std@@V?$list@IV?$allocator@I@std@@@2@U?$less@V?$basic_string@DU?$char_traits@D@std@@V?$allocator@D@2@@std@@@2@V?$allocator@U?$pair@$$CBV?$basic_string@DU?$char_traits@D@std@@V?$allocator@D@2@@std@@V?$list@IV?$allocator@I@std@@@2@@std@@@2@$0A@@std@@@std@@IAEXXZ 10009340 f i ClientSession.obj
 0001:00008390       ?_Rrotate@?$_Tree@V?$_Tmap_traits@IPAVIClientSession@@U?$less@I@std@@V?$allocator@U?$pair@$$CBIPAVIClientSession@@@std@@@3@$0A@@std@@@std@@IAEXPAU?$_Tree_node@U?$pair@$$CBIPAVIClientSession@@@std@@PAX@2@@Z 10009390 f i ClientSession.obj
 0001:00008390       ?_Rrotate@?$_Tree@V?$_Tmap_traits@V?$basic_string@DU?$char_traits@D@std@@V?$allocator@D@2@@std@@V?$list@IV?$allocator@I@std@@@2@U?$less@V?$basic_string@DU?$char_traits@D@std@@V?$allocator@D@2@@std@@@2@V?$allocator@U?$pair@$$CBV?$basic_string@DU?$char_traits@D@std@@V?$allocator@D@2@@std@@V?$list@IV?$allocator@I@std@@@2@@std@@@2@$0A@@std@@@std@@IAEXPAU?$_Tree_node@U?$pair@$$CBV?$basic_string@DU?$char_traits@D@std@@V?$allocator@D@2@@std@@V?$list@IV?$allocator@I@std@@@2@@std@@PAX@2@@Z 10009390 f i ClientSession.obj
 0001:000084c0       ?_Root@?$_Tree@V?$_Tmap_traits@IPAVIClientSession@@U?$less@I@std@@V?$allocator@U?$pair@$$CBIPAVIClientSession@@@std@@@3@$0A@@std@@@std@@IBEAAPAU?$_Tree_node@U?$pair@$$CBIPAVIClientSession@@@std@@PAX@2@XZ 100094c0 f i ClientSession.obj
 0001:000084c0       ?_Root@?$_Tree@V?$_Tmap_traits@V?$basic_string@DU?$char_traits@D@std@@V?$allocator@D@2@@std@@V?$list@IV?$allocator@I@std@@@2@U?$less@V?$basic_string@DU?$char_traits@D@std@@V?$allocator@D@2@@std@@@2@V?$allocator@U?$pair@$$CBV?$basic_string@DU?$char_traits@D@std@@V?$allocator@D@2@@std@@V?$list@IV?$allocator@I@std@@@2@@std@@@2@$0A@@std@@@std@@IBEAAPAU?$_Tree_node@U?$pair@$$CBV?$basic_string@DU?$char_traits@D@std@@V?$allocator@D@2@@std@@V?$list@IV?$allocator@I@std@@@2@@std@@PAX@2@XZ 100094c0 f i ClientSession.obj
 0001:000084e0       ?_Rmost@?$_Tree@V?$_Tmap_traits@IPAVIClientSession@@U?$less@I@std@@V?$allocator@U?$pair@$$CBIPAVIClientSession@@@std@@@3@$0A@@std@@@std@@IBEAAPAU?$_Tree_node@U?$pair@$$CBIPAVIClientSession@@@std@@PAX@2@XZ 100094e0 f i ClientSession.obj
 0001:000084e0       ?_Rmost@?$_Tree@V?$_Tmap_traits@V?$basic_string@DU?$char_traits@D@std@@V?$allocator@D@2@@std@@V?$list@IV?$allocator@I@std@@@2@U?$less@V?$basic_string@DU?$char_traits@D@std@@V?$allocator@D@2@@std@@@2@V?$allocator@U?$pair@$$CBV?$basic_string@DU?$char_traits@D@std@@V?$allocator@D@2@@std@@V?$list@IV?$allocator@I@std@@@2@@std@@@2@$0A@@std@@@std@@IBEAAPAU?$_Tree_node@U?$pair@$$CBV?$basic_string@DU?$char_traits@D@std@@V?$allocator@D@2@@std@@V?$list@IV?$allocator@I@std@@@2@@std@@PAX@2@XZ 100094e0 f i ClientSession.obj
 0001:00008500       ?_Lrotate@?$_Tree@V?$_Tmap_traits@V?$basic_string@DU?$char_traits@D@std@@V?$allocator@D@2@@std@@V?$list@IV?$allocator@I@std@@@2@U?$less@V?$basic_string@DU?$char_traits@D@std@@V?$allocator@D@2@@std@@@2@V?$allocator@U?$pair@$$CBV?$basic_string@DU?$char_traits@D@std@@V?$allocator@D@2@@std@@V?$list@IV?$allocator@I@std@@@2@@std@@@2@$0A@@std@@@std@@IAEXPAU?$_Tree_node@U?$pair@$$CBV?$basic_string@DU?$char_traits@D@std@@V?$allocator@D@2@@std@@V?$list@IV?$allocator@I@std@@@2@@std@@PAX@2@@Z 10009500 f i ClientSession.obj
 0001:00008500       ?_Lrotate@?$_Tree@V?$_Tmap_traits@IPAVIClientSession@@U?$less@I@std@@V?$allocator@U?$pair@$$CBIPAVIClientSession@@@std@@@3@$0A@@std@@@std@@IAEXPAU?$_Tree_node@U?$pair@$$CBIPAVIClientSession@@@std@@PAX@2@@Z 10009500 f i ClientSession.obj
 0001:00008630       ?_Lmost@?$_Tree@V?$_Tmap_traits@IPAVIClientSession@@U?$less@I@std@@V?$allocator@U?$pair@$$CBIPAVIClientSession@@@std@@@3@$0A@@std@@@std@@IBEAAPAU?$_Tree_node@U?$pair@$$CBIPAVIClientSession@@@std@@PAX@2@XZ 10009630 f i ClientSession.obj
 0001:00008630       ?_Lmost@?$_Tree@V?$_Tmap_traits@V?$basic_string@DU?$char_traits@D@std@@V?$allocator@D@2@@std@@V?$list@IV?$allocator@I@std@@@2@U?$less@V?$basic_string@DU?$char_traits@D@std@@V?$allocator@D@2@@std@@@2@V?$allocator@U?$pair@$$CBV?$basic_string@DU?$char_traits@D@std@@V?$allocator@D@2@@std@@V?$list@IV?$allocator@I@std@@@2@@std@@@2@$0A@@std@@@std@@IBEAAPAU?$_Tree_node@U?$pair@$$CBV?$basic_string@DU?$char_traits@D@std@@V?$allocator@D@2@@std@@V?$list@IV?$allocator@I@std@@@2@@std@@PAX@2@XZ 10009630 f i ClientSession.obj
 0001:00008650       ?lower_bound@?$_Tree@V?$_Tmap_traits@V?$basic_string@DU?$char_traits@D@std@@V?$allocator@D@2@@std@@V?$list@IV?$allocator@I@std@@@2@U?$less@V?$basic_string@DU?$char_traits@D@std@@V?$allocator@D@2@@std@@@2@V?$allocator@U?$pair@$$CBV?$basic_string@DU?$char_traits@D@std@@V?$allocator@D@2@@std@@V?$list@IV?$allocator@I@std@@@2@@std@@@2@$0A@@std@@@std@@QAE?AV?$_Tree_iterator@V?$_Tree_val@U?$_Tree_simple_types@U?$pair@$$CBV?$basic_string@DU?$char_traits@D@std@@V?$allocator@D@2@@std@@V?$list@IV?$allocator@I@std@@@2@@std@@@std@@@std@@@2@ABV?$basic_string@DU?$char_traits@D@std@@V?$allocator@D@2@@2@@Z 10009650 f i ClientSession.obj
 0001:00008680       ??0?$_Tree@V?$_Tmap_traits@V?$basic_string@DU?$char_traits@D@std@@V?$allocator@D@2@@std@@V?$list@IV?$allocator@I@std@@@2@U?$less@V?$basic_string@DU?$char_traits@D@std@@V?$allocator@D@2@@std@@@2@V?$allocator@U?$pair@$$CBV?$basic_string@DU?$char_traits@D@std@@V?$allocator@D@2@@std@@V?$list@IV?$allocator@I@std@@@2@@std@@@2@$0A@@std@@@std@@QAE@ABU?$less@V?$basic_string@DU?$char_traits@D@std@@V?$allocator@D@2@@std@@@1@@Z 10009680 f i ClientSession.obj
 0001:000086a0       ??E?$_Tree_iterator@V?$_Tree_val@U?$_Tree_simple_types@U?$pair@$$CBIPAVIClientSession@@@std@@@std@@@std@@@std@@QAEAAV01@XZ 100096a0 f i ClientSession.obj
 0001:000086c0       ??0?$_Tree_const_iterator@V?$_Tree_val@U?$_Tree_simple_types@U?$pair@$$CBIPAVIClientSession@@@std@@@std@@@std@@@std@@QAE@XZ 100096c0 f i ClientSession.obj
 0001:000086e0       ?deallocate@?$_Wrap_alloc@V?$allocator@U?$_Tree_node@U?$pair@$$CBIPAVIClientSession@@@std@@PAX@std@@@std@@@std@@QAEXPAU?$_Tree_node@U?$pair@$$CBIPAVIClientSession@@@std@@PAX@2@I@Z 100096e0 f i ClientSession.obj
 0001:00008700       ?select_on_container_copy_construction@?$_Wrap_alloc@V?$allocator@D@std@@@std@@QBE?AU12@U_Nil@2@@Z 10009700 f i ClientSession.obj
 0001:00008700       ?select_on_container_copy_construction@?$_Wrap_alloc@V?$allocator@_W@std@@@std@@QBE?AU12@U_Nil@2@@Z 10009700 f i JSONHandler.obj
 0001:00008700       ?select_on_container_copy_construction@?$_Wrap_alloc@V?$allocator@U?$_List_node@IPAX@std@@@std@@@std@@QBE?AU12@U_Nil@2@@Z 10009700 f i ClientSession.obj
 0001:00008700       ?select_on_container_copy_construction@?$_Wrap_alloc@V?$allocator@U?$_Tree_node@U?$pair@$$CBIPAVIClientSession@@@std@@PAX@std@@@std@@@std@@QBE?AU12@U_Nil@2@@Z 10009700 f i ClientSession.obj
 0001:00008730       ??1?$_Tree_comp_alloc@V?$_Tmap_traits@IPAVIClientSession@@U?$less@I@std@@V?$allocator@U?$pair@$$CBIPAVIClientSession@@@std@@@3@$0A@@std@@@std@@QAE@XZ 10009730 f i ClientSession.obj
 0001:00008780       ?_Tidy@?$_Tree@V?$_Tmap_traits@IPAVIClientSession@@U?$less@I@std@@V?$allocator@U?$pair@$$CBIPAVIClientSession@@@std@@@3@$0A@@std@@@std@@IAEXXZ 10009780 f i ClientSession.obj
 0001:000087d0       ?_Erase@?$_Tree@V?$_Tmap_traits@IPAVIClientSession@@U?$less@I@std@@V?$allocator@U?$pair@$$CBIPAVIClientSession@@@std@@@3@$0A@@std@@@std@@IAEXPAU?$_Tree_node@U?$pair@$$CBIPAVIClientSession@@@std@@PAX@2@@Z 100097d0 f i ClientSession.obj
 0001:00008870       ?lower_bound@?$_Tree@V?$_Tmap_traits@IPAVIClientSession@@U?$less@I@std@@V?$allocator@U?$pair@$$CBIPAVIClientSession@@@std@@@3@$0A@@std@@@std@@QAE?AV?$_Tree_iterator@V?$_Tree_val@U?$_Tree_simple_types@U?$pair@$$CBIPAVIClientSession@@@std@@@std@@@std@@@2@ABI@Z 10009870 f i ClientSession.obj
 0001:000088a0       ??0?$_Tree@V?$_Tmap_traits@IPAVIClientSession@@U?$less@I@std@@V?$allocator@U?$pair@$$CBIPAVIClientSession@@@std@@@3@$0A@@std@@@std@@QAE@ABU?$less@I@1@@Z 100098a0 f i ClientSession.obj
 0001:000088c0       ??R?$less@I@std@@QBE_NABI0@Z 100098c0 f i ClientSession.obj
 0001:000088f0       ?_Tidy@?$list@PAVIAccount@@V?$allocator@PAVIAccount@@@std@@@std@@QAEXXZ 100098f0 f i ClientSession.obj
 0001:000088f0       ?_Tidy@?$list@IV?$allocator@I@std@@@std@@QAEXXZ 100098f0 f i ClientSession.obj
 0001:000088f0       ?_Tidy@?$list@PAVIClientSession@@V?$allocator@PAVIClientSession@@@std@@@std@@QAEXXZ 100098f0 f i ClientSession.obj
 0001:00008910       ?_Unchecked_end@?$list@PAVIClientSession@@V?$allocator@PAVIClientSession@@@std@@@std@@QAE?AV?$_List_unchecked_iterator@V?$_List_val@U?$_List_simple_types@PAVIClientSession@@@std@@@std@@@2@XZ 10009910 f i ClientSession.obj
 0001:00008910       ?_Unchecked_end@?$list@IV?$allocator@I@std@@@std@@QAE?AV?$_List_unchecked_iterator@V?$_List_val@U?$_List_simple_types@I@std@@@std@@@2@XZ 10009910 f i ClientSession.obj
 0001:00008910       ?_Unchecked_end@?$list@PAVIAccount@@V?$allocator@PAVIAccount@@@std@@@std@@QAE?AV?$_List_unchecked_iterator@V?$_List_val@U?$_List_simple_types@PAVIAccount@@@std@@@std@@@2@XZ 10009910 f i ClientSession.obj
 0001:00008940       ??E?$_List_const_iterator@V?$_List_val@U?$_List_simple_types@PAVIAccount@@@std@@@std@@@std@@QAE?AV01@H@Z 10009940 f i ClientSession.obj
 0001:00008940       ??E?$_List_const_iterator@V?$_List_val@U?$_List_simple_types@I@std@@@std@@@std@@QAE?AV01@H@Z 10009940 f i ClientSession.obj
 0001:00008970       ?_Freenode@?$_List_buy@PAVIAccount@@V?$allocator@PAVIAccount@@@std@@@std@@QAEXPAU?$_List_node@PAVIAccount@@PAX@2@@Z 10009970 f i ClientSession.obj
 0001:00008970       ?_Freenode@?$_List_buy@PAVIClientSession@@V?$allocator@PAVIClientSession@@@std@@@std@@QAEXPAU?$_List_node@PAVIClientSession@@PAX@2@@Z 10009970 f i ClientSession.obj
 0001:00008970       ?_Freenode@?$_List_buy@IV?$allocator@I@std@@@std@@QAEXPAU?$_List_node@IPAX@2@@Z 10009970 f i ClientSession.obj
 0001:00008a10       ?_Unlinknode@?$list@IV?$allocator@I@std@@@std@@QAEPAU?$_List_node@IPAX@2@V?$_List_const_iterator@V?$_List_val@U?$_List_simple_types@I@std@@@std@@@2@@Z 10009a10 f i ClientSession.obj
 0001:00008a10       ?_Unlinknode@?$list@PAVIAccount@@V?$allocator@PAVIAccount@@@std@@@std@@QAEPAU?$_List_node@PAVIAccount@@PAX@2@V?$_List_const_iterator@V?$_List_val@U?$_List_simple_types@PAVIAccount@@@std@@@std@@@2@@Z 10009a10 f i ClientSession.obj
 0001:00008aa0       ?_Make_iter@?$list@IV?$allocator@I@std@@@std@@QBE?AV?$_List_iterator@V?$_List_val@U?$_List_simple_types@I@std@@@std@@@2@V?$_List_const_iterator@V?$_List_val@U?$_List_simple_types@I@std@@@std@@@2@@Z 10009aa0 f i ClientSession.obj
 0001:00008aa0       ?_Make_iter@?$list@PAVIAccount@@V?$allocator@PAVIAccount@@@std@@@std@@QBE?AV?$_List_iterator@V?$_List_val@U?$_List_simple_types@PAVIAccount@@@std@@@std@@@2@V?$_List_const_iterator@V?$_List_val@U?$_List_simple_types@PAVIAccount@@@std@@@std@@@2@@Z 10009aa0 f i ClientSession.obj
 0001:00008af0       ??D?$_List_const_iterator@V?$_List_val@U?$_List_simple_types@I@std@@@std@@@std@@QBEABIXZ 10009af0 f i ClientSession.obj
 0001:00008af0       ??D?$_List_const_iterator@V?$_List_val@U?$_List_simple_types@PAVIClientSession@@@std@@@std@@@std@@QBEABQAVIClientSession@@XZ 10009af0 f i ClientSession.obj
 0001:00008b10       ??R?$less@V?$basic_string@DU?$char_traits@D@std@@V?$allocator@D@2@@std@@@std@@QBE_NABV?$basic_string@DU?$char_traits@D@std@@V?$allocator@D@2@@1@0@Z 10009b10 f i ClientSession.obj
 0001:00008b30       ?_Move_alloc@?$_String_alloc@U?$_String_base_types@DV?$allocator@D@std@@@std@@@std@@QAEXAAU?$_Wrap_alloc@V?$allocator@D@std@@@2@@Z 10009b30 f i ClientSession.obj
 0001:00008b60       ?get_allocator@?$basic_string@DU?$char_traits@D@std@@V?$allocator@D@2@@std@@QBE?AV?$allocator@D@2@XZ 10009b60 f i ClientSession.obj
 0001:00008b90       ?_Traits_compare@?$basic_string@DU?$char_traits@D@std@@V?$allocator@D@2@@std@@SAHQBDI0I@Z 10009b90 f i ClientSession.obj
 0001:00008c00       ?find@?$basic_string@DU?$char_traits@D@std@@V?$allocator@D@2@@std@@QBEIPBDII@Z 10009c00 f i ClientSession.obj
 0001:00008ce0       ?end@?$basic_string@DU?$char_traits@D@std@@V?$allocator@D@2@@std@@QAE?AV?$_String_iterator@V?$_String_val@U?$_Simple_types@D@std@@@std@@@2@XZ 10009ce0 f i ClientSession.obj
 0001:00008d60       ?begin@?$basic_string@DU?$char_traits@D@std@@V?$allocator@D@2@@std@@QAE?AV?$_String_iterator@V?$_String_val@U?$_Simple_types@D@std@@@std@@@2@XZ 10009d60 f i ClientSession.obj
 0001:00008dd0       ?_Assign_rv@?$basic_string@DU?$char_traits@D@std@@V?$allocator@D@2@@std@@QAEX$$QAV12@@Z 10009dd0 f i ClientSession.obj
 0001:00008e90       ??0?$basic_string@DU?$char_traits@D@std@@V?$allocator@D@2@@std@@QAE@ABV01@IIABV?$allocator@D@1@@Z 10009e90 f i ClientSession.obj
 0001:00008f10       ??0?$_List_const_iterator@V?$_List_val@U?$_List_simple_types@I@std@@@std@@@std@@QAE@PAU?$_List_node@IPAX@1@PBV?$_List_val@U?$_List_simple_types@I@std@@@1@@Z 10009f10 f i ClientSession.obj
 0001:00008f10       ??0?$_List_unchecked_iterator@V?$_List_val@U?$_List_simple_types@PAVIAccount@@@std@@@std@@@std@@QAE@PAU?$_List_node@PAVIAccount@@PAX@1@PBV?$_List_val@U?$_List_simple_types@PAVIAccount@@@std@@@1@@Z 10009f10 f i ClientSession.obj
 0001:00008f10       ??0?$_Tree_const_iterator@V?$_Tree_val@U?$_Tree_simple_types@U?$pair@$$CBV?$basic_string@DU?$char_traits@D@std@@V?$allocator@D@2@@std@@V?$list@IV?$allocator@I@std@@@2@@std@@@std@@@std@@@std@@QAE@PAU?$_Tree_node@U?$pair@$$CBV?$basic_string@DU?$char_traits@D@std@@V?$allocator@D@2@@std@@V?$list@IV?$allocator@I@std@@@2@@std@@PAX@1@PBV?$_Tree_val@U?$_Tree_simple_types@U?$pair@$$CBV?$basic_string@DU?$char_traits@D@std@@V?$allocator@D@2@@std@@V?$list@IV?$allocator@I@std@@@2@@std@@@std@@@1@@Z 10009f10 f i ClientSession.obj
 0001:00008f10       ??0?$_String_iterator@V?$_String_val@U?$_Simple_types@D@std@@@std@@@std@@QAE@PADPBU_Container_base0@1@@Z 10009f10 f i ClientSession.obj
 0001:00008f10       ??0?$_List_const_iterator@V?$_List_val@U?$_List_simple_types@PAVIAccount@@@std@@@std@@@std@@QAE@PAU?$_List_node@PAVIAccount@@PAX@1@PBV?$_List_val@U?$_List_simple_types@PAVIAccount@@@std@@@1@@Z 10009f10 f i ClientSession.obj
 0001:00008f10       ??0?$_List_unchecked_iterator@V?$_List_val@U?$_List_simple_types@PAVIClientSession@@@std@@@std@@@std@@QAE@PAU?$_List_node@PAVIClientSession@@PAX@1@PBV?$_List_val@U?$_List_simple_types@PAVIClientSession@@@std@@@1@@Z 10009f10 f i ClientSession.obj
 0001:00008f10       ??0?$_List_unchecked_iterator@V?$_List_val@U?$_List_simple_types@I@std@@@std@@@std@@QAE@PAU?$_List_node@IPAX@1@PBV?$_List_val@U?$_List_simple_types@I@std@@@1@@Z 10009f10 f i ClientSession.obj
 0001:00008f10       ??0?$_Tree_const_iterator@V?$_Tree_val@U?$_Tree_simple_types@U?$pair@$$CBIPAVIClientSession@@@std@@@std@@@std@@@std@@QAE@PAU?$_Tree_node@U?$pair@$$CBIPAVIClientSession@@@std@@PAX@1@PBV?$_Tree_val@U?$_Tree_simple_types@U?$pair@$$CBIPAVIClientSession@@@std@@@std@@@1@@Z 10009f10 f i ClientSession.obj
 0001:00008f10       ??0?$_List_const_iterator@V?$_List_val@U?$_List_simple_types@PAVIClientSession@@@std@@@std@@@std@@QAE@PAU?$_List_node@PAVIClientSession@@PAX@1@PBV?$_List_val@U?$_List_simple_types@PAVIClientSession@@@std@@@1@@Z 10009f10 f i ClientSession.obj
 0001:00008f30       ??E?$_List_const_iterator@V?$_List_val@U?$_List_simple_types@PAVIAccount@@@std@@@std@@@std@@QAEAAV01@XZ 10009f30 f i ClientSession.obj
 0001:00008f30       ??E?$_List_const_iterator@V?$_List_val@U?$_List_simple_types@PAVIClientSession@@@std@@@std@@@std@@QAEAAV01@XZ 10009f30 f i ClientSession.obj
 0001:00008f30       ??E?$_List_const_iterator@V?$_List_val@U?$_List_simple_types@I@std@@@std@@@std@@QAEAAV01@XZ 10009f30 f i ClientSession.obj
 0001:00008f60       ?_Freeheadnode@?$_List_alloc@U?$_List_base_types@IV?$allocator@I@std@@@std@@@std@@QAEXPAU?$_List_node@IPAX@2@@Z 10009f60 f i ClientSession.obj
 0001:00008f60       ?_Freeheadnode@?$_List_alloc@U?$_List_base_types@PAVIClientSession@@V?$allocator@PAVIClientSession@@@std@@@std@@@std@@QAEXPAU?$_List_node@PAVIClientSession@@PAX@2@@Z 10009f60 f i ClientSession.obj
 0001:00008f60       ?_Freeheadnode@?$_List_alloc@U?$_List_base_types@PAVIAccount@@V?$allocator@PAVIAccount@@@std@@@std@@@std@@QAEXPAU?$_List_node@PAVIAccount@@PAX@2@@Z 10009f60 f i ClientSession.obj
 0001:00008fd0       ??0?$_List_alloc@U?$_List_base_types@PAVIAccount@@V?$allocator@PAVIAccount@@@std@@@std@@@std@@QAE@XZ 10009fd0 f i ClientSession.obj
 0001:00008fd0       ??0?$_List_alloc@U?$_List_base_types@PAVIClientSession@@V?$allocator@PAVIClientSession@@@std@@@std@@@std@@QAE@XZ 10009fd0 f i ClientSession.obj
 0001:00008fd0       ??0?$_List_alloc@U?$_List_base_types@IV?$allocator@I@std@@@std@@@std@@QAE@XZ 10009fd0 f i ClientSession.obj
 0001:00009010       ??E?$_Tree_unchecked_const_iterator@V?$_Tree_val@U?$_Tree_simple_types@U?$pair@$$CBV?$basic_string@DU?$char_traits@D@std@@V?$allocator@D@2@@std@@V?$list@IV?$allocator@I@std@@@2@@std@@@std@@@std@@U_Iterator_base0@2@@std@@QAEAAV01@XZ 1000a010 f i ClientSession.obj
 0001:00009010       ??E?$_Tree_unchecked_const_iterator@V?$_Tree_val@U?$_Tree_simple_types@U?$pair@$$CBIPAVIClientSession@@@std@@@std@@@std@@U_Iterator_base0@2@@std@@QAEAAV01@XZ 1000a010 f i ClientSession.obj
 0001:000090d0       ??0?$_Tree_unchecked_const_iterator@V?$_Tree_val@U?$_Tree_simple_types@U?$pair@$$CBIPAVIClientSession@@@std@@@std@@@std@@U_Iterator_base0@2@@std@@QAE@XZ 1000a0d0 f i ClientSession.obj
 0001:000090f0       ?_Min@?$_Tree_val@U?$_Tree_simple_types@U?$pair@$$CBV?$basic_string@DU?$char_traits@D@std@@V?$allocator@D@2@@std@@V?$list@IV?$allocator@I@std@@@2@@std@@@std@@@std@@SAPAU?$_Tree_node@U?$pair@$$CBV?$basic_string@DU?$char_traits@D@std@@V?$allocator@D@2@@std@@V?$list@IV?$allocator@I@std@@@2@@std@@PAX@2@PAU32@@Z 1000a0f0 f i ClientSession.obj
 0001:000090f0       ?_Min@?$_Tree_val@U?$_Tree_simple_types@U?$pair@$$CBIPAVIClientSession@@@std@@@std@@@std@@SAPAU?$_Tree_node@U?$pair@$$CBIPAVIClientSession@@@std@@PAX@2@PAU32@@Z 1000a0f0 f i ClientSession.obj
 0001:00009130       ?_Max@?$_Tree_val@U?$_Tree_simple_types@U?$pair@$$CBV?$basic_string@DU?$char_traits@D@std@@V?$allocator@D@2@@std@@V?$list@IV?$allocator@I@std@@@2@@std@@@std@@@std@@SAPAU?$_Tree_node@U?$pair@$$CBV?$basic_string@DU?$char_traits@D@std@@V?$allocator@D@2@@std@@V?$list@IV?$allocator@I@std@@@2@@std@@PAX@2@PAU32@@Z 1000a130 f i ClientSession.obj
 0001:00009130       ?_Max@?$_Tree_val@U?$_Tree_simple_types@U?$pair@$$CBIPAVIClientSession@@@std@@@std@@@std@@SAPAU?$_Tree_node@U?$pair@$$CBIPAVIClientSession@@@std@@PAX@2@PAU32@@Z 1000a130 f i ClientSession.obj
 0001:00009170       ?_Myval@?$_Tree_val@U?$_Tree_simple_types@U?$pair@$$CBIPAVIClientSession@@@std@@@std@@@std@@SAAAU?$pair@$$CBIPAVIClientSession@@@2@PAU?$_Tree_node@U?$pair@$$CBIPAVIClientSession@@@std@@PAX@2@@Z 1000a170 f i ClientSession.obj
 0001:00009170       ?_Myval@?$_Tree_val@U?$_Tree_simple_types@U?$pair@$$CBV?$basic_string@DU?$char_traits@D@std@@V?$allocator@D@2@@std@@V?$list@IV?$allocator@I@std@@@2@@std@@@std@@@std@@SAAAU?$pair@$$CBV?$basic_string@DU?$char_traits@D@std@@V?$allocator@D@2@@std@@V?$list@IV?$allocator@I@std@@@2@@2@PAU?$_Tree_node@U?$pair@$$CBV?$basic_string@DU?$char_traits@D@std@@V?$allocator@D@2@@std@@V?$list@IV?$allocator@I@std@@@2@@std@@PAX@2@@Z 1000a170 f i ClientSession.obj
 0001:00009180       ?_Myval@?$_List_val@U?$_List_simple_types@PAVIAccount@@@std@@@std@@SAAAPAVIAccount@@PAU?$_List_node@PAVIAccount@@PAX@2@@Z 1000a180 f i ClientSession.obj
 0001:00009180       ?_Myval@?$_List_val@U?$_List_simple_types@I@std@@@std@@SAAAIPAU?$_List_node@IPAX@2@@Z 1000a180 f i ClientSession.obj
 0001:00009180       ?_Myval@?$_List_val@U?$_List_simple_types@PAVIClientSession@@@std@@@std@@SAAAPAVIClientSession@@PAU?$_List_node@PAVIClientSession@@PAX@2@@Z 1000a180 f i ClientSession.obj
 0001:00009180       ?_Right@?$_Tree_val@U?$_Tree_simple_types@U?$pair@$$CBIPAVIClientSession@@@std@@@std@@@std@@SAAAPAU?$_Tree_node@U?$pair@$$CBIPAVIClientSession@@@std@@PAX@2@PAU32@@Z 1000a180 f i ClientSession.obj
 0001:00009180       ?_Right@?$_Tree_val@U?$_Tree_simple_types@U?$pair@$$CBV?$basic_string@DU?$char_traits@D@std@@V?$allocator@D@2@@std@@V?$list@IV?$allocator@I@std@@@2@@std@@@std@@@std@@SAAAPAU?$_Tree_node@U?$pair@$$CBV?$basic_string@DU?$char_traits@D@std@@V?$allocator@D@2@@std@@V?$list@IV?$allocator@I@std@@@2@@std@@PAX@2@PAU32@@Z 1000a180 f i ClientSession.obj
 0001:00009190       ?_Prevnode@?$_List_val@U?$_List_simple_types@PAVIAccount@@@std@@@std@@SAAAPAU?$_List_node@PAVIAccount@@PAX@2@PAU32@@Z 1000a190 f i ClientSession.obj
 0001:00009190       ?_Parent@?$_Tree_val@U?$_Tree_simple_types@U?$pair@$$CBV?$basic_string@DU?$char_traits@D@std@@V?$allocator@D@2@@std@@V?$list@IV?$allocator@I@std@@@2@@std@@@std@@@std@@SAAAPAU?$_Tree_node@U?$pair@$$CBV?$basic_string@DU?$char_traits@D@std@@V?$allocator@D@2@@std@@V?$list@IV?$allocator@I@std@@@2@@std@@PAX@2@PAU32@@Z 1000a190 f i ClientSession.obj
 0001:00009190       ?_Prevnode@?$_List_val@U?$_List_simple_types@PAVIClientSession@@@std@@@std@@SAAAPAU?$_List_node@PAVIClientSession@@PAX@2@PAU32@@Z 1000a190 f i ClientSession.obj
 0001:00009190       ?_Parent@?$_Tree_val@U?$_Tree_simple_types@U?$pair@$$CBIPAVIClientSession@@@std@@@std@@@std@@SAAAPAU?$_Tree_node@U?$pair@$$CBIPAVIClientSession@@@std@@PAX@2@PAU32@@Z 1000a190 f i ClientSession.obj
 0001:00009190       ?_Prevnode@?$_List_val@U?$_List_simple_types@I@std@@@std@@SAAAPAU?$_List_node@IPAX@2@PAU32@@Z 1000a190 f i ClientSession.obj
 0001:000091a0       ?_Isnil@?$_Tree_val@U?$_Tree_simple_types@U?$pair@$$CBIPAVIClientSession@@@std@@@std@@@std@@SAAADPAU?$_Tree_node@U?$pair@$$CBIPAVIClientSession@@@std@@PAX@2@@Z 1000a1a0 f i ClientSession.obj
 0001:000091a0       ?_Isnil@?$_Tree_val@U?$_Tree_simple_types@U?$pair@$$CBV?$basic_string@DU?$char_traits@D@std@@V?$allocator@D@2@@std@@V?$list@IV?$allocator@I@std@@@2@@std@@@std@@@std@@SAAADPAU?$_Tree_node@U?$pair@$$CBV?$basic_string@DU?$char_traits@D@std@@V?$allocator@D@2@@std@@V?$list@IV?$allocator@I@std@@@2@@std@@PAX@2@@Z 1000a1a0 f i ClientSession.obj
 0001:000091b0       ?_Color@?$_Tree_val@U?$_Tree_simple_types@U?$pair@$$CBV?$basic_string@DU?$char_traits@D@std@@V?$allocator@D@2@@std@@V?$list@IV?$allocator@I@std@@@2@@std@@@std@@@std@@SAAADPAU?$_Tree_node@U?$pair@$$CBV?$basic_string@DU?$char_traits@D@std@@V?$allocator@D@2@@std@@V?$list@IV?$allocator@I@std@@@2@@std@@PAX@2@@Z 1000a1b0 f i ClientSession.obj
 0001:000091b0       ?_Color@?$_Tree_val@U?$_Tree_simple_types@U?$pair@$$CBIPAVIClientSession@@@std@@@std@@@std@@SAAADPAU?$_Tree_node@U?$pair@$$CBIPAVIClientSession@@@std@@PAX@2@@Z 1000a1b0 f i ClientSession.obj
 0001:000091c0       ?deallocate@?$allocator@U?$_Tree_node@U?$pair@$$CBV?$basic_string@DU?$char_traits@D@std@@V?$allocator@D@2@@std@@V?$list@IV?$allocator@I@std@@@2@@std@@PAX@std@@@std@@QAEXPAU?$_Tree_node@U?$pair@$$CBV?$basic_string@DU?$char_traits@D@std@@V?$allocator@D@2@@std@@V?$list@IV?$allocator@I@std@@@2@@std@@PAX@2@I@Z 1000a1c0 f i ClientSession.obj
 0001:000091e0       ?_Freenode0@?$_Tree_comp_alloc@V?$_Tmap_traits@V?$basic_string@DU?$char_traits@D@std@@V?$allocator@D@2@@std@@V?$list@IV?$allocator@I@std@@@2@U?$less@V?$basic_string@DU?$char_traits@D@std@@V?$allocator@D@2@@std@@@2@V?$allocator@U?$pair@$$CBV?$basic_string@DU?$char_traits@D@std@@V?$allocator@D@2@@std@@V?$list@IV?$allocator@I@std@@@2@@std@@@2@$0A@@std@@@std@@QAEXPAU?$_Tree_node@U?$pair@$$CBV?$basic_string@DU?$char_traits@D@std@@V?$allocator@D@2@@std@@V?$list@IV?$allocator@I@std@@@2@@std@@PAX@2@@Z 1000a1e0 f i ClientSession.obj
 0001:000091e0       ?_Freeheadnode@?$_Tree_comp_alloc@V?$_Tmap_traits@V?$basic_string@DU?$char_traits@D@std@@V?$allocator@D@2@@std@@V?$list@IV?$allocator@I@std@@@2@U?$less@V?$basic_string@DU?$char_traits@D@std@@V?$allocator@D@2@@std@@@2@V?$allocator@U?$pair@$$CBV?$basic_string@DU?$char_traits@D@std@@V?$allocator@D@2@@std@@V?$list@IV?$allocator@I@std@@@2@@std@@@2@$0A@@std@@@std@@QAEXPAU?$_Tree_node@U?$pair@$$CBV?$basic_string@DU?$char_traits@D@std@@V?$allocator@D@2@@std@@V?$list@IV?$allocator@I@std@@@2@@std@@PAX@2@@Z 1000a1e0 f i ClientSession.obj
 0001:00009280       ??0?$_Tree_comp_alloc@V?$_Tmap_traits@V?$basic_string@DU?$char_traits@D@std@@V?$allocator@D@2@@std@@V?$list@IV?$allocator@I@std@@@2@U?$less@V?$basic_string@DU?$char_traits@D@std@@V?$allocator@D@2@@std@@@2@V?$allocator@U?$pair@$$CBV?$basic_string@DU?$char_traits@D@std@@V?$allocator@D@2@@std@@V?$list@IV?$allocator@I@std@@@2@@std@@@2@$0A@@std@@@std@@QAE@ABU?$less@V?$basic_string@DU?$char_traits@D@std@@V?$allocator@D@2@@std@@@1@@Z 1000a280 f i ClientSession.obj
 0001:000092b0       ?_Kfn@?$_Tree@V?$_Tmap_traits@V?$basic_string@DU?$char_traits@D@std@@V?$allocator@D@2@@std@@V?$list@IV?$allocator@I@std@@@2@U?$less@V?$basic_string@DU?$char_traits@D@std@@V?$allocator@D@2@@std@@@2@V?$allocator@U?$pair@$$CBV?$basic_string@DU?$char_traits@D@std@@V?$allocator@D@2@@std@@V?$list@IV?$allocator@I@std@@@2@@std@@@2@$0A@@std@@@std@@IBEABV?$basic_string@DU?$char_traits@D@std@@V?$allocator@D@2@@2@ABU?$pair@$$CBV?$basic_string@DU?$char_traits@D@std@@V?$allocator@D@2@@std@@V?$list@IV?$allocator@I@std@@@2@@2@@Z 1000a2b0 f i ClientSession.obj
 0001:000092b0       ?_Kfn@?$_Tree@V?$_Tmap_traits@IPAVIClientSession@@U?$less@I@std@@V?$allocator@U?$pair@$$CBIPAVIClientSession@@@std@@@3@$0A@@std@@@std@@IBEABIABU?$pair@$$CBIPAVIClientSession@@@2@@Z 1000a2b0 f i ClientSession.obj
 0001:000092d0       ?erase@?$_Tree@V?$_Tmap_traits@V?$basic_string@DU?$char_traits@D@std@@V?$allocator@D@2@@std@@V?$list@IV?$allocator@I@std@@@2@U?$less@V?$basic_string@DU?$char_traits@D@std@@V?$allocator@D@2@@std@@@2@V?$allocator@U?$pair@$$CBV?$basic_string@DU?$char_traits@D@std@@V?$allocator@D@2@@std@@V?$list@IV?$allocator@I@std@@@2@@std@@@2@$0A@@std@@@std@@QAE?AV?$_Tree_iterator@V?$_Tree_val@U?$_Tree_simple_types@U?$pair@$$CBV?$basic_string@DU?$char_traits@D@std@@V?$allocator@D@2@@std@@V?$list@IV?$allocator@I@std@@@2@@std@@@std@@@std@@@2@V?$_Tree_const_iterator@V?$_Tree_val@U?$_Tree_simple_types@U?$pair@$$CBV?$basic_string@DU?$char_traits@D@std@@V?$allocator@D@2@@std@@V?$list@IV?$allocator@I@std@@@2@@std@@@std@@@std@@@2@0@Z 1000a2d0 f i ClientSession.obj
 0001:00009380       ?select_on_container_copy_construction@?$allocator_traits@V?$allocator@U?$_Tree_node@U?$pair@$$CBIPAVIClientSession@@@std@@PAX@std@@@std@@@std@@SA?AV?$allocator@U?$_Tree_node@U?$pair@$$CBIPAVIClientSession@@@std@@PAX@std@@@2@ABV32@@Z 1000a380 f i ClientSession.obj
 0001:00009380       ?select_on_container_copy_construction@?$allocator_traits@V?$allocator@D@std@@@std@@SA?AV?$allocator@D@2@ABV32@@Z 1000a380 f i ClientSession.obj
 0001:00009380       ?select_on_container_copy_construction@?$allocator_traits@V?$allocator@_W@std@@@std@@SA?AV?$allocator@_W@2@ABV32@@Z 1000a380 f i JSONHandler.obj
 0001:00009380       ?select_on_container_copy_construction@?$allocator_traits@V?$allocator@U?$_List_node@IPAX@std@@@std@@@std@@SA?AV?$allocator@U?$_List_node@IPAX@std@@@2@ABV32@@Z 1000a380 f i ClientSession.obj
 0001:000093a0       ?deallocate@?$allocator@U?$_Tree_node@U?$pair@$$CBIPAVIClientSession@@@std@@PAX@std@@@std@@QAEXPAU?$_Tree_node@U?$pair@$$CBIPAVIClientSession@@@std@@PAX@2@I@Z 1000a3a0 f i ClientSession.obj
 0001:000093c0       ?_Freenode0@?$_Tree_comp_alloc@V?$_Tmap_traits@IPAVIClientSession@@U?$less@I@std@@V?$allocator@U?$pair@$$CBIPAVIClientSession@@@std@@@3@$0A@@std@@@std@@QAEXPAU?$_Tree_node@U?$pair@$$CBIPAVIClientSession@@@std@@PAX@2@@Z 1000a3c0 f i ClientSession.obj
 0001:000093c0       ?_Freeheadnode@?$_Tree_comp_alloc@V?$_Tmap_traits@IPAVIClientSession@@U?$less@I@std@@V?$allocator@U?$pair@$$CBIPAVIClientSession@@@std@@@3@$0A@@std@@@std@@QAEXPAU?$_Tree_node@U?$pair@$$CBIPAVIClientSession@@@std@@PAX@2@@Z 1000a3c0 f i ClientSession.obj
 0001:00009460       ??0?$_Tree_comp_alloc@V?$_Tmap_traits@IPAVIClientSession@@U?$less@I@std@@V?$allocator@U?$pair@$$CBIPAVIClientSession@@@std@@@3@$0A@@std@@@std@@QAE@ABU?$less@I@1@@Z 1000a460 f i ClientSession.obj
 0001:00009490       ?erase@?$_Tree@V?$_Tmap_traits@IPAVIClientSession@@U?$less@I@std@@V?$allocator@U?$pair@$$CBIPAVIClientSession@@@std@@@3@$0A@@std@@@std@@QAE?AV?$_Tree_iterator@V?$_Tree_val@U?$_Tree_simple_types@U?$pair@$$CBIPAVIClientSession@@@std@@@std@@@std@@@2@V?$_Tree_const_iterator@V?$_Tree_val@U?$_Tree_simple_types@U?$pair@$$CBIPAVIClientSession@@@std@@@std@@@std@@@2@0@Z 1000a490 f i ClientSession.obj
 0001:00009540       ?deallocate@?$_Wrap_alloc@V?$allocator@U?$_List_node@IPAX@std@@@std@@@std@@QAEXPAU?$_List_node@IPAX@2@I@Z 1000a540 f i ClientSession.obj
 0001:00009540       ?deallocate@?$_Wrap_alloc@V?$allocator@U?$_List_node@PAVIClientSession@@PAX@std@@@std@@@std@@QAEXPAU?$_List_node@PAVIClientSession@@PAX@2@I@Z 1000a540 f i ClientSession.obj
 0001:00009540       ?deallocate@?$_Wrap_alloc@V?$allocator@U?$_List_node@PAVIAccount@@PAX@std@@@std@@@std@@QAEXPAU?$_List_node@PAVIAccount@@PAX@2@I@Z 1000a540 f i ClientSession.obj
 0001:00009560       ?address@?$_Wrap_alloc@V?$allocator@D@std@@@std@@QBEPADAAD@Z 1000a560 f i ClientSession.obj
 0001:00009580       ??0?$_List_unchecked_const_iterator@V?$_List_val@U?$_List_simple_types@PAVIClientSession@@@std@@@std@@U_Iterator_base0@2@@std@@QAE@PAU?$_List_node@PAVIClientSession@@PAX@1@PBV?$_List_val@U?$_List_simple_types@PAVIClientSession@@@std@@@1@@Z 1000a580 f i ClientSession.obj
 0001:00009580       ??0?$_String_const_iterator@V?$_String_val@U?$_Simple_types@D@std@@@std@@@std@@QAE@PBDPBU_Container_base0@1@@Z 1000a580 f i ClientSession.obj
 0001:00009580       ??0?$_Tree_unchecked_const_iterator@V?$_Tree_val@U?$_Tree_simple_types@U?$pair@$$CBV?$basic_string@DU?$char_traits@D@std@@V?$allocator@D@2@@std@@V?$list@IV?$allocator@I@std@@@2@@std@@@std@@@std@@U_Iterator_base0@2@@std@@QAE@PAU?$_Tree_node@U?$pair@$$CBV?$basic_string@DU?$char_traits@D@std@@V?$allocator@D@2@@std@@V?$list@IV?$allocator@I@std@@@2@@std@@PAX@1@PBV?$_Tree_val@U?$_Tree_simple_types@U?$pair@$$CBV?$basic_string@DU?$char_traits@D@std@@V?$allocator@D@2@@std@@V?$list@IV?$allocator@I@std@@@2@@std@@@std@@@1@@Z 1000a580 f i ClientSession.obj
 0001:00009580       ??0?$_List_unchecked_const_iterator@V?$_List_val@U?$_List_simple_types@PAVIAccount@@@std@@@std@@U_Iterator_base0@2@@std@@QAE@PAU?$_List_node@PAVIAccount@@PAX@1@PBV?$_List_val@U?$_List_simple_types@PAVIAccount@@@std@@@1@@Z 1000a580 f i ClientSession.obj
 0001:00009580       ??0?$_Tree_unchecked_const_iterator@V?$_Tree_val@U?$_Tree_simple_types@U?$pair@$$CBIPAVIClientSession@@@std@@@std@@@std@@U_Iterator_base0@2@@std@@QAE@PAU?$_Tree_node@U?$pair@$$CBIPAVIClientSession@@@std@@PAX@1@PBV?$_Tree_val@U?$_Tree_simple_types@U?$pair@$$CBIPAVIClientSession@@@std@@@std@@@1@@Z 1000a580 f i ClientSession.obj
 0001:00009580       ??0?$_List_unchecked_const_iterator@V?$_List_val@U?$_List_simple_types@I@std@@@std@@U_Iterator_base0@2@@std@@QAE@PAU?$_List_node@IPAX@1@PBV?$_List_val@U?$_List_simple_types@I@std@@@1@@Z 1000a580 f i ClientSession.obj
 0001:000095b0       ?_Buyheadnode@?$_List_alloc@U?$_List_base_types@PAVIAccount@@V?$allocator@PAVIAccount@@@std@@@std@@@std@@QAEPAU?$_List_node@PAVIAccount@@PAX@2@XZ 1000a5b0 f i ClientSession.obj
 0001:000095b0       ?_Buyheadnode@?$_List_alloc@U?$_List_base_types@PAVIClientSession@@V?$allocator@PAVIClientSession@@@std@@@std@@@std@@QAEPAU?$_List_node@PAVIClientSession@@PAX@2@XZ 1000a5b0 f i ClientSession.obj
 0001:000095b0       ?_Buyheadnode@?$_List_alloc@U?$_List_base_types@IV?$allocator@I@std@@@std@@@std@@QAEPAU?$_List_node@IPAX@2@XZ 1000a5b0 f i ClientSession.obj
 0001:000095d0       ??E?$_Tree_const_iterator@V?$_Tree_val@U?$_Tree_simple_types@U?$pair@$$CBV?$basic_string@DU?$char_traits@D@std@@V?$allocator@D@2@@std@@V?$list@IV?$allocator@I@std@@@2@@std@@@std@@@std@@@std@@QAE?AV01@H@Z 1000a5d0 f i ClientSession.obj
 0001:000095d0       ??E?$_Tree_const_iterator@V?$_Tree_val@U?$_Tree_simple_types@U?$pair@$$CBIPAVIClientSession@@@std@@@std@@@std@@@std@@QAE?AV01@H@Z 1000a5d0 f i ClientSession.obj
 0001:00009600       ?_Construct@?$_Tree_comp_alloc@V?$_Tmap_traits@V?$basic_string@DU?$char_traits@D@std@@V?$allocator@D@2@@std@@V?$list@IV?$allocator@I@std@@@2@U?$less@V?$basic_string@DU?$char_traits@D@std@@V?$allocator@D@2@@std@@@2@V?$allocator@U?$pair@$$CBV?$basic_string@DU?$char_traits@D@std@@V?$allocator@D@2@@std@@V?$list@IV?$allocator@I@std@@@2@@std@@@2@$0A@@std@@@std@@QAEXXZ 1000a600 f i ClientSession.obj
 0001:00009630       ?clear@?$_Tree@V?$_Tmap_traits@V?$basic_string@DU?$char_traits@D@std@@V?$allocator@D@2@@std@@V?$list@IV?$allocator@I@std@@@2@U?$less@V?$basic_string@DU?$char_traits@D@std@@V?$allocator@D@2@@std@@@2@V?$allocator@U?$pair@$$CBV?$basic_string@DU?$char_traits@D@std@@V?$allocator@D@2@@std@@V?$list@IV?$allocator@I@std@@@2@@std@@@2@$0A@@std@@@std@@QAEXXZ 1000a630 f i ClientSession.obj
 0001:000096d0       ?_Construct@?$_Tree_comp_alloc@V?$_Tmap_traits@IPAVIClientSession@@U?$less@I@std@@V?$allocator@U?$pair@$$CBIPAVIClientSession@@@std@@@3@$0A@@std@@@std@@QAEXXZ 1000a6d0 f i ClientSession.obj
 0001:00009700       ?deallocate@?$allocator@U?$_List_node@PAVIAccount@@PAX@std@@@std@@QAEXPAU?$_List_node@PAVIAccount@@PAX@2@I@Z 1000a700 f i ClientSession.obj
 0001:00009700       ?deallocate@?$allocator@U?$_List_node@PAVIClientSession@@PAX@std@@@std@@QAEXPAU?$_List_node@PAVIClientSession@@PAX@2@I@Z 1000a700 f i ClientSession.obj
 0001:00009700       ?deallocate@?$allocator@U?$_List_node@IPAX@std@@@std@@QAEXPAU?$_List_node@IPAX@2@I@Z 1000a700 f i ClientSession.obj
 0001:00009720       ?_Buynode0@?$_List_alloc@U?$_List_base_types@IV?$allocator@I@std@@@std@@@std@@QAEPAU?$_List_node@IPAX@2@PAU32@0@Z 1000a720 f i ClientSession.obj
 0001:00009720       ?_Buynode0@?$_List_alloc@U?$_List_base_types@PAVIClientSession@@V?$allocator@PAVIClientSession@@@std@@@std@@@std@@QAEPAU?$_List_node@PAVIClientSession@@PAX@2@PAU32@0@Z 1000a720 f i ClientSession.obj
 0001:00009720       ?_Buynode0@?$_List_alloc@U?$_List_base_types@PAVIAccount@@V?$allocator@PAVIAccount@@@std@@@std@@@std@@QAEPAU?$_List_node@PAVIAccount@@PAX@2@PAU32@0@Z 1000a720 f i ClientSession.obj
 0001:00009830       ?_Buyheadnode@?$_Tree_comp_alloc@V?$_Tmap_traits@V?$basic_string@DU?$char_traits@D@std@@V?$allocator@D@2@@std@@V?$list@IV?$allocator@I@std@@@2@U?$less@V?$basic_string@DU?$char_traits@D@std@@V?$allocator@D@2@@std@@@2@V?$allocator@U?$pair@$$CBV?$basic_string@DU?$char_traits@D@std@@V?$allocator@D@2@@std@@V?$list@IV?$allocator@I@std@@@2@@std@@@2@$0A@@std@@@std@@QAEPAU?$_Tree_node@U?$pair@$$CBV?$basic_string@DU?$char_traits@D@std@@V?$allocator@D@2@@std@@V?$list@IV?$allocator@I@std@@@2@@std@@PAX@2@XZ 1000a830 f i ClientSession.obj
 0001:00009970       ?_Erase@?$_Tree@V?$_Tmap_traits@V?$basic_string@DU?$char_traits@D@std@@V?$allocator@D@2@@std@@V?$list@IV?$allocator@I@std@@@2@U?$less@V?$basic_string@DU?$char_traits@D@std@@V?$allocator@D@2@@std@@@2@V?$allocator@U?$pair@$$CBV?$basic_string@DU?$char_traits@D@std@@V?$allocator@D@2@@std@@V?$list@IV?$allocator@I@std@@@2@@std@@@2@$0A@@std@@@std@@IAEXPAU?$_Tree_node@U?$pair@$$CBV?$basic_string@DU?$char_traits@D@std@@V?$allocator@D@2@@std@@V?$list@IV?$allocator@I@std@@@2@@std@@PAX@2@@Z 1000a970 f i ClientSession.obj
 0001:00009a10       ?_Buyheadnode@?$_Tree_comp_alloc@V?$_Tmap_traits@IPAVIClientSession@@U?$less@I@std@@V?$allocator@U?$pair@$$CBIPAVIClientSession@@@std@@@3@$0A@@std@@@std@@QAEPAU?$_Tree_node@U?$pair@$$CBIPAVIClientSession@@@std@@PAX@2@XZ 1000aa10 f i ClientSession.obj
 0001:00009b50       ?allocate@?$_Wrap_alloc@V?$allocator@U?$_List_node@PAVIClientSession@@PAX@std@@@std@@@std@@QAEPAU?$_List_node@PAVIClientSession@@PAX@2@I@Z 1000ab50 f i ClientSession.obj
 0001:00009b50       ?allocate@?$_Wrap_alloc@V?$allocator@U?$_List_node@IPAX@std@@@std@@@std@@QAEPAU?$_List_node@IPAX@2@I@Z 1000ab50 f i ClientSession.obj
 0001:00009b50       ?allocate@?$_Wrap_alloc@V?$allocator@U?$_List_node@PAVIAccount@@PAX@std@@@std@@@std@@QAEPAU?$_List_node@PAVIAccount@@PAX@2@I@Z 1000ab50 f i ClientSession.obj
 0001:00009b70       ?allocate@?$_Wrap_alloc@V?$allocator@U?$_Tree_node@U?$pair@$$CBV?$basic_string@DU?$char_traits@D@std@@V?$allocator@D@2@@std@@V?$list@IV?$allocator@I@std@@@2@@std@@PAX@std@@@std@@@std@@QAEPAU?$_Tree_node@U?$pair@$$CBV?$basic_string@DU?$char_traits@D@std@@V?$allocator@D@2@@std@@V?$list@IV?$allocator@I@std@@@2@@std@@PAX@2@I@Z 1000ab70 f i ClientSession.obj
 0001:00009b90       ?allocate@?$_Wrap_alloc@V?$allocator@U?$_Tree_node@U?$pair@$$CBIPAVIClientSession@@@std@@PAX@std@@@std@@@std@@QAEPAU?$_Tree_node@U?$pair@$$CBIPAVIClientSession@@@std@@PAX@2@I@Z 1000ab90 f i ClientSession.obj
 0001:00009bb0       ?allocate@?$allocator@U?$_List_node@PAVIClientSession@@PAX@std@@@std@@QAEPAU?$_List_node@PAVIClientSession@@PAX@2@I@Z 1000abb0 f i ClientSession.obj
 0001:00009bb0       ?allocate@?$allocator@U?$_List_node@PAVIAccount@@PAX@std@@@std@@QAEPAU?$_List_node@PAVIAccount@@PAX@2@I@Z 1000abb0 f i ClientSession.obj
 0001:00009bb0       ?allocate@?$allocator@U?$_List_node@IPAX@std@@@std@@QAEPAU?$_List_node@IPAX@2@I@Z 1000abb0 f i ClientSession.obj
 0001:00009bd0       ?allocate@?$allocator@U?$_Tree_node@U?$pair@$$CBV?$basic_string@DU?$char_traits@D@std@@V?$allocator@D@2@@std@@V?$list@IV?$allocator@I@std@@@2@@std@@PAX@std@@@std@@QAEPAU?$_Tree_node@U?$pair@$$CBV?$basic_string@DU?$char_traits@D@std@@V?$allocator@D@2@@std@@V?$list@IV?$allocator@I@std@@@2@@std@@PAX@2@I@Z 1000abd0 f i ClientSession.obj
 0001:00009bf0       ?allocate@?$allocator@U?$_Tree_node@U?$pair@$$CBIPAVIClientSession@@@std@@PAX@std@@@std@@QAEPAU?$_Tree_node@U?$pair@$$CBIPAVIClientSession@@@std@@PAX@2@I@Z 1000abf0 f i ClientSession.obj
 0001:00009c10       ??$?0IAAPAVIClientSession@@X$0A@@?$pair@IPAVIClientSession@@@std@@QAE@$$QAIAAPAVIClientSession@@@Z 1000ac10 f i ClientSession.obj
 0001:00009c50       ??$insert@AAU?$pair@IPAVIClientSession@@@std@@X@?$map@IPAVIClientSession@@U?$less@I@std@@V?$allocator@U?$pair@$$CBIPAVIClientSession@@@std@@@3@@std@@QAE?AU?$pair@V?$_Tree_iterator@V?$_Tree_val@U?$_Tree_simple_types@U?$pair@$$CBIPAVIClientSession@@@std@@@std@@@std@@@std@@_N@1@AAU?$pair@IPAVIClientSession@@@1@@Z 1000ac50 f i ClientSession.obj
 0001:00009c80       ??$?0AAV?$basic_string@DU?$char_traits@D@std@@V?$allocator@D@2@@std@@AAV?$list@IV?$allocator@I@std@@@1@X$0A@@?$pair@V?$basic_string@DU?$char_traits@D@std@@V?$allocator@D@2@@std@@V?$list@IV?$allocator@I@std@@@2@@std@@QAE@AAV?$basic_string@DU?$char_traits@D@std@@V?$allocator@D@2@@1@AAV?$list@IV?$allocator@I@std@@@1@@Z 1000ac80 f i ClientSession.obj
 0001:00009d00       ??$insert@AAU?$pair@V?$basic_string@DU?$char_traits@D@std@@V?$allocator@D@2@@std@@V?$list@IV?$allocator@I@std@@@2@@std@@X@?$map@V?$basic_string@DU?$char_traits@D@std@@V?$allocator@D@2@@std@@V?$list@IV?$allocator@I@std@@@2@U?$less@V?$basic_string@DU?$char_traits@D@std@@V?$allocator@D@2@@std@@@2@V?$allocator@U?$pair@$$CBV?$basic_string@DU?$char_traits@D@std@@V?$allocator@D@2@@std@@V?$list@IV?$allocator@I@std@@@2@@std@@@2@@std@@QAE?AU?$pair@V?$_Tree_iterator@V?$_Tree_val@U?$_Tree_simple_types@U?$pair@$$CBV?$basic_string@DU?$char_traits@D@std@@V?$allocator@D@2@@std@@V?$list@IV?$allocator@I@std@@@2@@std@@@std@@@std@@@std@@_N@1@AAU?$pair@V?$basic_string@DU?$char_traits@D@std@@V?$allocator@D@2@@std@@V?$list@IV?$allocator@I@std@@@2@@1@@Z 1000ad00 f i ClientSession.obj
 0001:00009d30       ??$?9V?$allocator@D@std@@V01@@std@@YA_NABU?$_Wrap_alloc@V?$allocator@D@std@@@0@0@Z 1000ad30 f i ClientSession.obj
 0001:00009d70       ??$swap@DX@std@@YAXAAD0@Z  1000ad70 f i ClientSession.obj
 0001:00009db0       ??$destroy@U?$pair@$$CBV?$basic_string@DU?$char_traits@D@std@@V?$allocator@D@2@@std@@V?$list@IV?$allocator@I@std@@@2@@std@@@?$_Wrap_alloc@V?$allocator@U?$_Tree_node@U?$pair@$$CBV?$basic_string@DU?$char_traits@D@std@@V?$allocator@D@2@@std@@V?$list@IV?$allocator@I@std@@@2@@std@@PAX@std@@@std@@@std@@QAEXPAU?$pair@$$CBV?$basic_string@DU?$char_traits@D@std@@V?$allocator@D@2@@std@@V?$list@IV?$allocator@I@std@@@2@@1@@Z 1000adb0 f i ClientSession.obj
 0001:00009dd0       ??$try_emplace@$$V@?$map@IPAVIClientSession@@U?$less@I@std@@V?$allocator@U?$pair@$$CBIPAVIClientSession@@@std@@@3@@std@@QAE?AU?$pair@V?$_Tree_iterator@V?$_Tree_val@U?$_Tree_simple_types@U?$pair@$$CBIPAVIClientSession@@@std@@@std@@@std@@@std@@_N@1@ABI@Z 1000add0 f i ClientSession.obj
 0001:00009df0       ??$?0U?$_Wrap_alloc@V?$allocator@U?$_Tree_node@U?$pair@$$CBIPAVIClientSession@@@std@@PAX@std@@@std@@@std@@@?$_Tree@V?$_Tmap_traits@IPAVIClientSession@@U?$less@I@std@@V?$allocator@U?$pair@$$CBIPAVIClientSession@@@std@@@3@$0A@@std@@@std@@QAE@ABV01@$$QAU?$_Wrap_alloc@V?$allocator@U?$_Tree_node@U?$pair@$$CBIPAVIClientSession@@@std@@PAX@std@@@std@@@1@@Z 1000adf0 f i ClientSession.obj
 0001:00009eb0       ??$_Insert@ABQAVIClientSession@@@?$list@PAVIClientSession@@V?$allocator@PAVIClientSession@@@std@@@std@@QAEXV?$_List_unchecked_const_iterator@V?$_List_val@U?$_List_simple_types@PAVIClientSession@@@std@@@std@@U_Iterator_base0@2@@1@ABQAVIClientSession@@@Z 1000aeb0 f i ClientSession.obj
 0001:00009eb0       ??$_Insert@I@?$list@IV?$allocator@I@std@@@std@@QAEXV?$_List_unchecked_const_iterator@V?$_List_val@U?$_List_simple_types@I@std@@@std@@U_Iterator_base0@2@@1@$$QAI@Z 1000aeb0 f i ClientSession.obj
 0001:00009eb0       ??$_Insert@ABQAVIAccount@@@?$list@PAVIAccount@@V?$allocator@PAVIAccount@@@std@@@std@@QAEXV?$_List_unchecked_const_iterator@V?$_List_val@U?$_List_simple_types@PAVIAccount@@@std@@@std@@U_Iterator_base0@2@@1@ABQAVIAccount@@@Z 1000aeb0 f i ClientSession.obj
 0001:00009eb0       ??$_Insert@ABI@?$list@IV?$allocator@I@std@@@std@@QAEXV?$_List_unchecked_const_iterator@V?$_List_val@U?$_List_simple_types@I@std@@@std@@U_Iterator_base0@2@@1@ABI@Z 1000aeb0 f i ClientSession.obj
 0001:00009f30       ??$assign@V?$_String_iterator@V?$_String_val@U?$_Simple_types@D@std@@@std@@@std@@@?$basic_string@DU?$char_traits@D@std@@V?$allocator@D@2@@std@@QAEAAV01@V?$_String_iterator@V?$_String_val@U?$_Simple_types@D@std@@@std@@@1@0@Z 1000af30 f i ClientSession.obj
 0001:00009f80       ??$?0ABV?$allocator@D@std@@X@?$_String_alloc@U?$_String_base_types@DV?$allocator@D@std@@@std@@@std@@QAE@ABV?$allocator@D@1@@Z 1000af80 f i ClientSession.obj
 0001:00009f80       ??$?0U?$_Wrap_alloc@V?$allocator@_W@std@@@std@@X@?$_String_alloc@U?$_String_base_types@_WV?$allocator@_W@std@@@std@@@std@@QAE@$$QAU?$_Wrap_alloc@V?$allocator@_W@std@@@1@@Z 1000af80 f i JSONHandler.obj
 0001:00009f80       ??$?0U?$_Wrap_alloc@V?$allocator@D@std@@@std@@X@?$_String_alloc@U?$_String_base_types@DV?$allocator@D@std@@@std@@@std@@QAE@$$QAU?$_Wrap_alloc@V?$allocator@D@std@@@1@@Z 1000af80 f i ClientSession.obj
 0001:00009fb0       ??$_Lbound@V?$basic_string@DU?$char_traits@D@std@@V?$allocator@D@2@@std@@@?$_Tree@V?$_Tmap_traits@V?$basic_string@DU?$char_traits@D@std@@V?$allocator@D@2@@std@@V?$list@IV?$allocator@I@std@@@2@U?$less@V?$basic_string@DU?$char_traits@D@std@@V?$allocator@D@2@@std@@@2@V?$allocator@U?$pair@$$CBV?$basic_string@DU?$char_traits@D@std@@V?$allocator@D@2@@std@@V?$list@IV?$allocator@I@std@@@2@@std@@@2@$0A@@std@@@std@@IBEPAU?$_Tree_node@U?$pair@$$CBV?$basic_string@DU?$char_traits@D@std@@V?$allocator@D@2@@std@@V?$list@IV?$allocator@I@std@@@2@@std@@PAX@1@ABV?$basic_string@DU?$char_traits@D@std@@V?$allocator@D@2@@1@@Z 1000afb0 f i ClientSession.obj
 0001:0000a040       ??0?$_Wrap_alloc@V?$allocator@U?$_Tree_node@U?$pair@$$CBIPAVIClientSession@@@std@@PAX@std@@@std@@@std@@QAE@$$QAU01@@Z 1000b040 f i ClientSession.obj
 0001:0000a040       ??$?0V?$allocator@U?$_Tree_node@U?$pair@$$CBIPAVIClientSession@@@std@@PAX@std@@@std@@@?$_Wrap_alloc@V?$allocator@U?$_Tree_node@U?$pair@$$CBIPAVIClientSession@@@std@@PAX@std@@@std@@@std@@QAE@$$QAV?$allocator@U?$_Tree_node@U?$pair@$$CBIPAVIClientSession@@@std@@PAX@std@@@1@@Z 1000b040 f i ClientSession.obj
 0001:0000a040       ??$?0V?$allocator@U?$_List_node@IPAX@std@@@std@@@?$_Wrap_alloc@V?$allocator@U?$_List_node@IPAX@std@@@std@@@std@@QAE@$$QAV?$allocator@U?$_List_node@IPAX@std@@@1@@Z 1000b040 f i ClientSession.obj
 0001:0000a040       ??0?$_Wrap_alloc@V?$allocator@D@std@@@std@@QAE@$$QAU01@@Z 1000b040 f i ClientSession.obj
 0001:0000a040       ??$?0V?$allocator@_W@std@@@?$_Wrap_alloc@V?$allocator@_W@std@@@std@@QAE@$$QAV?$allocator@_W@1@@Z 1000b040 f i JSONHandler.obj
 0001:0000a040       ??$?0V?$allocator@D@std@@@?$_Wrap_alloc@V?$allocator@D@std@@@std@@QAE@$$QAV?$allocator@D@1@@Z 1000b040 f i ClientSession.obj
 0001:0000a040       ??0?$_Wrap_alloc@V?$allocator@_W@std@@@std@@QAE@$$QAU01@@Z 1000b040 f i JSONHandler.obj
 0001:0000a040       ??$?0ABV?$allocator@D@std@@@?$_Wrap_alloc@V?$allocator@D@std@@@std@@QAE@ABV?$allocator@D@1@@Z 1000b040 f i ClientSession.obj
 0001:0000a040       ??0?$_Wrap_alloc@V?$allocator@U?$_List_node@IPAX@std@@@std@@@std@@QAE@$$QAU01@@Z 1000b040 f i ClientSession.obj
 0001:0000a070       ??$_Lbound@I@?$_Tree@V?$_Tmap_traits@IPAVIClientSession@@U?$less@I@std@@V?$allocator@U?$pair@$$CBIPAVIClientSession@@@std@@@3@$0A@@std@@@std@@IBEPAU?$_Tree_node@U?$pair@$$CBIPAVIClientSession@@@std@@PAX@1@ABI@Z 1000b070 f i ClientSession.obj
 0001:0000a100       ??$?MDU?$char_traits@D@std@@V?$allocator@D@1@@std@@YA_NABV?$basic_string@DU?$char_traits@D@std@@V?$allocator@D@2@@0@0@Z 1000b100 f i ClientSession.obj
 0001:0000a130       ??$_Pocma@U?$_Wrap_alloc@V?$allocator@D@std@@@std@@@std@@YAXAAU?$_Wrap_alloc@V?$allocator@D@std@@@0@0@Z 1000b130 f i ClientSession.obj
 0001:0000a150       ??$?0$$V@?$_Compressed_pair@U?$_Wrap_alloc@V?$allocator@U?$_List_node@PAVIAccount@@PAX@std@@@std@@@std@@V?$_List_val@U?$_List_simple_types@PAVIAccount@@@std@@@2@$00@std@@QAE@U_Zero_then_variadic_args_t@1@@Z 1000b150 f i ClientSession.obj
 0001:0000a150       ??$?0$$V@?$_Compressed_pair@U?$_Wrap_alloc@V?$allocator@U?$_List_node@PAVIClientSession@@PAX@std@@@std@@@std@@V?$_List_val@U?$_List_simple_types@PAVIClientSession@@@std@@@2@$00@std@@QAE@U_Zero_then_variadic_args_t@1@@Z 1000b150 f i ClientSession.obj
 0001:0000a150       ??$?0$$V@?$_Compressed_pair@U?$_Wrap_alloc@V?$allocator@U?$_List_node@IPAX@std@@@std@@@std@@V?$_List_val@U?$_List_simple_types@I@std@@@2@$00@std@@QAE@U_Zero_then_variadic_args_t@1@@Z 1000b150 f i ClientSession.obj
 0001:0000a150       ??$?0$$V@?$_Compressed_pair@U?$_Wrap_alloc@V?$allocator@U?$_Tree_node@U?$pair@$$CBV?$basic_string@DU?$char_traits@D@std@@V?$allocator@D@2@@std@@V?$list@IV?$allocator@I@std@@@2@@std@@PAX@std@@@std@@@std@@V?$_Tree_val@U?$_Tree_simple_types@U?$pair@$$CBV?$basic_string@DU?$char_traits@D@std@@V?$allocator@D@2@@std@@V?$list@IV?$allocator@I@std@@@2@@std@@@std@@@2@$00@std@@QAE@U_Zero_then_variadic_args_t@1@@Z 1000b150 f i ClientSession.obj
 0001:0000a150       ??$?0$$V@?$_Compressed_pair@U?$_Wrap_alloc@V?$allocator@U?$_Tree_node@U?$pair@$$CBIPAVIClientSession@@@std@@PAX@std@@@std@@@std@@V?$_Tree_val@U?$_Tree_simple_types@U?$pair@$$CBIPAVIClientSession@@@std@@@std@@@2@$00@std@@QAE@U_Zero_then_variadic_args_t@1@@Z 1000b150 f i ClientSession.obj
 0001:0000a170       ??$?0ABU?$less@V?$basic_string@DU?$char_traits@D@std@@V?$allocator@D@2@@std@@@std@@U_Zero_then_variadic_args_t@1@@?$_Compressed_pair@U?$less@V?$basic_string@DU?$char_traits@D@std@@V?$allocator@D@2@@std@@@std@@V?$_Compressed_pair@U?$_Wrap_alloc@V?$allocator@U?$_Tree_node@U?$pair@$$CBV?$basic_string@DU?$char_traits@D@std@@V?$allocator@D@2@@std@@V?$list@IV?$allocator@I@std@@@2@@std@@PAX@std@@@std@@@std@@V?$_Tree_val@U?$_Tree_simple_types@U?$pair@$$CBV?$basic_string@DU?$char_traits@D@std@@V?$allocator@D@2@@std@@V?$list@IV?$allocator@I@std@@@2@@std@@@std@@@2@$00@2@$00@std@@QAE@U_One_then_variadic_args_t@1@ABU?$less@V?$basic_string@DU?$char_traits@D@std@@V?$allocator@D@2@@std@@@1@$$QAU_Zero_then_variadic_args_t@1@@Z 1000b170 f i ClientSession.obj
 0001:0000a170       ??$?0ABU?$less@I@std@@U_Zero_then_variadic_args_t@1@@?$_Compressed_pair@U?$less@I@std@@V?$_Compressed_pair@U?$_Wrap_alloc@V?$allocator@U?$_Tree_node@U?$pair@$$CBIPAVIClientSession@@@std@@PAX@std@@@std@@@std@@V?$_Tree_val@U?$_Tree_simple_types@U?$pair@$$CBIPAVIClientSession@@@std@@@std@@@2@$00@2@$00@std@@QAE@U_One_then_variadic_args_t@1@ABU?$less@I@1@$$QAU_Zero_then_variadic_args_t@1@@Z 1000b170 f i ClientSession.obj
 0001:0000a1b0       ??0?$_List_val@U?$_List_simple_types@PAVIAccount@@@std@@@std@@QAE@XZ 1000b1b0 f i ClientSession.obj
 0001:0000a1b0       ??0?$_Tree_val@U?$_Tree_simple_types@U?$pair@$$CBIPAVIClientSession@@@std@@@std@@@std@@QAE@XZ 1000b1b0 f i ClientSession.obj
 0001:0000a1b0       ??0?$_List_val@U?$_List_simple_types@PAVIClientSession@@@std@@@std@@QAE@XZ 1000b1b0 f i ClientSession.obj
 0001:0000a1b0       ??0?$_List_val@U?$_List_simple_types@I@std@@@std@@QAE@XZ 1000b1b0 f i ClientSession.obj
 0001:0000a1b0       ??0?$_Tree_val@U?$_Tree_simple_types@U?$pair@$$CBV?$basic_string@DU?$char_traits@D@std@@V?$allocator@D@2@@std@@V?$list@IV?$allocator@I@std@@@2@@std@@@std@@@std@@QAE@XZ 1000b1b0 f i ClientSession.obj
 0001:0000a1e0       ?_Compare@?$_Tree@V?$_Tmap_traits@V?$basic_string@DU?$char_traits@D@std@@V?$allocator@D@2@@std@@V?$list@IV?$allocator@I@std@@@2@U?$less@V?$basic_string@DU?$char_traits@D@std@@V?$allocator@D@2@@std@@@2@V?$allocator@U?$pair@$$CBV?$basic_string@DU?$char_traits@D@std@@V?$allocator@D@2@@std@@V?$list@IV?$allocator@I@std@@@2@@std@@@2@$0A@@std@@@std@@IBE_NABV?$basic_string@DU?$char_traits@D@std@@V?$allocator@D@2@@2@0@Z 1000b1e0 f i ClientSession.obj
 0001:0000a210       ?_Compare@?$_Tree@V?$_Tmap_traits@IPAVIClientSession@@U?$less@I@std@@V?$allocator@U?$pair@$$CBIPAVIClientSession@@@std@@@3@$0A@@std@@@std@@IBE_NABI0@Z 1000b210 f i ClientSession.obj
 0001:0000a240       ?key_comp@?$_Tree@V?$_Tmap_traits@IPAVIClientSession@@U?$less@I@std@@V?$allocator@U?$pair@$$CBIPAVIClientSession@@@std@@@3@$0A@@std@@@std@@QBE?AU?$less@I@2@XZ 1000b240 f i ClientSession.obj
 0001:0000a260       ?_Incsize@?$list@IV?$allocator@I@std@@@std@@QAEXI@Z 1000b260 f i ClientSession.obj
 0001:0000a260       ?_Incsize@?$list@PAVIClientSession@@V?$allocator@PAVIClientSession@@@std@@@std@@QAEXI@Z 1000b260 f i ClientSession.obj
 0001:0000a260       ?_Incsize@?$list@PAVIAccount@@V?$allocator@PAVIAccount@@@std@@@std@@QAEXI@Z 1000b260 f i ClientSession.obj
 0001:0000a2b0       ??0?$list@IV?$allocator@I@std@@@std@@QAE@ABV01@@Z 1000b2b0 f i ClientSession.obj
 0001:0000a3a0       ?replace@?$basic_string@DU?$char_traits@D@std@@V?$allocator@D@2@@std@@QAEAAV12@V?$_String_const_iterator@V?$_String_val@U?$_Simple_types@D@std@@@std@@@2@0V?$_String_iterator@V?$_String_val@U?$_Simple_types@D@std@@@std@@@2@1@Z 1000b3a0 f i ClientSession.obj
 0001:0000a440       ?max_size@?$list@PAVIClientSession@@V?$allocator@PAVIClientSession@@@std@@@std@@QBEIXZ 1000b440 f i ClientSession.obj
 0001:0000a440       ?max_size@?$list@IV?$allocator@I@std@@@std@@QBEIXZ 1000b440 f i ClientSession.obj
 0001:0000a440       ?max_size@?$list@PAVIAccount@@V?$allocator@PAVIAccount@@@std@@@std@@QBEIXZ 1000b440 f i ClientSession.obj
 0001:0000a470       ?end@?$list@IV?$allocator@I@std@@@std@@QBE?AV?$_List_const_iterator@V?$_List_val@U?$_List_simple_types@I@std@@@std@@@2@XZ 1000b470 f i ClientSession.obj
 0001:0000a4d0       ?begin@?$list@IV?$allocator@I@std@@@std@@QBE?AV?$_List_const_iterator@V?$_List_val@U?$_List_simple_types@I@std@@@std@@@2@XZ 1000b4d0 f i ClientSession.obj
 0001:0000a540       ??8?$_String_const_iterator@V?$_String_val@U?$_Simple_types@D@std@@@std@@@std@@QBE_NABV01@@Z 1000b540 f i ClientSession.obj
 0001:0000a580       ??G?$_String_const_iterator@V?$_String_val@U?$_Simple_types@D@std@@@std@@@std@@QBEHABV01@@Z 1000b580 f i ClientSession.obj
 0001:0000a5b0       ??G?$_String_iterator@V?$_String_val@U?$_Simple_types@D@std@@@std@@@std@@QBEHABV?$_String_const_iterator@V?$_String_val@U?$_Simple_types@D@std@@@std@@@1@@Z 1000b5b0 f i ClientSession.obj
 0001:0000a5d0       ??D?$_String_iterator@V?$_String_val@U?$_Simple_types@D@std@@@std@@@std@@QBEAADXZ 1000b5d0 f i ClientSession.obj
 0001:0000a5f0       ?replace@?$basic_string@DU?$char_traits@D@std@@V?$allocator@D@2@@std@@QAEAAV12@IIPBDI@Z 1000b5f0 f i ClientSession.obj
 0001:0000a760       ?max_size@?$_Wrap_alloc@V?$allocator@U?$_List_node@IPAX@std@@@std@@@std@@QBEIU_Nil@2@@Z 1000b760 f i ClientSession.obj
 0001:0000a760       ?max_size@?$_Wrap_alloc@V?$allocator@U?$_List_node@PAVIClientSession@@PAX@std@@@std@@@std@@QBEIU_Nil@2@@Z 1000b760 f i ClientSession.obj
 0001:0000a760       ?max_size@?$_Wrap_alloc@V?$allocator@U?$_List_node@PAVIAccount@@PAX@std@@@std@@@std@@QBEIU_Nil@2@@Z 1000b760 f i ClientSession.obj
 0001:0000a780       ?replace@?$basic_string@DU?$char_traits@D@std@@V?$allocator@D@2@@std@@QAEAAV12@IIABV12@II@Z 1000b780 f i ClientSession.obj
 0001:0000aa60       ?max_size@?$allocator_traits@V?$allocator@U?$_List_node@IPAX@std@@@std@@@std@@SAIABV?$allocator@U?$_List_node@IPAX@std@@@2@@Z 1000ba60 f i ClientSession.obj
 0001:0000aa60       ?max_size@?$allocator_traits@V?$allocator@U?$_List_node@PAVIAccount@@PAX@std@@@std@@@std@@SAIABV?$allocator@U?$_List_node@PAVIAccount@@PAX@std@@@2@@Z 1000ba60 f i ClientSession.obj
 0001:0000aa60       ?max_size@?$allocator_traits@V?$allocator@U?$_List_node@PAVIClientSession@@PAX@std@@@std@@@std@@SAIABV?$allocator@U?$_List_node@PAVIClientSession@@PAX@std@@@2@@Z 1000ba60 f i ClientSession.obj
 0001:0000aa70       ?max_size@?$allocator@U?$_List_node@IPAX@std@@@std@@QBEIXZ 1000ba70 f i ClientSession.obj
 0001:0000aa70       ?max_size@?$allocator@U?$_List_node@PAVIClientSession@@PAX@std@@@std@@QBEIXZ 1000ba70 f i ClientSession.obj
 0001:0000aa70       ?max_size@?$allocator@U?$_List_node@PAVIAccount@@PAX@std@@@std@@QBEIXZ 1000ba70 f i ClientSession.obj
 0001:0000aa80       ??$emplace@AAU?$pair@IPAVIClientSession@@@std@@@?$_Tree@V?$_Tmap_traits@IPAVIClientSession@@U?$less@I@std@@V?$allocator@U?$pair@$$CBIPAVIClientSession@@@std@@@3@$0A@@std@@@std@@QAE?AU?$pair@V?$_Tree_iterator@V?$_Tree_val@U?$_Tree_simple_types@U?$pair@$$CBIPAVIClientSession@@@std@@@std@@@std@@@std@@_N@1@AAU?$pair@IPAVIClientSession@@@1@@Z 1000ba80 f i ClientSession.obj
 0001:0000aad0       ??$emplace@AAU?$pair@V?$basic_string@DU?$char_traits@D@std@@V?$allocator@D@2@@std@@V?$list@IV?$allocator@I@std@@@2@@std@@@?$_Tree@V?$_Tmap_traits@V?$basic_string@DU?$char_traits@D@std@@V?$allocator@D@2@@std@@V?$list@IV?$allocator@I@std@@@2@U?$less@V?$basic_string@DU?$char_traits@D@std@@V?$allocator@D@2@@std@@@2@V?$allocator@U?$pair@$$CBV?$basic_string@DU?$char_traits@D@std@@V?$allocator@D@2@@std@@V?$list@IV?$allocator@I@std@@@2@@std@@@2@$0A@@std@@@std@@QAE?AU?$pair@V?$_Tree_iterator@V?$_Tree_val@U?$_Tree_simple_types@U?$pair@$$CBV?$basic_string@DU?$char_traits@D@std@@V?$allocator@D@2@@std@@V?$list@IV?$allocator@I@std@@@2@@std@@@std@@@std@@@std@@_N@1@AAU?$pair@V?$basic_string@DU?$char_traits@D@std@@V?$allocator@D@2@@std@@V?$list@IV?$allocator@I@std@@@2@@1@@Z 1000bad0 f i ClientSession.obj
 0001:0000ab20       ??$?8V?$allocator@D@std@@V01@@std@@YA_NABU?$_Wrap_alloc@V?$allocator@D@std@@@0@0@Z 1000bb20 f i ClientSession.obj
 0001:0000ab40       ??$destroy@U?$pair@$$CBV?$basic_string@DU?$char_traits@D@std@@V?$allocator@D@2@@std@@V?$list@IV?$allocator@I@std@@@2@@std@@@?$allocator_traits@V?$allocator@U?$_Tree_node@U?$pair@$$CBV?$basic_string@DU?$char_traits@D@std@@V?$allocator@D@2@@std@@V?$list@IV?$allocator@I@std@@@2@@std@@PAX@std@@@std@@@std@@SAXAAV?$allocator@U?$_Tree_node@U?$pair@$$CBV?$basic_string@DU?$char_traits@D@std@@V?$allocator@D@2@@std@@V?$list@IV?$allocator@I@std@@@2@@std@@PAX@std@@@1@PAU?$pair@$$CBV?$basic_string@DU?$char_traits@D@std@@V?$allocator@D@2@@std@@V?$list@IV?$allocator@I@std@@@2@@1@@Z 1000bb40 f i ClientSession.obj
 0001:0000ab60       ??$_Try_emplace@ABI$$V@?$map@IPAVIClientSession@@U?$less@I@std@@V?$allocator@U?$pair@$$CBIPAVIClientSession@@@std@@@3@@std@@QAE?AU?$pair@V?$_Tree_iterator@V?$_Tree_val@U?$_Tree_simple_types@U?$pair@$$CBIPAVIClientSession@@@std@@@std@@@std@@@std@@_N@1@ABI@Z 1000bb60 f i ClientSession.obj
 0001:0000ac40       ??$?0U?$_Wrap_alloc@V?$allocator@U?$_Tree_node@U?$pair@$$CBIPAVIClientSession@@@std@@PAX@std@@@std@@@std@@X@?$_Tree_comp_alloc@V?$_Tmap_traits@IPAVIClientSession@@U?$less@I@std@@V?$allocator@U?$pair@$$CBIPAVIClientSession@@@std@@@3@$0A@@std@@@std@@QAE@ABU?$less@I@1@$$QAU?$_Wrap_alloc@V?$allocator@U?$_Tree_node@U?$pair@$$CBIPAVIClientSession@@@std@@PAX@std@@@std@@@1@@Z 1000bc40 f i ClientSession.obj
 0001:0000ac80       ??$_Copy@U_Copy_tag@?$_Tree@V?$_Tmap_traits@IPAVIClientSession@@U?$less@I@std@@V?$allocator@U?$pair@$$CBIPAVIClientSession@@@std@@@3@$0A@@std@@@std@@@?$_Tree@V?$_Tmap_traits@IPAVIClientSession@@U?$less@I@std@@V?$allocator@U?$pair@$$CBIPAVIClientSession@@@std@@@3@$0A@@std@@@std@@IAEXABV01@U_Copy_tag@01@@Z 1000bc80 f i ClientSession.obj
 0001:0000ad60       ??$_Buynode@ABQAVIClientSession@@@?$_List_buy@PAVIClientSession@@V?$allocator@PAVIClientSession@@@std@@@std@@QAEPAU?$_List_node@PAVIClientSession@@PAX@1@PAU21@0ABQAVIClientSession@@@Z 1000bd60 f i ClientSession.obj
 0001:0000ad60       ??$_Buynode@ABI@?$_List_buy@IV?$allocator@I@std@@@std@@QAEPAU?$_List_node@IPAX@1@PAU21@0ABI@Z 1000bd60 f i ClientSession.obj
 0001:0000ad60       ??$_Buynode@I@?$_List_buy@IV?$allocator@I@std@@@std@@QAEPAU?$_List_node@IPAX@1@PAU21@0$$QAI@Z 1000bd60 f i ClientSession.obj
 0001:0000ad60       ??$_Buynode@ABQAVIAccount@@@?$_List_buy@PAVIAccount@@V?$allocator@PAVIAccount@@@std@@@std@@QAEPAU?$_List_node@PAVIAccount@@PAX@1@PAU21@0ABQAVIAccount@@@Z 1000bd60 f i ClientSession.obj
 0001:0000ae30       ??$?0U?$_Wrap_alloc@V?$allocator@D@std@@@std@@$$V@?$_Compressed_pair@U?$_Wrap_alloc@V?$allocator@D@std@@@std@@V?$_String_val@U?$_Simple_types@D@std@@@2@$00@std@@QAE@U_One_then_variadic_args_t@1@$$QAU?$_Wrap_alloc@V?$allocator@D@std@@@1@@Z 1000be30 f i ClientSession.obj
 0001:0000ae30       ??$?0U?$_Wrap_alloc@V?$allocator@_W@std@@@std@@$$V@?$_Compressed_pair@U?$_Wrap_alloc@V?$allocator@_W@std@@@std@@V?$_String_val@U?$_Simple_types@_W@std@@@2@$00@std@@QAE@U_One_then_variadic_args_t@1@$$QAU?$_Wrap_alloc@V?$allocator@_W@std@@@1@@Z 1000be30 f i JSONHandler.obj
 0001:0000ae30       ??$?0ABV?$allocator@D@std@@$$V@?$_Compressed_pair@U?$_Wrap_alloc@V?$allocator@D@std@@@std@@V?$_String_val@U?$_Simple_types@D@std@@@2@$00@std@@QAE@U_One_then_variadic_args_t@1@ABV?$allocator@D@1@@Z 1000be30 f i ClientSession.obj
 0001:0000ae60       ??$_Pocma@U?$_Wrap_alloc@V?$allocator@D@std@@@std@@@std@@YAXAAU?$_Wrap_alloc@V?$allocator@D@std@@@0@0U?$integral_constant@_N$00@0@@Z 1000be60 f i ClientSession.obj
 0001:0000aeb0       ??$?0U?$_Wrap_alloc@V?$allocator@U?$_List_node@IPAX@std@@@std@@@std@@X@?$_List_buy@IV?$allocator@I@std@@@std@@QAE@$$QAU?$_Wrap_alloc@V?$allocator@U?$_List_node@IPAX@std@@@std@@@1@@Z 1000beb0 f i ClientSession.obj
 0001:0000aee0       ??$insert@V?$_List_const_iterator@V?$_List_val@U?$_List_simple_types@I@std@@@std@@@std@@@?$list@IV?$allocator@I@std@@@std@@QAE?AV?$_List_iterator@V?$_List_val@U?$_List_simple_types@I@std@@@std@@@1@V?$_List_const_iterator@V?$_List_val@U?$_List_simple_types@I@std@@@std@@@1@00@Z 1000bee0 f i ClientSession.obj
 0001:0000afb0       ??F?$_List_iterator@V?$_List_val@U?$_List_simple_types@I@std@@@std@@@std@@QAEAAV01@XZ 1000bfb0 f i ClientSession.obj
 0001:0000afd0       ?_Unchecked@?$_List_const_iterator@V?$_List_val@U?$_List_simple_types@I@std@@@std@@@std@@QBE?AV?$_List_unchecked_const_iterator@V?$_List_val@U?$_List_simple_types@I@std@@@std@@U_Iterator_base0@2@@2@XZ 1000bfd0 f i ClientSession.obj
 0001:0000b000       ??4?$_Wrap_alloc@V?$allocator@D@std@@@std@@QAEAAU01@$$QAU01@@Z 1000c000 f i ClientSession.obj
 0001:0000b020       ??F?$_List_unchecked_const_iterator@V?$_List_val@U?$_List_simple_types@I@std@@@std@@U_Iterator_base0@2@@std@@QAEAAV01@XZ 1000c020 f i ClientSession.obj
 0001:0000b020       ??F?$_List_const_iterator@V?$_List_val@U?$_List_simple_types@I@std@@@std@@@std@@QAEAAV01@XZ 1000c020 f i ClientSession.obj
 0001:0000b050       ??$?8DD@std@@YA_NABV?$allocator@D@0@0@Z 1000c050 f i ClientSession.obj
 0001:0000b060       ??$_Buynode@AAU?$pair@IPAVIClientSession@@@std@@@?$_Tree_comp_alloc@V?$_Tmap_traits@IPAVIClientSession@@U?$less@I@std@@V?$allocator@U?$pair@$$CBIPAVIClientSession@@@std@@@3@$0A@@std@@@std@@QAEPAU?$_Tree_node@U?$pair@$$CBIPAVIClientSession@@@std@@PAX@1@AAU?$pair@IPAVIClientSession@@@1@@Z 1000c060 f i ClientSession.obj
 0001:0000b140       ??$_Insert_nohint@AAU?$pair@$$CBIPAVIClientSession@@@std@@PAU?$_Tree_node@U?$pair@$$CBIPAVIClientSession@@@std@@PAX@2@@?$_Tree@V?$_Tmap_traits@IPAVIClientSession@@U?$less@I@std@@V?$allocator@U?$pair@$$CBIPAVIClientSession@@@std@@@3@$0A@@std@@@std@@IAE?AU?$pair@V?$_Tree_iterator@V?$_Tree_val@U?$_Tree_simple_types@U?$pair@$$CBIPAVIClientSession@@@std@@@std@@@std@@@std@@_N@1@_NAAU?$pair@$$CBIPAVIClientSession@@@1@PAU?$_Tree_node@U?$pair@$$CBIPAVIClientSession@@@std@@PAX@1@@Z 1000c140 f i ClientSession.obj
 0001:0000b470       ??$_Buynode@AAU?$pair@V?$basic_string@DU?$char_traits@D@std@@V?$allocator@D@2@@std@@V?$list@IV?$allocator@I@std@@@2@@std@@@?$_Tree_comp_alloc@V?$_Tmap_traits@V?$basic_string@DU?$char_traits@D@std@@V?$allocator@D@2@@std@@V?$list@IV?$allocator@I@std@@@2@U?$less@V?$basic_string@DU?$char_traits@D@std@@V?$allocator@D@2@@std@@@2@V?$allocator@U?$pair@$$CBV?$basic_string@DU?$char_traits@D@std@@V?$allocator@D@2@@std@@V?$list@IV?$allocator@I@std@@@2@@std@@@2@$0A@@std@@@std@@QAEPAU?$_Tree_node@U?$pair@$$CBV?$basic_string@DU?$char_traits@D@std@@V?$allocator@D@2@@std@@V?$list@IV?$allocator@I@std@@@2@@std@@PAX@1@AAU?$pair@V?$basic_string@DU?$char_traits@D@std@@V?$allocator@D@2@@std@@V?$list@IV?$allocator@I@std@@@2@@1@@Z 1000c470 f i ClientSession.obj
 0001:0000b550       ??$_Insert_nohint@AAU?$pair@$$CBV?$basic_string@DU?$char_traits@D@std@@V?$allocator@D@2@@std@@V?$list@IV?$allocator@I@std@@@2@@std@@PAU?$_Tree_node@U?$pair@$$CBV?$basic_string@DU?$char_traits@D@std@@V?$allocator@D@2@@std@@V?$list@IV?$allocator@I@std@@@2@@std@@PAX@2@@?$_Tree@V?$_Tmap_traits@V?$basic_string@DU?$char_traits@D@std@@V?$allocator@D@2@@std@@V?$list@IV?$allocator@I@std@@@2@U?$less@V?$basic_string@DU?$char_traits@D@std@@V?$allocator@D@2@@std@@@2@V?$allocator@U?$pair@$$CBV?$basic_string@DU?$char_traits@D@std@@V?$allocator@D@2@@std@@V?$list@IV?$allocator@I@std@@@2@@std@@@2@$0A@@std@@@std@@IAE?AU?$pair@V?$_Tree_iterator@V?$_Tree_val@U?$_Tree_simple_types@U?$pair@$$CBV?$basic_string@DU?$char_traits@D@std@@V?$allocator@D@2@@std@@V?$list@IV?$allocator@I@std@@@2@@std@@@std@@@std@@@std@@_N@1@_NAAU?$pair@$$CBV?$basic_string@DU?$char_traits@D@std@@V?$allocator@D@2@@std@@V?$list@IV?$allocator@I@std@@@2@@1@PAU?$_Tree_node@U?$pair@$$CBV?$basic_string@DU?$char_traits@D@std@@V?$allocator@D@2@@std@@V?$list@IV?$allocator@I@std@@@2@@std@@PAX@1@@Z 1000c550 f i ClientSession.obj
 0001:0000b880       ??$forward_as_tuple@$$V@std@@YA?AV?$tuple@$$V@0@XZ 1000c880 f i ClientSession.obj
 0001:0000b890       ??$destroy@U?$pair@$$CBV?$basic_string@DU?$char_traits@D@std@@V?$allocator@D@2@@std@@V?$list@IV?$allocator@I@std@@@2@@std@@@?$allocator@U?$_Tree_node@U?$pair@$$CBV?$basic_string@DU?$char_traits@D@std@@V?$allocator@D@2@@std@@V?$list@IV?$allocator@I@std@@@2@@std@@PAX@std@@@std@@QAEXPAU?$pair@$$CBV?$basic_string@DU?$char_traits@D@std@@V?$allocator@D@2@@std@@V?$list@IV?$allocator@I@std@@@2@@1@@Z 1000c890 f i ClientSession.obj
 0001:0000b8b0       ??$forward_as_tuple@ABI@std@@YA?AV?$tuple@ABI@0@ABI@Z 1000c8b0 f i ClientSession.obj
 0001:0000b900       ??$emplace_hint@ABUpiecewise_construct_t@std@@V?$tuple@ABI@2@V?$tuple@$$V@2@@?$_Tree@V?$_Tmap_traits@IPAVIClientSession@@U?$less@I@std@@V?$allocator@U?$pair@$$CBIPAVIClientSession@@@std@@@3@$0A@@std@@@std@@QAE?AV?$_Tree_iterator@V?$_Tree_val@U?$_Tree_simple_types@U?$pair@$$CBIPAVIClientSession@@@std@@@std@@@std@@@1@V?$_Tree_const_iterator@V?$_Tree_val@U?$_Tree_simple_types@U?$pair@$$CBIPAVIClientSession@@@std@@@std@@@std@@@1@ABUpiecewise_construct_t@1@$$QAV?$tuple@ABI@1@$$QAV?$tuple@$$V@1@@Z 1000c900 f i ClientSession.obj
 0001:0000b970       ??$?0V?$_Tree_iterator@V?$_Tree_val@U?$_Tree_simple_types@U?$pair@$$CBV?$basic_string@DU?$char_traits@D@std@@V?$allocator@D@2@@std@@V?$list@IV?$allocator@I@std@@@2@@std@@@std@@@std@@@std@@_NX$0A@@?$pair@V?$_Tree_iterator@V?$_Tree_val@U?$_Tree_simple_types@U?$pair@$$CBV?$basic_string@DU?$char_traits@D@std@@V?$allocator@D@2@@std@@V?$list@IV?$allocator@I@std@@@2@@std@@@std@@@std@@@std@@_N@std@@QAE@$$QAV?$_Tree_iterator@V?$_Tree_val@U?$_Tree_simple_types@U?$pair@$$CBV?$basic_string@DU?$char_traits@D@std@@V?$allocator@D@2@@std@@V?$list@IV?$allocator@I@std@@@2@@std@@@std@@@std@@@1@$$QA_N@Z 1000c970 f i ClientSession.obj
 0001:0000b970       ??$?0AAV?$_Tree_iterator@V?$_Tree_val@U?$_Tree_simple_types@U?$pair@$$CBIPAVIClientSession@@@std@@@std@@@std@@@std@@_NX$0A@@?$pair@V?$_Tree_iterator@V?$_Tree_val@U?$_Tree_simple_types@U?$pair@$$CBIPAVIClientSession@@@std@@@std@@@std@@@std@@_N@std@@QAE@AAV?$_Tree_iterator@V?$_Tree_val@U?$_Tree_simple_types@U?$pair@$$CBIPAVIClientSession@@@std@@@std@@@std@@@1@$$QA_N@Z 1000c970 f i ClientSession.obj
 0001:0000b970       ??$?0AAV?$_Tree_iterator@V?$_Tree_val@U?$_Tree_simple_types@U?$pair@$$CBV?$basic_string@DU?$char_traits@D@std@@V?$allocator@D@2@@std@@V?$list@IV?$allocator@I@std@@@2@@std@@@std@@@std@@@std@@_NX$0A@@?$pair@V?$_Tree_iterator@V?$_Tree_val@U?$_Tree_simple_types@U?$pair@$$CBV?$basic_string@DU?$char_traits@D@std@@V?$allocator@D@2@@std@@V?$list@IV?$allocator@I@std@@@2@@std@@@std@@@std@@@std@@_N@std@@QAE@AAV?$_Tree_iterator@V?$_Tree_val@U?$_Tree_simple_types@U?$pair@$$CBV?$basic_string@DU?$char_traits@D@std@@V?$allocator@D@2@@std@@V?$list@IV?$allocator@I@std@@@2@@std@@@std@@@std@@@1@$$QA_N@Z 1000c970 f i ClientSession.obj
 0001:0000b970       ??$?0V?$_Tree_iterator@V?$_Tree_val@U?$_Tree_simple_types@U?$pair@$$CBIPAVIClientSession@@@std@@@std@@@std@@@std@@_NX$0A@@?$pair@V?$_Tree_iterator@V?$_Tree_val@U?$_Tree_simple_types@U?$pair@$$CBIPAVIClientSession@@@std@@@std@@@std@@@std@@_N@std@@QAE@$$QAV?$_Tree_iterator@V?$_Tree_val@U?$_Tree_simple_types@U?$pair@$$CBIPAVIClientSession@@@std@@@std@@@std@@@1@$$QA_N@Z 1000c970 f i ClientSession.obj
 0001:0000b9b0       ??$?0ABU?$less@I@std@@U_One_then_variadic_args_t@1@U?$_Wrap_alloc@V?$allocator@U?$_Tree_node@U?$pair@$$CBIPAVIClientSession@@@std@@PAX@std@@@std@@@1@@?$_Compressed_pair@U?$less@I@std@@V?$_Compressed_pair@U?$_Wrap_alloc@V?$allocator@U?$_Tree_node@U?$pair@$$CBIPAVIClientSession@@@std@@PAX@std@@@std@@@std@@V?$_Tree_val@U?$_Tree_simple_types@U?$pair@$$CBIPAVIClientSession@@@std@@@std@@@2@$00@2@$00@std@@QAE@U_One_then_variadic_args_t@1@ABU?$less@I@1@$$QAU21@$$QAU?$_Wrap_alloc@V?$allocator@U?$_Tree_node@U?$pair@$$CBIPAVIClientSession@@@std@@PAX@std@@@std@@@1@@Z 1000c9b0 f i ClientSession.obj
 0001:0000ba00       ??$_Copy_nodes@U_Copy_tag@?$_Tree@V?$_Tmap_traits@IPAVIClientSession@@U?$less@I@std@@V?$allocator@U?$pair@$$CBIPAVIClientSession@@@std@@@3@$0A@@std@@@std@@@?$_Tree@V?$_Tmap_traits@IPAVIClientSession@@U?$less@I@std@@V?$allocator@U?$pair@$$CBIPAVIClientSession@@@std@@@3@$0A@@std@@@std@@IAEPAU?$_Tree_node@U?$pair@$$CBIPAVIClientSession@@@std@@PAX@1@PAU21@0U_Copy_tag@01@@Z 1000ca00 f i ClientSession.obj
 0001:0000bb80       ??$?0U?$_Wrap_alloc@V?$allocator@U?$_List_node@IPAX@std@@@std@@@std@@X@?$_List_alloc@U?$_List_base_types@IV?$allocator@I@std@@@std@@@std@@QAE@$$QAU?$_Wrap_alloc@V?$allocator@U?$_List_node@IPAX@std@@@std@@@1@@Z 1000cb80 f i ClientSession.obj
 0001:0000bbd0       ??$_Insert_range@V?$_List_const_iterator@V?$_List_val@U?$_List_simple_types@I@std@@@std@@@std@@@?$list@IV?$allocator@I@std@@@std@@QAEXV?$_List_unchecked_const_iterator@V?$_List_val@U?$_List_simple_types@I@std@@@std@@U_Iterator_base0@2@@1@V?$_List_const_iterator@V?$_List_val@U?$_List_simple_types@I@std@@@std@@@1@1Uforward_iterator_tag@1@@Z 1000cbd0 f i ClientSession.obj
 0001:0000bcc0       ??_G?$pair@$$CBV?$basic_string@DU?$char_traits@D@std@@V?$allocator@D@2@@std@@V?$list@IV?$allocator@I@std@@@2@@std@@QAEPAXI@Z 1000ccc0 f i ClientSession.obj
 0001:0000bcf0       ??F?$_Tree_iterator@V?$_Tree_val@U?$_Tree_simple_types@U?$pair@$$CBV?$basic_string@DU?$char_traits@D@std@@V?$allocator@D@2@@std@@V?$list@IV?$allocator@I@std@@@2@@std@@@std@@@std@@@std@@QAEAAV01@XZ 1000ccf0 f i ClientSession.obj
 0001:0000bcf0       ??F?$_Tree_iterator@V?$_Tree_val@U?$_Tree_simple_types@U?$pair@$$CBIPAVIClientSession@@@std@@@std@@@std@@@std@@QAEAAV01@XZ 1000ccf0 f i ClientSession.obj
 0001:0000bd10       ?_Buynode0@?$_Tree_comp_alloc@V?$_Tmap_traits@V?$basic_string@DU?$char_traits@D@std@@V?$allocator@D@2@@std@@V?$list@IV?$allocator@I@std@@@2@U?$less@V?$basic_string@DU?$char_traits@D@std@@V?$allocator@D@2@@std@@@2@V?$allocator@U?$pair@$$CBV?$basic_string@DU?$char_traits@D@std@@V?$allocator@D@2@@std@@V?$list@IV?$allocator@I@std@@@2@@std@@@2@$0A@@std@@@std@@QAEPAU?$_Tree_node@U?$pair@$$CBV?$basic_string@DU?$char_traits@D@std@@V?$allocator@D@2@@std@@V?$list@IV?$allocator@I@std@@@2@@std@@PAX@2@XZ 1000cd10 f i ClientSession.obj
 0001:0000be50       ?_Destroy_if_not_nil@?$_Tree@V?$_Tmap_traits@V?$basic_string@DU?$char_traits@D@std@@V?$allocator@D@2@@std@@V?$list@IV?$allocator@I@std@@@2@U?$less@V?$basic_string@DU?$char_traits@D@std@@V?$allocator@D@2@@std@@@2@V?$allocator@U?$pair@$$CBV?$basic_string@DU?$char_traits@D@std@@V?$allocator@D@2@@std@@V?$list@IV?$allocator@I@std@@@2@@std@@@2@$0A@@std@@@std@@IAEXPAU?$_Tree_node@U?$pair@$$CBV?$basic_string@DU?$char_traits@D@std@@V?$allocator@D@2@@std@@V?$list@IV?$allocator@I@std@@@2@@std@@PAX@2@@Z 1000ce50 f i ClientSession.obj
 0001:0000bea0       ?_Buynode0@?$_Tree_comp_alloc@V?$_Tmap_traits@IPAVIClientSession@@U?$less@I@std@@V?$allocator@U?$pair@$$CBIPAVIClientSession@@@std@@@3@$0A@@std@@@std@@QAEPAU?$_Tree_node@U?$pair@$$CBIPAVIClientSession@@@std@@PAX@2@XZ 1000cea0 f i ClientSession.obj
 0001:0000bfe0       ?_Destroy_if_not_nil@?$_Tree@V?$_Tmap_traits@IPAVIClientSession@@U?$less@I@std@@V?$allocator@U?$pair@$$CBIPAVIClientSession@@@std@@@3@$0A@@std@@@std@@IAEXPAU?$_Tree_node@U?$pair@$$CBIPAVIClientSession@@@std@@PAX@2@@Z 1000cfe0 f i ClientSession.obj
 0001:0000c030       ?_Unchecked_erase@?$list@IV?$allocator@I@std@@@std@@QAEXV?$_List_unchecked_const_iterator@V?$_List_val@U?$_List_simple_types@I@std@@@std@@U_Iterator_base0@2@@2@@Z 1000d030 f i ClientSession.obj
 0001:0000c0d0       ??F?$_Tree_const_iterator@V?$_Tree_val@U?$_Tree_simple_types@U?$pair@$$CBIPAVIClientSession@@@std@@@std@@@std@@@std@@QAEAAV01@XZ 1000d0d0 f i ClientSession.obj
 0001:0000c0d0       ??F?$_Tree_const_iterator@V?$_Tree_val@U?$_Tree_simple_types@U?$pair@$$CBV?$basic_string@DU?$char_traits@D@std@@V?$allocator@D@2@@std@@V?$list@IV?$allocator@I@std@@@2@@std@@@std@@@std@@@std@@QAEAAV01@XZ 1000d0d0 f i ClientSession.obj
 0001:0000c0f0       ??F?$_Tree_unchecked_const_iterator@V?$_Tree_val@U?$_Tree_simple_types@U?$pair@$$CBIPAVIClientSession@@@std@@@std@@@std@@U_Iterator_base0@2@@std@@QAEAAV01@XZ 1000d0f0 f i ClientSession.obj
 0001:0000c0f0       ??F?$_Tree_unchecked_const_iterator@V?$_Tree_val@U?$_Tree_simple_types@U?$pair@$$CBV?$basic_string@DU?$char_traits@D@std@@V?$allocator@D@2@@std@@V?$list@IV?$allocator@I@std@@@2@@std@@@std@@@std@@U_Iterator_base0@2@@std@@QAEAAV01@XZ 1000d0f0 f i ClientSession.obj
 0001:0000c1e0       ??$construct@U?$pair@$$CBIPAVIClientSession@@@std@@AAU?$pair@IPAVIClientSession@@@2@@?$_Wrap_alloc@V?$allocator@U?$_Tree_node@U?$pair@$$CBIPAVIClientSession@@@std@@PAX@std@@@std@@@std@@QAEXPAU?$pair@$$CBIPAVIClientSession@@@1@AAU?$pair@IPAVIClientSession@@@1@@Z 1000d1e0 f i ClientSession.obj
 0001:0000c210       ??$_Insert_at@AAU?$pair@$$CBIPAVIClientSession@@@std@@PAU?$_Tree_node@U?$pair@$$CBIPAVIClientSession@@@std@@PAX@2@@?$_Tree@V?$_Tmap_traits@IPAVIClientSession@@U?$less@I@std@@V?$allocator@U?$pair@$$CBIPAVIClientSession@@@std@@@3@$0A@@std@@@std@@IAE?AV?$_Tree_iterator@V?$_Tree_val@U?$_Tree_simple_types@U?$pair@$$CBIPAVIClientSession@@@std@@@std@@@std@@@1@_NPAU?$_Tree_node@U?$pair@$$CBIPAVIClientSession@@@std@@PAX@1@AAU?$pair@$$CBIPAVIClientSession@@@1@1@Z 1000d210 f i ClientSession.obj
 0001:0000c650       ??$construct@U?$pair@$$CBV?$basic_string@DU?$char_traits@D@std@@V?$allocator@D@2@@std@@V?$list@IV?$allocator@I@std@@@2@@std@@AAU?$pair@V?$basic_string@DU?$char_traits@D@std@@V?$allocator@D@2@@std@@V?$list@IV?$allocator@I@std@@@2@@2@@?$_Wrap_alloc@V?$allocator@U?$_Tree_node@U?$pair@$$CBV?$basic_string@DU?$char_traits@D@std@@V?$allocator@D@2@@std@@V?$list@IV?$allocator@I@std@@@2@@std@@PAX@std@@@std@@@std@@QAEXPAU?$pair@$$CBV?$basic_string@DU?$char_traits@D@std@@V?$allocator@D@2@@std@@V?$list@IV?$allocator@I@std@@@2@@1@AAU?$pair@V?$basic_string@DU?$char_traits@D@std@@V?$allocator@D@2@@std@@V?$list@IV?$allocator@I@std@@@2@@1@@Z 1000d650 f i ClientSession.obj
 0001:0000c680       ??$_Insert_at@AAU?$pair@$$CBV?$basic_string@DU?$char_traits@D@std@@V?$allocator@D@2@@std@@V?$list@IV?$allocator@I@std@@@2@@std@@PAU?$_Tree_node@U?$pair@$$CBV?$basic_string@DU?$char_traits@D@std@@V?$allocator@D@2@@std@@V?$list@IV?$allocator@I@std@@@2@@std@@PAX@2@@?$_Tree@V?$_Tmap_traits@V?$basic_string@DU?$char_traits@D@std@@V?$allocator@D@2@@std@@V?$list@IV?$allocator@I@std@@@2@U?$less@V?$basic_string@DU?$char_traits@D@std@@V?$allocator@D@2@@std@@@2@V?$allocator@U?$pair@$$CBV?$basic_string@DU?$char_traits@D@std@@V?$allocator@D@2@@std@@V?$list@IV?$allocator@I@std@@@2@@std@@@2@$0A@@std@@@std@@IAE?AV?$_Tree_iterator@V?$_Tree_val@U?$_Tree_simple_types@U?$pair@$$CBV?$basic_string@DU?$char_traits@D@std@@V?$allocator@D@2@@std@@V?$list@IV?$allocator@I@std@@@2@@std@@@std@@@std@@@1@_NPAU?$_Tree_node@U?$pair@$$CBV?$basic_string@DU?$char_traits@D@std@@V?$allocator@D@2@@std@@V?$list@IV?$allocator@I@std@@@2@@std@@PAX@1@AAU?$pair@$$CBV?$basic_string@DU?$char_traits@D@std@@V?$allocator@D@2@@std@@V?$list@IV?$allocator@I@std@@@2@@1@1@Z 1000d680 f i ClientSession.obj
 0001:0000cac0       ??$?0ABI$0A@@?$tuple@ABI@std@@QAE@ABI@Z 1000dac0 f i ClientSession.obj
 0001:0000caf0       ??$_Buynode@ABUpiecewise_construct_t@std@@V?$tuple@ABI@2@V?$tuple@$$V@2@@?$_Tree_comp_alloc@V?$_Tmap_traits@IPAVIClientSession@@U?$less@I@std@@V?$allocator@U?$pair@$$CBIPAVIClientSession@@@std@@@3@$0A@@std@@@std@@QAEPAU?$_Tree_node@U?$pair@$$CBIPAVIClientSession@@@std@@PAX@1@ABUpiecewise_construct_t@1@$$QAV?$tuple@ABI@1@$$QAV?$tuple@$$V@1@@Z 1000daf0 f i ClientSession.obj
 0001:0000cbf0       ??$_Insert_hint@AAU?$pair@$$CBIPAVIClientSession@@@std@@PAU?$_Tree_node@U?$pair@$$CBIPAVIClientSession@@@std@@PAX@2@@?$_Tree@V?$_Tmap_traits@IPAVIClientSession@@U?$less@I@std@@V?$allocator@U?$pair@$$CBIPAVIClientSession@@@std@@@3@$0A@@std@@@std@@IAE?AV?$_Tree_iterator@V?$_Tree_val@U?$_Tree_simple_types@U?$pair@$$CBIPAVIClientSession@@@std@@@std@@@std@@@1@V?$_Tree_const_iterator@V?$_Tree_val@U?$_Tree_simple_types@U?$pair@$$CBIPAVIClientSession@@@std@@@std@@@std@@@1@AAU?$pair@$$CBIPAVIClientSession@@@1@PAU?$_Tree_node@U?$pair@$$CBIPAVIClientSession@@@std@@PAX@1@@Z 1000dbf0 f i ClientSession.obj
 0001:0000d660       ??$?0U?$_Wrap_alloc@V?$allocator@U?$_Tree_node@U?$pair@$$CBIPAVIClientSession@@@std@@PAX@std@@@std@@@std@@$$V@?$_Compressed_pair@U?$_Wrap_alloc@V?$allocator@U?$_Tree_node@U?$pair@$$CBIPAVIClientSession@@@std@@PAX@std@@@std@@@std@@V?$_Tree_val@U?$_Tree_simple_types@U?$pair@$$CBIPAVIClientSession@@@std@@@std@@@2@$00@std@@QAE@U_One_then_variadic_args_t@1@$$QAU?$_Wrap_alloc@V?$allocator@U?$_Tree_node@U?$pair@$$CBIPAVIClientSession@@@std@@PAX@std@@@std@@@1@@Z 1000e660 f i ClientSession.obj
 0001:0000d660       ??$?0U?$_Wrap_alloc@V?$allocator@U?$_List_node@IPAX@std@@@std@@@std@@$$V@?$_Compressed_pair@U?$_Wrap_alloc@V?$allocator@U?$_List_node@IPAX@std@@@std@@@std@@V?$_List_val@U?$_List_simple_types@I@std@@@2@$00@std@@QAE@U_One_then_variadic_args_t@1@$$QAU?$_Wrap_alloc@V?$allocator@U?$_List_node@IPAX@std@@@std@@@1@@Z 1000e660 f i ClientSession.obj
 0001:0000d690       ??$_Copy_or_move@U?$pair@$$CBIPAVIClientSession@@@std@@U?$integral_constant@_N$0A@@2@@?$_Tree@V?$_Tmap_traits@IPAVIClientSession@@U?$less@I@std@@V?$allocator@U?$pair@$$CBIPAVIClientSession@@@std@@@3@$0A@@std@@@std@@IAEPAU?$_Tree_node@U?$pair@$$CBIPAVIClientSession@@@std@@PAX@1@AAU?$pair@$$CBIPAVIClientSession@@@1@U_Copy_tag@01@U?$integral_constant@_N$0A@@1@@Z 1000e690 f i ClientSession.obj
 0001:0000d6b0       ?max_size@?$_Tree@V?$_Tmap_traits@V?$basic_string@DU?$char_traits@D@std@@V?$allocator@D@2@@std@@V?$list@IV?$allocator@I@std@@@2@U?$less@V?$basic_string@DU?$char_traits@D@std@@V?$allocator@D@2@@std@@@2@V?$allocator@U?$pair@$$CBV?$basic_string@DU?$char_traits@D@std@@V?$allocator@D@2@@std@@V?$list@IV?$allocator@I@std@@@2@@std@@@2@$0A@@std@@@std@@QBEIXZ 1000e6b0 f i ClientSession.obj
 0001:0000d6e0       ?max_size@?$_Tree@V?$_Tmap_traits@IPAVIClientSession@@U?$less@I@std@@V?$allocator@U?$pair@$$CBIPAVIClientSession@@@std@@@3@$0A@@std@@@std@@QBEIXZ 1000e6e0 f i ClientSession.obj
 0001:0000d710       ?max_size@?$_Wrap_alloc@V?$allocator@U?$_Tree_node@U?$pair@$$CBV?$basic_string@DU?$char_traits@D@std@@V?$allocator@D@2@@std@@V?$list@IV?$allocator@I@std@@@2@@std@@PAX@std@@@std@@@std@@QBEIU_Nil@2@@Z 1000e710 f i ClientSession.obj
 0001:0000d730       ?max_size@?$_Wrap_alloc@V?$allocator@U?$_Tree_node@U?$pair@$$CBIPAVIClientSession@@@std@@PAX@std@@@std@@@std@@QBEIU_Nil@2@@Z 1000e730 f i ClientSession.obj
 0001:0000d750       ?max_size@?$allocator_traits@V?$allocator@U?$_Tree_node@U?$pair@$$CBV?$basic_string@DU?$char_traits@D@std@@V?$allocator@D@2@@std@@V?$list@IV?$allocator@I@std@@@2@@std@@PAX@std@@@std@@@std@@SAIABV?$allocator@U?$_Tree_node@U?$pair@$$CBV?$basic_string@DU?$char_traits@D@std@@V?$allocator@D@2@@std@@V?$list@IV?$allocator@I@std@@@2@@std@@PAX@std@@@2@@Z 1000e750 f i ClientSession.obj
 0001:0000d760       ?max_size@?$allocator_traits@V?$allocator@U?$_Tree_node@U?$pair@$$CBIPAVIClientSession@@@std@@PAX@std@@@std@@@std@@SAIABV?$allocator@U?$_Tree_node@U?$pair@$$CBIPAVIClientSession@@@std@@PAX@std@@@2@@Z 1000e760 f i ClientSession.obj
 0001:0000d770       ?max_size@?$allocator@U?$_Tree_node@U?$pair@$$CBV?$basic_string@DU?$char_traits@D@std@@V?$allocator@D@2@@std@@V?$list@IV?$allocator@I@std@@@2@@std@@PAX@std@@@std@@QBEIXZ 1000e770 f i ClientSession.obj
 0001:0000d780       ?max_size@?$allocator@U?$_Tree_node@U?$pair@$$CBIPAVIClientSession@@@std@@PAX@std@@@std@@QBEIXZ 1000e780 f i ClientSession.obj
 0001:0000d790       ??$construct@U?$pair@$$CBIPAVIClientSession@@@std@@AAU?$pair@IPAVIClientSession@@@2@@?$allocator_traits@V?$allocator@U?$_Tree_node@U?$pair@$$CBIPAVIClientSession@@@std@@PAX@std@@@std@@@std@@SAXAAV?$allocator@U?$_Tree_node@U?$pair@$$CBIPAVIClientSession@@@std@@PAX@std@@@1@PAU?$pair@$$CBIPAVIClientSession@@@1@AAU?$pair@IPAVIClientSession@@@1@@Z 1000e790 f i ClientSession.obj
 0001:0000d7b0       ??$_Buynode_if_nil@AAU?$pair@$$CBIPAVIClientSession@@@std@@@?$_Tree@V?$_Tmap_traits@IPAVIClientSession@@U?$less@I@std@@V?$allocator@U?$pair@$$CBIPAVIClientSession@@@std@@@3@$0A@@std@@@std@@IAEPAU?$_Tree_node@U?$pair@$$CBIPAVIClientSession@@@std@@PAX@1@PAU21@AAU?$pair@$$CBIPAVIClientSession@@@1@@Z 1000e7b0 f i ClientSession.obj
 0001:0000d7b0       ??$_Buynode_if_nil@AAU?$pair@$$CBV?$basic_string@DU?$char_traits@D@std@@V?$allocator@D@2@@std@@V?$list@IV?$allocator@I@std@@@2@@std@@@?$_Tree@V?$_Tmap_traits@V?$basic_string@DU?$char_traits@D@std@@V?$allocator@D@2@@std@@V?$list@IV?$allocator@I@std@@@2@U?$less@V?$basic_string@DU?$char_traits@D@std@@V?$allocator@D@2@@std@@@2@V?$allocator@U?$pair@$$CBV?$basic_string@DU?$char_traits@D@std@@V?$allocator@D@2@@std@@V?$list@IV?$allocator@I@std@@@2@@std@@@2@$0A@@std@@@std@@IAEPAU?$_Tree_node@U?$pair@$$CBV?$basic_string@DU?$char_traits@D@std@@V?$allocator@D@2@@std@@V?$list@IV?$allocator@I@std@@@2@@std@@PAX@1@PAU21@AAU?$pair@$$CBV?$basic_string@DU?$char_traits@D@std@@V?$allocator@D@2@@std@@V?$list@IV?$allocator@I@std@@@2@@1@@Z 1000e7b0 f i ClientSession.obj
 0001:0000d7c0       ??$construct@U?$pair@$$CBV?$basic_string@DU?$char_traits@D@std@@V?$allocator@D@2@@std@@V?$list@IV?$allocator@I@std@@@2@@std@@AAU?$pair@V?$basic_string@DU?$char_traits@D@std@@V?$allocator@D@2@@std@@V?$list@IV?$allocator@I@std@@@2@@2@@?$allocator_traits@V?$allocator@U?$_Tree_node@U?$pair@$$CBV?$basic_string@DU?$char_traits@D@std@@V?$allocator@D@2@@std@@V?$list@IV?$allocator@I@std@@@2@@std@@PAX@std@@@std@@@std@@SAXAAV?$allocator@U?$_Tree_node@U?$pair@$$CBV?$basic_string@DU?$char_traits@D@std@@V?$allocator@D@2@@std@@V?$list@IV?$allocator@I@std@@@2@@std@@PAX@std@@@1@PAU?$pair@$$CBV?$basic_string@DU?$char_traits@D@std@@V?$allocator@D@2@@std@@V?$list@IV?$allocator@I@std@@@2@@1@AAU?$pair@V?$basic_string@DU?$char_traits@D@std@@V?$allocator@D@2@@std@@V?$list@IV?$allocator@I@std@@@2@@1@@Z 1000e7c0 f i ClientSession.obj
 0001:0000d7e0       ??$?0ABI@?$_Tuple_val@ABI@std@@QAE@ABI@Z 1000e7e0 f i ClientSession.obj
 0001:0000d810       ??$construct@U?$pair@$$CBIPAVIClientSession@@@std@@ABUpiecewise_construct_t@2@V?$tuple@ABI@2@V?$tuple@$$V@2@@?$_Wrap_alloc@V?$allocator@U?$_Tree_node@U?$pair@$$CBIPAVIClientSession@@@std@@PAX@std@@@std@@@std@@QAEXPAU?$pair@$$CBIPAVIClientSession@@@1@ABUpiecewise_construct_t@1@$$QAV?$tuple@ABI@1@$$QAV?$tuple@$$V@1@@Z 1000e810 f i ClientSession.obj
 0001:0000d860       ??$_Buynode@AAU?$pair@$$CBIPAVIClientSession@@@std@@@?$_Tree_comp_alloc@V?$_Tmap_traits@IPAVIClientSession@@U?$less@I@std@@V?$allocator@U?$pair@$$CBIPAVIClientSession@@@std@@@3@$0A@@std@@@std@@QAEPAU?$_Tree_node@U?$pair@$$CBIPAVIClientSession@@@std@@PAX@1@AAU?$pair@$$CBIPAVIClientSession@@@1@@Z 1000e860 f i ClientSession.obj
 0001:0000d940       ??$construct@U?$pair@$$CBIPAVIClientSession@@@std@@AAU?$pair@IPAVIClientSession@@@2@@?$allocator@U?$_Tree_node@U?$pair@$$CBIPAVIClientSession@@@std@@PAX@std@@@std@@QAEXPAU?$pair@$$CBIPAVIClientSession@@@1@AAU?$pair@IPAVIClientSession@@@1@@Z 1000e940 f i ClientSession.obj
 0001:0000d9d0       ??$construct@U?$pair@$$CBV?$basic_string@DU?$char_traits@D@std@@V?$allocator@D@2@@std@@V?$list@IV?$allocator@I@std@@@2@@std@@AAU?$pair@V?$basic_string@DU?$char_traits@D@std@@V?$allocator@D@2@@std@@V?$list@IV?$allocator@I@std@@@2@@2@@?$allocator@U?$_Tree_node@U?$pair@$$CBV?$basic_string@DU?$char_traits@D@std@@V?$allocator@D@2@@std@@V?$list@IV?$allocator@I@std@@@2@@std@@PAX@std@@@std@@QAEXPAU?$pair@$$CBV?$basic_string@DU?$char_traits@D@std@@V?$allocator@D@2@@std@@V?$list@IV?$allocator@I@std@@@2@@1@AAU?$pair@V?$basic_string@DU?$char_traits@D@std@@V?$allocator@D@2@@std@@V?$list@IV?$allocator@I@std@@@2@@1@@Z 1000e9d0 f i ClientSession.obj
 0001:0000da60       ??$construct@U?$pair@$$CBIPAVIClientSession@@@std@@ABUpiecewise_construct_t@2@V?$tuple@ABI@2@V?$tuple@$$V@2@@?$allocator_traits@V?$allocator@U?$_Tree_node@U?$pair@$$CBIPAVIClientSession@@@std@@PAX@std@@@std@@@std@@SAXAAV?$allocator@U?$_Tree_node@U?$pair@$$CBIPAVIClientSession@@@std@@PAX@std@@@1@PAU?$pair@$$CBIPAVIClientSession@@@1@ABUpiecewise_construct_t@1@$$QAV?$tuple@ABI@1@$$QAV?$tuple@$$V@1@@Z 1000ea60 f i ClientSession.obj
 0001:0000daa0       ??$construct@U?$pair@$$CBIPAVIClientSession@@@std@@AAU12@@?$_Wrap_alloc@V?$allocator@U?$_Tree_node@U?$pair@$$CBIPAVIClientSession@@@std@@PAX@std@@@std@@@std@@QAEXPAU?$pair@$$CBIPAVIClientSession@@@1@AAU21@@Z 1000eaa0 f i ClientSession.obj
 0001:0000dad0       ??$?0IPAVIClientSession@@X$0A@@?$pair@$$CBIPAVIClientSession@@@std@@QAE@ABU?$pair@IPAVIClientSession@@@1@@Z 1000ead0 f i ClientSession.obj
 0001:0000db00       ??$?0V?$basic_string@DU?$char_traits@D@std@@V?$allocator@D@2@@std@@V?$list@IV?$allocator@I@std@@@1@X$0A@@?$pair@$$CBV?$basic_string@DU?$char_traits@D@std@@V?$allocator@D@2@@std@@V?$list@IV?$allocator@I@std@@@2@@std@@QAE@ABU?$pair@V?$basic_string@DU?$char_traits@D@std@@V?$allocator@D@2@@std@@V?$list@IV?$allocator@I@std@@@2@@1@@Z 1000eb00 f i ClientSession.obj
 0001:0000db70       ??$construct@U?$pair@$$CBIPAVIClientSession@@@std@@ABUpiecewise_construct_t@2@V?$tuple@ABI@2@V?$tuple@$$V@2@@?$allocator@U?$_Tree_node@U?$pair@$$CBIPAVIClientSession@@@std@@PAX@std@@@std@@QAEXPAU?$pair@$$CBIPAVIClientSession@@@1@ABUpiecewise_construct_t@1@$$QAV?$tuple@ABI@1@$$QAV?$tuple@$$V@1@@Z 1000eb70 f i ClientSession.obj
 0001:0000dc30       ??$construct@U?$pair@$$CBIPAVIClientSession@@@std@@AAU12@@?$allocator_traits@V?$allocator@U?$_Tree_node@U?$pair@$$CBIPAVIClientSession@@@std@@PAX@std@@@std@@@std@@SAXAAV?$allocator@U?$_Tree_node@U?$pair@$$CBIPAVIClientSession@@@std@@PAX@std@@@1@PAU?$pair@$$CBIPAVIClientSession@@@1@AAU31@@Z 1000ec30 f i ClientSession.obj
 0001:0000dc50       ??0?$tuple@ABI@std@@QAE@$$QAV01@@Z 1000ec50 f i ClientSession.obj
 0001:0000dc80       ??$?0ABI$$Z$$V@?$pair@$$CBIPAVIClientSession@@@std@@QAE@Upiecewise_construct_t@1@V?$tuple@ABI@1@V?$tuple@$$V@1@@Z 1000ec80 f i ClientSession.obj
 0001:0000dcb0       ??$construct@U?$pair@$$CBIPAVIClientSession@@@std@@AAU12@@?$allocator@U?$_Tree_node@U?$pair@$$CBIPAVIClientSession@@@std@@PAX@std@@@std@@QAEXPAU?$pair@$$CBIPAVIClientSession@@@1@AAU21@@Z 1000ecb0 f i ClientSession.obj
 0001:0000dd00       ??$?0V?$tuple@ABI@std@@V?$tuple@$$V@1@$0A@$$Z$S@?$pair@$$CBIPAVIClientSession@@@std@@QAE@AAV?$tuple@ABI@1@AAV?$tuple@$$V@1@U?$integer_sequence@I$0A@@1@U?$integer_sequence@I$S@1@@Z 1000ed00 f i ClientSession.obj
 0001:0000dd40       ??$get@$0A@ABI@std@@YAABI$$QAV?$tuple@ABI@0@@Z 1000ed40 f i ClientSession.obj
 0001:0000dd60       _wmemcpy                   1000ed60 f i JSONHandler.obj
 0001:0000dd80       _wmemmove                  1000ed80 f i JSONHandler.obj
 0001:0000dda0       ?length@?$char_traits@_W@std@@SAIPB_W@Z 1000eda0 f i JSONHandler.obj
 0001:0000de00       ?copy@?$char_traits@_W@std@@SAPA_WPA_WPB_WI@Z 1000ee00 f i JSONHandler.obj
 0001:0000de30       ?move@?$char_traits@_W@std@@SAPA_WPA_WPB_WI@Z 1000ee30 f i JSONHandler.obj
 0001:0000de60       ?assign@?$char_traits@_W@std@@SAXAA_WAB_W@Z 1000ee60 f i JSONHandler.obj
 0001:0000de80       ?eq@?$char_traits@_W@std@@SA_NAB_W0@Z 1000ee80 f i JSONHandler.obj
 0001:0000de80       ?eq_int_type@?$char_traits@_W@std@@SA_NABG0@Z 1000ee80 f i JSONHandler.obj
 0001:0000deb0       ?to_int_type@?$char_traits@_W@std@@SAGAB_W@Z 1000eeb0 f i JSONHandler.obj
 0001:0000deb0       ?to_char_type@?$char_traits@_W@std@@SA_WABG@Z 1000eeb0 f i JSONHandler.obj
 0001:0000dec0       ?not_eof@?$char_traits@_W@std@@SAGABG@Z 1000eec0 f i JSONHandler.obj
 0001:0000df10       ?eof@?$char_traits@_W@std@@SAGXZ 1000ef10 f i JSONHandler.obj
 0001:0000e3a0       ?_AtlGetConversionACP@ATL@@YGIXZ 1000f3a0 f i JSONHandler.obj
 0001:0000e3b0       ?AtlW2AHelper@@YGPADPADPB_WHI@Z 1000f3b0 f i JSONHandler.obj
 0001:0000e400       ??0CAtlException@ATL@@QAE@J@Z 1000f400 f i JSONHandler.obj
 0001:0000e420       ?AtlThrowImpl@ATL@@YGXJ@Z  1000f420 f i JSONHandler.obj
 0001:0000e450       ?AtlThrowLastWin32@ATL@@YGXXZ 1000f450 f i JSONHandler.obj
 0001:0000e480       ?what@json_exception@json@web@@UBEPBDXZ 1000f480 f i JSONHandler.obj
 0001:0000e4a0       ??1json_exception@json@web@@UAE@XZ 1000f4a0 f i JSONHandler.obj
 0001:0000e4c0       ??1value@json@web@@QAE@XZ  1000f4c0 f i JSONHandler.obj
 0001:0000e4e0       ?size@value@json@web@@QBEIXZ 1000f4e0 f i JSONHandler.obj
 0001:0000e510       ?GetObjectFromJSON@JSONHandler@@SAPAXPADIAAH@Z 1000f510 f   JSONHandler.obj
 0001:00016990       ??_D?$basic_stringstream@_WU?$char_traits@_W@std@@V?$allocator@_W@2@@std@@QAEXXZ 10017990 f i JSONHandler.obj
 0001:000169c0       ?GetJSONFromObject@JSONHandler@@SA_NPAXHAAV?$basic_string@DU?$char_traits@D@std@@V?$allocator@D@2@@std@@AAI@Z 100179c0 f   JSONHandler.obj
 0001:00022d70       ?get@?$unique_ptr@V_Value@details@json@web@@U?$default_delete@V_Value@details@json@web@@@std@@@std@@QBEPAV_Value@details@json@web@@XZ 10023d70 f i JSONHandler.obj
 0001:00022d90       ??C?$unique_ptr@V_Value@details@json@web@@U?$default_delete@V_Value@details@json@web@@@std@@@std@@QBEPAV_Value@details@json@web@@XZ 10023d90 f i JSONHandler.obj
 0001:00022de0       ??1?$unique_ptr@V_Value@details@json@web@@U?$default_delete@V_Value@details@json@web@@@std@@@std@@QAE@XZ 10023de0 f i JSONHandler.obj
 0001:00022e10       ??1?$CA2WEX@$0IA@@ATL@@QAE@XZ 10023e10 f i JSONHandler.obj
 0001:00022e40       ??0?$CA2WEX@$0IA@@ATL@@QAE@PBD@Z 10023e40 f i JSONHandler.obj
 0001:00022e70       ?c_str@?$basic_string@_WU?$char_traits@_W@std@@V?$allocator@_W@2@@std@@QBEPB_WXZ 10023e70 f i JSONHandler.obj
 0001:00022eb0       ??4?$basic_string@_WU?$char_traits@_W@std@@V?$allocator@_W@2@@std@@QAEAAV01@PB_W@Z 10023eb0 f i JSONHandler.obj
 0001:00022ed0       ??1?$basic_string@_WU?$char_traits@_W@std@@V?$allocator@_W@2@@std@@QAE@XZ 10023ed0 f i JSONHandler.obj
 0001:00022f20       ??0?$basic_string@_WU?$char_traits@_W@std@@V?$allocator@_W@2@@std@@QAE@PB_W@Z 10023f20 f i JSONHandler.obj
 0001:00022f90       ??0?$basic_string@_WU?$char_traits@_W@std@@V?$allocator@_W@2@@std@@QAE@XZ 10023f90 f i JSONHandler.obj
 0001:00022fe0       ??0?$basic_string@_WU?$char_traits@_W@std@@V?$allocator@_W@2@@std@@QAE@ABV01@@Z 10023fe0 f i JSONHandler.obj
 0001:00023070       ??A?$basic_string@DU?$char_traits@D@std@@V?$allocator@D@2@@std@@QAEAADI@Z 10024070 f i JSONHandler.obj
 0001:00023090       ??1?$basic_stringstream@_WU?$char_traits@_W@std@@V?$allocator@_W@2@@std@@UAE@XZ 10024090 f i JSONHandler.obj
 0001:000230f0       ??0?$basic_stringstream@_WU?$char_traits@_W@std@@V?$allocator@_W@2@@std@@QAE@H@Z 100240f0 f i JSONHandler.obj
 0001:000231d0       ?seekpos@?$basic_stringbuf@_WU?$char_traits@_W@std@@V?$allocator@_W@2@@std@@MAE?AV?$fpos@U_Mbstatet@@@2@V32@H@Z 100241d0 f i JSONHandler.obj
 0001:000233e0       ?seekoff@?$basic_stringbuf@_WU?$char_traits@_W@std@@V?$allocator@_W@2@@std@@MAE?AV?$fpos@U_Mbstatet@@@2@_JHH@Z 100243e0 f i JSONHandler.obj
 0001:000236b0       ?underflow@?$basic_stringbuf@_WU?$char_traits@_W@std@@V?$allocator@_W@2@@std@@MAEGXZ 100246b0 f i JSONHandler.obj
 0001:000237b0       ?pbackfail@?$basic_stringbuf@_WU?$char_traits@_W@std@@V?$allocator@_W@2@@std@@MAEGG@Z 100247b0 f i JSONHandler.obj
 0001:000238b0       ?overflow@?$basic_stringbuf@_WU?$char_traits@_W@std@@V?$allocator@_W@2@@std@@MAEGG@Z 100248b0 f i JSONHandler.obj
 0001:00023bd0       ??1?$basic_stringbuf@_WU?$char_traits@_W@std@@V?$allocator@_W@2@@std@@UAE@XZ 10024bd0 f i JSONHandler.obj
 0001:00023c20       ??_G?$basic_stringstream@_WU?$char_traits@_W@std@@V?$allocator@_W@2@@std@@UAEPAXI@Z 10024c20 f i JSONHandler.obj
 0001:00023c20       ??_E?$basic_stringstream@_WU?$char_traits@_W@std@@V?$allocator@_W@2@@std@@UAEPAXI@Z 10024c20 f i * CIL library *:* CIL module *
 0001:00023c60       ??_G?$basic_stringbuf@_WU?$char_traits@_W@std@@V?$allocator@_W@2@@std@@UAEPAXI@Z 10024c60 f i JSONHandler.obj
 0001:00023c60       ??_E?$basic_stringbuf@_WU?$char_traits@_W@std@@V?$allocator@_W@2@@std@@UAEPAXI@Z 10024c60 f i * CIL library *:* CIL module *
 0001:00023c90       ??D?$unique_ptr@V_Value@details@json@web@@U?$default_delete@V_Value@details@json@web@@@std@@@std@@QBEAAV_Value@details@json@web@@XZ 10024c90 f i JSONHandler.obj
 0001:00023cb0       ??R?$default_delete@V_Value@details@json@web@@@std@@QBEXPAV_Value@details@json@web@@@Z 10024cb0 f i JSONHandler.obj
 0001:00023d20       ?Init@?$CA2WEX@$0IA@@ATL@@AAEXPBDI@Z 10024d20 f i JSONHandler.obj
 0001:00023e80       ?_Myptr@?$_String_alloc@U?$_String_base_types@_WV?$allocator@_W@std@@@std@@@std@@QAEPA_WXZ 10024e80 f i JSONHandler.obj
 0001:00023e80       ?_Myptr@?$_String_alloc@U?$_String_base_types@_WV?$allocator@_W@std@@@std@@@std@@QBEPB_WXZ 10024e80 f i JSONHandler.obj
 0001:00023ea0       ?_Tidy@?$basic_string@_WU?$char_traits@_W@std@@V?$allocator@_W@2@@std@@QAEX_NI@Z 10024ea0 f i JSONHandler.obj
 0001:00023f60       ?_Grow@?$basic_string@_WU?$char_traits@_W@std@@V?$allocator@_W@2@@std@@QAE_NI_N@Z 10024f60 f i JSONHandler.obj
 0001:00024020       ?_Eos@?$basic_string@_WU?$char_traits@_W@std@@V?$allocator@_W@2@@std@@QAEXI@Z 10025020 f i JSONHandler.obj
 0001:00024070       ?assign@?$basic_string@_WU?$char_traits@_W@std@@V?$allocator@_W@2@@std@@QAEAAV12@PB_W@Z 10025070 f i JSONHandler.obj
 0001:000240a0       ?assign@?$basic_string@_WU?$char_traits@_W@std@@V?$allocator@_W@2@@std@@QAEAAV12@PB_WI@Z 100250a0 f i JSONHandler.obj
 0001:00024120       ?assign@?$basic_string@_WU?$char_traits@_W@std@@V?$allocator@_W@2@@std@@QAEAAV12@ABV12@II@Z 10025120 f i JSONHandler.obj
 0001:000241c0       ?_Tidy@?$basic_stringbuf@_WU?$char_traits@_W@std@@V?$allocator@_W@2@@std@@IAEXXZ 100251c0 f i JSONHandler.obj
 0001:00024260       ??0?$basic_stringbuf@_WU?$char_traits@_W@std@@V?$allocator@_W@2@@std@@QAE@H@Z 10025260 f i JSONHandler.obj
 0001:000242e0       ?allocate@?$allocator@_W@std@@QAEPA_WI@Z 100252e0 f i JSONHandler.obj
 0001:00024300       ?deallocate@?$allocator@_W@std@@QAEXPA_WI@Z 10025300 f i JSONHandler.obj
 0001:00024320       ??B?$fpos@U_Mbstatet@@@std@@QBE_JXZ 10025320 f i JSONHandler.obj
 0001:00024350       ??0?$fpos@U_Mbstatet@@@std@@QAE@_J@Z 10025350 f i JSONHandler.obj
 0001:00024390       ?_Myptr@?$_String_val@U?$_Simple_types@_W@std@@@std@@QBEPB_WXZ 10025390 f i JSONHandler.obj
 0001:00024390       ?_Myptr@?$_String_val@U?$_Simple_types@_W@std@@@std@@QAEPA_WXZ 10025390 f i JSONHandler.obj
 0001:000243d0       ?deallocate@?$_Wrap_alloc@V?$allocator@_W@std@@@std@@QAEXPA_WI@Z 100253d0 f i JSONHandler.obj
 0001:000243f0       ?_Inside@?$basic_string@_WU?$char_traits@_W@std@@V?$allocator@_W@2@@std@@QAE_NPB_W@Z 100253f0 f i JSONHandler.obj
 0001:00024440       ?_Copy@?$basic_string@_WU?$char_traits@_W@std@@V?$allocator@_W@2@@std@@QAEXII@Z 10025440 f i JSONHandler.obj
 0001:00024620       ?max_size@?$basic_string@_WU?$char_traits@_W@std@@V?$allocator@_W@2@@std@@QBEIXZ 10025620 f i JSONHandler.obj
 0001:00024660       ?erase@?$basic_string@_WU?$char_traits@_W@std@@V?$allocator@_W@2@@std@@QAEAAV12@II@Z 10025660 f i JSONHandler.obj
 0001:000246f0       ?erase@?$basic_string@_WU?$char_traits@_W@std@@V?$allocator@_W@2@@std@@QAEAAV12@I@Z 100256f0 f i JSONHandler.obj
 0001:00024720       ?_Getstate@?$basic_stringbuf@_WU?$char_traits@_W@std@@V?$allocator@_W@2@@std@@AAEHH@Z 10025720 f i JSONHandler.obj
 0001:00024780       ?_Init@?$basic_stringbuf@_WU?$char_traits@_W@std@@V?$allocator@_W@2@@std@@IAEXPB_WIH@Z 10025780 f i JSONHandler.obj
 0001:00024890       ?max_size@?$_Wrap_alloc@V?$allocator@_W@std@@@std@@QBEIU_Nil@2@@Z 10025890 f i JSONHandler.obj
 0001:000248b0       ?allocate@?$_Wrap_alloc@V?$allocator@_W@std@@@std@@QAEPA_WI@Z 100258b0 f i JSONHandler.obj
 0001:000248d0       ?max_size@?$allocator_traits@V?$allocator@_W@std@@@std@@SAIABV?$allocator@_W@2@@Z 100258d0 f i JSONHandler.obj
 0001:000248e0       ??Bsentry@?$basic_ostream@_WU?$char_traits@_W@std@@@std@@QBE_NXZ 100258e0 f i JSONHandler.obj
 0001:00024900       ??1sentry@?$basic_ostream@_WU?$char_traits@_W@std@@@std@@QAE@XZ 10025900 f i JSONHandler.obj
 0001:00024960       ??0sentry@?$basic_ostream@_WU?$char_traits@_W@std@@@std@@QAE@AAV12@@Z 10025960 f i JSONHandler.obj
 0001:00024a30       ??1_Sentry_base@?$basic_ostream@_WU?$char_traits@_W@std@@@std@@QAE@XZ 10025a30 f i JSONHandler.obj
 0001:00024ab0       ??0_Sentry_base@?$basic_ostream@_WU?$char_traits@_W@std@@@std@@QAE@AAV12@@Z 10025ab0 f i JSONHandler.obj
 0001:00024b10       ?max_size@?$allocator@_W@std@@QBEIXZ 10025b10 f i JSONHandler.obj
 0001:00024b20       ??$?6_WU?$char_traits@_W@std@@V?$allocator@_W@1@@std@@YAAAV?$basic_ostream@_WU?$char_traits@_W@std@@@0@AAV10@ABV?$basic_string@_WU?$char_traits@_W@std@@V?$allocator@_W@2@@0@@Z 10025b20 f i JSONHandler.obj
 0001:00024e10       ??$AtlConvFreeMemory@_W@ATL@@YAXPA_W0H@Z 10025e10 f i JSONHandler.obj
 0001:00024e30       ??$AtlConvAllocMemory@_W@ATL@@YAXPAPA_WHPA_WH@Z 10025e30 f i JSONHandler.obj
 0001:00024f6b       ??_E?$basic_stringstream@_WU?$char_traits@_W@std@@V?$allocator@_W@2@@std@@$4PPPPPPPM@A@AEPAXI@Z 10025f6b f i JSONHandler.obj
 0001:00024f80       ??1IServerProtocol@@UAE@XZ 10025f80 f i ServerProtocolImpl.obj
 0001:00024fa0       ??_GIServerProtocol@@UAEPAXI@Z 10025fa0 f i ServerProtocolImpl.obj
 0001:00024fa0       ??_EIServerProtocol@@UAEPAXI@Z 10025fa0 f i * CIL library *:* CIL module *
 0001:00024fd0       ??0ServerProtocol@@QAE@XZ  10025fd0 f   ServerProtocolImpl.obj
 0001:000250c0       ??_GServerProtocol@@UAEPAXI@Z 100260c0 f i ServerProtocolImpl.obj
 0001:000250c0       ??_EServerProtocol@@UAEPAXI@Z 100260c0 f i * CIL library *:* CIL module *
 0001:000250f0       ??0IServerProtocol@@QAE@XZ 100260f0 f i ServerProtocolImpl.obj
 0001:00025110       ??1ServerProtocol@@UAE@XZ  10026110 f   ServerProtocolImpl.obj
 0001:000251b0       ?Start@ServerProtocol@@UAE_NGII@Z 100261b0 f   ServerProtocolImpl.obj
 0001:00025200       ?WebSocketSend@ServerProtocol@@UAE_NIPAXI_K@Z 10026200 f   ServerProtocolImpl.obj
 0001:00025250       ?Send@ServerProtocol@@UAE_NIPAXI_K@Z 10026250 f   ServerProtocolImpl.obj
 0001:00025290       ?Shutdown@ServerProtocol@@UAEXXZ 10026290 f   ServerProtocolImpl.obj
 0001:000252b0       ?CreateServerProtocol@@YGPAVIServerProtocol@@XZ 100262b0 f   ServerProtocolImpl.obj
 0001:00025320       ?ReleaseServerProtocol@@YGXPAVIServerProtocol@@@Z 10026320 f   ServerProtocolImpl.obj
 0001:00025360       ?OnConnect@ServerProtocol@@UAEXI_NPADG@Z 10026360 f   ServerProtocolImpl.obj
 0001:000253a0       ?OnReceive@ServerProtocol@@UAEXIPADI@Z 100263a0 f   ServerProtocolImpl.obj
 0001:00025510       ?OnSend@ServerProtocol@@UAEXIIW4SocketError@@@Z 10026510 f   ServerProtocolImpl.obj
 0001:00025560       ?GetClientSession@ServerProtocol@@QAEPAVIClientSession@@I@Z 10026560 f   ServerProtocolImpl.obj
 0001:00025590       ?DisconnectClient@ServerProtocol@@UAEXI@Z 10026590 f   ServerProtocolImpl.obj
 0001:000255c0       _DllMain@12                100265c0 f   dllmain.obj
 0001:000255d6       ?_Lock@?$basic_streambuf@_WU?$char_traits@_W@std@@@std@@UAEXXZ 100265d6 f   msvcprt:MSVCP140.dll
 0001:000255dc       ?_Unlock@?$basic_streambuf@_WU?$char_traits@_W@std@@@std@@UAEXXZ 100265dc f   msvcprt:MSVCP140.dll
 0001:000255e2       ?showmanyc@?$basic_streambuf@_WU?$char_traits@_W@std@@@std@@MAE_JXZ 100265e2 f   msvcprt:MSVCP140.dll
 0001:000255e8       ?uflow@?$basic_streambuf@_WU?$char_traits@_W@std@@@std@@MAEGXZ 100265e8 f   msvcprt:MSVCP140.dll
 0001:000255ee       ?xsgetn@?$basic_streambuf@_WU?$char_traits@_W@std@@@std@@MAE_JPA_W_J@Z 100265ee f   msvcprt:MSVCP140.dll
 0001:000255f4       ?xsputn@?$basic_streambuf@_WU?$char_traits@_W@std@@@std@@MAE_JPB_W_J@Z 100265f4 f   msvcprt:MSVCP140.dll
 0001:000255fa       ?setbuf@?$basic_streambuf@_WU?$char_traits@_W@std@@@std@@MAEPAV12@PA_W_J@Z 100265fa f   msvcprt:MSVCP140.dll
 0001:00025600       ?sync@?$basic_streambuf@_WU?$char_traits@_W@std@@@std@@MAEHXZ 10026600 f   msvcprt:MSVCP140.dll
 0001:00025606       ?imbue@?$basic_streambuf@_WU?$char_traits@_W@std@@@std@@MAEXABVlocale@2@@Z 10026606 f   msvcprt:MSVCP140.dll
 0001:0002560c       ??0CAtlBaseModule@ATL@@QAE@XZ 1002660c f   atls:atlbase.obj
 0001:0002565f       ??0_ATL_BASE_MODULE70@ATL@@QAE@XZ 1002665f f i atls:atlbase.obj
 0001:00025682       ??1CAtlBaseModule@ATL@@QAE@XZ 10026682 f   atls:atlbase.obj
 0001:00025698       ?RemoveAll@?$CSimpleArray@PAUHINSTANCE__@@V?$CSimpleArrayEqualHelper@PAUHINSTANCE__@@@ATL@@@ATL@@QAEXXZ 10026698 f i atls:atlbase.obj
 0001:000256b5       ??3@YAXPAX@Z               100266b5 f   MSVCRT:delete_scalar.obj
 0001:000256ba       @__security_check_cookie@4 100266ba f   MSVCRT:_secchk_.obj
 0001:0002578b       ??$__crt_fast_encode_pointer@P6GXPAU_RTL_CONDITION_VARIABLE@@@Z@@YAP6GXPAU_RTL_CONDITION_VARIABLE@@@ZQ6GX0@Z@Z 1002678b f i MSVCRT:thread_safe_statics.obj
 0001:0002578b       ??$__crt_fast_encode_pointer@P6GHPAU_RTL_CONDITION_VARIABLE@@PAU_RTL_CRITICAL_SECTION@@K@Z@@YAP6GHPAU_RTL_CONDITION_VARIABLE@@PAU_RTL_CRITICAL_SECTION@@K@ZQ6GH01K@Z@Z 1002678b f i MSVCRT:thread_safe_statics.obj
 0001:000257c4       ??2@YAPAXI@Z               100267c4 f   MSVCRT:new_scalar.obj
 0001:0002583b       ___scrt_acquire_startup_lock 1002683b f   MSVCRT:utility.obj
 0001:00025870       ___scrt_dllmain_after_initialize_c 10026870 f   MSVCRT:utility.obj
 0001:0002589b       ___scrt_dllmain_before_initialize_c 1002689b f   MSVCRT:utility.obj
 0001:000258a9       ___scrt_dllmain_crt_thread_attach 100268a9 f   MSVCRT:utility.obj
 0001:000258c8       ___scrt_dllmain_crt_thread_detach 100268c8 f   MSVCRT:utility.obj
 0001:000258d5       ___scrt_dllmain_exception_filter 100268d5 f   MSVCRT:utility.obj
 0001:00025908       ___scrt_dllmain_uninitialize_c 10026908 f   MSVCRT:utility.obj
 0001:0002592b       ___scrt_dllmain_uninitialize_critical 1002692b f   MSVCRT:utility.obj
 0001:00025938       ___scrt_initialize_crt     10026938 f   MSVCRT:utility.obj
 0001:00025971       ___scrt_initialize_onexit_tables 10026971 f   MSVCRT:utility.obj
 0001:00025a08       ___scrt_is_nonwritable_in_current_image 10026a08 f   MSVCRT:utility.obj
 0001:00025a92       ___scrt_release_startup_lock 10026a92 f   MSVCRT:utility.obj
 0001:00025aaf       ___scrt_uninitialize_crt   10026aaf f   MSVCRT:utility.obj
 0001:00025ad7       __onexit                   10026ad7 f   MSVCRT:utility.obj
 0001:00025b12       _atexit                    10026b12 f   MSVCRT:utility.obj
 0001:00025b27       ??3@YAXPAXI@Z              10026b27 f   MSVCRT:delete_scalar_size.obj
 0001:00025b35       ??_Gtype_info@@UAEPAXI@Z   10026b35 f i MSVCRT:std_type_info_static.obj
 0001:00025b35       ??_Etype_info@@UAEPAXI@Z   10026b35 f i MSVCRT:std_type_info_static.obj
 0001:00025b58       ___raise_securityfailure   10026b58 f   MSVCRT:gs_report.obj
 0001:00025b80       ___report_gsfailure        10026b80 f   MSVCRT:gs_report.obj
 0001:00025c7b       ___report_rangecheckfailure 10026c7b f   MSVCRT:gs_report.obj
 0001:00025c87       ___report_securityfailure  10026c87 f   MSVCRT:gs_report.obj
 0001:00025d57       ??_U@YAPAXI@Z              10026d57 f   MSVCRT:new_array.obj
 0001:00026068       __DllMainCRTStartup@12     10027068 f   MSVCRT:dll_dllmain.obj
 0001:0002608b       ___scrt_fastfail           1002708b f   MSVCRT:utility_desktop.obj
 0001:000261a6       @_guard_check_icall@4      100271a6 f i MSVCRT:checkcfg.obj
 0001:000261ac       ??0bad_alloc@std@@QAE@ABV01@@Z 100271ac f i MSVCRT:throw_bad_alloc.obj
 0001:000261c7       ??0bad_alloc@std@@QAE@XZ   100271c7 f i MSVCRT:throw_bad_alloc.obj
 0001:000261df       ??0bad_array_new_length@std@@QAE@ABV01@@Z 100271df f i MSVCRT:throw_bad_alloc.obj
 0001:000261fa       ??0bad_array_new_length@std@@QAE@XZ 100271fa f i MSVCRT:throw_bad_alloc.obj
 0001:00026212       ??1bad_alloc@std@@UAE@XZ   10027212 f i MSVCRT:throw_bad_alloc.obj
 0001:00026212       ??1bad_array_new_length@std@@UAE@XZ 10027212 f i MSVCRT:throw_bad_alloc.obj
 0001:00026223       ??_Gbad_array_new_length@std@@UAEPAXI@Z 10027223 f i MSVCRT:throw_bad_alloc.obj
 0001:00026223       ??_Gbad_alloc@std@@UAEPAXI@Z 10027223 f i MSVCRT:throw_bad_alloc.obj
 0001:00026223       ??_Ebad_alloc@std@@UAEPAXI@Z 10027223 f i MSVCRT:throw_bad_alloc.obj
 0001:00026223       ??_Ebad_array_new_length@std@@UAEPAXI@Z 10027223 f i MSVCRT:throw_bad_alloc.obj
 0001:00026250       ?__scrt_throw_std_bad_alloc@@YAXXZ 10027250 f   MSVCRT:throw_bad_alloc.obj
 0001:0002626d       ?__scrt_throw_std_bad_array_new_length@@YAXXZ 1002726d f   MSVCRT:throw_bad_alloc.obj
 0001:0002628a       ___isa_available_init      1002728a f   MSVCRT:_cpu_disp_.obj
 0001:00026424       __get_startup_argv_mode    10027424 f   MSVCRT:argv_mode.obj
 0001:00026428       ___scrt_is_ucrt_dll_in_use 10027428 f   MSVCRT:ucrt_detection.obj
 0001:00026440       __SEH_prolog4              10027440 f   MSVCRT:_sehprolg4_.obj
 0001:00026486       __SEH_epilog4              10027486 f   MSVCRT:_sehprolg4_.obj
 0001:0002649b       __except_handler4          1002749b f   MSVCRT:_chandler4gs_.obj
 0001:000264be       ___security_init_cookie    100274be f   MSVCRT:gs_support.obj
 0001:0002655a       ?__scrt_initialize_type_info@@YAXXZ 1002755a f   MSVCRT:tncleanup.obj
 0001:00026566       ?__scrt_uninitialize_type_info@@YAXXZ 10027566 f   MSVCRT:tncleanup.obj
 0001:00026572       ___local_stdio_scanf_options 10027572 f i MSVCRT:default_local_stdio_options.obj
 0001:00026578       ___scrt_initialize_default_local_stdio_options 10027578 f   MSVCRT:default_local_stdio_options.obj
 0001:00026595       ___scrt_get_dyn_tls_init_callback 10027595 f   MSVCRT:dyn_tls_init.obj
 0001:0002659b       __RTC_Initialize           1002759b f   MSVCRT:_initsect_.obj
 0001:000265c6       __RTC_Terminate            100275c6 f   MSVCRT:_initsect_.obj
 0001:000265f1       @_guard_check_icall_nop@4  100275f1 f i MSVCRT:guard_support.obj
 0001:000265f2       ___std_exception_destroy   100275f2 f   vcruntime:VCRUNTIME140.dll
 0001:000265f8       __purecall                 100275f8 f   vcruntime:VCRUNTIME140.dll
 0001:000265fe       _memset                    100275fe f   vcruntime:VCRUNTIME140.dll
 0001:00026604       ___vcrt_InitializeCriticalSectionEx 10027604 f   vcruntime:VCRUNTIME140.dll
 0001:0002660a       __CxxThrowException@8      1002760a f   vcruntime:VCRUNTIME140.dll
 0001:00026610       __except_handler4_common   10027610 f   vcruntime:VCRUNTIME140.dll
 0001:00026616       ___std_type_info_destroy_list 10027616 f   vcruntime:VCRUNTIME140.dll
 0001:0002661c       _free                      1002761c f   ucrt:api-ms-win-crt-heap-l1-1-0.dll
 0001:00026622       _malloc                    10027622 f   ucrt:api-ms-win-crt-heap-l1-1-0.dll
 0001:00026628       __callnewh                 10027628 f   ucrt:api-ms-win-crt-heap-l1-1-0.dll
 0001:0002662e       __seh_filter_dll           1002762e f   ucrt:api-ms-win-crt-runtime-l1-1-0.dll
 0001:00026634       __configure_narrow_argv    10027634 f   ucrt:api-ms-win-crt-runtime-l1-1-0.dll
 0001:0002663a       __initialize_narrow_environment 1002763a f   ucrt:api-ms-win-crt-runtime-l1-1-0.dll
 0001:00026640       __initialize_onexit_table  10027640 f   ucrt:api-ms-win-crt-runtime-l1-1-0.dll
 0001:00026646       __register_onexit_function 10027646 f   ucrt:api-ms-win-crt-runtime-l1-1-0.dll
 0001:0002664c       __execute_onexit_table     1002764c f   ucrt:api-ms-win-crt-runtime-l1-1-0.dll
 0001:00026652       __crt_atexit               10027652 f   ucrt:api-ms-win-crt-runtime-l1-1-0.dll
 0001:00026658       __cexit                    10027658 f   ucrt:api-ms-win-crt-runtime-l1-1-0.dll
 0001:0002665e       __initterm                 1002765e f   ucrt:api-ms-win-crt-runtime-l1-1-0.dll
 0001:00026664       __initterm_e               10027664 f   ucrt:api-ms-win-crt-runtime-l1-1-0.dll
 0001:0002666a       _IsProcessorFeaturePresent@4 1002766a f   kernel32:KERNEL32.dll
 0001:00026670       ___acrt_thread_attach      10027670 f   MSVCRT:ucrt_stubs.obj
 0001:00026670       ___acrt_uninitialize_critical 10027670 f   MSVCRT:ucrt_stubs.obj
 0001:00026670       ___vcrt_thread_attach      10027670 f   MSVCRT:ucrt_stubs.obj
 0001:00026670       ___vcrt_uninitialize       10027670 f   MSVCRT:ucrt_stubs.obj
 0001:00026670       ___acrt_initialize         10027670 f   MSVCRT:ucrt_stubs.obj
 0001:00026670       ___acrt_uninitialize       10027670 f   MSVCRT:ucrt_stubs.obj
 0001:00026670       ___scrt_stub_for_acrt_initialize 10027670 f   MSVCRT:ucrt_stubs.obj
 0001:00026670       ___vcrt_uninitialize_critical 10027670 f   MSVCRT:ucrt_stubs.obj
 0001:00026670       ___scrt_stub_for_acrt_uninitialize_critical 10027670 f   MSVCRT:ucrt_stubs.obj
 0001:00026670       ___vcrt_initialize         10027670 f   MSVCRT:ucrt_stubs.obj
 0001:00026670       ___acrt_thread_detach      10027670 f   MSVCRT:ucrt_stubs.obj
 0001:00026670       ___scrt_stub_for_acrt_thread_detach 10027670 f   MSVCRT:ucrt_stubs.obj
 0001:00026670       ___scrt_stub_for_acrt_thread_attach 10027670 f   MSVCRT:ucrt_stubs.obj
 0001:00026670       ___vcrt_thread_detach      10027670 f   MSVCRT:ucrt_stubs.obj
 0001:00026670       ___scrt_stub_for_acrt_uninitialize 10027670 f   MSVCRT:ucrt_stubs.obj
 0001:00026673       __is_c_termination_complete 10027673 f   MSVCRT:ucrt_stubs.obj
 0001:00026673       ___scrt_stub_for_is_c_termination_complete 10027673 f   MSVCRT:ucrt_stubs.obj
 0001:00026680       __alloca_probe_16          10027680 f   MSVCRT:alloca16.obj
 0001:00026696       __alloca_probe_8           10027696     MSVCRT:alloca16.obj
 0001:000266b0       __alloca_probe             100276b0 f   MSVCRT:chkstk.obj
 0001:000266b0       __chkstk                   100276b0 f   MSVCRT:chkstk.obj
 0001:000266de       ___CxxFrameHandler3        100276de f   vcruntime:VCRUNTIME140.dll
 0001:000266e4       _memcmp                    100276e4 f   vcruntime:VCRUNTIME140.dll
 0001:000266ea       _memcpy                    100276ea f   vcruntime:VCRUNTIME140.dll
 0002:00000000       __imp__WideCharToMultiByte@32 1002a000     kernel32:KERNEL32.dll
 0002:00000004       __imp__MultiByteToWideChar@24 1002a004     kernel32:KERNEL32.dll
 0002:00000008       __imp__InitializeSListHead@4 1002a008     kernel32:KERNEL32.dll
 0002:0000000c       __imp__GetSystemTimeAsFileTime@4 1002a00c     kernel32:KERNEL32.dll
 0002:00000010       __imp__GetCurrentThreadId@0 1002a010     kernel32:KERNEL32.dll
 0002:00000014       __imp__GetCurrentProcessId@0 1002a014     kernel32:KERNEL32.dll
 0002:00000018       __imp__QueryPerformanceCounter@4 1002a018     kernel32:KERNEL32.dll
 0002:0000001c       __imp__IsProcessorFeaturePresent@4 1002a01c     kernel32:KERNEL32.dll
 0002:00000020       __imp__TerminateProcess@8  1002a020     kernel32:KERNEL32.dll
 0002:00000024       __imp__GetCurrentProcess@0 1002a024     kernel32:KERNEL32.dll
 0002:00000028       __imp__SetUnhandledExceptionFilter@4 1002a028     kernel32:KERNEL32.dll
 0002:0000002c       __imp__UnhandledExceptionFilter@4 1002a02c     kernel32:KERNEL32.dll
 0002:00000030       __imp__GetProcAddress@8    1002a030     kernel32:KERNEL32.dll
 0002:00000034       __imp__GetModuleHandleW@4  1002a034     kernel32:KERNEL32.dll
 0002:00000038       __imp__CreateEventW@16     1002a038     kernel32:KERNEL32.dll
 0002:0000003c       __imp__CloseHandle@4       1002a03c     kernel32:KERNEL32.dll
 0002:00000040       __imp__FormatMessageA@28   1002a040     kernel32:KERNEL32.dll
 0002:00000044       __imp__LocalFree@4         1002a044     kernel32:KERNEL32.dll
 0002:00000048       __imp__LocalAlloc@8        1002a048     kernel32:KERNEL32.dll
 0002:0000004c       __imp__LeaveCriticalSection@4 1002a04c     kernel32:KERNEL32.dll
 0002:00000050       __imp__EnterCriticalSection@4 1002a050     kernel32:KERNEL32.dll
 0002:00000054       __imp__OutputDebugStringW@4 1002a054     kernel32:KERNEL32.dll
 0002:00000058       __imp__IsDebuggerPresent@0 1002a058     kernel32:KERNEL32.dll
 0002:0000005c       __imp__DeleteCriticalSection@4 1002a05c     kernel32:KERNEL32.dll
 0002:00000060       __imp__CreateThread@24     1002a060     kernel32:KERNEL32.dll
 0002:00000064       __imp__GetLastError@0      1002a064     kernel32:KERNEL32.dll
 0002:00000068       __imp__Sleep@4             1002a068     kernel32:KERNEL32.dll
 0002:0000006c       __imp__WaitForSingleObject@8 1002a06c     kernel32:KERNEL32.dll
 0002:00000070       __imp__InitializeCriticalSectionEx@12 1002a070     kernel32:KERNEL32.dll
 0002:00000074       __imp__InitializeCriticalSection@4 1002a074     kernel32:KERNEL32.dll
 0002:00000078       \177KERNEL32_NULL_THUNK_DATA 1002a078     kernel32:KERNEL32.dll
 0002:0000007c       __imp_?setp@?$basic_streambuf@_WU?$char_traits@_W@std@@@std@@IAEXPA_W0@Z 1002a07c     msvcprt:MSVCP140.dll
 0002:00000080       __imp_?setp@?$basic_streambuf@_WU?$char_traits@_W@std@@@std@@IAEXPA_W00@Z 1002a080     msvcprt:MSVCP140.dll
 0002:00000084       __imp_?_Pninc@?$basic_streambuf@_WU?$char_traits@_W@std@@@std@@IAEPA_WXZ 1002a084     msvcprt:MSVCP140.dll
 0002:00000088       __imp_??0?$basic_iostream@_WU?$char_traits@_W@std@@@std@@QAE@PAV?$basic_streambuf@_WU?$char_traits@_W@std@@@1@@Z 1002a088     msvcprt:MSVCP140.dll
 0002:0000008c       __imp_??1?$basic_ios@_WU?$char_traits@_W@std@@@std@@UAE@XZ 1002a08c     msvcprt:MSVCP140.dll
 0002:00000090       __imp_??1?$basic_streambuf@_WU?$char_traits@_W@std@@@std@@UAE@XZ 1002a090     msvcprt:MSVCP140.dll
 0002:00000094       __imp_?_Lock@?$basic_streambuf@_WU?$char_traits@_W@std@@@std@@UAEXXZ 1002a094     msvcprt:MSVCP140.dll
 0002:00000098       __imp_?_Unlock@?$basic_streambuf@_WU?$char_traits@_W@std@@@std@@UAEXXZ 1002a098     msvcprt:MSVCP140.dll
 0002:0000009c       __imp_?uflow@?$basic_streambuf@_WU?$char_traits@_W@std@@@std@@MAEGXZ 1002a09c     msvcprt:MSVCP140.dll
 0002:000000a0       __imp_?xsgetn@?$basic_streambuf@_WU?$char_traits@_W@std@@@std@@MAE_JPA_W_J@Z 1002a0a0     msvcprt:MSVCP140.dll
 0002:000000a4       __imp_?xsputn@?$basic_streambuf@_WU?$char_traits@_W@std@@@std@@MAE_JPB_W_J@Z 1002a0a4     msvcprt:MSVCP140.dll
 0002:000000a8       __imp_?setbuf@?$basic_streambuf@_WU?$char_traits@_W@std@@@std@@MAEPAV12@PA_W_J@Z 1002a0a8     msvcprt:MSVCP140.dll
 0002:000000ac       __imp_?pbump@?$basic_streambuf@_WU?$char_traits@_W@std@@@std@@IAEXH@Z 1002a0ac     msvcprt:MSVCP140.dll
 0002:000000b0       __imp_?sync@?$basic_streambuf@_WU?$char_traits@_W@std@@@std@@MAEHXZ 1002a0b0     msvcprt:MSVCP140.dll
 0002:000000b4       __imp_?imbue@?$basic_streambuf@_WU?$char_traits@_W@std@@@std@@MAEXABVlocale@2@@Z 1002a0b4     msvcprt:MSVCP140.dll
 0002:000000b8       __imp_??1?$basic_iostream@_WU?$char_traits@_W@std@@@std@@UAE@XZ 1002a0b8     msvcprt:MSVCP140.dll
 0002:000000bc       __imp_?width@ios_base@std@@QAE_J_J@Z 1002a0bc     msvcprt:MSVCP140.dll
 0002:000000c0       __imp_?width@ios_base@std@@QBE_JXZ 1002a0c0     msvcprt:MSVCP140.dll
 0002:000000c4       __imp_?flags@ios_base@std@@QBEHXZ 1002a0c4     msvcprt:MSVCP140.dll
 0002:000000c8       __imp_?good@ios_base@std@@QBE_NXZ 1002a0c8     msvcprt:MSVCP140.dll
 0002:000000cc       __imp_?showmanyc@?$basic_streambuf@_WU?$char_traits@_W@std@@@std@@MAE_JXZ 1002a0cc     msvcprt:MSVCP140.dll
 0002:000000d0       __imp_?epptr@?$basic_streambuf@_WU?$char_traits@_W@std@@@std@@IBEPA_WXZ 1002a0d0     msvcprt:MSVCP140.dll
 0002:000000d4       __imp_?setg@?$basic_streambuf@_WU?$char_traits@_W@std@@@std@@IAEXPA_W00@Z 1002a0d4     msvcprt:MSVCP140.dll
 0002:000000d8       __imp_?_Xbad_alloc@std@@YAXXZ 1002a0d8     msvcprt:MSVCP140.dll
 0002:000000dc       __imp_?_Xout_of_range@std@@YAXPBD@Z 1002a0dc     msvcprt:MSVCP140.dll
 0002:000000e0       __imp_?_Xlength_error@std@@YAXPBD@Z 1002a0e0     msvcprt:MSVCP140.dll
 0002:000000e4       __imp_?uncaught_exception@std@@YA_NXZ 1002a0e4     msvcprt:MSVCP140.dll
 0002:000000e8       __imp_?_BADOFF@std@@3_JB   1002a0e8     msvcprt:MSVCP140.dll
 0002:000000ec       __imp_?fill@?$basic_ios@_WU?$char_traits@_W@std@@@std@@QBE_WXZ 1002a0ec     msvcprt:MSVCP140.dll
 0002:000000f0       __imp_?sputn@?$basic_streambuf@_WU?$char_traits@_W@std@@@std@@QAE_JPB_W_J@Z 1002a0f0     msvcprt:MSVCP140.dll
 0002:000000f4       __imp_?_Osfx@?$basic_ostream@_WU?$char_traits@_W@std@@@std@@QAEXXZ 1002a0f4     msvcprt:MSVCP140.dll
 0002:000000f8       __imp_?tie@?$basic_ios@_WU?$char_traits@_W@std@@@std@@QBEPAV?$basic_ostream@_WU?$char_traits@_W@std@@@2@XZ 1002a0f8     msvcprt:MSVCP140.dll
 0002:000000fc       __imp_?sputc@?$basic_streambuf@_WU?$char_traits@_W@std@@@std@@QAEG_W@Z 1002a0fc     msvcprt:MSVCP140.dll
 0002:00000100       __imp_?flush@?$basic_ostream@_WU?$char_traits@_W@std@@@std@@QAEAAV12@XZ 1002a100     msvcprt:MSVCP140.dll
 0002:00000104       __imp_??0?$basic_streambuf@_WU?$char_traits@_W@std@@@std@@IAE@XZ 1002a104     msvcprt:MSVCP140.dll
 0002:00000108       __imp_?setstate@?$basic_ios@_WU?$char_traits@_W@std@@@std@@QAEXH_N@Z 1002a108     msvcprt:MSVCP140.dll
 0002:0000010c       __imp_?rdbuf@?$basic_ios@_WU?$char_traits@_W@std@@@std@@QBEPAV?$basic_streambuf@_WU?$char_traits@_W@std@@@2@XZ 1002a10c     msvcprt:MSVCP140.dll
 0002:00000110       __imp_??0?$basic_ios@_WU?$char_traits@_W@std@@@std@@IAE@XZ 1002a110     msvcprt:MSVCP140.dll
 0002:00000114       __imp_?eback@?$basic_streambuf@_WU?$char_traits@_W@std@@@std@@IBEPA_WXZ 1002a114     msvcprt:MSVCP140.dll
 0002:00000118       __imp_?gptr@?$basic_streambuf@_WU?$char_traits@_W@std@@@std@@IBEPA_WXZ 1002a118     msvcprt:MSVCP140.dll
 0002:0000011c       __imp_?pbase@?$basic_streambuf@_WU?$char_traits@_W@std@@@std@@IBEPA_WXZ 1002a11c     msvcprt:MSVCP140.dll
 0002:00000120       __imp_?pptr@?$basic_streambuf@_WU?$char_traits@_W@std@@@std@@IBEPA_WXZ 1002a120     msvcprt:MSVCP140.dll
 0002:00000124       __imp_?egptr@?$basic_streambuf@_WU?$char_traits@_W@std@@@std@@IBEPA_WXZ 1002a124     msvcprt:MSVCP140.dll
 0002:00000128       __imp_?gbump@?$basic_streambuf@_WU?$char_traits@_W@std@@@std@@IAEXH@Z 1002a128     msvcprt:MSVCP140.dll
 0002:0000012c       \177MSVCP140_NULL_THUNK_DATA 1002a12c     msvcprt:MSVCP140.dll
 0002:00000130       __imp_?ReleaseClientSocket@@YGXPAVSocket@@@Z 1002a130     Socket:Socket.dll
 0002:00000134       __imp_?CreateClientSocket@@YGPAVSocket@@XZ 1002a134     Socket:Socket.dll
 0002:00000138       __imp_?CreateServerSocket@@YGPAVSocket@@XZ 1002a138     Socket:Socket.dll
 0002:0000013c       __imp_?ReleaseServerSocket@@YGXPAVSocket@@@Z 1002a13c     Socket:Socket.dll
 0002:00000140       \177Socket_NULL_THUNK_DATA 1002a140     Socket:Socket.dll
 0002:00000144       __imp_?AcquireLock@@YGXPAU_RTL_CRITICAL_SECTION@@@Z 1002a144     Utilities:Utilities.dll
 0002:00000148       __imp_?ReleaseLock@@YGXPAU_RTL_CRITICAL_SECTION@@@Z 1002a148     Utilities:Utilities.dll
 0002:0000014c       \177Utilities_NULL_THUNK_DATA 1002a14c     Utilities:Utilities.dll
 0002:00000150       __imp__memset              1002a150     vcruntime:VCRUNTIME140.dll
 0002:00000154       __imp____std_type_info_destroy_list 1002a154     vcruntime:VCRUNTIME140.dll
 0002:00000158       __imp___except_handler4_common 1002a158     vcruntime:VCRUNTIME140.dll
 0002:0000015c       __imp___CxxThrowException@8 1002a15c     vcruntime:VCRUNTIME140.dll
 0002:00000160       __imp____vcrt_InitializeCriticalSectionEx 1002a160     vcruntime:VCRUNTIME140.dll
 0002:00000164       __imp__strstr              1002a164     vcruntime:VCRUNTIME140.dll
 0002:00000168       __imp__memchr              1002a168     vcruntime:VCRUNTIME140.dll
 0002:0000016c       __imp___purecall           1002a16c     vcruntime:VCRUNTIME140.dll
 0002:00000170       __imp__memcpy              1002a170     vcruntime:VCRUNTIME140.dll
 0002:00000174       __imp____CxxFrameHandler3  1002a174     vcruntime:VCRUNTIME140.dll
 0002:00000178       __imp__memcmp              1002a178     vcruntime:VCRUNTIME140.dll
 0002:0000017c       __imp____std_exception_destroy 1002a17c     vcruntime:VCRUNTIME140.dll
 0002:00000180       __imp__memmove             1002a180     vcruntime:VCRUNTIME140.dll
 0002:00000184       __imp____std_exception_copy 1002a184     vcruntime:VCRUNTIME140.dll
 0002:00000188       \177VCRUNTIME140_NULL_THUNK_DATA 1002a188     vcruntime:VCRUNTIME140.dll
 0002:0000018c       __imp__ntohs@4             1002a18c     ws2_32:WS2_32.dll
 0002:00000190       \177WS2_32_NULL_THUNK_DATA 1002a190     ws2_32:WS2_32.dll
 0002:00000194       __imp__calloc              1002a194     ucrt:api-ms-win-crt-heap-l1-1-0.dll
 0002:00000198       __imp___callnewh           1002a198     ucrt:api-ms-win-crt-heap-l1-1-0.dll
 0002:0000019c       __imp__malloc              1002a19c     ucrt:api-ms-win-crt-heap-l1-1-0.dll
 0002:000001a0       __imp__free                1002a1a0     ucrt:api-ms-win-crt-heap-l1-1-0.dll
 0002:000001a4       __imp___recalloc           1002a1a4     ucrt:api-ms-win-crt-heap-l1-1-0.dll
 0002:000001a8       \177api-ms-win-crt-heap-l1-1-0_NULL_THUNK_DATA 1002a1a8     ucrt:api-ms-win-crt-heap-l1-1-0.dll
 0002:000001ac       __imp___crt_atexit         1002a1ac     ucrt:api-ms-win-crt-runtime-l1-1-0.dll
 0002:000001b0       __imp___execute_onexit_table 1002a1b0     ucrt:api-ms-win-crt-runtime-l1-1-0.dll
 0002:000001b4       __imp___errno              1002a1b4     ucrt:api-ms-win-crt-runtime-l1-1-0.dll
 0002:000001b8       __imp___initterm           1002a1b8     ucrt:api-ms-win-crt-runtime-l1-1-0.dll
 0002:000001bc       __imp___invalid_parameter_noinfo_noreturn 1002a1bc     ucrt:api-ms-win-crt-runtime-l1-1-0.dll
 0002:000001c0       __imp___initterm_e         1002a1c0     ucrt:api-ms-win-crt-runtime-l1-1-0.dll
 0002:000001c4       __imp___initialize_onexit_table 1002a1c4     ucrt:api-ms-win-crt-runtime-l1-1-0.dll
 0002:000001c8       __imp___initialize_narrow_environment 1002a1c8     ucrt:api-ms-win-crt-runtime-l1-1-0.dll
 0002:000001cc       __imp___configure_narrow_argv 1002a1cc     ucrt:api-ms-win-crt-runtime-l1-1-0.dll
 0002:000001d0       __imp___seh_filter_dll     1002a1d0     ucrt:api-ms-win-crt-runtime-l1-1-0.dll
 0002:000001d4       __imp___register_onexit_function 1002a1d4     ucrt:api-ms-win-crt-runtime-l1-1-0.dll
 0002:000001d8       __imp___cexit              1002a1d8     ucrt:api-ms-win-crt-runtime-l1-1-0.dll
 0002:000001dc       \177api-ms-win-crt-runtime-l1-1-0_NULL_THUNK_DATA 1002a1dc     ucrt:api-ms-win-crt-runtime-l1-1-0.dll
 0002:000001e0       __imp____stdio_common_vsprintf_s 1002a1e0     ucrt:api-ms-win-crt-stdio-l1-1-0.dll
 0002:000001e4       __imp____stdio_common_vfwprintf 1002a1e4     ucrt:api-ms-win-crt-stdio-l1-1-0.dll
 0002:000001e8       __imp____acrt_iob_func     1002a1e8     ucrt:api-ms-win-crt-stdio-l1-1-0.dll
 0002:000001ec       __imp____stdio_common_vfprintf 1002a1ec     ucrt:api-ms-win-crt-stdio-l1-1-0.dll
 0002:000001f0       \177api-ms-win-crt-stdio-l1-1-0_NULL_THUNK_DATA 1002a1f0     ucrt:api-ms-win-crt-stdio-l1-1-0.dll
 0002:000001f4       __imp__strcpy_s            1002a1f4     ucrt:api-ms-win-crt-string-l1-1-0.dll
 0002:000001f8       \177api-ms-win-crt-string-l1-1-0_NULL_THUNK_DATA 1002a1f8     ucrt:api-ms-win-crt-string-l1-1-0.dll
 0002:000001fc       __imp___time64             1002a1fc     ucrt:api-ms-win-crt-time-l1-1-0.dll
 0002:00000200       \177api-ms-win-crt-time-l1-1-0_NULL_THUNK_DATA 1002a200     ucrt:api-ms-win-crt-time-l1-1-0.dll
 0002:00000204       __imp_?array@value@json@web@@SA?AV123@XZ 1002a204     cpprest140_2_8:cpprest140_2_8.dll
 0002:00000208       __imp_?as_integer@value@json@web@@QBEHXZ 1002a208     cpprest140_2_8:cpprest140_2_8.dll
 0002:0000020c       __imp_?as_string@value@json@web@@QBEABV?$basic_string@_WU?$char_traits@_W@std@@V?$allocator@_W@2@@std@@XZ 1002a20c     cpprest140_2_8:cpprest140_2_8.dll
 0002:00000210       __imp_?to_string@value@json@web@@QBE?AV?$basic_string@_WU?$char_traits@_W@std@@V?$allocator@_W@2@@std@@XZ 1002a210     cpprest140_2_8:cpprest140_2_8.dll
 0002:00000214       __imp_??Avalue@json@web@@QAEAAV012@ABV?$basic_string@_WU?$char_traits@_W@std@@V?$allocator@_W@2@@std@@@Z 1002a214     cpprest140_2_8:cpprest140_2_8.dll
 0002:00000218       __imp_?at@value@json@web@@QAEAAV123@ABV?$basic_string@_WU?$char_traits@_W@std@@V?$allocator@_W@2@@std@@@Z 1002a218     cpprest140_2_8:cpprest140_2_8.dll
 0002:0000021c       __imp_?string@value@json@web@@SA?AV123@V?$basic_string@_WU?$char_traits@_W@std@@V?$allocator@_W@2@@std@@@Z 1002a21c     cpprest140_2_8:cpprest140_2_8.dll
 0002:00000220       __imp_?parse@value@json@web@@SA?AV123@AAV?$basic_istream@_WU?$char_traits@_W@std@@@std@@@Z 1002a220     cpprest140_2_8:cpprest140_2_8.dll
 0002:00000224       __imp_??4value@json@web@@QAEAAV012@ABV012@@Z 1002a224     cpprest140_2_8:cpprest140_2_8.dll
 0002:00000228       __imp_??4value@json@web@@QAEAAV012@$$QAV012@@Z 1002a228     cpprest140_2_8:cpprest140_2_8.dll
 0002:0000022c       __imp_??Avalue@json@web@@QAEAAV012@I@Z 1002a22c     cpprest140_2_8:cpprest140_2_8.dll
 0002:00000230       __imp_?as_double@value@json@web@@QBENXZ 1002a230     cpprest140_2_8:cpprest140_2_8.dll
 0002:00000234       __imp_??0value@json@web@@QAE@$$QAV012@@Z 1002a234     cpprest140_2_8:cpprest140_2_8.dll
 0002:00000238       __imp_??0value@json@web@@QAE@N@Z 1002a238     cpprest140_2_8:cpprest140_2_8.dll
 0002:0000023c       __imp_??0value@json@web@@QAE@_K@Z 1002a23c     cpprest140_2_8:cpprest140_2_8.dll
 0002:00000240       __imp_??0value@json@web@@QAE@I@Z 1002a240     cpprest140_2_8:cpprest140_2_8.dll
 0002:00000244       __imp_??0value@json@web@@QAE@H@Z 1002a244     cpprest140_2_8:cpprest140_2_8.dll
 0002:00000248       __imp_??0value@json@web@@QAE@XZ 1002a248     cpprest140_2_8:cpprest140_2_8.dll
 0002:0000024c       \177cpprest140_2_8_NULL_THUNK_DATA 1002a24c     cpprest140_2_8:cpprest140_2_8.dll
 0002:00000250       __imp__WebSocketSend@16    1002a250     websocket:websocket.dll
 0002:00000254       __imp__WebSocketCreateServerHandle@12 1002a254     websocket:websocket.dll
 0002:00000258       __imp__WebSocketBeginServerHandshake@32 1002a258     websocket:websocket.dll
 0002:0000025c       __imp__WebSocketCompleteAction@12 1002a25c     websocket:websocket.dll
 0002:00000260       __imp__WebSocketReceive@12 1002a260     websocket:websocket.dll
 0002:00000264       __imp__WebSocketGetAction@32 1002a264     websocket:websocket.dll
 0002:00000268       __imp__WebSocketAbortHandle@4 1002a268     websocket:websocket.dll
 0002:0000026c       __imp__WebSocketEndServerHandshake@4 1002a26c     websocket:websocket.dll
 0002:00000270       __imp__WebSocketDeleteHandle@4 1002a270     websocket:websocket.dll
 0002:00000274       \177websocket_NULL_THUNK_DATA 1002a274     websocket:websocket.dll
 0002:00000278       __imp_?trace@log@stl@@YA_NIIPBDZZ 1002a278     xlogger:xLogger.dll
 0002:0000027c       \177xLogger_NULL_THUNK_DATA 1002a27c     xlogger:xLogger.dll
 0002:00000280       ___guard_check_icall_fptr  1002a280     MSVCRT:guard_support.obj
 0002:00000284       ___xc_a                    1002a284     MSVCRT:initializers.obj
 0002:0000028c       ___xc_z                    1002a28c     MSVCRT:initializers.obj
 0002:00000290       ___xi_a                    1002a290     MSVCRT:initializers.obj
 0002:00000298       ___xi_z                    1002a298     MSVCRT:initializers.obj
 0002:0000029c       ___xl_a                    1002a29c     MSVCRT:tlssup.obj
 0002:000002a0       ___xl_z                    1002a2a0     MSVCRT:tlssup.obj
 0002:000002a4       ___xp_a                    1002a2a4     MSVCRT:initializers.obj
 0002:000002a8       ___xp_z                    1002a2a8     MSVCRT:initializers.obj
 0002:000002ac       ___xt_a                    1002a2ac     MSVCRT:initializers.obj
 0002:000002b0       ___xt_z                    1002a2b0     MSVCRT:initializers.obj
 0002:000002c0       _GUID_ATLVer110            1002a2c0     atls:atlbase.obj
 0002:000002d0       ??_C@_1IC@ONKHOIDK@?$AAE?$AAR?$AAR?$AAO?$AAR?$AA?5?$AA?3?$AA?5?$AAU?$AAn?$AAa?$AAb?$AAl?$AAe?$AA?5?$AAt?$AAo?$AA?5?$AAi?$AAn?$AAi?$AAt?$AAi?$AAa?$AAl?$AAi?$AAz?$AAe?$AA?5?$AAc?$AAr?$AAi@ 1002a2d0     atls:atlbase.obj
 0002:00000354       ??_C@_1BK@MGMFAEKH@?$AAk?$AAe?$AAr?$AAn?$AAe?$AAl?$AA3?$AA2?$AA?4?$AAd?$AAl?$AAl?$AA?$AA@ 1002a354     MSVCRT:thread_safe_statics.obj
 0002:00000370       ??_C@_0BM@HLJJNPAH@InitializeConditionVariable?$AA@ 1002a370     MSVCRT:thread_safe_statics.obj
 0002:0000038c       ??_C@_0BJ@JEBJOJFJ@SleepConditionVariableCS?$AA@ 1002a38c     MSVCRT:thread_safe_statics.obj
 0002:000003a8       ??_C@_0BJ@PGPPEPCC@WakeAllConditionVariable?$AA@ 1002a3a8     MSVCRT:thread_safe_statics.obj
 0002:000003c8       ??_7type_info@@6B@         1002a3c8     MSVCRT:std_type_info_static.obj
 0002:000003d4       __pDefaultRawDllMain       1002a3d4     MSVCRT:dll_dllmain.obj
 0002:000003d4       __pRawDllMain              1002a3d4     MSVCRT:dll_dllmain.obj
 0002:000003dc       ??_7exception@std@@6B@     1002a3dc     MSVCRT:throw_bad_alloc.obj
 0002:000003e8       ??_7bad_alloc@std@@6B@     1002a3e8     MSVCRT:throw_bad_alloc.obj
 0002:000003f0       ??_C@_0P@GHFPNOJB@bad?5allocation?$AA@ 1002a3f0     MSVCRT:throw_bad_alloc.obj
 0002:00000404       ??_7bad_array_new_length@std@@6B@ 1002a404     MSVCRT:throw_bad_alloc.obj
 0002:0000040c       ??_C@_0BF@KINCDENJ@bad?5array?5new?5length?$AA@ 1002a40c     MSVCRT:throw_bad_alloc.obj
 0002:00000424       ??_C@_0BC@EOODALEL@Unknown?5exception?$AA@ 1002a424     ClientProtocolImpl.obj
 0002:000044e8       ??_C@_0BA@JFNIOLAK@string?5too?5long?$AA@ 1002e4e8     ClientProtocolImpl.obj
 0002:000044f8       ??_C@_0BI@CFPLBAOH@invalid?5string?5position?$AA@ 1002e4f8     ClientProtocolImpl.obj
 0002:00004514       ??_7ClientProtocol@@6BISocketEvents@@@ 1002e514     ClientProtocolImpl.obj
 0002:00004524       ??_7ClientProtocol@@6BIClientProtocol@@@ 1002e524     ClientProtocolImpl.obj
 0002:00004550       ??_7ISocketEvents@@6B@     1002e550     ClientProtocolImpl.obj
 0002:00004560       ??_7IClientProtocol@@6B@   1002e560     ClientProtocolImpl.obj
 0002:00004588       ??_C@_0BE@NNIJINN@IDispatch?5error?5?$CD?$CFd?$AA@ 1002e588     ClientSession.obj
 0002:0000459c       ??_C@_0BF@IPPGFENJ@Unknown?5error?50x?$CF0lX?$AA@ 1002e59c     ClientSession.obj
 0002:000045b4       ??_C@_0BB@MOGOBHAF@list?$DMT?$DO?5too?5long?$AA@ 1002e5b4     ClientSession.obj
 0002:000045c8       ??_C@_0BE@JONHPENG@map?1set?$DMT?$DO?5too?5long?$AA@ 1002e5c8     ClientSession.obj
 0002:000045e0       ??_7ClientSession@@6B@     1002e5e0     ClientSession.obj
 0002:00004620       ??_7IClientSession@@6B@    1002e620     ClientSession.obj
 0002:00004660       ??_7_com_error@@6B@        1002e660     ClientSession.obj
 0002:00004668       ??_7IClientSessionMgr@@6B@ 1002e668     ClientSession.obj
 0002:00004698       ??_7ClientSessionMgr@@6B@  1002e698     ClientSession.obj
 0002:000046c4       ?npos@?$basic_string@_WU?$char_traits@_W@std@@V?$allocator@_W@2@@std@@2IB 1002e6c4     JSONHandler.obj
 0002:000046c4       ?npos@?$basic_string@DU?$char_traits@D@std@@V?$allocator@D@2@@std@@2IB 1002e6c4     ClientSession.obj
 0002:000046c8       ??_8?$basic_stringstream@_WU?$char_traits@_W@std@@V?$allocator@_W@2@@std@@7B?$basic_ostream@_WU?$char_traits@_W@std@@@1@@ 1002e6c8     JSONHandler.obj
 0002:000046d4       ??_7?$basic_stringbuf@_WU?$char_traits@_W@std@@V?$allocator@_W@2@@std@@6B@ 1002e6d4     JSONHandler.obj
 0002:00004714       ??_7?$basic_stringstream@_WU?$char_traits@_W@std@@V?$allocator@_W@2@@std@@6B@ 1002e714     JSONHandler.obj
 0002:00004718       ??_8?$basic_stringstream@_WU?$char_traits@_W@std@@V?$allocator@_W@2@@std@@7B?$basic_istream@_WU?$char_traits@_W@std@@@1@@ 1002e718     JSONHandler.obj
 0002:00004724       ??_7ServerProtocol@@6BISocketEvents@@@ 1002e724     ServerProtocolImpl.obj
 0002:00004734       ??_7ServerProtocol@@6BIServerProtocol@@@ 1002e734     ServerProtocolImpl.obj
 0002:00004758       ??_7IServerProtocol@@6B@   1002e758     ServerProtocolImpl.obj
 0002:000047f0       __load_config_used         1002e7f0     MSVCRT:loadcfg.obj
 0002:0000484c       __tls_used                 1002e84c     MSVCRT:tlssup.obj
 0002:00004864       ??_R4type_info@@6B@        1002e864     MSVCRT:std_type_info_static.obj
 0002:00004878       ??_R3type_info@@8          1002e878     MSVCRT:std_type_info_static.obj
 0002:00004888       ??_R2type_info@@8          1002e888     MSVCRT:std_type_info_static.obj
 0002:00004890       ??_R1A@?0A@EA@type_info@@8 1002e890     MSVCRT:std_type_info_static.obj
 0002:000048ac       ??_R4bad_alloc@std@@6B@    1002e8ac     MSVCRT:throw_bad_alloc.obj
 0002:000048c0       ??_R3bad_alloc@std@@8      1002e8c0     MSVCRT:throw_bad_alloc.obj
 0002:000048d0       ??_R2bad_alloc@std@@8      1002e8d0     MSVCRT:throw_bad_alloc.obj
 0002:000048dc       ??_R1A@?0A@EA@bad_alloc@std@@8 1002e8dc     MSVCRT:throw_bad_alloc.obj
 0002:000048f8       ??_R4bad_array_new_length@std@@6B@ 1002e8f8     MSVCRT:throw_bad_alloc.obj
 0002:0000490c       ??_R3bad_array_new_length@std@@8 1002e90c     MSVCRT:throw_bad_alloc.obj
 0002:0000491c       ??_R2bad_array_new_length@std@@8 1002e91c     MSVCRT:throw_bad_alloc.obj
 0002:0000492c       ??_R1A@?0A@EA@bad_array_new_length@std@@8 1002e92c     MSVCRT:throw_bad_alloc.obj
 0002:00004948       ??_R4exception@std@@6B@    1002e948     ClientProtocolImpl.obj
 0002:0000495c       ??_R3IClientProtocol@@8    1002e95c     ClientProtocolImpl.obj
 0002:0000496c       ??_R1A@?0A@EA@exception@std@@8 1002e96c     ClientProtocolImpl.obj
 0002:00004988       ??_R1A@?0A@EA@IClientProtocol@@8 1002e988     ClientProtocolImpl.obj
 0002:000049a4       ??_R4IClientProtocol@@6B@  1002e9a4     ClientProtocolImpl.obj
 0002:000049b8       ??_R2exception@std@@8      1002e9b8     ClientProtocolImpl.obj
 0002:000049c0       ??_R3ISocketEvents@@8      1002e9c0     ClientProtocolImpl.obj
 0002:000049d0       ??_R4ClientProtocol@@6BISocketEvents@@@ 1002e9d0     ClientProtocolImpl.obj
 0002:000049e4       ??_R4ClientProtocol@@6BIClientProtocol@@@ 1002e9e4     ClientProtocolImpl.obj
 0002:000049f8       ??_R2ISocketEvents@@8      1002e9f8     ClientProtocolImpl.obj
 0002:00004a00       ??_R2ClientProtocol@@8     1002ea00     ClientProtocolImpl.obj
 0002:00004a10       ??_R2IClientProtocol@@8    1002ea10     ClientProtocolImpl.obj
 0002:00004a18       ??_R4ISocketEvents@@6B@    1002ea18     ClientProtocolImpl.obj
 0002:00004a2c       ??_R3exception@std@@8      1002ea2c     ClientProtocolImpl.obj
 0002:00004a3c       ??_R3ClientProtocol@@8     1002ea3c     ClientProtocolImpl.obj
 0002:00004a4c       ??_R13?0A@EN@ISocketEvents@@8 1002ea4c     ClientProtocolImpl.obj
 0002:00004a68       ??_R1A@?0A@EA@ISocketEvents@@8 1002ea68     ClientProtocolImpl.obj
 0002:00004a84       ??_R1A@?0A@EA@ClientProtocol@@8 1002ea84     ClientProtocolImpl.obj
 0002:00004aa0       ??_R3ClientSessionMgr@@8   1002eaa0     ClientSession.obj
 0002:00004ab0       ??_R1A@?0A@EA@ClientSessionMgr@@8 1002eab0     ClientSession.obj
 0002:00004acc       ??_R4IClientSessionMgr@@6B@ 1002eacc     ClientSession.obj
 0002:00004ae0       ??_R2ClientSessionMgr@@8   1002eae0     ClientSession.obj
 0002:00004aec       ??_R2IClientSessionMgr@@8  1002eaec     ClientSession.obj
 0002:00004af4       ??_R4ClientSessionMgr@@6B@ 1002eaf4     ClientSession.obj
 0002:00004b08       ??_R2_com_error@@8         1002eb08     ClientSession.obj
 0002:00004b10       ??_R1A@?0A@EA@IClientSessionMgr@@8 1002eb10     ClientSession.obj
 0002:00004b2c       ??_R1A@?0A@EA@IClientSession@@8 1002eb2c     ClientSession.obj
 0002:00004b48       ??_R2IClientSession@@8     1002eb48     ClientSession.obj
 0002:00004b50       ??_R4_com_error@@6B@       1002eb50     ClientSession.obj
 0002:00004b64       ??_R3IClientSessionMgr@@8  1002eb64     ClientSession.obj
 0002:00004b74       ??_R2ClientSession@@8      1002eb74     ClientSession.obj
 0002:00004b80       ??_R1A@?0A@EA@_com_error@@8 1002eb80     ClientSession.obj
 0002:00004b9c       ??_R3IClientSession@@8     1002eb9c     ClientSession.obj
 0002:00004bac       ??_R3_com_error@@8         1002ebac     ClientSession.obj
 0002:00004bbc       ??_R1A@?0A@EA@ClientSession@@8 1002ebbc     ClientSession.obj
 0002:00004bd8       ??_R3ClientSession@@8      1002ebd8     ClientSession.obj
 0002:00004be8       ??_R4ClientSession@@6B@    1002ebe8     ClientSession.obj
 0002:00004bfc       ??_R4IClientSession@@6B@   1002ebfc     ClientSession.obj
 0002:00004c10       ??_R1A@?0A@EA@?$basic_iostream@_WU?$char_traits@_W@std@@@std@@8 1002ec10     JSONHandler.obj
 0002:00004c2c       ??_R3?$basic_ios@_WU?$char_traits@_W@std@@@std@@8 1002ec2c     JSONHandler.obj
 0002:00004c3c       ??_R1A@?0A@EA@ios_base@std@@8 1002ec3c     JSONHandler.obj
 0002:00004c58       ??_R2?$basic_stringbuf@_WU?$char_traits@_W@std@@V?$allocator@_W@2@@std@@8 1002ec58     JSONHandler.obj
 0002:00004c64       ??_R1A@?0A@EA@?$_Iosb@H@std@@8 1002ec64     JSONHandler.obj
 0002:00004c80       ??_R1A@?0A@EA@?$basic_streambuf@_WU?$char_traits@_W@std@@@std@@8 1002ec80     JSONHandler.obj
 0002:00004c9c       ??_R3?$basic_istream@_WU?$char_traits@_W@std@@@std@@8 1002ec9c     JSONHandler.obj
 0002:00004cac       ??_R1BA@?0A@EA@?$basic_ostream@_WU?$char_traits@_W@std@@@std@@8 1002ecac     JSONHandler.obj
 0002:00004cc8       ??_R2?$basic_istream@_WU?$char_traits@_W@std@@@std@@8 1002ecc8     JSONHandler.obj
 0002:00004cdc       ??_R1A@?0A@EA@?$basic_ostream@_WU?$char_traits@_W@std@@@std@@8 1002ecdc     JSONHandler.obj
 0002:00004cf8       ??_R2ios_base@std@@8       1002ecf8     JSONHandler.obj
 0002:00004d04       ??_R3?$basic_streambuf@_WU?$char_traits@_W@std@@@std@@8 1002ed04     JSONHandler.obj
 0002:00004d14       ??_R1A@A@3FA@?$basic_ios@_WU?$char_traits@_W@std@@@std@@8 1002ed14     JSONHandler.obj
 0002:00004d30       ??_R3ios_base@std@@8       1002ed30     JSONHandler.obj
 0002:00004d40       ??_R1A@?0A@EA@?$basic_ios@_WU?$char_traits@_W@std@@@std@@8 1002ed40     JSONHandler.obj
 0002:00004d5c       ??_R2?$_Iosb@H@std@@8      1002ed5c     JSONHandler.obj
 0002:00004d64       ??_R1A@A@3EA@ios_base@std@@8 1002ed64     JSONHandler.obj
 0002:00004d80       ??_R3?$_Iosb@H@std@@8      1002ed80     JSONHandler.obj
 0002:00004d90       ??_R17?0A@EA@?$_Iosb@H@std@@8 1002ed90     JSONHandler.obj
 0002:00004dac       ??_R3?$basic_ostream@_WU?$char_traits@_W@std@@@std@@8 1002edac     JSONHandler.obj
 0002:00004dbc       ??_R2?$basic_streambuf@_WU?$char_traits@_W@std@@@std@@8 1002edbc     JSONHandler.obj
 0002:00004dc4       ??_R4?$basic_stringbuf@_WU?$char_traits@_W@std@@V?$allocator@_W@2@@std@@6B@ 1002edc4     JSONHandler.obj
 0002:00004dd8       ??_R3?$basic_stringstream@_WU?$char_traits@_W@std@@V?$allocator@_W@2@@std@@8 1002edd8     JSONHandler.obj
 0002:00004de8       ??_R2?$basic_ostream@_WU?$char_traits@_W@std@@@std@@8 1002ede8     JSONHandler.obj
 0002:00004dfc       ??_R3?$basic_iostream@_WU?$char_traits@_W@std@@@std@@8 1002edfc     JSONHandler.obj
 0002:00004e0c       ??_R17A@3EA@?$_Iosb@H@std@@8 1002ee0c     JSONHandler.obj
 0002:00004e28       ??_R2?$basic_stringstream@_WU?$char_traits@_W@std@@V?$allocator@_W@2@@std@@8 1002ee28     JSONHandler.obj
 0002:00004e54       ??_R1A@?0A@EA@?$basic_stringbuf@_WU?$char_traits@_W@std@@V?$allocator@_W@2@@std@@8 1002ee54     JSONHandler.obj
 0002:00004e70       ??_R1A@?0A@EA@?$basic_stringstream@_WU?$char_traits@_W@std@@V?$allocator@_W@2@@std@@8 1002ee70     JSONHandler.obj
 0002:00004e8c       ??_R2?$basic_iostream@_WU?$char_traits@_W@std@@@std@@8 1002ee8c     JSONHandler.obj
 0002:00004eb4       ??_R1A@?0A@EA@?$basic_istream@_WU?$char_traits@_W@std@@@std@@8 1002eeb4     JSONHandler.obj
 0002:00004ed0       ??_R4?$basic_stringstream@_WU?$char_traits@_W@std@@V?$allocator@_W@2@@std@@6B@ 1002eed0     JSONHandler.obj
 0002:00004ee4       ??_R2?$basic_ios@_WU?$char_traits@_W@std@@@std@@8 1002eee4     JSONHandler.obj
 0002:00004ef4       ??_R3?$basic_stringbuf@_WU?$char_traits@_W@std@@V?$allocator@_W@2@@std@@8 1002eef4     JSONHandler.obj
 0002:00004f04       ??_R4IServerProtocol@@6B@  1002ef04     ServerProtocolImpl.obj
 0002:00004f18       ??_R13?0A@EA@ISocketEvents@@8 1002ef18     ServerProtocolImpl.obj
 0002:00004f34       ??_R1A@?0A@EA@IServerProtocol@@8 1002ef34     ServerProtocolImpl.obj
 0002:00004f50       ??_R3IServerProtocol@@8    1002ef50     ServerProtocolImpl.obj
 0002:00004f60       ??_R2ServerProtocol@@8     1002ef60     ServerProtocolImpl.obj
 0002:00004f70       ??_R4ServerProtocol@@6BIServerProtocol@@@ 1002ef70     ServerProtocolImpl.obj
 0002:00004f84       ??_R3ServerProtocol@@8     1002ef84     ServerProtocolImpl.obj
 0002:00004f94       ??_R2IServerProtocol@@8    1002ef94     ServerProtocolImpl.obj
 0002:00004f9c       ??_R1A@?0A@EA@ServerProtocol@@8 1002ef9c     ServerProtocolImpl.obj
 0002:00004fb8       ??_R4ServerProtocol@@6BISocketEvents@@@ 1002efb8     ServerProtocolImpl.obj
 0002:00004fd0       ___safe_se_handler_table   1002efd0     <linker-defined>
 0002:00005430       ___rtc_iaa                 1002f430     MSVCRT:_initsect_.obj
 0002:00005434       ___rtc_izz                 1002f434     MSVCRT:_initsect_.obj
 0002:00005438       ___rtc_taa                 1002f438     MSVCRT:_initsect_.obj
 0002:0000543c       ___rtc_tzz                 1002f43c     MSVCRT:_initsect_.obj
 0002:000079ec       __TI2?AVbad_alloc@std@@    100319ec     MSVCRT:throw_bad_alloc.obj
 0002:000079fc       __CTA2?AVbad_alloc@std@@   100319fc     MSVCRT:throw_bad_alloc.obj
 0002:00007a08       __CT??_R0?AVbad_alloc@std@@@8??0bad_alloc@std@@QAE@ABV01@@Z12 10031a08     MSVCRT:throw_bad_alloc.obj
 0002:00007a24       __TI3?AVbad_array_new_length@std@@ 10031a24     MSVCRT:throw_bad_alloc.obj
 0002:00007a34       __CTA3?AVbad_array_new_length@std@@ 10031a34     MSVCRT:throw_bad_alloc.obj
 0002:00007a44       __CT??_R0?AVbad_array_new_length@std@@@8??0bad_array_new_length@std@@QAE@ABV01@@Z12 10031a44     MSVCRT:throw_bad_alloc.obj
 0002:00007a60       __TI1?AVexception@std@@    10031a60     ClientProtocolImpl.obj
 0002:00007a70       __CTA1?AVexception@std@@   10031a70     ClientProtocolImpl.obj
 0002:00007a78       __CT??_R0?AVexception@std@@@8??0exception@std@@QAE@ABV01@@Z12 10031a78     ClientProtocolImpl.obj
 0002:00007a94       __CTA1?AVCAtlException@ATL@@ 10031a94     JSONHandler.obj
 0002:00007a9c       __TI1?AVCAtlException@ATL@@ 10031a9c     JSONHandler.obj
 0002:00007aac       __CT??_R0?AVCAtlException@ATL@@@84 10031aac     JSONHandler.obj
 0002:00007bf4       __IMPORT_DESCRIPTOR_cpprest140_2_8 10031bf4     cpprest140_2_8:cpprest140_2_8.dll
 0002:00007c08       __IMPORT_DESCRIPTOR_WS2_32 10031c08     ws2_32:WS2_32.dll
 0002:00007c1c       __IMPORT_DESCRIPTOR_Socket 10031c1c     Socket:Socket.dll
 0002:00007c30       __IMPORT_DESCRIPTOR_xLogger 10031c30     xlogger:xLogger.dll
 0002:00007c44       __IMPORT_DESCRIPTOR_Utilities 10031c44     Utilities:Utilities.dll
 0002:00007c58       __IMPORT_DESCRIPTOR_websocket 10031c58     websocket:websocket.dll
 0002:00007c6c       __IMPORT_DESCRIPTOR_KERNEL32 10031c6c     kernel32:KERNEL32.dll
 0002:00007c80       __IMPORT_DESCRIPTOR_MSVCP140 10031c80     msvcprt:MSVCP140.dll
 0002:00007c94       __IMPORT_DESCRIPTOR_VCRUNTIME140 10031c94     vcruntime:VCRUNTIME140.dll
 0002:00007ca8       __IMPORT_DESCRIPTOR_api-ms-win-crt-runtime-l1-1-0 10031ca8     ucrt:api-ms-win-crt-runtime-l1-1-0.dll
 0002:00007cbc       __IMPORT_DESCRIPTOR_api-ms-win-crt-time-l1-1-0 10031cbc     ucrt:api-ms-win-crt-time-l1-1-0.dll
 0002:00007cd0       __IMPORT_DESCRIPTOR_api-ms-win-crt-heap-l1-1-0 10031cd0     ucrt:api-ms-win-crt-heap-l1-1-0.dll
 0002:00007ce4       __IMPORT_DESCRIPTOR_api-ms-win-crt-stdio-l1-1-0 10031ce4     ucrt:api-ms-win-crt-stdio-l1-1-0.dll
 0002:00007cf8       __IMPORT_DESCRIPTOR_api-ms-win-crt-string-l1-1-0 10031cf8     ucrt:api-ms-win-crt-string-l1-1-0.dll
 0002:00007d0c       __NULL_IMPORT_DESCRIPTOR   10031d0c     cpprest140_2_8:cpprest140_2_8.dll
 0003:00000000       __Init_global_epoch        10034000     MSVCRT:thread_safe_statics.obj
 0003:00000004       ___scrt_native_dllmain_reason 10034004     MSVCRT:utility.obj
 0003:00000008       ___security_cookie_complement 10034008     MSVCRT:gs_cookie.obj
 0003:0000000c       ___security_cookie         1003400c     MSVCRT:gs_cookie.obj
 0003:00000010       ___isa_enabled             10034010     MSVCRT:_cpu_disp_.obj
 0003:00000020       ___scrt_ucrt_dll_is_in_use 10034020     MSVCRT:ucrt_stubs.obj
 0003:00000030       __fltused                  10034030     MSVCRT:fltused.obj
 0003:00000038       ??_R0?AVtype_info@@@8      10034038     MSVCRT:std_type_info_static.obj
 0003:00000050       ??_R0?AVbad_alloc@std@@@8  10034050     MSVCRT:throw_bad_alloc.obj
 0003:0000006c       ??_R0?AVbad_array_new_length@std@@@8 1003406c     MSVCRT:throw_bad_alloc.obj
 0003:00000094       ??_R0?AVIClientProtocol@@@8 10034094     ClientProtocolImpl.obj
 0003:000000b4       ??_R0?AVISocketEvents@@@8  100340b4     ClientProtocolImpl.obj
 0003:000000d0       ??_R0?AVClientProtocol@@@8 100340d0     ClientProtocolImpl.obj
 0003:000000f0       ??_R0?AVexception@std@@@8  100340f0     ClientProtocolImpl.obj
 0003:0000010c       ??_R0?AVIClientSession@@@8 1003410c     ClientSession.obj
 0003:0000012c       ??_R0?AV_com_error@@@8     1003412c     ClientSession.obj
 0003:00000148       ??_R0?AVIClientSessionMgr@@@8 10034148     ClientSession.obj
 0003:00000168       ??_R0?AVClientSession@@@8  10034168     ClientSession.obj
 0003:00000184       ??_R0?AVClientSessionMgr@@@8 10034184     ClientSession.obj
 0003:000001a8       ??_R0?AV?$basic_stringstream@_WU?$char_traits@_W@std@@V?$allocator@_W@2@@std@@@8 100341a8     JSONHandler.obj
 0003:000001fc       ??_R0?AV?$basic_ostream@_WU?$char_traits@_W@std@@@std@@@8 100341fc     JSONHandler.obj
 0003:00000238       ??_R0?AV?$basic_ios@_WU?$char_traits@_W@std@@@std@@@8 10034238     JSONHandler.obj
 0003:00000270       ??_R0?AV?$basic_istream@_WU?$char_traits@_W@std@@@std@@@8 10034270     JSONHandler.obj
 0003:000002ac       ??_R0?AV?$basic_streambuf@_WU?$char_traits@_W@std@@@std@@@8 100342ac     JSONHandler.obj
 0003:000002f0       ??_R0?AV?$basic_stringbuf@_WU?$char_traits@_W@std@@V?$allocator@_W@2@@std@@@8 100342f0     JSONHandler.obj
 0003:00000340       ??_R0?AVios_base@std@@@8   10034340     JSONHandler.obj
 0003:0000035c       ??_R0?AVCAtlException@ATL@@@8 1003435c     JSONHandler.obj
 0003:0000037c       ??_R0?AV?$_Iosb@H@std@@@8  1003437c     JSONHandler.obj
 0003:00000398       ??_R0?AVjson_exception@json@web@@@8 10034398     JSONHandler.obj
 0003:000003c0       ??_R0?AV?$basic_iostream@_WU?$char_traits@_W@std@@@std@@@8 100343c0     JSONHandler.obj
 0003:00000400       ??_R0?AVServerProtocol@@@8 10034400     ServerProtocolImpl.obj
 0003:00000420       ??_R0?AVIServerProtocol@@@8 10034420     ServerProtocolImpl.obj
 0003:00000440       ?_AtlBaseModule@ATL@@3VCAtlBaseModule@1@A 10034440     atls:atlbase.obj
 0003:00000478       ___@@_PchSym_@00@UwwUexgllohUexHoryhUhsrkUzgonuxUhixUzgoUzgohUlyqBiUrDIGUhgwzucOlyq@D30CF1FEFB9F8AE1 10034478     atls:stdafx.obj
 0003:000004a4       ___scrt_current_native_startup_state 100344a4     MSVCRT:utility.obj
 0003:000004a8       ___scrt_native_startup_lock 100344a8     MSVCRT:utility.obj
 0003:000007e8       ___scrt_debugger_hook_flag 100347e8     MSVCRT:utility_desktop.obj
 0003:000007ec       __tls_index                100347ec     MSVCRT:tlssup.obj
 0003:000007f0       ___isa_available           100347f0     MSVCRT:_cpu_disp_.obj
 0003:000007f4       ___favor                   100347f4     MSVCRT:_cpu_disp_.obj
 0003:000007f8       ?__type_info_root_node@@3U__type_info_node@@A 100347f8     MSVCRT:tncleanup.obj
 0003:00000800       ?_OptionsStorage@?1??__local_stdio_scanf_options@@9@4_KA 10034800     MSVCRT:default_local_stdio_options.obj
 0003:0000080c       ?m_bInitFailed@CAtlBaseModule@ATL@@2_NA 1003480c     ClientProtocolImpl.obj
 0003:00000810       ?_OptionsStorage@?1??__local_stdio_printf_options@@9@4_KA 10034810     ClientSession.obj
 0003:00000818       ?g_pServerSocket@@3PAVSocket@@A 10034818     ClientSession.obj
 0003:00000820       ___dyn_tls_init_callback   10034820     <common>
 0004:00000000       __tls_start                10035000     MSVCRT:tlssup.obj
 0004:00000004       __Init_thread_epoch        10035004     MSVCRT:thread_safe_statics.obj
 0004:00000008       __tls_end                  10035008     MSVCRT:tlssup.obj

 entry point at        0001:00026068

 Static symbols

 0000:fffc5000       .debug$S                   10000000     cpprest140_2_8:cpprest140_2_8.dll
 0000:fffc5000       .debug$S                   10000000     cpprest140_2_8:cpprest140_2_8.dll
 0000:fffc5000       .debug$S                   10000000     cpprest140_2_8:cpprest140_2_8.dll
 0000:fffc5000       .debug$S                   10000000     cpprest140_2_8:cpprest140_2_8.dll
 0000:fffc5000       .debug$S                   10000000     cpprest140_2_8:cpprest140_2_8.dll
 0000:fffc5000       .debug$S                   10000000     cpprest140_2_8:cpprest140_2_8.dll
 0000:fffc5000       .debug$S                   10000000     cpprest140_2_8:cpprest140_2_8.dll
 0000:fffc5000       .debug$S                   10000000     cpprest140_2_8:cpprest140_2_8.dll
 0000:fffc5000       .debug$S                   10000000     cpprest140_2_8:cpprest140_2_8.dll
 0000:fffc5000       .debug$S                   10000000     cpprest140_2_8:cpprest140_2_8.dll
 0000:fffc5000       .debug$S                   10000000     cpprest140_2_8:cpprest140_2_8.dll
 0000:fffc5000       .debug$S                   10000000     cpprest140_2_8:cpprest140_2_8.dll
 0000:fffc5000       .debug$S                   10000000     cpprest140_2_8:cpprest140_2_8.dll
 0000:fffc5000       .debug$S                   10000000     cpprest140_2_8:cpprest140_2_8.dll
 0000:fffc5000       .debug$S                   10000000     cpprest140_2_8:cpprest140_2_8.dll
 0000:fffc5000       .debug$S                   10000000     cpprest140_2_8:cpprest140_2_8.dll
 0000:fffc5000       .debug$S                   10000000     cpprest140_2_8:cpprest140_2_8.dll
 0000:fffc5000       .debug$S                   10000000     cpprest140_2_8:cpprest140_2_8.dll
 0000:fffc5000       .debug$S                   10000000     ws2_32:WS2_32.dll
 0000:fffc5000       .debug$S                   10000000     Socket:Socket.dll
 0000:fffc5000       .debug$S                   10000000     Socket:Socket.dll
 0000:fffc5000       .debug$S                   10000000     Socket:Socket.dll
 0000:fffc5000       .debug$S                   10000000     Socket:Socket.dll
 0000:fffc5000       .debug$S                   10000000     xlogger:xLogger.dll
 0000:fffc5000       .debug$S                   10000000     Utilities:Utilities.dll
 0000:fffc5000       .debug$S                   10000000     ProtocolLib.exp
 0000:fffc5000       .debug$S                   10000000     Utilities:Utilities.dll
 0000:fffc5000       .debug$S                   10000000     websocket:websocket.dll
 0000:fffc5000       .debug$S                   10000000     websocket:websocket.dll
 0000:fffc5000       .debug$S                   10000000     websocket:websocket.dll
 0000:fffc5000       .debug$S                   10000000     websocket:websocket.dll
 0000:fffc5000       .debug$S                   10000000     websocket:websocket.dll
 0000:fffc5000       .debug$S                   10000000     websocket:websocket.dll
 0000:fffc5000       .debug$S                   10000000     ucrt:api-ms-win-crt-heap-l1-1-0.dll
 0000:fffc5000       .debug$S                   10000000     ucrt:api-ms-win-crt-heap-l1-1-0.dll
 0000:fffc5000       .debug$S                   10000000     ucrt:api-ms-win-crt-heap-l1-1-0.dll
 0000:fffc5000       .debug$S                   10000000     ucrt:api-ms-win-crt-runtime-l1-1-0.dll
 0000:fffc5000       .debug$S                   10000000     ucrt:api-ms-win-crt-runtime-l1-1-0.dll
 0000:fffc5000       .debug$S                   10000000     ucrt:api-ms-win-crt-runtime-l1-1-0.dll
 0000:fffc5000       .debug$S                   10000000     websocket:websocket.dll
 0000:fffc5000       .debug$S                   10000000     websocket:websocket.dll
 0000:fffc5000       .debug$S                   10000000     websocket:websocket.dll
 0000:fffc5000       .debug$S                   10000000     kernel32:KERNEL32.dll
 0000:fffc5000       .debug$S                   10000000     kernel32:KERNEL32.dll
 0000:fffc5000       .debug$S                   10000000     kernel32:KERNEL32.dll
 0000:fffc5000       .debug$S                   10000000     kernel32:KERNEL32.dll
 0000:fffc5000       .debug$S                   10000000     kernel32:KERNEL32.dll
 0000:fffc5000       .debug$S                   10000000     kernel32:KERNEL32.dll
 0000:fffc5000       .debug$S                   10000000     kernel32:KERNEL32.dll
 0000:fffc5000       .debug$S                   10000000     kernel32:KERNEL32.dll
 0000:fffc5000       .debug$S                   10000000     kernel32:KERNEL32.dll
 0000:fffc5000       .debug$S                   10000000     kernel32:KERNEL32.dll
 0000:fffc5000       .debug$S                   10000000     kernel32:KERNEL32.dll
 0000:fffc5000       .debug$S                   10000000     ucrt:api-ms-win-crt-heap-l1-1-0.dll
 0000:fffc5000       .debug$S                   10000000     kernel32:KERNEL32.dll
 0000:fffc5000       .debug$S                   10000000     kernel32:KERNEL32.dll
 0000:fffc5000       .debug$S                   10000000     kernel32:KERNEL32.dll
 0000:fffc5000       .debug$S                   10000000     kernel32:KERNEL32.dll
 0000:fffc5000       .debug$S                   10000000     kernel32:KERNEL32.dll
 0000:fffc5000       .debug$S                   10000000     kernel32:KERNEL32.dll
 0000:fffc5000       .debug$S                   10000000     kernel32:KERNEL32.dll
 0000:fffc5000       .debug$S                   10000000     kernel32:KERNEL32.dll
 0000:fffc5000       .debug$S                   10000000     kernel32:KERNEL32.dll
 0000:fffc5000       .debug$S                   10000000     kernel32:KERNEL32.dll
 0000:fffc5000       .debug$S                   10000000     kernel32:KERNEL32.dll
 0000:fffc5000       .debug$S                   10000000     ucrt:api-ms-win-crt-runtime-l1-1-0.dll
 0000:fffc5000       .debug$S                   10000000     ucrt:api-ms-win-crt-runtime-l1-1-0.dll
 0000:fffc5000       .debug$S                   10000000     ucrt:api-ms-win-crt-runtime-l1-1-0.dll
 0000:fffc5000       .debug$S                   10000000     ucrt:api-ms-win-crt-runtime-l1-1-0.dll
 0000:fffc5000       .debug$S                   10000000     ucrt:api-ms-win-crt-runtime-l1-1-0.dll
 0000:fffc5000       .debug$S                   10000000     ucrt:api-ms-win-crt-runtime-l1-1-0.dll
 0000:fffc5000       .debug$S                   10000000     ucrt:api-ms-win-crt-runtime-l1-1-0.dll
 0000:fffc5000       .debug$S                   10000000     ucrt:api-ms-win-crt-runtime-l1-1-0.dll
 0000:fffc5000       .debug$S                   10000000     ucrt:api-ms-win-crt-runtime-l1-1-0.dll
 0000:fffc5000       .debug$S                   10000000     ucrt:api-ms-win-crt-runtime-l1-1-0.dll
 0000:fffc5000       .debug$S                   10000000     ucrt:api-ms-win-crt-runtime-l1-1-0.dll
 0000:fffc5000       .debug$S                   10000000     ucrt:api-ms-win-crt-runtime-l1-1-0.dll
 0000:fffc5000       .debug$S                   10000000     ucrt:api-ms-win-crt-stdio-l1-1-0.dll
 0000:fffc5000       .debug$S                   10000000     ucrt:api-ms-win-crt-stdio-l1-1-0.dll
 0000:fffc5000       .debug$S                   10000000     ucrt:api-ms-win-crt-stdio-l1-1-0.dll
 0000:fffc5000       .debug$S                   10000000     ucrt:api-ms-win-crt-stdio-l1-1-0.dll
 0000:fffc5000       .debug$S                   10000000     ucrt:api-ms-win-crt-string-l1-1-0.dll
 0000:fffc5000       .debug$S                   10000000     ucrt:api-ms-win-crt-time-l1-1-0.dll
 0000:fffc5000       .debug$S                   10000000     vcruntime:VCRUNTIME140.dll
 0000:fffc5000       .debug$S                   10000000     vcruntime:VCRUNTIME140.dll
 0000:fffc5000       .debug$S                   10000000     vcruntime:VCRUNTIME140.dll
 0000:fffc5000       .debug$S                   10000000     vcruntime:VCRUNTIME140.dll
 0000:fffc5000       .debug$S                   10000000     vcruntime:VCRUNTIME140.dll
 0000:fffc5000       .debug$S                   10000000     vcruntime:VCRUNTIME140.dll
 0000:fffc5000       .debug$S                   10000000     vcruntime:VCRUNTIME140.dll
 0000:fffc5000       .debug$S                   10000000     vcruntime:VCRUNTIME140.dll
 0000:fffc5000       .debug$S                   10000000     vcruntime:VCRUNTIME140.dll
 0000:fffc5000       .debug$S                   10000000     vcruntime:VCRUNTIME140.dll
 0000:fffc5000       .debug$S                   10000000     vcruntime:VCRUNTIME140.dll
 0000:fffc5000       .debug$S                   10000000     vcruntime:VCRUNTIME140.dll
 0000:fffc5000       .debug$S                   10000000     vcruntime:VCRUNTIME140.dll
 0000:fffc5000       .debug$S                   10000000     vcruntime:VCRUNTIME140.dll
 0000:fffc5000       .debug$S                   10000000     vcruntime:VCRUNTIME140.dll
 0000:fffc5000       .debug$S                   10000000     msvcprt:MSVCP140.dll
 0000:fffc5000       .debug$S                   10000000     msvcprt:MSVCP140.dll
 0000:fffc5000       .debug$S                   10000000     msvcprt:MSVCP140.dll
 0000:fffc5000       .debug$S                   10000000     msvcprt:MSVCP140.dll
 0000:fffc5000       .debug$S                   10000000     msvcprt:MSVCP140.dll
 0000:fffc5000       .debug$S                   10000000     msvcprt:MSVCP140.dll
 0000:fffc5000       .debug$S                   10000000     msvcprt:MSVCP140.dll
 0000:fffc5000       .debug$S                   10000000     msvcprt:MSVCP140.dll
 0000:fffc5000       .debug$S                   10000000     msvcprt:MSVCP140.dll
 0000:fffc5000       .debug$S                   10000000     msvcprt:MSVCP140.dll
 0000:fffc5000       .debug$S                   10000000     msvcprt:MSVCP140.dll
 0000:fffc5000       .debug$S                   10000000     msvcprt:MSVCP140.dll
 0000:fffc5000       .debug$S                   10000000     msvcprt:MSVCP140.dll
 0000:fffc5000       .debug$S                   10000000     msvcprt:MSVCP140.dll
 0000:fffc5000       .debug$S                   10000000     msvcprt:MSVCP140.dll
 0000:fffc5000       .debug$S                   10000000     msvcprt:MSVCP140.dll
 0000:fffc5000       .debug$S                   10000000     msvcprt:MSVCP140.dll
 0000:fffc5000       .debug$S                   10000000     msvcprt:MSVCP140.dll
 0000:fffc5000       .debug$S                   10000000     msvcprt:MSVCP140.dll
 0000:fffc5000       .debug$S                   10000000     msvcprt:MSVCP140.dll
 0000:fffc5000       .debug$S                   10000000     msvcprt:MSVCP140.dll
 0000:fffc5000       .debug$S                   10000000     msvcprt:MSVCP140.dll
 0000:fffc5000       .debug$S                   10000000     msvcprt:MSVCP140.dll
 0000:fffc5000       .debug$S                   10000000     msvcprt:MSVCP140.dll
 0000:fffc5000       .debug$S                   10000000     msvcprt:MSVCP140.dll
 0000:fffc5000       .debug$S                   10000000     msvcprt:MSVCP140.dll
 0000:fffc5000       .debug$S                   10000000     msvcprt:MSVCP140.dll
 0000:fffc5000       .debug$S                   10000000     msvcprt:MSVCP140.dll
 0000:fffc5000       .debug$S                   10000000     msvcprt:MSVCP140.dll
 0000:fffc5000       .debug$S                   10000000     msvcprt:MSVCP140.dll
 0000:fffc5000       .debug$S                   10000000     msvcprt:MSVCP140.dll
 0000:fffc5000       .debug$S                   10000000     msvcprt:MSVCP140.dll
 0000:fffc5000       .debug$S                   10000000     msvcprt:MSVCP140.dll
 0000:fffc5000       .debug$S                   10000000     msvcprt:MSVCP140.dll
 0000:fffc5000       .debug$S                   10000000     msvcprt:MSVCP140.dll
 0000:fffc5000       .debug$S                   10000000     msvcprt:MSVCP140.dll
 0000:fffc5000       .debug$S                   10000000     msvcprt:MSVCP140.dll
 0000:fffc5000       .debug$S                   10000000     msvcprt:MSVCP140.dll
 0000:fffc5000       .debug$S                   10000000     msvcprt:MSVCP140.dll
 0000:fffc5000       .debug$S                   10000000     msvcprt:MSVCP140.dll
 0000:fffc5000       .debug$S                   10000000     msvcprt:MSVCP140.dll
 0000:fffc5000       .debug$S                   10000000     msvcprt:MSVCP140.dll
 0000:fffc5000       .debug$S                   10000000     msvcprt:MSVCP140.dll
 0000:fffc5000       .debug$S                   10000000     msvcprt:MSVCP140.dll
 0002:fffd6000       .idata$6                   10000000     user32:USER32.dll
 0000:fffc5000       .debug$S                   10000000     user32:USER32.dll
 0000:fffc5000       .debug$S                   10000000     kernel32:KERNEL32.dll
 0000:fffc5000       .debug$S                   10000000     kernel32:KERNEL32.dll
 0000:fffc5000       .debug$S                   10000000     kernel32:KERNEL32.dll
 0000:fffc5000       .debug$S                   10000000     kernel32:KERNEL32.dll
 0000:fffc5000       .debug$S                   10000000     kernel32:KERNEL32.dll
 0000:fffc5000       .debug$S                   10000000     kernel32:KERNEL32.dll
 0000:fffc5000       .debug$S                   10000000     kernel32:KERNEL32.dll
 0000:fffc5000       .debug$S                   10000000     kernel32:KERNEL32.dll
 0000:fffc5000       .debug$S                   10000000     kernel32:KERNEL32.dll
 0000:fffc5000       .debug$S                   10000000     kernel32:KERNEL32.dll
 0000:fffc5000       .debug$S                   10000000     kernel32:KERNEL32.dll
 0000:fffc5000       .debug$S                   10000000     kernel32:KERNEL32.dll
 0000:fffc5000       .debug$S                   10000000     kernel32:KERNEL32.dll
 0000:fffc5000       .debug$S                   10000000     kernel32:KERNEL32.dll
 0000:fffc5000       .debug$S                   10000000     kernel32:KERNEL32.dll
 0000:fffc5000       .debug$S                   10000000     kernel32:KERNEL32.dll
 0000:fffc5000       .debug$S                   10000000     kernel32:KERNEL32.dll
 0000:fffc5000       .debug$S                   10000000     kernel32:KERNEL32.dll
 0000:fffc5000       .debug$S                   10000000     kernel32:KERNEL32.dll
 0000:fffc5000       .debug$S                   10000000     kernel32:KERNEL32.dll
 0000:fffc5000       .debug$S                   10000000     ucrt:api-ms-win-crt-heap-l1-1-0.dll
 0001:00000000       ??__E_AtlBaseModule@ATL@@YAXXZ 10001000 f   atls:atlbase.obj
 0001:00000520       ?GetMessageObject@@YAPAXI@Z 10001520 f   ClientProtocolImpl.obj
 0001:000008ac       $LN60                      100018ac     ClientProtocolImpl.obj
 0001:000018af       __catch$?_Copy@?$basic_string@DU?$char_traits@D@std@@V?$allocator@D@2@@std@@QAEXII@Z$0 100028af f i ClientProtocolImpl.obj
 0001:000018dd       __catch$?_Copy@?$basic_string@DU?$char_traits@D@std@@V?$allocator@D@2@@std@@QAEXII@Z$1 100028dd f i ClientProtocolImpl.obj
 0001:0000374f       __catch$?HandleWebsocketDataFrame@ClientSession@@QAEHPADIPAVIServerProtocolEvents@@@Z$0 1000474f f   ClientSession.obj
 0001:00003786       __catch$?HandleWebsocketDataFrame@ClientSession@@QAEHPADIPAVIServerProtocolEvents@@@Z$1 10004786 f   ClientSession.obj
 0001:000049e0       __catch$?HandleRecdBuffer@ClientSession@@UAEXPADIPAVIServerProtocolEvents@@0AAH@Z$0 100059e0 f   ClientSession.obj
 0001:00004a2a       __catch$?HandleRecdBuffer@ClientSession@@UAEXPADIPAVIServerProtocolEvents@@0AAH@Z$1 10005a2a f   ClientSession.obj
 0001:00005e25       __catch$?WebsocketSend@ClientSession@@UAE_NPAXIPAVSocket@@@Z$0 10006e25 f   ClientSession.obj
 0001:00005e6e       __catch$?WebsocketSend@ClientSession@@UAE_NPAXIPAVSocket@@@Z$1 10006e6e f   ClientSession.obj
 0001:000063a3       __catch$?HandleProcessedWebsocketData@ClientSession@@QAEHPADIPAVIServerProtocolEvents@@@Z$0 100073a3 f   ClientSession.obj
 0001:000063e4       __catch$?HandleProcessedWebsocketData@ClientSession@@QAEHPADIPAVIServerProtocolEvents@@@Z$1 100073e4 f   ClientSession.obj
 0001:00006440       $LN39                      10007440     ClientSession.obj
 0001:000097dc       __catch$?_Buynode0@?$_List_alloc@U?$_List_base_types@IV?$allocator@I@std@@@std@@@std@@QAEPAU?$_List_node@IPAX@2@PAU32@0@Z$0 1000a7dc f i ClientSession.obj
 0001:000097dc       __catch$?_Buynode0@?$_List_alloc@U?$_List_base_types@PAVIClientSession@@V?$allocator@PAVIClientSession@@@std@@@std@@@std@@QAEPAU?$_List_node@PAVIClientSession@@PAX@2@PAU32@0@Z$0 1000a7dc f i ClientSession.obj
 0001:000097dc       __catch$?_Buynode0@?$_List_alloc@U?$_List_base_types@PAVIAccount@@V?$allocator@PAVIAccount@@@std@@@std@@@std@@QAEPAU?$_List_node@PAVIAccount@@PAX@2@PAU32@0@Z$0 1000a7dc f i ClientSession.obj
 0001:00009909       __catch$?_Buyheadnode@?$_Tree_comp_alloc@V?$_Tmap_traits@V?$basic_string@DU?$char_traits@D@std@@V?$allocator@D@2@@std@@V?$list@IV?$allocator@I@std@@@2@U?$less@V?$basic_string@DU?$char_traits@D@std@@V?$allocator@D@2@@std@@@2@V?$allocator@U?$pair@$$CBV?$basic_string@DU?$char_traits@D@std@@V?$allocator@D@2@@std@@V?$list@IV?$allocator@I@std@@@2@@std@@@2@$0A@@std@@@std@@QAEPAU?$_Tree_node@U?$pair@$$CBV?$basic_string@DU?$char_traits@D@std@@V?$allocator@D@2@@std@@V?$list@IV?$allocator@I@std@@@2@@std@@PAX@2@XZ$0 1000a909 f i ClientSession.obj
 0001:00009ae9       __catch$?_Buyheadnode@?$_Tree_comp_alloc@V?$_Tmap_traits@IPAVIClientSession@@U?$less@I@std@@V?$allocator@U?$pair@$$CBIPAVIClientSession@@@std@@@3@$0A@@std@@@std@@QAEPAU?$_Tree_node@U?$pair@$$CBIPAVIClientSession@@@std@@PAX@2@XZ$0 1000aae9 f i ClientSession.obj
 0001:00009e5f       __catch$??$?0U?$_Wrap_alloc@V?$allocator@U?$_Tree_node@U?$pair@$$CBIPAVIClientSession@@@std@@PAX@std@@@std@@@std@@@?$_Tree@V?$_Tmap_traits@IPAVIClientSession@@U?$less@I@std@@V?$allocator@U?$pair@$$CBIPAVIClientSession@@@std@@@3@$0A@@std@@@std@@QAE@ABV01@$$QAU?$_Wrap_alloc@V?$allocator@U?$_Tree_node@U?$pair@$$CBIPAVIClientSession@@@std@@PAX@std@@@std@@@1@@Z$0 1000ae5f f i ClientSession.obj
 0001:0000a34c       __catch$??0?$list@IV?$allocator@I@std@@@std@@QAE@ABV01@@Z$0 1000b34c f i ClientSession.obj
 0001:0000ade3       __catch$??$_Buynode@ABI@?$_List_buy@IV?$allocator@I@std@@@std@@QAEPAU?$_List_node@IPAX@1@PAU21@0ABI@Z$0 1000bde3 f i ClientSession.obj
 0001:0000ade3       __catch$??$_Buynode@I@?$_List_buy@IV?$allocator@I@std@@@std@@QAEPAU?$_List_node@IPAX@1@PAU21@0$$QAI@Z$0 1000bde3 f i ClientSession.obj
 0001:0000ade3       __catch$??$_Buynode@ABQAVIClientSession@@@?$_List_buy@PAVIClientSession@@V?$allocator@PAVIClientSession@@@std@@@std@@QAEPAU?$_List_node@PAVIClientSession@@PAX@1@PAU21@0ABQAVIClientSession@@@Z$0 1000bde3 f i ClientSession.obj
 0001:0000ade3       __catch$??$_Buynode@ABQAVIAccount@@@?$_List_buy@PAVIAccount@@V?$allocator@PAVIAccount@@@std@@@std@@QAEPAU?$_List_node@PAVIAccount@@PAX@1@PAU21@0ABQAVIAccount@@@Z$0 1000bde3 f i ClientSession.obj
 0001:0000b0f9       __catch$??$_Buynode@AAU?$pair@IPAVIClientSession@@@std@@@?$_Tree_comp_alloc@V?$_Tmap_traits@IPAVIClientSession@@U?$less@I@std@@V?$allocator@U?$pair@$$CBIPAVIClientSession@@@std@@@3@$0A@@std@@@std@@QAEPAU?$_Tree_node@U?$pair@$$CBIPAVIClientSession@@@std@@PAX@1@AAU?$pair@IPAVIClientSession@@@1@@Z$0 1000c0f9 f i ClientSession.obj
 0001:0000b42d       __catch$??$_Insert_nohint@AAU?$pair@$$CBIPAVIClientSession@@@std@@PAU?$_Tree_node@U?$pair@$$CBIPAVIClientSession@@@std@@PAX@2@@?$_Tree@V?$_Tmap_traits@IPAVIClientSession@@U?$less@I@std@@V?$allocator@U?$pair@$$CBIPAVIClientSession@@@std@@@3@$0A@@std@@@std@@IAE?AU?$pair@V?$_Tree_iterator@V?$_Tree_val@U?$_Tree_simple_types@U?$pair@$$CBIPAVIClientSession@@@std@@@std@@@std@@@std@@_N@1@_NAAU?$pair@$$CBIPAVIClientSession@@@1@PAU?$_Tree_node@U?$pair@$$CBIPAVIClientSession@@@std@@PAX@1@@Z$0 1000c42d f i ClientSession.obj
 0001:0000b509       __catch$??$_Buynode@AAU?$pair@V?$basic_string@DU?$char_traits@D@std@@V?$allocator@D@2@@std@@V?$list@IV?$allocator@I@std@@@2@@std@@@?$_Tree_comp_alloc@V?$_Tmap_traits@V?$basic_string@DU?$char_traits@D@std@@V?$allocator@D@2@@std@@V?$list@IV?$allocator@I@std@@@2@U?$less@V?$basic_string@DU?$char_traits@D@std@@V?$allocator@D@2@@std@@@2@V?$allocator@U?$pair@$$CBV?$basic_string@DU?$char_traits@D@std@@V?$allocator@D@2@@std@@V?$list@IV?$allocator@I@std@@@2@@std@@@2@$0A@@std@@@std@@QAEPAU?$_Tree_node@U?$pair@$$CBV?$basic_string@DU?$char_traits@D@std@@V?$allocator@D@2@@std@@V?$list@IV?$allocator@I@std@@@2@@std@@PAX@1@AAU?$pair@V?$basic_string@DU?$char_traits@D@std@@V?$allocator@D@2@@std@@V?$list@IV?$allocator@I@std@@@2@@1@@Z$0 1000c509 f i ClientSession.obj
 0001:0000b83d       __catch$??$_Insert_nohint@AAU?$pair@$$CBV?$basic_string@DU?$char_traits@D@std@@V?$allocator@D@2@@std@@V?$list@IV?$allocator@I@std@@@2@@std@@PAU?$_Tree_node@U?$pair@$$CBV?$basic_string@DU?$char_traits@D@std@@V?$allocator@D@2@@std@@V?$list@IV?$allocator@I@std@@@2@@std@@PAX@2@@?$_Tree@V?$_Tmap_traits@V?$basic_string@DU?$char_traits@D@std@@V?$allocator@D@2@@std@@V?$list@IV?$allocator@I@std@@@2@U?$less@V?$basic_string@DU?$char_traits@D@std@@V?$allocator@D@2@@std@@@2@V?$allocator@U?$pair@$$CBV?$basic_string@DU?$char_traits@D@std@@V?$allocator@D@2@@std@@V?$list@IV?$allocator@I@std@@@2@@std@@@2@$0A@@std@@@std@@IAE?AU?$pair@V?$_Tree_iterator@V?$_Tree_val@U?$_Tree_simple_types@U?$pair@$$CBV?$basic_string@DU?$char_traits@D@std@@V?$allocator@D@2@@std@@V?$list@IV?$allocator@I@std@@@2@@std@@@std@@@std@@@std@@_N@1@_NAAU?$pair@$$CBV?$basic_string@DU?$char_traits@D@std@@V?$allocator@D@2@@std@@V?$list@IV?$allocator@I@std@@@2@@1@PAU?$_Tree_node@U?$pair@$$CBV?$basic_string@DU?$char_traits@D@std@@V?$allocator@D@2@@std@@V?$list@IV?$allocator@I@std@@@2@@std@@PAX@1@@Z$0 1000c83d f i ClientSession.obj
 0001:0000bb34       __catch$??$_Copy_nodes@U_Copy_tag@?$_Tree@V?$_Tmap_traits@IPAVIClientSession@@U?$less@I@std@@V?$allocator@U?$pair@$$CBIPAVIClientSession@@@std@@@3@$0A@@std@@@std@@@?$_Tree@V?$_Tmap_traits@IPAVIClientSession@@U?$less@I@std@@V?$allocator@U?$pair@$$CBIPAVIClientSession@@@std@@@3@$0A@@std@@@std@@IAEPAU?$_Tree_node@U?$pair@$$CBIPAVIClientSession@@@std@@PAX@1@PAU21@0U_Copy_tag@01@@Z$0 1000cb34 f i ClientSession.obj
 0001:0000bc4c       __catch$??$_Insert_range@V?$_List_const_iterator@V?$_List_val@U?$_List_simple_types@I@std@@@std@@@std@@@?$list@IV?$allocator@I@std@@@std@@QAEXV?$_List_unchecked_const_iterator@V?$_List_val@U?$_List_simple_types@I@std@@@std@@U_Iterator_base0@2@@1@V?$_List_const_iterator@V?$_List_val@U?$_List_simple_types@I@std@@@std@@@1@1Uforward_iterator_tag@1@@Z$0 1000cc4c f i ClientSession.obj
 0001:0000bdf8       __catch$?_Buynode0@?$_Tree_comp_alloc@V?$_Tmap_traits@V?$basic_string@DU?$char_traits@D@std@@V?$allocator@D@2@@std@@V?$list@IV?$allocator@I@std@@@2@U?$less@V?$basic_string@DU?$char_traits@D@std@@V?$allocator@D@2@@std@@@2@V?$allocator@U?$pair@$$CBV?$basic_string@DU?$char_traits@D@std@@V?$allocator@D@2@@std@@V?$list@IV?$allocator@I@std@@@2@@std@@@2@$0A@@std@@@std@@QAEPAU?$_Tree_node@U?$pair@$$CBV?$basic_string@DU?$char_traits@D@std@@V?$allocator@D@2@@std@@V?$list@IV?$allocator@I@std@@@2@@std@@PAX@2@XZ$0 1000cdf8 f i ClientSession.obj
 0001:0000bf88       __catch$?_Buynode0@?$_Tree_comp_alloc@V?$_Tmap_traits@IPAVIClientSession@@U?$less@I@std@@V?$allocator@U?$pair@$$CBIPAVIClientSession@@@std@@@3@$0A@@std@@@std@@QAEPAU?$_Tree_node@U?$pair@$$CBIPAVIClientSession@@@std@@PAX@2@XZ$0 1000cf88 f i ClientSession.obj
 0001:0000cba3       __catch$??$_Buynode@ABUpiecewise_construct_t@std@@V?$tuple@ABI@2@V?$tuple@$$V@2@@?$_Tree_comp_alloc@V?$_Tmap_traits@IPAVIClientSession@@U?$less@I@std@@V?$allocator@U?$pair@$$CBIPAVIClientSession@@@std@@@3@$0A@@std@@@std@@QAEPAU?$_Tree_node@U?$pair@$$CBIPAVIClientSession@@@std@@PAX@1@ABUpiecewise_construct_t@1@$$QAV?$tuple@ABI@1@$$QAV?$tuple@$$V@1@@Z$0 1000dba3 f i ClientSession.obj
 0001:0000d5e4       __catch$??$_Insert_hint@AAU?$pair@$$CBIPAVIClientSession@@@std@@PAU?$_Tree_node@U?$pair@$$CBIPAVIClientSession@@@std@@PAX@2@@?$_Tree@V?$_Tmap_traits@IPAVIClientSession@@U?$less@I@std@@V?$allocator@U?$pair@$$CBIPAVIClientSession@@@std@@@3@$0A@@std@@@std@@IAE?AV?$_Tree_iterator@V?$_Tree_val@U?$_Tree_simple_types@U?$pair@$$CBIPAVIClientSession@@@std@@@std@@@std@@@1@V?$_Tree_const_iterator@V?$_Tree_val@U?$_Tree_simple_types@U?$pair@$$CBIPAVIClientSession@@@std@@@std@@@std@@@1@AAU?$pair@$$CBIPAVIClientSession@@@1@PAU?$_Tree_node@U?$pair@$$CBIPAVIClientSession@@@std@@PAX@1@@Z$0 1000e5e4 f i ClientSession.obj
 0001:0000d8f9       __catch$??$_Buynode@AAU?$pair@$$CBIPAVIClientSession@@@std@@@?$_Tree_comp_alloc@V?$_Tmap_traits@IPAVIClientSession@@U?$less@I@std@@V?$allocator@U?$pair@$$CBIPAVIClientSession@@@std@@@3@$0A@@std@@@std@@QAEPAU?$_Tree_node@U?$pair@$$CBIPAVIClientSession@@@std@@PAX@1@AAU?$pair@$$CBIPAVIClientSession@@@1@@Z$0 1000e8f9 f i ClientSession.obj
 0001:0000df20       ?GetMessageObject@@YAPAXI@Z 1000ef20 f   JSONHandler.obj
 0001:0000e2ac       $LN60                      1000f2ac     JSONHandler.obj
 0001:00016791       __catch$?GetObjectFromJSON@JSONHandler@@SAPAXPADIAAH@Z$0 10017791 f   JSONHandler.obj
 0001:0001683a       __catch$?GetObjectFromJSON@JSONHandler@@SAPAXPADIAAH@Z$1 1001783a f   JSONHandler.obj
 0001:0001690c       $LN546                     1001790c     JSONHandler.obj
 0001:00016948       $LN476                     10017948     JSONHandler.obj
 0001:00022c05       __catch$?GetJSONFromObject@JSONHandler@@SA_NPAXHAAV?$basic_string@DU?$char_traits@D@std@@V?$allocator@D@2@@std@@AAI@Z$0 10023c05 f   JSONHandler.obj
 0001:00022c3c       __catch$?GetJSONFromObject@JSONHandler@@SA_NPAXHAAV?$basic_string@DU?$char_traits@D@std@@V?$allocator@D@2@@std@@AAI@Z$1 10023c3c f   JSONHandler.obj
 0001:00022c73       __catch$?GetJSONFromObject@JSONHandler@@SA_NPAXHAAV?$basic_string@DU?$char_traits@D@std@@V?$allocator@D@2@@std@@AAI@Z$2 10023c73 f   JSONHandler.obj
 0001:00022cf4       $LN800                     10023cf4     JSONHandler.obj
 0001:00022d2c       $LN797                     10023d2c     JSONHandler.obj
 0001:0002451f       __catch$?_Copy@?$basic_string@_WU?$char_traits@_W@std@@V?$allocator@_W@2@@std@@QAEXII@Z$0 1002551f f i JSONHandler.obj
 0001:0002454d       __catch$?_Copy@?$basic_string@_WU?$char_traits@_W@std@@V?$allocator@_W@2@@std@@QAEXII@Z$1 1002554d f i JSONHandler.obj
 0001:00024d9d       __catch$??$?6_WU?$char_traits@_W@std@@V?$allocator@_W@1@@std@@YAAAV?$basic_ostream@_WU?$char_traits@_W@std@@@0@AAV10@ABV?$basic_string@_WU?$char_traits@_W@std@@V?$allocator@_W@2@@0@@Z$0 10025d9d f i JSONHandler.obj
 0001:000256cb       ?__scrt_initialize_thread_safe_statics@@YAHXZ 100266cb f   MSVCRT:thread_safe_statics.obj
 0001:000257a8       ?__scrt_uninitialize_thread_safe_statics@@YAXXZ 100267a8 f   MSVCRT:thread_safe_statics.obj
 0001:000257f7       ?find_pe_section@@YAPAU_IMAGE_SECTION_HEADER@@QAEI@Z 100267f7 f   MSVCRT:utility.obj
 0001:00025d60       ?dllmain_crt_dispatch@@YGHQAUHINSTANCE__@@KQAX@Z 10026d60 f   MSVCRT:dll_dllmain.obj
 0001:00025db3       ?dllmain_crt_process_attach@@YAHQAUHINSTANCE__@@QAX@Z 10026db3 f   MSVCRT:dll_dllmain.obj
 0001:00025ec5       ?dllmain_crt_process_detach@@YAH_N@Z 10026ec5 f   MSVCRT:dll_dllmain.obj
 0001:00025f42       ?dllmain_dispatch@@YAHQAUHINSTANCE__@@KQAX@Z 10026f42 f   MSVCRT:dll_dllmain.obj
 0001:0002603e       ?dllmain_raw@@YGHQAUHINSTANCE__@@KQAX@Z 1002703e f   MSVCRT:dll_dllmain.obj
 0001:00026440       $$000000                   10027440     MSVCRT:_sehprolg4_.obj
 0001:00026680       $$000000                   10027680     MSVCRT:alloca16.obj
 0001:000266b0       $$000000                   100276b0     MSVCRT:chkstk.obj
 0001:000266f0       __unwindfunclet$??0ClientProtocol@@QAE@XZ$0 100276f0 f   ClientProtocolImpl.obj
 0001:000266f8       __ehhandler$??0ClientProtocol@@QAE@XZ 100276f8 f   ClientProtocolImpl.obj
 0001:00026720       __ehhandler$?begin@?$_Tree@V?$_Tmap_traits@V?$basic_string@DU?$char_traits@D@std@@V?$allocator@D@2@@std@@V?$list@IV?$allocator@I@std@@@2@U?$less@V?$basic_string@DU?$char_traits@D@std@@V?$allocator@D@2@@std@@@2@V?$allocator@U?$pair@$$CBV?$basic_string@DU?$char_traits@D@std@@V?$allocator@D@2@@std@@V?$list@IV?$allocator@I@std@@@2@@std@@@2@$0A@@std@@@std@@QAE?AV?$_Tree_iterator@V?$_Tree_val@U?$_Tree_simple_types@U?$pair@$$CBV?$basic_string@DU?$char_traits@D@std@@V?$allocator@D@2@@std@@V?$list@IV?$allocator@I@std@@@2@@std@@@std@@@std@@@2@XZ 10027720 f   ClientSession.obj
 0001:00026720       __ehhandler$?end@?$list@IV?$allocator@I@std@@@std@@QBE?AV?$_List_const_iterator@V?$_List_val@U?$_List_simple_types@I@std@@@std@@@2@XZ 10027720 f   ClientSession.obj
 0001:00026720       __ehhandler$?begin@?$list@IV?$allocator@I@std@@@std@@QBE?AV?$_List_const_iterator@V?$_List_val@U?$_List_simple_types@I@std@@@std@@@2@XZ 10027720 f   ClientSession.obj
 0001:00026720       __ehhandler$??1?$basic_string@DU?$char_traits@D@std@@V?$allocator@D@2@@std@@QAE@XZ 10027720 f   ClientProtocolImpl.obj
 0001:00026720       __ehhandler$??1?$basic_string@_WU?$char_traits@_W@std@@V?$allocator@_W@2@@std@@QAE@XZ 10027720 f   JSONHandler.obj
 0001:00026720       __ehhandler$??1?$_List_alloc@U?$_List_base_types@PAVIClientSession@@V?$allocator@PAVIClientSession@@@std@@@std@@@std@@QAE@XZ 10027720 f   ClientSession.obj
 0001:00026720       __ehhandler$?_Make_iter@?$list@PAVIAccount@@V?$allocator@PAVIAccount@@@std@@@std@@QBE?AV?$_List_iterator@V?$_List_val@U?$_List_simple_types@PAVIAccount@@@std@@@std@@@2@V?$_List_const_iterator@V?$_List_val@U?$_List_simple_types@PAVIAccount@@@std@@@std@@@2@@Z 10027720 f   ClientSession.obj
 0001:00026720       __ehhandler$??1?$_List_alloc@U?$_List_base_types@PAVIAccount@@V?$allocator@PAVIAccount@@@std@@@std@@@std@@QAE@XZ 10027720 f   ClientSession.obj
 0001:00026720       __ehhandler$?begin@?$list@IV?$allocator@I@std@@@std@@QAE?AV?$_List_iterator@V?$_List_val@U?$_List_simple_types@I@std@@@std@@@2@XZ 10027720 f   ClientSession.obj
 0001:00026720       __ehhandler$?end@?$list@IV?$allocator@I@std@@@std@@QAE?AV?$_List_iterator@V?$_List_val@U?$_List_simple_types@I@std@@@std@@@2@XZ 10027720 f   ClientSession.obj
 0001:00026720       __ehhandler$??1?$_Tree_comp_alloc@V?$_Tmap_traits@IPAVIClientSession@@U?$less@I@std@@V?$allocator@U?$pair@$$CBIPAVIClientSession@@@std@@@3@$0A@@std@@@std@@QAE@XZ 10027720 f   ClientSession.obj
 0001:00026720       __ehhandler$??1?$_Tree_comp_alloc@V?$_Tmap_traits@V?$basic_string@DU?$char_traits@D@std@@V?$allocator@D@2@@std@@V?$list@IV?$allocator@I@std@@@2@U?$less@V?$basic_string@DU?$char_traits@D@std@@V?$allocator@D@2@@std@@@2@V?$allocator@U?$pair@$$CBV?$basic_string@DU?$char_traits@D@std@@V?$allocator@D@2@@std@@V?$list@IV?$allocator@I@std@@@2@@std@@@2@$0A@@std@@@std@@QAE@XZ 10027720 f   ClientSession.obj
 0001:00026720       __ehhandler$?c_str@?$basic_string@_WU?$char_traits@_W@std@@V?$allocator@_W@2@@std@@QBEPB_WXZ 10027720 f   JSONHandler.obj
 0001:00026720       __ehhandler$??1ClientSession@@UAE@XZ 10027720 f   ClientSession.obj
 0001:00026720       __ehhandler$?c_str@?$basic_string@DU?$char_traits@D@std@@V?$allocator@D@2@@std@@QBEPBDXZ 10027720 f   ClientSession.obj
 0001:00026720       __ehhandler$?compare@?$basic_string@DU?$char_traits@D@std@@V?$allocator@D@2@@std@@QBEHABV12@@Z 10027720 f   ClientSession.obj
 0001:00026720       __ehhandler$??1?$list@PAVIClientSession@@V?$allocator@PAVIClientSession@@@std@@@std@@QAE@XZ 10027720 f   ClientSession.obj
 0001:00026720       __ehhandler$?begin@?$list@PAVIClientSession@@V?$allocator@PAVIClientSession@@@std@@@std@@QAE?AV?$_List_iterator@V?$_List_val@U?$_List_simple_types@PAVIClientSession@@@std@@@std@@@2@XZ 10027720 f   ClientSession.obj
 0001:00026720       __ehhandler$?end@?$list@PAVIClientSession@@V?$allocator@PAVIClientSession@@@std@@@std@@QAE?AV?$_List_iterator@V?$_List_val@U?$_List_simple_types@PAVIClientSession@@@std@@@std@@@2@XZ 10027720 f   ClientSession.obj
 0001:00026720       __ehhandler$??0?$basic_string@_WU?$char_traits@_W@std@@V?$allocator@_W@2@@std@@QAE@XZ 10027720 f   JSONHandler.obj
 0001:00026720       __ehhandler$??1?$list@PAVIAccount@@V?$allocator@PAVIAccount@@@std@@@std@@QAE@XZ 10027720 f   ClientSession.obj
 0001:00026720       __ehhandler$??1?$list@IV?$allocator@I@std@@@std@@QAE@XZ 10027720 f   ClientSession.obj
 0001:00026720       __ehhandler$??1?$_Tree@V?$_Tmap_traits@IPAVIClientSession@@U?$less@I@std@@V?$allocator@U?$pair@$$CBIPAVIClientSession@@@std@@@3@$0A@@std@@@std@@QAE@XZ 10027720 f   ClientSession.obj
 0001:00026720       __ehhandler$?begin@?$_Tree@V?$_Tmap_traits@IPAVIClientSession@@U?$less@I@std@@V?$allocator@U?$pair@$$CBIPAVIClientSession@@@std@@@3@$0A@@std@@@std@@QAE?AV?$_Tree_iterator@V?$_Tree_val@U?$_Tree_simple_types@U?$pair@$$CBIPAVIClientSession@@@std@@@std@@@std@@@2@XZ 10027720 f   ClientSession.obj
 0001:00026720       __ehhandler$?end@?$_Tree@V?$_Tmap_traits@IPAVIClientSession@@U?$less@I@std@@V?$allocator@U?$pair@$$CBIPAVIClientSession@@@std@@@3@$0A@@std@@@std@@QAE?AV?$_Tree_iterator@V?$_Tree_val@U?$_Tree_simple_types@U?$pair@$$CBIPAVIClientSession@@@std@@@std@@@std@@@2@XZ 10027720 f   ClientSession.obj
 0001:00026720       __ehhandler$??1?$basic_stringbuf@_WU?$char_traits@_W@std@@V?$allocator@_W@2@@std@@UAE@XZ 10027720 f   JSONHandler.obj
 0001:00026720       __ehhandler$??1?$_Tree@V?$_Tmap_traits@V?$basic_string@DU?$char_traits@D@std@@V?$allocator@D@2@@std@@V?$list@IV?$allocator@I@std@@@2@U?$less@V?$basic_string@DU?$char_traits@D@std@@V?$allocator@D@2@@std@@@2@V?$allocator@U?$pair@$$CBV?$basic_string@DU?$char_traits@D@std@@V?$allocator@D@2@@std@@V?$list@IV?$allocator@I@std@@@2@@std@@@2@$0A@@std@@@std@@QAE@XZ 10027720 f   ClientSession.obj
 0001:00026720       __ehhandler$?end@?$_Tree@V?$_Tmap_traits@V?$basic_string@DU?$char_traits@D@std@@V?$allocator@D@2@@std@@V?$list@IV?$allocator@I@std@@@2@U?$less@V?$basic_string@DU?$char_traits@D@std@@V?$allocator@D@2@@std@@@2@V?$allocator@U?$pair@$$CBV?$basic_string@DU?$char_traits@D@std@@V?$allocator@D@2@@std@@V?$list@IV?$allocator@I@std@@@2@@std@@@2@$0A@@std@@@std@@QAE?AV?$_Tree_iterator@V?$_Tree_val@U?$_Tree_simple_types@U?$pair@$$CBV?$basic_string@DU?$char_traits@D@std@@V?$allocator@D@2@@std@@V?$list@IV?$allocator@I@std@@@2@@std@@@std@@@std@@@2@XZ 10027720 f   ClientSession.obj
 0001:00026720       __ehhandler$??C?$unique_ptr@V_Value@details@json@web@@U?$default_delete@V_Value@details@json@web@@@std@@@std@@QBEPAV_Value@details@json@web@@XZ 10027720 f   JSONHandler.obj
 0001:00026720       __ehhandler$?_Make_iter@?$list@IV?$allocator@I@std@@@std@@QBE?AV?$_List_iterator@V?$_List_val@U?$_List_simple_types@I@std@@@std@@@2@V?$_List_const_iterator@V?$_List_val@U?$_List_simple_types@I@std@@@std@@@2@@Z 10027720 f   ClientSession.obj
 0001:00026720       __ehhandler$??1sentry@?$basic_ostream@_WU?$char_traits@_W@std@@@std@@QAE@XZ 10027720 f   JSONHandler.obj
 0001:00026720       __ehhandler$??1ClientProtocol@@UAE@XZ 10027720 f   ClientProtocolImpl.obj
 0001:00026720       __ehhandler$??1?$_List_alloc@U?$_List_base_types@IV?$allocator@I@std@@@std@@@std@@QAE@XZ 10027720 f   ClientSession.obj
 0001:00026720       __ehhandler$??0?$basic_string@DU?$char_traits@D@std@@V?$allocator@D@2@@std@@QAE@XZ 10027720 f   ClientSession.obj
 0001:00026740       __unwindfunclet$?Connect@ClientProtocol@@UAE_NPADGI@Z$0 10027740 f   ClientProtocolImpl.obj
 0001:00026748       __ehhandler$?Connect@ClientProtocol@@UAE_NPADGI@Z 10027748 f   ClientProtocolImpl.obj
 0001:00026770       __unwindfunclet$?CreateClientProtocol@@YGPAVIClientProtocol@@XZ$0 10027770 f   ClientProtocolImpl.obj
 0001:00026782       __ehhandler$?CreateClientProtocol@@YGPAVIClientProtocol@@XZ 10027782 f   ClientProtocolImpl.obj
 0001:000267a0       __unwindfunclet$??0?$basic_string@DU?$char_traits@D@std@@V?$allocator@D@2@@std@@QAE@ABV01@IIABV?$allocator@D@1@@Z$0 100277a0 f   ClientSession.obj
 0001:000267a0       __unwindfunclet$??0?$basic_string@DU?$char_traits@D@std@@V?$allocator@D@2@@std@@QAE@PBD@Z$0 100277a0 f   ClientProtocolImpl.obj
 0001:000267a0       __unwindfunclet$??0?$basic_string@_WU?$char_traits@_W@std@@V?$allocator@_W@2@@std@@QAE@PB_W@Z$0 100277a0 f   JSONHandler.obj
 0001:000267a8       __ehhandler$??0?$basic_string@DU?$char_traits@D@std@@V?$allocator@D@2@@std@@QAE@ABV01@IIABV?$allocator@D@1@@Z 100277a8 f   ClientSession.obj
 0001:000267a8       __ehhandler$??0?$basic_string@_WU?$char_traits@_W@std@@V?$allocator@_W@2@@std@@QAE@PB_W@Z 100277a8 f   JSONHandler.obj
 0001:000267a8       __ehhandler$??0?$basic_string@DU?$char_traits@D@std@@V?$allocator@D@2@@std@@QAE@PBD@Z 100277a8 f   ClientProtocolImpl.obj
 0001:000267d0       __ehhandler$?_Copy@?$basic_string@DU?$char_traits@D@std@@V?$allocator@D@2@@std@@QAEXII@Z 100277d0 f   ClientProtocolImpl.obj
 0001:000267f0       __unwindfunclet$??0ClientSession@@QAE@IPADG@Z$0 100277f0 f   ClientSession.obj
 0001:000267f8       __unwindfunclet$??0ClientSession@@QAE@IPADG@Z$1 100277f8 f   ClientSession.obj
 0001:00026806       __unwindfunclet$??0ClientSession@@QAE@IPADG@Z$2 10027806 f   ClientSession.obj
 0001:00026814       __ehhandler$??0ClientSession@@QAE@IPADG@Z 10027814 f   ClientSession.obj
 0001:00026830       __unwindfunclet$?HandleWebsocketDataFrame@ClientSession@@QAEHPADIPAVIServerProtocolEvents@@@Z$3 10027830 f   ClientSession.obj
 0001:0002683b       __ehhandler$?HandleWebsocketDataFrame@ClientSession@@QAEHPADIPAVIServerProtocolEvents@@@Z 1002783b f   ClientSession.obj
 0001:00026870       __unwindfunclet$?HandleRecdBuffer@ClientSession@@UAEXPADIPAVIServerProtocolEvents@@0AAH@Z$3 10027870 f   ClientSession.obj
 0001:0002687b       __unwindfunclet$?HandleRecdBuffer@ClientSession@@UAEXPADIPAVIServerProtocolEvents@@0AAH@Z$4 1002787b f   ClientSession.obj
 0001:00026886       __unwindfunclet$?HandleRecdBuffer@ClientSession@@UAEXPADIPAVIServerProtocolEvents@@0AAH@Z$6 10027886 f   ClientSession.obj
 0001:00026891       __unwindfunclet$?HandleRecdBuffer@ClientSession@@UAEXPADIPAVIServerProtocolEvents@@0AAH@Z$8 10027891 f   ClientSession.obj
 0001:0002689c       __unwindfunclet$?HandleRecdBuffer@ClientSession@@UAEXPADIPAVIServerProtocolEvents@@0AAH@Z$10 1002789c f   ClientSession.obj
 0001:000268a7       __ehhandler$?HandleRecdBuffer@ClientSession@@UAEXPADIPAVIServerProtocolEvents@@0AAH@Z 100278a7 f   ClientSession.obj
 0001:000268d0       __unwindfunclet$??0ClientSessionMgr@@QAE@PAVIServerProtocol@@@Z$0 100278d0 f   ClientSession.obj
 0001:000268d8       __unwindfunclet$??0ClientSessionMgr@@QAE@PAVIServerProtocol@@@Z$1 100278d8 f   ClientSession.obj
 0001:000268e3       __ehhandler$??0ClientSessionMgr@@QAE@PAVIServerProtocol@@@Z 100278e3 f   ClientSession.obj
 0001:00026900       __ehhandler$??1ClientSessionMgr@@UAE@XZ 10027900 f   ClientSession.obj
 0001:00026920       __unwindfunclet$?Add@ClientSessionMgr@@UAEXIPADG@Z$0 10027920 f   ClientSession.obj
 0001:00026932       __ehhandler$?Add@ClientSessionMgr@@UAEXIPADG@Z 10027932 f   ClientSession.obj
 0001:00026950       __unwindfunclet$?AddUserName@ClientSessionMgr@@UAEXIV?$basic_string@DU?$char_traits@D@std@@V?$allocator@D@2@@std@@@Z$0 10027950 f   ClientSession.obj
 0001:00026958       __unwindfunclet$?AddUserName@ClientSessionMgr@@UAEXIV?$basic_string@DU?$char_traits@D@std@@V?$allocator@D@2@@std@@@Z$1 10027958 f   ClientSession.obj
 0001:00026960       __unwindfunclet$?AddUserName@ClientSessionMgr@@UAEXIV?$basic_string@DU?$char_traits@D@std@@V?$allocator@D@2@@std@@@Z$2 10027960 f   ClientSession.obj
 0001:00026968       __ehhandler$?AddUserName@ClientSessionMgr@@UAEXIV?$basic_string@DU?$char_traits@D@std@@V?$allocator@D@2@@std@@@Z 10027968 f   ClientSession.obj
 0001:00026990       __unwindfunclet$?Remove@ClientSessionMgr@@UAEXI@Z$0 10027990 f   ClientSession.obj
 0001:00026998       __ehhandler$?Remove@ClientSessionMgr@@UAEXI@Z 10027998 f   ClientSession.obj
 0001:000269c0       __unwindfunclet$?GetClientSessionList@ClientSessionMgr@@UAEPAV?$list@IV?$allocator@I@std@@@std@@V?$basic_string@DU?$char_traits@D@std@@V?$allocator@D@2@@3@@Z$0 100279c0 f   ClientSession.obj
 0001:000269c8       __ehhandler$?GetClientSessionList@ClientSessionMgr@@UAEPAV?$list@IV?$allocator@I@std@@@std@@V?$basic_string@DU?$char_traits@D@std@@V?$allocator@D@2@@3@@Z 100279c8 f   ClientSession.obj
 0001:000269f0       __unwindfunclet$?ConnectionReviewer@ClientSessionMgr@@SAKPAX@Z$0 100279f0 f   ClientSession.obj
 0001:000269f8       __unwindfunclet$?ConnectionReviewer@ClientSessionMgr@@SAKPAX@Z$1 100279f8 f   ClientSession.obj
 0001:00026a00       __ehhandler$?ConnectionReviewer@ClientSessionMgr@@SAKPAX@Z 10027a00 f   ClientSession.obj
 0001:00026a20       __unwindfunclet$?WebsocketSend@ClientSession@@UAE_NPAXIPAVSocket@@@Z$3 10027a20 f   ClientSession.obj
 0001:00026a2b       __unwindfunclet$?WebsocketSend@ClientSession@@UAE_NPAXIPAVSocket@@@Z$4 10027a2b f   ClientSession.obj
 0001:00026a36       __unwindfunclet$?WebsocketSend@ClientSession@@UAE_NPAXIPAVSocket@@@Z$5 10027a36 f   ClientSession.obj
 0001:00026a41       __ehhandler$?WebsocketSend@ClientSession@@UAE_NPAXIPAVSocket@@@Z 10027a41 f   ClientSession.obj
 0001:00026a70       __unwindfunclet$?HandleProcessedWebsocketData@ClientSession@@QAEHPADIPAVIServerProtocolEvents@@@Z$3 10027a70 f   ClientSession.obj
 0001:00026a78       __ehhandler$?HandleProcessedWebsocketData@ClientSession@@QAEHPADIPAVIServerProtocolEvents@@@Z 10027a78 f   ClientSession.obj
 0001:00026aa0       __ehhandler$?clear@?$_Tree@V?$_Tmap_traits@IPAVIClientSession@@U?$less@I@std@@V?$allocator@U?$pair@$$CBIPAVIClientSession@@@std@@@3@$0A@@std@@@std@@QAEXXZ 10027aa0 f   ClientSession.obj
 0001:00026aa0       __ehhandler$?begin@?$basic_string@DU?$char_traits@D@std@@V?$allocator@D@2@@std@@QAE?AV?$_String_iterator@V?$_String_val@U?$_Simple_types@D@std@@@std@@@2@XZ 10027aa0 f   ClientSession.obj
 0001:00026aa0       __ehhandler$?clear@?$_Tree@V?$_Tmap_traits@V?$basic_string@DU?$char_traits@D@std@@V?$allocator@D@2@@std@@V?$list@IV?$allocator@I@std@@@2@U?$less@V?$basic_string@DU?$char_traits@D@std@@V?$allocator@D@2@@std@@@2@V?$allocator@U?$pair@$$CBV?$basic_string@DU?$char_traits@D@std@@V?$allocator@D@2@@std@@V?$list@IV?$allocator@I@std@@@2@@std@@@2@$0A@@std@@@std@@QAEXXZ 10027aa0 f   ClientSession.obj
 0001:00026aa0       __ehhandler$?end@?$basic_string@DU?$char_traits@D@std@@V?$allocator@D@2@@std@@QAE?AV?$_String_iterator@V?$_String_val@U?$_Simple_types@D@std@@@std@@@2@XZ 10027aa0 f   ClientSession.obj
 0001:00026ac0       __ehhandler$??1ServerProtocol@@UAE@XZ 10027ac0 f   ServerProtocolImpl.obj
 0001:00026ac0       __ehhandler$?clear@?$list@PAVIAccount@@V?$allocator@PAVIAccount@@@std@@@std@@QAEXXZ 10027ac0 f   ClientSession.obj
 0001:00026ac0       __ehhandler$??R?$default_delete@V_Value@details@json@web@@@std@@QBEXPAV_Value@details@json@web@@@Z 10027ac0 f   JSONHandler.obj
 0001:00026ac0       __ehhandler$??1_Sentry_base@?$basic_ostream@_WU?$char_traits@_W@std@@@std@@QAE@XZ 10027ac0 f   JSONHandler.obj
 0001:00026ac0       __ehhandler$?clear@?$list@IV?$allocator@I@std@@@std@@QAEXXZ 10027ac0 f   ClientSession.obj
 0001:00026ac0       __ehhandler$?clear@?$list@PAVIClientSession@@V?$allocator@PAVIClientSession@@@std@@@std@@QAEXXZ 10027ac0 f   ClientSession.obj
 0001:00026ae0       __ehhandler$??4?$basic_string@DU?$char_traits@D@std@@V?$allocator@D@2@@std@@QAEAAV01@$$QAV01@@Z 10027ae0 f   ClientSession.obj
 0001:00026b00       __unwindfunclet$??0?$basic_string@DU?$char_traits@D@std@@V?$allocator@D@2@@std@@QAE@ABV01@@Z$0 10027b00 f   ClientSession.obj
 0001:00026b00       __unwindfunclet$??0?$basic_string@_WU?$char_traits@_W@std@@V?$allocator@_W@2@@std@@QAE@ABV01@@Z$0 10027b00 f   JSONHandler.obj
 0001:00026b08       __ehhandler$??0?$basic_string@DU?$char_traits@D@std@@V?$allocator@D@2@@std@@QAE@ABV01@@Z 10027b08 f   ClientSession.obj
 0001:00026b08       __ehhandler$??0?$basic_string@_WU?$char_traits@_W@std@@V?$allocator@_W@2@@std@@QAE@ABV01@@Z 10027b08 f   JSONHandler.obj
 0001:00026b30       __ehhandler$?_Buynode0@?$_List_alloc@U?$_List_base_types@PAVIAccount@@V?$allocator@PAVIAccount@@@std@@@std@@@std@@QAEPAU?$_List_node@PAVIAccount@@PAX@2@PAU32@0@Z 10027b30 f   ClientSession.obj
 0001:00026b30       __ehhandler$?_Buynode0@?$_List_alloc@U?$_List_base_types@IV?$allocator@I@std@@@std@@@std@@QAEPAU?$_List_node@IPAX@2@PAU32@0@Z 10027b30 f   ClientSession.obj
 0001:00026b30       __ehhandler$?_Buynode0@?$_List_alloc@U?$_List_base_types@PAVIClientSession@@V?$allocator@PAVIClientSession@@@std@@@std@@@std@@QAEPAU?$_List_node@PAVIClientSession@@PAX@2@PAU32@0@Z 10027b30 f   ClientSession.obj
 0001:00026b50       __ehhandler$?_Buyheadnode@?$_Tree_comp_alloc@V?$_Tmap_traits@V?$basic_string@DU?$char_traits@D@std@@V?$allocator@D@2@@std@@V?$list@IV?$allocator@I@std@@@2@U?$less@V?$basic_string@DU?$char_traits@D@std@@V?$allocator@D@2@@std@@@2@V?$allocator@U?$pair@$$CBV?$basic_string@DU?$char_traits@D@std@@V?$allocator@D@2@@std@@V?$list@IV?$allocator@I@std@@@2@@std@@@2@$0A@@std@@@std@@QAEPAU?$_Tree_node@U?$pair@$$CBV?$basic_string@DU?$char_traits@D@std@@V?$allocator@D@2@@std@@V?$list@IV?$allocator@I@std@@@2@@std@@PAX@2@XZ 10027b50 f   ClientSession.obj
 0001:00026b70       __ehhandler$?_Buyheadnode@?$_Tree_comp_alloc@V?$_Tmap_traits@IPAVIClientSession@@U?$less@I@std@@V?$allocator@U?$pair@$$CBIPAVIClientSession@@@std@@@3@$0A@@std@@@std@@QAEPAU?$_Tree_node@U?$pair@$$CBIPAVIClientSession@@@std@@PAX@2@XZ 10027b70 f   ClientSession.obj
 0001:00026b90       __unwindfunclet$??$?0V?$basic_string@DU?$char_traits@D@std@@V?$allocator@D@2@@std@@V?$list@IV?$allocator@I@std@@@1@X$0A@@?$pair@$$CBV?$basic_string@DU?$char_traits@D@std@@V?$allocator@D@2@@std@@V?$list@IV?$allocator@I@std@@@2@@std@@QAE@ABU?$pair@V?$basic_string@DU?$char_traits@D@std@@V?$allocator@D@2@@std@@V?$list@IV?$allocator@I@std@@@2@@1@@Z$0 10027b90 f   ClientSession.obj
 0001:00026b90       __unwindfunclet$??$?0AAV?$basic_string@DU?$char_traits@D@std@@V?$allocator@D@2@@std@@AAV?$list@IV?$allocator@I@std@@@1@X$0A@@?$pair@V?$basic_string@DU?$char_traits@D@std@@V?$allocator@D@2@@std@@V?$list@IV?$allocator@I@std@@@2@@std@@QAE@AAV?$basic_string@DU?$char_traits@D@std@@V?$allocator@D@2@@1@AAV?$list@IV?$allocator@I@std@@@1@@Z$0 10027b90 f   ClientSession.obj
 0001:00026b98       __ehhandler$??$?0V?$basic_string@DU?$char_traits@D@std@@V?$allocator@D@2@@std@@V?$list@IV?$allocator@I@std@@@1@X$0A@@?$pair@$$CBV?$basic_string@DU?$char_traits@D@std@@V?$allocator@D@2@@std@@V?$list@IV?$allocator@I@std@@@2@@std@@QAE@ABU?$pair@V?$basic_string@DU?$char_traits@D@std@@V?$allocator@D@2@@std@@V?$list@IV?$allocator@I@std@@@2@@1@@Z 10027b98 f   ClientSession.obj
 0001:00026b98       __ehhandler$??$?0AAV?$basic_string@DU?$char_traits@D@std@@V?$allocator@D@2@@std@@AAV?$list@IV?$allocator@I@std@@@1@X$0A@@?$pair@V?$basic_string@DU?$char_traits@D@std@@V?$allocator@D@2@@std@@V?$list@IV?$allocator@I@std@@@2@@std@@QAE@AAV?$basic_string@DU?$char_traits@D@std@@V?$allocator@D@2@@1@AAV?$list@IV?$allocator@I@std@@@1@@Z 10027b98 f   ClientSession.obj
 0001:00026bc0       __unwindfunclet$??$?0U?$_Wrap_alloc@V?$allocator@U?$_Tree_node@U?$pair@$$CBIPAVIClientSession@@@std@@PAX@std@@@std@@@std@@@?$_Tree@V?$_Tmap_traits@IPAVIClientSession@@U?$less@I@std@@V?$allocator@U?$pair@$$CBIPAVIClientSession@@@std@@@3@$0A@@std@@@std@@QAE@ABV01@$$QAU?$_Wrap_alloc@V?$allocator@U?$_Tree_node@U?$pair@$$CBIPAVIClientSession@@@std@@PAX@std@@@std@@@1@@Z$2 10027bc0 f   ClientSession.obj
 0001:00026bc8       __ehhandler$??$?0U?$_Wrap_alloc@V?$allocator@U?$_Tree_node@U?$pair@$$CBIPAVIClientSession@@@std@@PAX@std@@@std@@@std@@@?$_Tree@V?$_Tmap_traits@IPAVIClientSession@@U?$less@I@std@@V?$allocator@U?$pair@$$CBIPAVIClientSession@@@std@@@3@$0A@@std@@@std@@QAE@ABV01@$$QAU?$_Wrap_alloc@V?$allocator@U?$_Tree_node@U?$pair@$$CBIPAVIClientSession@@@std@@PAX@std@@@std@@@1@@Z 10027bc8 f   ClientSession.obj
 0001:00026bf0       __unwindfunclet$??0?$list@IV?$allocator@I@std@@@std@@QAE@ABV01@@Z$2 10027bf0 f   ClientSession.obj
 0001:00026bf8       __ehhandler$??0?$list@IV?$allocator@I@std@@@std@@QAE@ABV01@@Z 10027bf8 f   ClientSession.obj
 0001:00026c20       __ehhandler$??$_Buynode@I@?$_List_buy@IV?$allocator@I@std@@@std@@QAEPAU?$_List_node@IPAX@1@PAU21@0$$QAI@Z 10027c20 f   ClientSession.obj
 0001:00026c20       __ehhandler$??$_Buynode@ABQAVIAccount@@@?$_List_buy@PAVIAccount@@V?$allocator@PAVIAccount@@@std@@@std@@QAEPAU?$_List_node@PAVIAccount@@PAX@1@PAU21@0ABQAVIAccount@@@Z 10027c20 f   ClientSession.obj
 0001:00026c20       __ehhandler$??$_Buynode@ABQAVIClientSession@@@?$_List_buy@PAVIClientSession@@V?$allocator@PAVIClientSession@@@std@@@std@@QAEPAU?$_List_node@PAVIClientSession@@PAX@1@PAU21@0ABQAVIClientSession@@@Z 10027c20 f   ClientSession.obj
 0001:00026c20       __ehhandler$??$_Buynode@ABI@?$_List_buy@IV?$allocator@I@std@@@std@@QAEPAU?$_List_node@IPAX@1@PAU21@0ABI@Z 10027c20 f   ClientSession.obj
 0001:00026c40       __ehhandler$??$forward_as_tuple@ABI@std@@YA?AV?$tuple@ABI@0@ABI@Z 10027c40 f   ClientSession.obj
 0001:00026c40       __ehhandler$??$_Pocma@U?$_Wrap_alloc@V?$allocator@D@std@@@std@@@std@@YAXAAU?$_Wrap_alloc@V?$allocator@D@std@@@0@0U?$integral_constant@_N$00@0@@Z 10027c40 f   ClientSession.obj
 0001:00026c60       __ehhandler$??$_Buynode@AAU?$pair@IPAVIClientSession@@@std@@@?$_Tree_comp_alloc@V?$_Tmap_traits@IPAVIClientSession@@U?$less@I@std@@V?$allocator@U?$pair@$$CBIPAVIClientSession@@@std@@@3@$0A@@std@@@std@@QAEPAU?$_Tree_node@U?$pair@$$CBIPAVIClientSession@@@std@@PAX@1@AAU?$pair@IPAVIClientSession@@@1@@Z 10027c60 f   ClientSession.obj
 0001:00026c80       __ehhandler$??$_Insert_nohint@AAU?$pair@$$CBIPAVIClientSession@@@std@@PAU?$_Tree_node@U?$pair@$$CBIPAVIClientSession@@@std@@PAX@2@@?$_Tree@V?$_Tmap_traits@IPAVIClientSession@@U?$less@I@std@@V?$allocator@U?$pair@$$CBIPAVIClientSession@@@std@@@3@$0A@@std@@@std@@IAE?AU?$pair@V?$_Tree_iterator@V?$_Tree_val@U?$_Tree_simple_types@U?$pair@$$CBIPAVIClientSession@@@std@@@std@@@std@@@std@@_N@1@_NAAU?$pair@$$CBIPAVIClientSession@@@1@PAU?$_Tree_node@U?$pair@$$CBIPAVIClientSession@@@std@@PAX@1@@Z 10027c80 f   ClientSession.obj
 0001:00026ca0       __ehhandler$??$_Buynode@AAU?$pair@V?$basic_string@DU?$char_traits@D@std@@V?$allocator@D@2@@std@@V?$list@IV?$allocator@I@std@@@2@@std@@@?$_Tree_comp_alloc@V?$_Tmap_traits@V?$basic_string@DU?$char_traits@D@std@@V?$allocator@D@2@@std@@V?$list@IV?$allocator@I@std@@@2@U?$less@V?$basic_string@DU?$char_traits@D@std@@V?$allocator@D@2@@std@@@2@V?$allocator@U?$pair@$$CBV?$basic_string@DU?$char_traits@D@std@@V?$allocator@D@2@@std@@V?$list@IV?$allocator@I@std@@@2@@std@@@2@$0A@@std@@@std@@QAEPAU?$_Tree_node@U?$pair@$$CBV?$basic_string@DU?$char_traits@D@std@@V?$allocator@D@2@@std@@V?$list@IV?$allocator@I@std@@@2@@std@@PAX@1@AAU?$pair@V?$basic_string@DU?$char_traits@D@std@@V?$allocator@D@2@@std@@V?$list@IV?$allocator@I@std@@@2@@1@@Z 10027ca0 f   ClientSession.obj
 0001:00026cc0       __ehhandler$??$_Insert_nohint@AAU?$pair@$$CBV?$basic_string@DU?$char_traits@D@std@@V?$allocator@D@2@@std@@V?$list@IV?$allocator@I@std@@@2@@std@@PAU?$_Tree_node@U?$pair@$$CBV?$basic_string@DU?$char_traits@D@std@@V?$allocator@D@2@@std@@V?$list@IV?$allocator@I@std@@@2@@std@@PAX@2@@?$_Tree@V?$_Tmap_traits@V?$basic_string@DU?$char_traits@D@std@@V?$allocator@D@2@@std@@V?$list@IV?$allocator@I@std@@@2@U?$less@V?$basic_string@DU?$char_traits@D@std@@V?$allocator@D@2@@std@@@2@V?$allocator@U?$pair@$$CBV?$basic_string@DU?$char_traits@D@std@@V?$allocator@D@2@@std@@V?$list@IV?$allocator@I@std@@@2@@std@@@2@$0A@@std@@@std@@IAE?AU?$pair@V?$_Tree_iterator@V?$_Tree_val@U?$_Tree_simple_types@U?$pair@$$CBV?$basic_string@DU?$char_traits@D@std@@V?$allocator@D@2@@std@@V?$list@IV?$allocator@I@std@@@2@@std@@@std@@@std@@@std@@_N@1@_NAAU?$pair@$$CBV?$basic_string@DU?$char_traits@D@std@@V?$allocator@D@2@@std@@V?$list@IV?$allocator@I@std@@@2@@1@PAU?$_Tree_node@U?$pair@$$CBV?$basic_string@DU?$char_traits@D@std@@V?$allocator@D@2@@std@@V?$list@IV?$allocator@I@std@@@2@@std@@PAX@1@@Z 10027cc0 f   ClientSession.obj
 0001:00026ce0       __ehhandler$??$_Copy_nodes@U_Copy_tag@?$_Tree@V?$_Tmap_traits@IPAVIClientSession@@U?$less@I@std@@V?$allocator@U?$pair@$$CBIPAVIClientSession@@@std@@@3@$0A@@std@@@std@@@?$_Tree@V?$_Tmap_traits@IPAVIClientSession@@U?$less@I@std@@V?$allocator@U?$pair@$$CBIPAVIClientSession@@@std@@@3@$0A@@std@@@std@@IAEPAU?$_Tree_node@U?$pair@$$CBIPAVIClientSession@@@std@@PAX@1@PAU21@0U_Copy_tag@01@@Z 10027ce0 f   ClientSession.obj
 0001:00026d00       __ehhandler$??$_Insert_range@V?$_List_const_iterator@V?$_List_val@U?$_List_simple_types@I@std@@@std@@@std@@@?$list@IV?$allocator@I@std@@@std@@QAEXV?$_List_unchecked_const_iterator@V?$_List_val@U?$_List_simple_types@I@std@@@std@@U_Iterator_base0@2@@1@V?$_List_const_iterator@V?$_List_val@U?$_List_simple_types@I@std@@@std@@@1@1Uforward_iterator_tag@1@@Z 10027d00 f   ClientSession.obj
 0001:00026d20       __ehhandler$?_Buynode0@?$_Tree_comp_alloc@V?$_Tmap_traits@V?$basic_string@DU?$char_traits@D@std@@V?$allocator@D@2@@std@@V?$list@IV?$allocator@I@std@@@2@U?$less@V?$basic_string@DU?$char_traits@D@std@@V?$allocator@D@2@@std@@@2@V?$allocator@U?$pair@$$CBV?$basic_string@DU?$char_traits@D@std@@V?$allocator@D@2@@std@@V?$list@IV?$allocator@I@std@@@2@@std@@@2@$0A@@std@@@std@@QAEPAU?$_Tree_node@U?$pair@$$CBV?$basic_string@DU?$char_traits@D@std@@V?$allocator@D@2@@std@@V?$list@IV?$allocator@I@std@@@2@@std@@PAX@2@XZ 10027d20 f   ClientSession.obj
 0001:00026d40       __ehhandler$?_Buynode0@?$_Tree_comp_alloc@V?$_Tmap_traits@IPAVIClientSession@@U?$less@I@std@@V?$allocator@U?$pair@$$CBIPAVIClientSession@@@std@@@3@$0A@@std@@@std@@QAEPAU?$_Tree_node@U?$pair@$$CBIPAVIClientSession@@@std@@PAX@2@XZ 10027d40 f   ClientSession.obj
 0001:00026d60       __ehhandler$??$_Buynode@ABUpiecewise_construct_t@std@@V?$tuple@ABI@2@V?$tuple@$$V@2@@?$_Tree_comp_alloc@V?$_Tmap_traits@IPAVIClientSession@@U?$less@I@std@@V?$allocator@U?$pair@$$CBIPAVIClientSession@@@std@@@3@$0A@@std@@@std@@QAEPAU?$_Tree_node@U?$pair@$$CBIPAVIClientSession@@@std@@PAX@1@ABUpiecewise_construct_t@1@$$QAV?$tuple@ABI@1@$$QAV?$tuple@$$V@1@@Z 10027d60 f   ClientSession.obj
 0001:00026d80       __ehhandler$??$_Insert_hint@AAU?$pair@$$CBIPAVIClientSession@@@std@@PAU?$_Tree_node@U?$pair@$$CBIPAVIClientSession@@@std@@PAX@2@@?$_Tree@V?$_Tmap_traits@IPAVIClientSession@@U?$less@I@std@@V?$allocator@U?$pair@$$CBIPAVIClientSession@@@std@@@3@$0A@@std@@@std@@IAE?AV?$_Tree_iterator@V?$_Tree_val@U?$_Tree_simple_types@U?$pair@$$CBIPAVIClientSession@@@std@@@std@@@std@@@1@V?$_Tree_const_iterator@V?$_Tree_val@U?$_Tree_simple_types@U?$pair@$$CBIPAVIClientSession@@@std@@@std@@@std@@@1@AAU?$pair@$$CBIPAVIClientSession@@@1@PAU?$_Tree_node@U?$pair@$$CBIPAVIClientSession@@@std@@PAX@1@@Z 10027d80 f   ClientSession.obj
 0001:00026da0       __ehhandler$??$_Buynode@AAU?$pair@$$CBIPAVIClientSession@@@std@@@?$_Tree_comp_alloc@V?$_Tmap_traits@IPAVIClientSession@@U?$less@I@std@@V?$allocator@U?$pair@$$CBIPAVIClientSession@@@std@@@3@$0A@@std@@@std@@QAEPAU?$_Tree_node@U?$pair@$$CBIPAVIClientSession@@@std@@PAX@1@AAU?$pair@$$CBIPAVIClientSession@@@1@@Z 10027da0 f   ClientSession.obj
 0001:00026dc0       __unwindfunclet$??$construct@U?$pair@$$CBV?$basic_string@DU?$char_traits@D@std@@V?$allocator@D@2@@std@@V?$list@IV?$allocator@I@std@@@2@@std@@AAU?$pair@V?$basic_string@DU?$char_traits@D@std@@V?$allocator@D@2@@std@@V?$list@IV?$allocator@I@std@@@2@@2@@?$allocator@U?$_Tree_node@U?$pair@$$CBV?$basic_string@DU?$char_traits@D@std@@V?$allocator@D@2@@std@@V?$list@IV?$allocator@I@std@@@2@@std@@PAX@std@@@std@@QAEXPAU?$pair@$$CBV?$basic_string@DU?$char_traits@D@std@@V?$allocator@D@2@@std@@V?$list@IV?$allocator@I@std@@@2@@1@AAU?$pair@V?$basic_string@DU?$char_traits@D@std@@V?$allocator@D@2@@std@@V?$list@IV?$allocator@I@std@@@2@@1@@Z$0 10027dc0 f   ClientSession.obj
 0001:00026dc0       __unwindfunclet$??$construct@U?$pair@$$CBIPAVIClientSession@@@std@@AAU?$pair@IPAVIClientSession@@@2@@?$allocator@U?$_Tree_node@U?$pair@$$CBIPAVIClientSession@@@std@@PAX@std@@@std@@QAEXPAU?$pair@$$CBIPAVIClientSession@@@1@AAU?$pair@IPAVIClientSession@@@1@@Z$0 10027dc0 f   ClientSession.obj
 0001:00026dd1       __ehhandler$??$construct@U?$pair@$$CBIPAVIClientSession@@@std@@AAU?$pair@IPAVIClientSession@@@2@@?$allocator@U?$_Tree_node@U?$pair@$$CBIPAVIClientSession@@@std@@PAX@std@@@std@@QAEXPAU?$pair@$$CBIPAVIClientSession@@@1@AAU?$pair@IPAVIClientSession@@@1@@Z 10027dd1 f   ClientSession.obj
 0001:00026dd1       __ehhandler$??$construct@U?$pair@$$CBV?$basic_string@DU?$char_traits@D@std@@V?$allocator@D@2@@std@@V?$list@IV?$allocator@I@std@@@2@@std@@AAU?$pair@V?$basic_string@DU?$char_traits@D@std@@V?$allocator@D@2@@std@@V?$list@IV?$allocator@I@std@@@2@@2@@?$allocator@U?$_Tree_node@U?$pair@$$CBV?$basic_string@DU?$char_traits@D@std@@V?$allocator@D@2@@std@@V?$list@IV?$allocator@I@std@@@2@@std@@PAX@std@@@std@@QAEXPAU?$pair@$$CBV?$basic_string@DU?$char_traits@D@std@@V?$allocator@D@2@@std@@V?$list@IV?$allocator@I@std@@@2@@1@AAU?$pair@V?$basic_string@DU?$char_traits@D@std@@V?$allocator@D@2@@std@@V?$list@IV?$allocator@I@std@@@2@@1@@Z 10027dd1 f   ClientSession.obj
 0001:00026df0       __unwindfunclet$??$construct@U?$pair@$$CBIPAVIClientSession@@@std@@ABUpiecewise_construct_t@2@V?$tuple@ABI@2@V?$tuple@$$V@2@@?$allocator@U?$_Tree_node@U?$pair@$$CBIPAVIClientSession@@@std@@PAX@std@@@std@@QAEXPAU?$pair@$$CBIPAVIClientSession@@@1@ABUpiecewise_construct_t@1@$$QAV?$tuple@ABI@1@$$QAV?$tuple@$$V@1@@Z$0 10027df0 f   ClientSession.obj
 0001:00026e01       __ehhandler$??$construct@U?$pair@$$CBIPAVIClientSession@@@std@@ABUpiecewise_construct_t@2@V?$tuple@ABI@2@V?$tuple@$$V@2@@?$allocator@U?$_Tree_node@U?$pair@$$CBIPAVIClientSession@@@std@@PAX@std@@@std@@QAEXPAU?$pair@$$CBIPAVIClientSession@@@1@ABUpiecewise_construct_t@1@$$QAV?$tuple@ABI@1@$$QAV?$tuple@$$V@1@@Z 10027e01 f   ClientSession.obj
 0001:00026e20       __unwindfunclet$?GetObjectFromJSON@JSONHandler@@SAPAXPADIAAH@Z$3 10027e20 f   JSONHandler.obj
 0001:00026e2b       __unwindfunclet$?GetObjectFromJSON@JSONHandler@@SAPAXPADIAAH@Z$4 10027e2b f   JSONHandler.obj
 0001:00026e36       __unwindfunclet$?GetObjectFromJSON@JSONHandler@@SAPAXPADIAAH@Z$5 10027e36 f   JSONHandler.obj
 0001:00026e3e       __unwindfunclet$?GetObjectFromJSON@JSONHandler@@SAPAXPADIAAH@Z$6 10027e3e f   JSONHandler.obj
 0001:00026e46       __unwindfunclet$?GetObjectFromJSON@JSONHandler@@SAPAXPADIAAH@Z$7 10027e46 f   JSONHandler.obj
 0001:00026e51       __unwindfunclet$?GetObjectFromJSON@JSONHandler@@SAPAXPADIAAH@Z$8 10027e51 f   JSONHandler.obj
 0001:00026e5c       __unwindfunclet$?GetObjectFromJSON@JSONHandler@@SAPAXPADIAAH@Z$9 10027e5c f   JSONHandler.obj
 0001:00026e67       __unwindfunclet$?GetObjectFromJSON@JSONHandler@@SAPAXPADIAAH@Z$10 10027e67 f   JSONHandler.obj
 0001:00026e72       __unwindfunclet$?GetObjectFromJSON@JSONHandler@@SAPAXPADIAAH@Z$11 10027e72 f   JSONHandler.obj
 0001:00026e7d       __unwindfunclet$?GetObjectFromJSON@JSONHandler@@SAPAXPADIAAH@Z$12 10027e7d f   JSONHandler.obj
 0001:00026e88       __unwindfunclet$?GetObjectFromJSON@JSONHandler@@SAPAXPADIAAH@Z$13 10027e88 f   JSONHandler.obj
 0001:00026e93       __unwindfunclet$?GetObjectFromJSON@JSONHandler@@SAPAXPADIAAH@Z$14 10027e93 f   JSONHandler.obj
 0001:00026e9e       __unwindfunclet$?GetObjectFromJSON@JSONHandler@@SAPAXPADIAAH@Z$15 10027e9e f   JSONHandler.obj
 0001:00026ea9       __unwindfunclet$?GetObjectFromJSON@JSONHandler@@SAPAXPADIAAH@Z$16 10027ea9 f   JSONHandler.obj
 0001:00026eb4       __unwindfunclet$?GetObjectFromJSON@JSONHandler@@SAPAXPADIAAH@Z$17 10027eb4 f   JSONHandler.obj
 0001:00026ebf       __unwindfunclet$?GetObjectFromJSON@JSONHandler@@SAPAXPADIAAH@Z$18 10027ebf f   JSONHandler.obj
 0001:00026eca       __unwindfunclet$?GetObjectFromJSON@JSONHandler@@SAPAXPADIAAH@Z$19 10027eca f   JSONHandler.obj
 0001:00026ed5       __unwindfunclet$?GetObjectFromJSON@JSONHandler@@SAPAXPADIAAH@Z$20 10027ed5 f   JSONHandler.obj
 0001:00026ee0       __unwindfunclet$?GetObjectFromJSON@JSONHandler@@SAPAXPADIAAH@Z$21 10027ee0 f   JSONHandler.obj
 0001:00026eeb       __unwindfunclet$?GetObjectFromJSON@JSONHandler@@SAPAXPADIAAH@Z$22 10027eeb f   JSONHandler.obj
 0001:00026ef6       __unwindfunclet$?GetObjectFromJSON@JSONHandler@@SAPAXPADIAAH@Z$23 10027ef6 f   JSONHandler.obj
 0001:00026f01       __unwindfunclet$?GetObjectFromJSON@JSONHandler@@SAPAXPADIAAH@Z$24 10027f01 f   JSONHandler.obj
 0001:00026f0c       __unwindfunclet$?GetObjectFromJSON@JSONHandler@@SAPAXPADIAAH@Z$25 10027f0c f   JSONHandler.obj
 0001:00026f17       __unwindfunclet$?GetObjectFromJSON@JSONHandler@@SAPAXPADIAAH@Z$26 10027f17 f   JSONHandler.obj
 0001:00026f22       __unwindfunclet$?GetObjectFromJSON@JSONHandler@@SAPAXPADIAAH@Z$27 10027f22 f   JSONHandler.obj
 0001:00026f2d       __unwindfunclet$?GetObjectFromJSON@JSONHandler@@SAPAXPADIAAH@Z$28 10027f2d f   JSONHandler.obj
 0001:00026f38       __unwindfunclet$?GetObjectFromJSON@JSONHandler@@SAPAXPADIAAH@Z$29 10027f38 f   JSONHandler.obj
 0001:00026f43       __unwindfunclet$?GetObjectFromJSON@JSONHandler@@SAPAXPADIAAH@Z$30 10027f43 f   JSONHandler.obj
 0001:00026f4e       __unwindfunclet$?GetObjectFromJSON@JSONHandler@@SAPAXPADIAAH@Z$31 10027f4e f   JSONHandler.obj
 0001:00026f59       __unwindfunclet$?GetObjectFromJSON@JSONHandler@@SAPAXPADIAAH@Z$32 10027f59 f   JSONHandler.obj
 0001:00026f64       __unwindfunclet$?GetObjectFromJSON@JSONHandler@@SAPAXPADIAAH@Z$33 10027f64 f   JSONHandler.obj
 0001:00026f6f       __unwindfunclet$?GetObjectFromJSON@JSONHandler@@SAPAXPADIAAH@Z$34 10027f6f f   JSONHandler.obj
 0001:00026f7a       __unwindfunclet$?GetObjectFromJSON@JSONHandler@@SAPAXPADIAAH@Z$35 10027f7a f   JSONHandler.obj
 0001:00026f85       __unwindfunclet$?GetObjectFromJSON@JSONHandler@@SAPAXPADIAAH@Z$36 10027f85 f   JSONHandler.obj
 0001:00026f90       __unwindfunclet$?GetObjectFromJSON@JSONHandler@@SAPAXPADIAAH@Z$37 10027f90 f   JSONHandler.obj
 0001:00026f9b       __unwindfunclet$?GetObjectFromJSON@JSONHandler@@SAPAXPADIAAH@Z$38 10027f9b f   JSONHandler.obj
 0001:00026fa6       __unwindfunclet$?GetObjectFromJSON@JSONHandler@@SAPAXPADIAAH@Z$39 10027fa6 f   JSONHandler.obj
 0001:00026fb1       __unwindfunclet$?GetObjectFromJSON@JSONHandler@@SAPAXPADIAAH@Z$40 10027fb1 f   JSONHandler.obj
 0001:00026fbc       __unwindfunclet$?GetObjectFromJSON@JSONHandler@@SAPAXPADIAAH@Z$41 10027fbc f   JSONHandler.obj
 0001:00026fc7       __unwindfunclet$?GetObjectFromJSON@JSONHandler@@SAPAXPADIAAH@Z$42 10027fc7 f   JSONHandler.obj
 0001:00026fd2       __unwindfunclet$?GetObjectFromJSON@JSONHandler@@SAPAXPADIAAH@Z$43 10027fd2 f   JSONHandler.obj
 0001:00026fdd       __unwindfunclet$?GetObjectFromJSON@JSONHandler@@SAPAXPADIAAH@Z$44 10027fdd f   JSONHandler.obj
 0001:00026fe8       __unwindfunclet$?GetObjectFromJSON@JSONHandler@@SAPAXPADIAAH@Z$45 10027fe8 f   JSONHandler.obj
 0001:00026ff3       __unwindfunclet$?GetObjectFromJSON@JSONHandler@@SAPAXPADIAAH@Z$46 10027ff3 f   JSONHandler.obj
 0001:00026ffe       __unwindfunclet$?GetObjectFromJSON@JSONHandler@@SAPAXPADIAAH@Z$47 10027ffe f   JSONHandler.obj
 0001:00027009       __unwindfunclet$?GetObjectFromJSON@JSONHandler@@SAPAXPADIAAH@Z$48 10028009 f   JSONHandler.obj
 0001:00027014       __unwindfunclet$?GetObjectFromJSON@JSONHandler@@SAPAXPADIAAH@Z$49 10028014 f   JSONHandler.obj
 0001:0002701f       __unwindfunclet$?GetObjectFromJSON@JSONHandler@@SAPAXPADIAAH@Z$50 1002801f f   JSONHandler.obj
 0001:0002702a       __unwindfunclet$?GetObjectFromJSON@JSONHandler@@SAPAXPADIAAH@Z$51 1002802a f   JSONHandler.obj
 0001:00027035       __unwindfunclet$?GetObjectFromJSON@JSONHandler@@SAPAXPADIAAH@Z$52 10028035 f   JSONHandler.obj
 0001:00027040       __unwindfunclet$?GetObjectFromJSON@JSONHandler@@SAPAXPADIAAH@Z$53 10028040 f   JSONHandler.obj
 0001:0002704b       __unwindfunclet$?GetObjectFromJSON@JSONHandler@@SAPAXPADIAAH@Z$54 1002804b f   JSONHandler.obj
 0001:00027056       __unwindfunclet$?GetObjectFromJSON@JSONHandler@@SAPAXPADIAAH@Z$55 10028056 f   JSONHandler.obj
 0001:00027061       __unwindfunclet$?GetObjectFromJSON@JSONHandler@@SAPAXPADIAAH@Z$56 10028061 f   JSONHandler.obj
 0001:0002706c       __unwindfunclet$?GetObjectFromJSON@JSONHandler@@SAPAXPADIAAH@Z$57 1002806c f   JSONHandler.obj
 0001:00027077       __unwindfunclet$?GetObjectFromJSON@JSONHandler@@SAPAXPADIAAH@Z$58 10028077 f   JSONHandler.obj
 0001:00027082       __unwindfunclet$?GetObjectFromJSON@JSONHandler@@SAPAXPADIAAH@Z$59 10028082 f   JSONHandler.obj
 0001:0002708d       __unwindfunclet$?GetObjectFromJSON@JSONHandler@@SAPAXPADIAAH@Z$60 1002808d f   JSONHandler.obj
 0001:00027098       __unwindfunclet$?GetObjectFromJSON@JSONHandler@@SAPAXPADIAAH@Z$61 10028098 f   JSONHandler.obj
 0001:000270a3       __unwindfunclet$?GetObjectFromJSON@JSONHandler@@SAPAXPADIAAH@Z$62 100280a3 f   JSONHandler.obj
 0001:000270ae       __unwindfunclet$?GetObjectFromJSON@JSONHandler@@SAPAXPADIAAH@Z$63 100280ae f   JSONHandler.obj
 0001:000270b9       __unwindfunclet$?GetObjectFromJSON@JSONHandler@@SAPAXPADIAAH@Z$64 100280b9 f   JSONHandler.obj
 0001:000270c4       __unwindfunclet$?GetObjectFromJSON@JSONHandler@@SAPAXPADIAAH@Z$65 100280c4 f   JSONHandler.obj
 0001:000270cf       __unwindfunclet$?GetObjectFromJSON@JSONHandler@@SAPAXPADIAAH@Z$66 100280cf f   JSONHandler.obj
 0001:000270da       __unwindfunclet$?GetObjectFromJSON@JSONHandler@@SAPAXPADIAAH@Z$67 100280da f   JSONHandler.obj
 0001:000270e5       __unwindfunclet$?GetObjectFromJSON@JSONHandler@@SAPAXPADIAAH@Z$68 100280e5 f   JSONHandler.obj
 0001:000270f0       __unwindfunclet$?GetObjectFromJSON@JSONHandler@@SAPAXPADIAAH@Z$69 100280f0 f   JSONHandler.obj
 0001:000270fb       __unwindfunclet$?GetObjectFromJSON@JSONHandler@@SAPAXPADIAAH@Z$70 100280fb f   JSONHandler.obj
 0001:00027106       __unwindfunclet$?GetObjectFromJSON@JSONHandler@@SAPAXPADIAAH@Z$71 10028106 f   JSONHandler.obj
 0001:00027111       __unwindfunclet$?GetObjectFromJSON@JSONHandler@@SAPAXPADIAAH@Z$72 10028111 f   JSONHandler.obj
 0001:0002711c       __unwindfunclet$?GetObjectFromJSON@JSONHandler@@SAPAXPADIAAH@Z$73 1002811c f   JSONHandler.obj
 0001:00027127       __unwindfunclet$?GetObjectFromJSON@JSONHandler@@SAPAXPADIAAH@Z$74 10028127 f   JSONHandler.obj
 0001:0002712f       __unwindfunclet$?GetObjectFromJSON@JSONHandler@@SAPAXPADIAAH@Z$75 1002812f f   JSONHandler.obj
 0001:00027137       __unwindfunclet$?GetObjectFromJSON@JSONHandler@@SAPAXPADIAAH@Z$76 10028137 f   JSONHandler.obj
 0001:00027142       __unwindfunclet$?GetObjectFromJSON@JSONHandler@@SAPAXPADIAAH@Z$77 10028142 f   JSONHandler.obj
 0001:0002714d       __unwindfunclet$?GetObjectFromJSON@JSONHandler@@SAPAXPADIAAH@Z$78 1002814d f   JSONHandler.obj
 0001:00027158       __unwindfunclet$?GetObjectFromJSON@JSONHandler@@SAPAXPADIAAH@Z$79 10028158 f   JSONHandler.obj
 0001:00027163       __unwindfunclet$?GetObjectFromJSON@JSONHandler@@SAPAXPADIAAH@Z$80 10028163 f   JSONHandler.obj
 0001:0002716e       __unwindfunclet$?GetObjectFromJSON@JSONHandler@@SAPAXPADIAAH@Z$81 1002816e f   JSONHandler.obj
 0001:00027179       __unwindfunclet$?GetObjectFromJSON@JSONHandler@@SAPAXPADIAAH@Z$82 10028179 f   JSONHandler.obj
 0001:00027184       __unwindfunclet$?GetObjectFromJSON@JSONHandler@@SAPAXPADIAAH@Z$83 10028184 f   JSONHandler.obj
 0001:0002718f       __unwindfunclet$?GetObjectFromJSON@JSONHandler@@SAPAXPADIAAH@Z$84 1002818f f   JSONHandler.obj
 0001:0002719a       __unwindfunclet$?GetObjectFromJSON@JSONHandler@@SAPAXPADIAAH@Z$85 1002819a f   JSONHandler.obj
 0001:000271a5       __unwindfunclet$?GetObjectFromJSON@JSONHandler@@SAPAXPADIAAH@Z$86 100281a5 f   JSONHandler.obj
 0001:000271b0       __unwindfunclet$?GetObjectFromJSON@JSONHandler@@SAPAXPADIAAH@Z$87 100281b0 f   JSONHandler.obj
 0001:000271bb       __unwindfunclet$?GetObjectFromJSON@JSONHandler@@SAPAXPADIAAH@Z$88 100281bb f   JSONHandler.obj
 0001:000271c6       __unwindfunclet$?GetObjectFromJSON@JSONHandler@@SAPAXPADIAAH@Z$89 100281c6 f   JSONHandler.obj
 0001:000271d1       __unwindfunclet$?GetObjectFromJSON@JSONHandler@@SAPAXPADIAAH@Z$90 100281d1 f   JSONHandler.obj
 0001:000271dc       __unwindfunclet$?GetObjectFromJSON@JSONHandler@@SAPAXPADIAAH@Z$91 100281dc f   JSONHandler.obj
 0001:000271e7       __unwindfunclet$?GetObjectFromJSON@JSONHandler@@SAPAXPADIAAH@Z$92 100281e7 f   JSONHandler.obj
 0001:000271f2       __unwindfunclet$?GetObjectFromJSON@JSONHandler@@SAPAXPADIAAH@Z$93 100281f2 f   JSONHandler.obj
 0001:000271fd       __unwindfunclet$?GetObjectFromJSON@JSONHandler@@SAPAXPADIAAH@Z$94 100281fd f   JSONHandler.obj
 0001:00027208       __unwindfunclet$?GetObjectFromJSON@JSONHandler@@SAPAXPADIAAH@Z$95 10028208 f   JSONHandler.obj
 0001:00027213       __unwindfunclet$?GetObjectFromJSON@JSONHandler@@SAPAXPADIAAH@Z$97 10028213 f   JSONHandler.obj
 0001:0002721e       __unwindfunclet$?GetObjectFromJSON@JSONHandler@@SAPAXPADIAAH@Z$98 1002821e f   JSONHandler.obj
 0001:00027229       __unwindfunclet$?GetObjectFromJSON@JSONHandler@@SAPAXPADIAAH@Z$99 10028229 f   JSONHandler.obj
 0001:00027234       __unwindfunclet$?GetObjectFromJSON@JSONHandler@@SAPAXPADIAAH@Z$100 10028234 f   JSONHandler.obj
 0001:0002723f       __unwindfunclet$?GetObjectFromJSON@JSONHandler@@SAPAXPADIAAH@Z$101 1002823f f   JSONHandler.obj
 0001:0002724a       __unwindfunclet$?GetObjectFromJSON@JSONHandler@@SAPAXPADIAAH@Z$102 1002824a f   JSONHandler.obj
 0001:00027255       __unwindfunclet$?GetObjectFromJSON@JSONHandler@@SAPAXPADIAAH@Z$103 10028255 f   JSONHandler.obj
 0001:00027260       __unwindfunclet$?GetObjectFromJSON@JSONHandler@@SAPAXPADIAAH@Z$104 10028260 f   JSONHandler.obj
 0001:0002726b       __unwindfunclet$?GetObjectFromJSON@JSONHandler@@SAPAXPADIAAH@Z$106 1002826b f   JSONHandler.obj
 0001:00027276       __unwindfunclet$?GetObjectFromJSON@JSONHandler@@SAPAXPADIAAH@Z$107 10028276 f   JSONHandler.obj
 0001:00027281       __unwindfunclet$?GetObjectFromJSON@JSONHandler@@SAPAXPADIAAH@Z$108 10028281 f   JSONHandler.obj
 0001:0002728c       __unwindfunclet$?GetObjectFromJSON@JSONHandler@@SAPAXPADIAAH@Z$109 1002828c f   JSONHandler.obj
 0001:00027297       __unwindfunclet$?GetObjectFromJSON@JSONHandler@@SAPAXPADIAAH@Z$110 10028297 f   JSONHandler.obj
 0001:000272a2       __unwindfunclet$?GetObjectFromJSON@JSONHandler@@SAPAXPADIAAH@Z$111 100282a2 f   JSONHandler.obj
 0001:000272ad       __ehhandler$?GetObjectFromJSON@JSONHandler@@SAPAXPADIAAH@Z 100282ad f   JSONHandler.obj
 0001:000272e0       __unwindfunclet$?GetJSONFromObject@JSONHandler@@SA_NPAXHAAV?$basic_string@DU?$char_traits@D@std@@V?$allocator@D@2@@std@@AAI@Z$4 100282e0 f   JSONHandler.obj
 0001:000272eb       __unwindfunclet$?GetJSONFromObject@JSONHandler@@SA_NPAXHAAV?$basic_string@DU?$char_traits@D@std@@V?$allocator@D@2@@std@@AAI@Z$5 100282eb f   JSONHandler.obj
 0001:000272f6       __unwindfunclet$?GetJSONFromObject@JSONHandler@@SA_NPAXHAAV?$basic_string@DU?$char_traits@D@std@@V?$allocator@D@2@@std@@AAI@Z$6 100282f6 f   JSONHandler.obj
 0001:00027301       __unwindfunclet$?GetJSONFromObject@JSONHandler@@SA_NPAXHAAV?$basic_string@DU?$char_traits@D@std@@V?$allocator@D@2@@std@@AAI@Z$7 10028301 f   JSONHandler.obj
 0001:0002730c       __unwindfunclet$?GetJSONFromObject@JSONHandler@@SA_NPAXHAAV?$basic_string@DU?$char_traits@D@std@@V?$allocator@D@2@@std@@AAI@Z$8 1002830c f   JSONHandler.obj
 0001:00027317       __unwindfunclet$?GetJSONFromObject@JSONHandler@@SA_NPAXHAAV?$basic_string@DU?$char_traits@D@std@@V?$allocator@D@2@@std@@AAI@Z$9 10028317 f   JSONHandler.obj
 0001:00027322       __unwindfunclet$?GetJSONFromObject@JSONHandler@@SA_NPAXHAAV?$basic_string@DU?$char_traits@D@std@@V?$allocator@D@2@@std@@AAI@Z$11 10028322 f   JSONHandler.obj
 0001:0002732d       __unwindfunclet$?GetJSONFromObject@JSONHandler@@SA_NPAXHAAV?$basic_string@DU?$char_traits@D@std@@V?$allocator@D@2@@std@@AAI@Z$12 1002832d f   JSONHandler.obj
 0001:00027338       __unwindfunclet$?GetJSONFromObject@JSONHandler@@SA_NPAXHAAV?$basic_string@DU?$char_traits@D@std@@V?$allocator@D@2@@std@@AAI@Z$13 10028338 f   JSONHandler.obj
 0001:00027343       __unwindfunclet$?GetJSONFromObject@JSONHandler@@SA_NPAXHAAV?$basic_string@DU?$char_traits@D@std@@V?$allocator@D@2@@std@@AAI@Z$14 10028343 f   JSONHandler.obj
 0001:0002734e       __unwindfunclet$?GetJSONFromObject@JSONHandler@@SA_NPAXHAAV?$basic_string@DU?$char_traits@D@std@@V?$allocator@D@2@@std@@AAI@Z$15 1002834e f   JSONHandler.obj
 0001:00027359       __unwindfunclet$?GetJSONFromObject@JSONHandler@@SA_NPAXHAAV?$basic_string@DU?$char_traits@D@std@@V?$allocator@D@2@@std@@AAI@Z$17 10028359 f   JSONHandler.obj
 0001:00027364       __unwindfunclet$?GetJSONFromObject@JSONHandler@@SA_NPAXHAAV?$basic_string@DU?$char_traits@D@std@@V?$allocator@D@2@@std@@AAI@Z$18 10028364 f   JSONHandler.obj
 0001:0002736f       __unwindfunclet$?GetJSONFromObject@JSONHandler@@SA_NPAXHAAV?$basic_string@DU?$char_traits@D@std@@V?$allocator@D@2@@std@@AAI@Z$19 1002836f f   JSONHandler.obj
 0001:0002737a       __unwindfunclet$?GetJSONFromObject@JSONHandler@@SA_NPAXHAAV?$basic_string@DU?$char_traits@D@std@@V?$allocator@D@2@@std@@AAI@Z$20 1002837a f   JSONHandler.obj
 0001:00027385       __unwindfunclet$?GetJSONFromObject@JSONHandler@@SA_NPAXHAAV?$basic_string@DU?$char_traits@D@std@@V?$allocator@D@2@@std@@AAI@Z$21 10028385 f   JSONHandler.obj
 0001:00027390       __unwindfunclet$?GetJSONFromObject@JSONHandler@@SA_NPAXHAAV?$basic_string@DU?$char_traits@D@std@@V?$allocator@D@2@@std@@AAI@Z$22 10028390 f   JSONHandler.obj
 0001:0002739b       __unwindfunclet$?GetJSONFromObject@JSONHandler@@SA_NPAXHAAV?$basic_string@DU?$char_traits@D@std@@V?$allocator@D@2@@std@@AAI@Z$24 1002839b f   JSONHandler.obj
 0001:000273a6       __unwindfunclet$?GetJSONFromObject@JSONHandler@@SA_NPAXHAAV?$basic_string@DU?$char_traits@D@std@@V?$allocator@D@2@@std@@AAI@Z$25 100283a6 f   JSONHandler.obj
 0001:000273b1       __unwindfunclet$?GetJSONFromObject@JSONHandler@@SA_NPAXHAAV?$basic_string@DU?$char_traits@D@std@@V?$allocator@D@2@@std@@AAI@Z$26 100283b1 f   JSONHandler.obj
 0001:000273bc       __unwindfunclet$?GetJSONFromObject@JSONHandler@@SA_NPAXHAAV?$basic_string@DU?$char_traits@D@std@@V?$allocator@D@2@@std@@AAI@Z$28 100283bc f   JSONHandler.obj
 0001:000273c7       __unwindfunclet$?GetJSONFromObject@JSONHandler@@SA_NPAXHAAV?$basic_string@DU?$char_traits@D@std@@V?$allocator@D@2@@std@@AAI@Z$29 100283c7 f   JSONHandler.obj
 0001:000273d2       __unwindfunclet$?GetJSONFromObject@JSONHandler@@SA_NPAXHAAV?$basic_string@DU?$char_traits@D@std@@V?$allocator@D@2@@std@@AAI@Z$30 100283d2 f   JSONHandler.obj
 0001:000273dd       __unwindfunclet$?GetJSONFromObject@JSONHandler@@SA_NPAXHAAV?$basic_string@DU?$char_traits@D@std@@V?$allocator@D@2@@std@@AAI@Z$32 100283dd f   JSONHandler.obj
 0001:000273e8       __unwindfunclet$?GetJSONFromObject@JSONHandler@@SA_NPAXHAAV?$basic_string@DU?$char_traits@D@std@@V?$allocator@D@2@@std@@AAI@Z$33 100283e8 f   JSONHandler.obj
 0001:000273f3       __unwindfunclet$?GetJSONFromObject@JSONHandler@@SA_NPAXHAAV?$basic_string@DU?$char_traits@D@std@@V?$allocator@D@2@@std@@AAI@Z$34 100283f3 f   JSONHandler.obj
 0001:000273fe       __unwindfunclet$?GetJSONFromObject@JSONHandler@@SA_NPAXHAAV?$basic_string@DU?$char_traits@D@std@@V?$allocator@D@2@@std@@AAI@Z$35 100283fe f   JSONHandler.obj
 0001:00027409       __unwindfunclet$?GetJSONFromObject@JSONHandler@@SA_NPAXHAAV?$basic_string@DU?$char_traits@D@std@@V?$allocator@D@2@@std@@AAI@Z$36 10028409 f   JSONHandler.obj
 0001:00027414       __unwindfunclet$?GetJSONFromObject@JSONHandler@@SA_NPAXHAAV?$basic_string@DU?$char_traits@D@std@@V?$allocator@D@2@@std@@AAI@Z$37 10028414 f   JSONHandler.obj
 0001:0002741f       __unwindfunclet$?GetJSONFromObject@JSONHandler@@SA_NPAXHAAV?$basic_string@DU?$char_traits@D@std@@V?$allocator@D@2@@std@@AAI@Z$38 1002841f f   JSONHandler.obj
 0001:0002742a       __unwindfunclet$?GetJSONFromObject@JSONHandler@@SA_NPAXHAAV?$basic_string@DU?$char_traits@D@std@@V?$allocator@D@2@@std@@AAI@Z$39 1002842a f   JSONHandler.obj
 0001:00027435       __unwindfunclet$?GetJSONFromObject@JSONHandler@@SA_NPAXHAAV?$basic_string@DU?$char_traits@D@std@@V?$allocator@D@2@@std@@AAI@Z$40 10028435 f   JSONHandler.obj
 0001:00027440       __unwindfunclet$?GetJSONFromObject@JSONHandler@@SA_NPAXHAAV?$basic_string@DU?$char_traits@D@std@@V?$allocator@D@2@@std@@AAI@Z$41 10028440 f   JSONHandler.obj
 0001:0002744b       __unwindfunclet$?GetJSONFromObject@JSONHandler@@SA_NPAXHAAV?$basic_string@DU?$char_traits@D@std@@V?$allocator@D@2@@std@@AAI@Z$42 1002844b f   JSONHandler.obj
 0001:00027456       __unwindfunclet$?GetJSONFromObject@JSONHandler@@SA_NPAXHAAV?$basic_string@DU?$char_traits@D@std@@V?$allocator@D@2@@std@@AAI@Z$44 10028456 f   JSONHandler.obj
 0001:00027461       __unwindfunclet$?GetJSONFromObject@JSONHandler@@SA_NPAXHAAV?$basic_string@DU?$char_traits@D@std@@V?$allocator@D@2@@std@@AAI@Z$45 10028461 f   JSONHandler.obj
 0001:0002746c       __unwindfunclet$?GetJSONFromObject@JSONHandler@@SA_NPAXHAAV?$basic_string@DU?$char_traits@D@std@@V?$allocator@D@2@@std@@AAI@Z$46 1002846c f   JSONHandler.obj
 0001:00027477       __unwindfunclet$?GetJSONFromObject@JSONHandler@@SA_NPAXHAAV?$basic_string@DU?$char_traits@D@std@@V?$allocator@D@2@@std@@AAI@Z$47 10028477 f   JSONHandler.obj
 0001:00027482       __unwindfunclet$?GetJSONFromObject@JSONHandler@@SA_NPAXHAAV?$basic_string@DU?$char_traits@D@std@@V?$allocator@D@2@@std@@AAI@Z$49 10028482 f   JSONHandler.obj
 0001:0002748d       __unwindfunclet$?GetJSONFromObject@JSONHandler@@SA_NPAXHAAV?$basic_string@DU?$char_traits@D@std@@V?$allocator@D@2@@std@@AAI@Z$50 1002848d f   JSONHandler.obj
 0001:00027498       __unwindfunclet$?GetJSONFromObject@JSONHandler@@SA_NPAXHAAV?$basic_string@DU?$char_traits@D@std@@V?$allocator@D@2@@std@@AAI@Z$51 10028498 f   JSONHandler.obj
 0001:000274a3       __unwindfunclet$?GetJSONFromObject@JSONHandler@@SA_NPAXHAAV?$basic_string@DU?$char_traits@D@std@@V?$allocator@D@2@@std@@AAI@Z$52 100284a3 f   JSONHandler.obj
 0001:000274ae       __unwindfunclet$?GetJSONFromObject@JSONHandler@@SA_NPAXHAAV?$basic_string@DU?$char_traits@D@std@@V?$allocator@D@2@@std@@AAI@Z$53 100284ae f   JSONHandler.obj
 0001:000274b9       __unwindfunclet$?GetJSONFromObject@JSONHandler@@SA_NPAXHAAV?$basic_string@DU?$char_traits@D@std@@V?$allocator@D@2@@std@@AAI@Z$54 100284b9 f   JSONHandler.obj
 0001:000274c4       __unwindfunclet$?GetJSONFromObject@JSONHandler@@SA_NPAXHAAV?$basic_string@DU?$char_traits@D@std@@V?$allocator@D@2@@std@@AAI@Z$55 100284c4 f   JSONHandler.obj
 0001:000274cf       __unwindfunclet$?GetJSONFromObject@JSONHandler@@SA_NPAXHAAV?$basic_string@DU?$char_traits@D@std@@V?$allocator@D@2@@std@@AAI@Z$56 100284cf f   JSONHandler.obj
 0001:000274da       __unwindfunclet$?GetJSONFromObject@JSONHandler@@SA_NPAXHAAV?$basic_string@DU?$char_traits@D@std@@V?$allocator@D@2@@std@@AAI@Z$57 100284da f   JSONHandler.obj
 0001:000274e5       __unwindfunclet$?GetJSONFromObject@JSONHandler@@SA_NPAXHAAV?$basic_string@DU?$char_traits@D@std@@V?$allocator@D@2@@std@@AAI@Z$58 100284e5 f   JSONHandler.obj
 0001:000274f0       __unwindfunclet$?GetJSONFromObject@JSONHandler@@SA_NPAXHAAV?$basic_string@DU?$char_traits@D@std@@V?$allocator@D@2@@std@@AAI@Z$59 100284f0 f   JSONHandler.obj
 0001:000274fb       __unwindfunclet$?GetJSONFromObject@JSONHandler@@SA_NPAXHAAV?$basic_string@DU?$char_traits@D@std@@V?$allocator@D@2@@std@@AAI@Z$60 100284fb f   JSONHandler.obj
 0001:00027506       __unwindfunclet$?GetJSONFromObject@JSONHandler@@SA_NPAXHAAV?$basic_string@DU?$char_traits@D@std@@V?$allocator@D@2@@std@@AAI@Z$61 10028506 f   JSONHandler.obj
 0001:00027511       __unwindfunclet$?GetJSONFromObject@JSONHandler@@SA_NPAXHAAV?$basic_string@DU?$char_traits@D@std@@V?$allocator@D@2@@std@@AAI@Z$62 10028511 f   JSONHandler.obj
 0001:0002751c       __unwindfunclet$?GetJSONFromObject@JSONHandler@@SA_NPAXHAAV?$basic_string@DU?$char_traits@D@std@@V?$allocator@D@2@@std@@AAI@Z$63 1002851c f   JSONHandler.obj
 0001:00027527       __unwindfunclet$?GetJSONFromObject@JSONHandler@@SA_NPAXHAAV?$basic_string@DU?$char_traits@D@std@@V?$allocator@D@2@@std@@AAI@Z$64 10028527 f   JSONHandler.obj
 0001:00027532       __unwindfunclet$?GetJSONFromObject@JSONHandler@@SA_NPAXHAAV?$basic_string@DU?$char_traits@D@std@@V?$allocator@D@2@@std@@AAI@Z$65 10028532 f   JSONHandler.obj
 0001:0002753d       __unwindfunclet$?GetJSONFromObject@JSONHandler@@SA_NPAXHAAV?$basic_string@DU?$char_traits@D@std@@V?$allocator@D@2@@std@@AAI@Z$66 1002853d f   JSONHandler.obj
 0001:00027548       __unwindfunclet$?GetJSONFromObject@JSONHandler@@SA_NPAXHAAV?$basic_string@DU?$char_traits@D@std@@V?$allocator@D@2@@std@@AAI@Z$67 10028548 f   JSONHandler.obj
 0001:00027553       __unwindfunclet$?GetJSONFromObject@JSONHandler@@SA_NPAXHAAV?$basic_string@DU?$char_traits@D@std@@V?$allocator@D@2@@std@@AAI@Z$68 10028553 f   JSONHandler.obj
 0001:0002755e       __unwindfunclet$?GetJSONFromObject@JSONHandler@@SA_NPAXHAAV?$basic_string@DU?$char_traits@D@std@@V?$allocator@D@2@@std@@AAI@Z$69 1002855e f   JSONHandler.obj
 0001:00027569       __unwindfunclet$?GetJSONFromObject@JSONHandler@@SA_NPAXHAAV?$basic_string@DU?$char_traits@D@std@@V?$allocator@D@2@@std@@AAI@Z$70 10028569 f   JSONHandler.obj
 0001:00027574       __unwindfunclet$?GetJSONFromObject@JSONHandler@@SA_NPAXHAAV?$basic_string@DU?$char_traits@D@std@@V?$allocator@D@2@@std@@AAI@Z$71 10028574 f   JSONHandler.obj
 0001:0002757f       __unwindfunclet$?GetJSONFromObject@JSONHandler@@SA_NPAXHAAV?$basic_string@DU?$char_traits@D@std@@V?$allocator@D@2@@std@@AAI@Z$72 1002857f f   JSONHandler.obj
 0001:0002758a       __unwindfunclet$?GetJSONFromObject@JSONHandler@@SA_NPAXHAAV?$basic_string@DU?$char_traits@D@std@@V?$allocator@D@2@@std@@AAI@Z$73 1002858a f   JSONHandler.obj
 0001:00027595       __unwindfunclet$?GetJSONFromObject@JSONHandler@@SA_NPAXHAAV?$basic_string@DU?$char_traits@D@std@@V?$allocator@D@2@@std@@AAI@Z$74 10028595 f   JSONHandler.obj
 0001:000275a0       __unwindfunclet$?GetJSONFromObject@JSONHandler@@SA_NPAXHAAV?$basic_string@DU?$char_traits@D@std@@V?$allocator@D@2@@std@@AAI@Z$75 100285a0 f   JSONHandler.obj
 0001:000275ab       __unwindfunclet$?GetJSONFromObject@JSONHandler@@SA_NPAXHAAV?$basic_string@DU?$char_traits@D@std@@V?$allocator@D@2@@std@@AAI@Z$76 100285ab f   JSONHandler.obj
 0001:000275b6       __unwindfunclet$?GetJSONFromObject@JSONHandler@@SA_NPAXHAAV?$basic_string@DU?$char_traits@D@std@@V?$allocator@D@2@@std@@AAI@Z$77 100285b6 f   JSONHandler.obj
 0001:000275c1       __unwindfunclet$?GetJSONFromObject@JSONHandler@@SA_NPAXHAAV?$basic_string@DU?$char_traits@D@std@@V?$allocator@D@2@@std@@AAI@Z$78 100285c1 f   JSONHandler.obj
 0001:000275cc       __unwindfunclet$?GetJSONFromObject@JSONHandler@@SA_NPAXHAAV?$basic_string@DU?$char_traits@D@std@@V?$allocator@D@2@@std@@AAI@Z$79 100285cc f   JSONHandler.obj
 0001:000275d7       __unwindfunclet$?GetJSONFromObject@JSONHandler@@SA_NPAXHAAV?$basic_string@DU?$char_traits@D@std@@V?$allocator@D@2@@std@@AAI@Z$81 100285d7 f   JSONHandler.obj
 0001:000275e2       __unwindfunclet$?GetJSONFromObject@JSONHandler@@SA_NPAXHAAV?$basic_string@DU?$char_traits@D@std@@V?$allocator@D@2@@std@@AAI@Z$82 100285e2 f   JSONHandler.obj
 0001:000275ed       __unwindfunclet$?GetJSONFromObject@JSONHandler@@SA_NPAXHAAV?$basic_string@DU?$char_traits@D@std@@V?$allocator@D@2@@std@@AAI@Z$83 100285ed f   JSONHandler.obj
 0001:000275f8       __unwindfunclet$?GetJSONFromObject@JSONHandler@@SA_NPAXHAAV?$basic_string@DU?$char_traits@D@std@@V?$allocator@D@2@@std@@AAI@Z$84 100285f8 f   JSONHandler.obj
 0001:00027603       __unwindfunclet$?GetJSONFromObject@JSONHandler@@SA_NPAXHAAV?$basic_string@DU?$char_traits@D@std@@V?$allocator@D@2@@std@@AAI@Z$85 10028603 f   JSONHandler.obj
 0001:0002760e       __unwindfunclet$?GetJSONFromObject@JSONHandler@@SA_NPAXHAAV?$basic_string@DU?$char_traits@D@std@@V?$allocator@D@2@@std@@AAI@Z$86 1002860e f   JSONHandler.obj
 0001:00027619       __unwindfunclet$?GetJSONFromObject@JSONHandler@@SA_NPAXHAAV?$basic_string@DU?$char_traits@D@std@@V?$allocator@D@2@@std@@AAI@Z$87 10028619 f   JSONHandler.obj
 0001:00027624       __unwindfunclet$?GetJSONFromObject@JSONHandler@@SA_NPAXHAAV?$basic_string@DU?$char_traits@D@std@@V?$allocator@D@2@@std@@AAI@Z$88 10028624 f   JSONHandler.obj
 0001:0002762f       __unwindfunclet$?GetJSONFromObject@JSONHandler@@SA_NPAXHAAV?$basic_string@DU?$char_traits@D@std@@V?$allocator@D@2@@std@@AAI@Z$89 1002862f f   JSONHandler.obj
 0001:0002763a       __unwindfunclet$?GetJSONFromObject@JSONHandler@@SA_NPAXHAAV?$basic_string@DU?$char_traits@D@std@@V?$allocator@D@2@@std@@AAI@Z$90 1002863a f   JSONHandler.obj
 0001:00027645       __unwindfunclet$?GetJSONFromObject@JSONHandler@@SA_NPAXHAAV?$basic_string@DU?$char_traits@D@std@@V?$allocator@D@2@@std@@AAI@Z$91 10028645 f   JSONHandler.obj
 0001:00027650       __unwindfunclet$?GetJSONFromObject@JSONHandler@@SA_NPAXHAAV?$basic_string@DU?$char_traits@D@std@@V?$allocator@D@2@@std@@AAI@Z$92 10028650 f   JSONHandler.obj
 0001:0002765b       __unwindfunclet$?GetJSONFromObject@JSONHandler@@SA_NPAXHAAV?$basic_string@DU?$char_traits@D@std@@V?$allocator@D@2@@std@@AAI@Z$93 1002865b f   JSONHandler.obj
 0001:00027666       __unwindfunclet$?GetJSONFromObject@JSONHandler@@SA_NPAXHAAV?$basic_string@DU?$char_traits@D@std@@V?$allocator@D@2@@std@@AAI@Z$94 10028666 f   JSONHandler.obj
 0001:00027671       __unwindfunclet$?GetJSONFromObject@JSONHandler@@SA_NPAXHAAV?$basic_string@DU?$char_traits@D@std@@V?$allocator@D@2@@std@@AAI@Z$95 10028671 f   JSONHandler.obj
 0001:0002767c       __unwindfunclet$?GetJSONFromObject@JSONHandler@@SA_NPAXHAAV?$basic_string@DU?$char_traits@D@std@@V?$allocator@D@2@@std@@AAI@Z$96 1002867c f   JSONHandler.obj
 0001:00027684       __unwindfunclet$?GetJSONFromObject@JSONHandler@@SA_NPAXHAAV?$basic_string@DU?$char_traits@D@std@@V?$allocator@D@2@@std@@AAI@Z$97 10028684 f   JSONHandler.obj
 0001:0002768f       __unwindfunclet$?GetJSONFromObject@JSONHandler@@SA_NPAXHAAV?$basic_string@DU?$char_traits@D@std@@V?$allocator@D@2@@std@@AAI@Z$99 1002868f f   JSONHandler.obj
 0001:0002769a       __unwindfunclet$?GetJSONFromObject@JSONHandler@@SA_NPAXHAAV?$basic_string@DU?$char_traits@D@std@@V?$allocator@D@2@@std@@AAI@Z$100 1002869a f   JSONHandler.obj
 0001:000276a5       __unwindfunclet$?GetJSONFromObject@JSONHandler@@SA_NPAXHAAV?$basic_string@DU?$char_traits@D@std@@V?$allocator@D@2@@std@@AAI@Z$101 100286a5 f   JSONHandler.obj
 0001:000276b0       __unwindfunclet$?GetJSONFromObject@JSONHandler@@SA_NPAXHAAV?$basic_string@DU?$char_traits@D@std@@V?$allocator@D@2@@std@@AAI@Z$103 100286b0 f   JSONHandler.obj
 0001:000276bb       __unwindfunclet$?GetJSONFromObject@JSONHandler@@SA_NPAXHAAV?$basic_string@DU?$char_traits@D@std@@V?$allocator@D@2@@std@@AAI@Z$104 100286bb f   JSONHandler.obj
 0001:000276c6       __unwindfunclet$?GetJSONFromObject@JSONHandler@@SA_NPAXHAAV?$basic_string@DU?$char_traits@D@std@@V?$allocator@D@2@@std@@AAI@Z$105 100286c6 f   JSONHandler.obj
 0001:000276d1       __unwindfunclet$?GetJSONFromObject@JSONHandler@@SA_NPAXHAAV?$basic_string@DU?$char_traits@D@std@@V?$allocator@D@2@@std@@AAI@Z$107 100286d1 f   JSONHandler.obj
 0001:000276dc       __unwindfunclet$?GetJSONFromObject@JSONHandler@@SA_NPAXHAAV?$basic_string@DU?$char_traits@D@std@@V?$allocator@D@2@@std@@AAI@Z$108 100286dc f   JSONHandler.obj
 0001:000276e7       __unwindfunclet$?GetJSONFromObject@JSONHandler@@SA_NPAXHAAV?$basic_string@DU?$char_traits@D@std@@V?$allocator@D@2@@std@@AAI@Z$109 100286e7 f   JSONHandler.obj
 0001:000276f2       __unwindfunclet$?GetJSONFromObject@JSONHandler@@SA_NPAXHAAV?$basic_string@DU?$char_traits@D@std@@V?$allocator@D@2@@std@@AAI@Z$111 100286f2 f   JSONHandler.obj
 0001:000276fd       __unwindfunclet$?GetJSONFromObject@JSONHandler@@SA_NPAXHAAV?$basic_string@DU?$char_traits@D@std@@V?$allocator@D@2@@std@@AAI@Z$112 100286fd f   JSONHandler.obj
 0001:00027708       __unwindfunclet$?GetJSONFromObject@JSONHandler@@SA_NPAXHAAV?$basic_string@DU?$char_traits@D@std@@V?$allocator@D@2@@std@@AAI@Z$113 10028708 f   JSONHandler.obj
 0001:00027713       __unwindfunclet$?GetJSONFromObject@JSONHandler@@SA_NPAXHAAV?$basic_string@DU?$char_traits@D@std@@V?$allocator@D@2@@std@@AAI@Z$115 10028713 f   JSONHandler.obj
 0001:0002771e       __unwindfunclet$?GetJSONFromObject@JSONHandler@@SA_NPAXHAAV?$basic_string@DU?$char_traits@D@std@@V?$allocator@D@2@@std@@AAI@Z$116 1002871e f   JSONHandler.obj
 0001:00027729       __unwindfunclet$?GetJSONFromObject@JSONHandler@@SA_NPAXHAAV?$basic_string@DU?$char_traits@D@std@@V?$allocator@D@2@@std@@AAI@Z$117 10028729 f   JSONHandler.obj
 0001:00027734       __unwindfunclet$?GetJSONFromObject@JSONHandler@@SA_NPAXHAAV?$basic_string@DU?$char_traits@D@std@@V?$allocator@D@2@@std@@AAI@Z$119 10028734 f   JSONHandler.obj
 0001:0002773f       __unwindfunclet$?GetJSONFromObject@JSONHandler@@SA_NPAXHAAV?$basic_string@DU?$char_traits@D@std@@V?$allocator@D@2@@std@@AAI@Z$120 1002873f f   JSONHandler.obj
 0001:0002774a       __unwindfunclet$?GetJSONFromObject@JSONHandler@@SA_NPAXHAAV?$basic_string@DU?$char_traits@D@std@@V?$allocator@D@2@@std@@AAI@Z$121 1002874a f   JSONHandler.obj
 0001:00027755       __unwindfunclet$?GetJSONFromObject@JSONHandler@@SA_NPAXHAAV?$basic_string@DU?$char_traits@D@std@@V?$allocator@D@2@@std@@AAI@Z$122 10028755 f   JSONHandler.obj
 0001:00027760       __unwindfunclet$?GetJSONFromObject@JSONHandler@@SA_NPAXHAAV?$basic_string@DU?$char_traits@D@std@@V?$allocator@D@2@@std@@AAI@Z$124 10028760 f   JSONHandler.obj
 0001:0002776b       __unwindfunclet$?GetJSONFromObject@JSONHandler@@SA_NPAXHAAV?$basic_string@DU?$char_traits@D@std@@V?$allocator@D@2@@std@@AAI@Z$125 1002876b f   JSONHandler.obj
 0001:00027776       __unwindfunclet$?GetJSONFromObject@JSONHandler@@SA_NPAXHAAV?$basic_string@DU?$char_traits@D@std@@V?$allocator@D@2@@std@@AAI@Z$126 10028776 f   JSONHandler.obj
 0001:00027781       __unwindfunclet$?GetJSONFromObject@JSONHandler@@SA_NPAXHAAV?$basic_string@DU?$char_traits@D@std@@V?$allocator@D@2@@std@@AAI@Z$127 10028781 f   JSONHandler.obj
 0001:0002778c       __unwindfunclet$?GetJSONFromObject@JSONHandler@@SA_NPAXHAAV?$basic_string@DU?$char_traits@D@std@@V?$allocator@D@2@@std@@AAI@Z$128 1002878c f   JSONHandler.obj
 0001:00027797       __unwindfunclet$?GetJSONFromObject@JSONHandler@@SA_NPAXHAAV?$basic_string@DU?$char_traits@D@std@@V?$allocator@D@2@@std@@AAI@Z$130 10028797 f   JSONHandler.obj
 0001:000277a2       __unwindfunclet$?GetJSONFromObject@JSONHandler@@SA_NPAXHAAV?$basic_string@DU?$char_traits@D@std@@V?$allocator@D@2@@std@@AAI@Z$131 100287a2 f   JSONHandler.obj
 0001:000277ad       __unwindfunclet$?GetJSONFromObject@JSONHandler@@SA_NPAXHAAV?$basic_string@DU?$char_traits@D@std@@V?$allocator@D@2@@std@@AAI@Z$132 100287ad f   JSONHandler.obj
 0001:000277b8       __unwindfunclet$?GetJSONFromObject@JSONHandler@@SA_NPAXHAAV?$basic_string@DU?$char_traits@D@std@@V?$allocator@D@2@@std@@AAI@Z$134 100287b8 f   JSONHandler.obj
 0001:000277c3       __unwindfunclet$?GetJSONFromObject@JSONHandler@@SA_NPAXHAAV?$basic_string@DU?$char_traits@D@std@@V?$allocator@D@2@@std@@AAI@Z$135 100287c3 f   JSONHandler.obj
 0001:000277ce       __unwindfunclet$?GetJSONFromObject@JSONHandler@@SA_NPAXHAAV?$basic_string@DU?$char_traits@D@std@@V?$allocator@D@2@@std@@AAI@Z$136 100287ce f   JSONHandler.obj
 0001:000277d9       __unwindfunclet$?GetJSONFromObject@JSONHandler@@SA_NPAXHAAV?$basic_string@DU?$char_traits@D@std@@V?$allocator@D@2@@std@@AAI@Z$137 100287d9 f   JSONHandler.obj
 0001:000277e4       __unwindfunclet$?GetJSONFromObject@JSONHandler@@SA_NPAXHAAV?$basic_string@DU?$char_traits@D@std@@V?$allocator@D@2@@std@@AAI@Z$138 100287e4 f   JSONHandler.obj
 0001:000277ef       __unwindfunclet$?GetJSONFromObject@JSONHandler@@SA_NPAXHAAV?$basic_string@DU?$char_traits@D@std@@V?$allocator@D@2@@std@@AAI@Z$139 100287ef f   JSONHandler.obj
 0001:000277fa       __unwindfunclet$?GetJSONFromObject@JSONHandler@@SA_NPAXHAAV?$basic_string@DU?$char_traits@D@std@@V?$allocator@D@2@@std@@AAI@Z$140 100287fa f   JSONHandler.obj
 0001:00027805       __unwindfunclet$?GetJSONFromObject@JSONHandler@@SA_NPAXHAAV?$basic_string@DU?$char_traits@D@std@@V?$allocator@D@2@@std@@AAI@Z$142 10028805 f   JSONHandler.obj
 0001:00027810       __unwindfunclet$?GetJSONFromObject@JSONHandler@@SA_NPAXHAAV?$basic_string@DU?$char_traits@D@std@@V?$allocator@D@2@@std@@AAI@Z$143 10028810 f   JSONHandler.obj
 0001:0002781b       __unwindfunclet$?GetJSONFromObject@JSONHandler@@SA_NPAXHAAV?$basic_string@DU?$char_traits@D@std@@V?$allocator@D@2@@std@@AAI@Z$144 1002881b f   JSONHandler.obj
 0001:00027826       __unwindfunclet$?GetJSONFromObject@JSONHandler@@SA_NPAXHAAV?$basic_string@DU?$char_traits@D@std@@V?$allocator@D@2@@std@@AAI@Z$146 10028826 f   JSONHandler.obj
 0001:00027831       __unwindfunclet$?GetJSONFromObject@JSONHandler@@SA_NPAXHAAV?$basic_string@DU?$char_traits@D@std@@V?$allocator@D@2@@std@@AAI@Z$147 10028831 f   JSONHandler.obj
 0001:0002783c       __unwindfunclet$?GetJSONFromObject@JSONHandler@@SA_NPAXHAAV?$basic_string@DU?$char_traits@D@std@@V?$allocator@D@2@@std@@AAI@Z$148 1002883c f   JSONHandler.obj
 0001:00027847       __unwindfunclet$?GetJSONFromObject@JSONHandler@@SA_NPAXHAAV?$basic_string@DU?$char_traits@D@std@@V?$allocator@D@2@@std@@AAI@Z$150 10028847 f   JSONHandler.obj
 0001:00027852       __unwindfunclet$?GetJSONFromObject@JSONHandler@@SA_NPAXHAAV?$basic_string@DU?$char_traits@D@std@@V?$allocator@D@2@@std@@AAI@Z$151 10028852 f   JSONHandler.obj
 0001:0002785d       __unwindfunclet$?GetJSONFromObject@JSONHandler@@SA_NPAXHAAV?$basic_string@DU?$char_traits@D@std@@V?$allocator@D@2@@std@@AAI@Z$152 1002885d f   JSONHandler.obj
 0001:00027868       __unwindfunclet$?GetJSONFromObject@JSONHandler@@SA_NPAXHAAV?$basic_string@DU?$char_traits@D@std@@V?$allocator@D@2@@std@@AAI@Z$154 10028868 f   JSONHandler.obj
 0001:00027873       __unwindfunclet$?GetJSONFromObject@JSONHandler@@SA_NPAXHAAV?$basic_string@DU?$char_traits@D@std@@V?$allocator@D@2@@std@@AAI@Z$155 10028873 f   JSONHandler.obj
 0001:0002787e       __unwindfunclet$?GetJSONFromObject@JSONHandler@@SA_NPAXHAAV?$basic_string@DU?$char_traits@D@std@@V?$allocator@D@2@@std@@AAI@Z$156 1002887e f   JSONHandler.obj
 0001:00027889       __unwindfunclet$?GetJSONFromObject@JSONHandler@@SA_NPAXHAAV?$basic_string@DU?$char_traits@D@std@@V?$allocator@D@2@@std@@AAI@Z$158 10028889 f   JSONHandler.obj
 0001:00027894       __unwindfunclet$?GetJSONFromObject@JSONHandler@@SA_NPAXHAAV?$basic_string@DU?$char_traits@D@std@@V?$allocator@D@2@@std@@AAI@Z$159 10028894 f   JSONHandler.obj
 0001:0002789f       __unwindfunclet$?GetJSONFromObject@JSONHandler@@SA_NPAXHAAV?$basic_string@DU?$char_traits@D@std@@V?$allocator@D@2@@std@@AAI@Z$160 1002889f f   JSONHandler.obj
 0001:000278aa       __unwindfunclet$?GetJSONFromObject@JSONHandler@@SA_NPAXHAAV?$basic_string@DU?$char_traits@D@std@@V?$allocator@D@2@@std@@AAI@Z$161 100288aa f   JSONHandler.obj
 0001:000278b5       __unwindfunclet$?GetJSONFromObject@JSONHandler@@SA_NPAXHAAV?$basic_string@DU?$char_traits@D@std@@V?$allocator@D@2@@std@@AAI@Z$162 100288b5 f   JSONHandler.obj
 0001:000278c0       __unwindfunclet$?GetJSONFromObject@JSONHandler@@SA_NPAXHAAV?$basic_string@DU?$char_traits@D@std@@V?$allocator@D@2@@std@@AAI@Z$163 100288c0 f   JSONHandler.obj
 0001:000278cb       __unwindfunclet$?GetJSONFromObject@JSONHandler@@SA_NPAXHAAV?$basic_string@DU?$char_traits@D@std@@V?$allocator@D@2@@std@@AAI@Z$164 100288cb f   JSONHandler.obj
 0001:000278d6       __unwindfunclet$?GetJSONFromObject@JSONHandler@@SA_NPAXHAAV?$basic_string@DU?$char_traits@D@std@@V?$allocator@D@2@@std@@AAI@Z$166 100288d6 f   JSONHandler.obj
 0001:000278e1       __unwindfunclet$?GetJSONFromObject@JSONHandler@@SA_NPAXHAAV?$basic_string@DU?$char_traits@D@std@@V?$allocator@D@2@@std@@AAI@Z$167 100288e1 f   JSONHandler.obj
 0001:000278ec       __unwindfunclet$?GetJSONFromObject@JSONHandler@@SA_NPAXHAAV?$basic_string@DU?$char_traits@D@std@@V?$allocator@D@2@@std@@AAI@Z$168 100288ec f   JSONHandler.obj
 0001:000278f7       __unwindfunclet$?GetJSONFromObject@JSONHandler@@SA_NPAXHAAV?$basic_string@DU?$char_traits@D@std@@V?$allocator@D@2@@std@@AAI@Z$169 100288f7 f   JSONHandler.obj
 0001:00027902       __unwindfunclet$?GetJSONFromObject@JSONHandler@@SA_NPAXHAAV?$basic_string@DU?$char_traits@D@std@@V?$allocator@D@2@@std@@AAI@Z$170 10028902 f   JSONHandler.obj
 0001:0002790d       __unwindfunclet$?GetJSONFromObject@JSONHandler@@SA_NPAXHAAV?$basic_string@DU?$char_traits@D@std@@V?$allocator@D@2@@std@@AAI@Z$171 1002890d f   JSONHandler.obj
 0001:00027918       __unwindfunclet$?GetJSONFromObject@JSONHandler@@SA_NPAXHAAV?$basic_string@DU?$char_traits@D@std@@V?$allocator@D@2@@std@@AAI@Z$172 10028918 f   JSONHandler.obj
 0001:00027923       __unwindfunclet$?GetJSONFromObject@JSONHandler@@SA_NPAXHAAV?$basic_string@DU?$char_traits@D@std@@V?$allocator@D@2@@std@@AAI@Z$174 10028923 f   JSONHandler.obj
 0001:0002792e       __unwindfunclet$?GetJSONFromObject@JSONHandler@@SA_NPAXHAAV?$basic_string@DU?$char_traits@D@std@@V?$allocator@D@2@@std@@AAI@Z$175 1002892e f   JSONHandler.obj
 0001:00027939       __unwindfunclet$?GetJSONFromObject@JSONHandler@@SA_NPAXHAAV?$basic_string@DU?$char_traits@D@std@@V?$allocator@D@2@@std@@AAI@Z$176 10028939 f   JSONHandler.obj
 0001:00027944       __unwindfunclet$?GetJSONFromObject@JSONHandler@@SA_NPAXHAAV?$basic_string@DU?$char_traits@D@std@@V?$allocator@D@2@@std@@AAI@Z$177 10028944 f   JSONHandler.obj
 0001:0002794f       __unwindfunclet$?GetJSONFromObject@JSONHandler@@SA_NPAXHAAV?$basic_string@DU?$char_traits@D@std@@V?$allocator@D@2@@std@@AAI@Z$178 1002894f f   JSONHandler.obj
 0001:0002795a       __unwindfunclet$?GetJSONFromObject@JSONHandler@@SA_NPAXHAAV?$basic_string@DU?$char_traits@D@std@@V?$allocator@D@2@@std@@AAI@Z$179 1002895a f   JSONHandler.obj
 0001:00027965       __unwindfunclet$?GetJSONFromObject@JSONHandler@@SA_NPAXHAAV?$basic_string@DU?$char_traits@D@std@@V?$allocator@D@2@@std@@AAI@Z$180 10028965 f   JSONHandler.obj
 0001:00027970       __unwindfunclet$?GetJSONFromObject@JSONHandler@@SA_NPAXHAAV?$basic_string@DU?$char_traits@D@std@@V?$allocator@D@2@@std@@AAI@Z$181 10028970 f   JSONHandler.obj
 0001:0002797b       __unwindfunclet$?GetJSONFromObject@JSONHandler@@SA_NPAXHAAV?$basic_string@DU?$char_traits@D@std@@V?$allocator@D@2@@std@@AAI@Z$182 1002897b f   JSONHandler.obj
 0001:00027986       __unwindfunclet$?GetJSONFromObject@JSONHandler@@SA_NPAXHAAV?$basic_string@DU?$char_traits@D@std@@V?$allocator@D@2@@std@@AAI@Z$183 10028986 f   JSONHandler.obj
 0001:00027991       __unwindfunclet$?GetJSONFromObject@JSONHandler@@SA_NPAXHAAV?$basic_string@DU?$char_traits@D@std@@V?$allocator@D@2@@std@@AAI@Z$184 10028991 f   JSONHandler.obj
 0001:0002799c       __unwindfunclet$?GetJSONFromObject@JSONHandler@@SA_NPAXHAAV?$basic_string@DU?$char_traits@D@std@@V?$allocator@D@2@@std@@AAI@Z$185 1002899c f   JSONHandler.obj
 0001:000279a7       __unwindfunclet$?GetJSONFromObject@JSONHandler@@SA_NPAXHAAV?$basic_string@DU?$char_traits@D@std@@V?$allocator@D@2@@std@@AAI@Z$186 100289a7 f   JSONHandler.obj
 0001:000279b2       __unwindfunclet$?GetJSONFromObject@JSONHandler@@SA_NPAXHAAV?$basic_string@DU?$char_traits@D@std@@V?$allocator@D@2@@std@@AAI@Z$187 100289b2 f   JSONHandler.obj
 0001:000279bd       __unwindfunclet$?GetJSONFromObject@JSONHandler@@SA_NPAXHAAV?$basic_string@DU?$char_traits@D@std@@V?$allocator@D@2@@std@@AAI@Z$188 100289bd f   JSONHandler.obj
 0001:000279c8       __unwindfunclet$?GetJSONFromObject@JSONHandler@@SA_NPAXHAAV?$basic_string@DU?$char_traits@D@std@@V?$allocator@D@2@@std@@AAI@Z$189 100289c8 f   JSONHandler.obj
 0001:000279d3       __unwindfunclet$?GetJSONFromObject@JSONHandler@@SA_NPAXHAAV?$basic_string@DU?$char_traits@D@std@@V?$allocator@D@2@@std@@AAI@Z$190 100289d3 f   JSONHandler.obj
 0001:000279de       __unwindfunclet$?GetJSONFromObject@JSONHandler@@SA_NPAXHAAV?$basic_string@DU?$char_traits@D@std@@V?$allocator@D@2@@std@@AAI@Z$191 100289de f   JSONHandler.obj
 0001:000279e9       __unwindfunclet$?GetJSONFromObject@JSONHandler@@SA_NPAXHAAV?$basic_string@DU?$char_traits@D@std@@V?$allocator@D@2@@std@@AAI@Z$192 100289e9 f   JSONHandler.obj
 0001:000279f4       __unwindfunclet$?GetJSONFromObject@JSONHandler@@SA_NPAXHAAV?$basic_string@DU?$char_traits@D@std@@V?$allocator@D@2@@std@@AAI@Z$193 100289f4 f   JSONHandler.obj
 0001:000279ff       __unwindfunclet$?GetJSONFromObject@JSONHandler@@SA_NPAXHAAV?$basic_string@DU?$char_traits@D@std@@V?$allocator@D@2@@std@@AAI@Z$195 100289ff f   JSONHandler.obj
 0001:00027a0a       __unwindfunclet$?GetJSONFromObject@JSONHandler@@SA_NPAXHAAV?$basic_string@DU?$char_traits@D@std@@V?$allocator@D@2@@std@@AAI@Z$196 10028a0a f   JSONHandler.obj
 0001:00027a15       __unwindfunclet$?GetJSONFromObject@JSONHandler@@SA_NPAXHAAV?$basic_string@DU?$char_traits@D@std@@V?$allocator@D@2@@std@@AAI@Z$197 10028a15 f   JSONHandler.obj
 0001:00027a20       __unwindfunclet$?GetJSONFromObject@JSONHandler@@SA_NPAXHAAV?$basic_string@DU?$char_traits@D@std@@V?$allocator@D@2@@std@@AAI@Z$198 10028a20 f   JSONHandler.obj
 0001:00027a2b       __unwindfunclet$?GetJSONFromObject@JSONHandler@@SA_NPAXHAAV?$basic_string@DU?$char_traits@D@std@@V?$allocator@D@2@@std@@AAI@Z$199 10028a2b f   JSONHandler.obj
 0001:00027a36       __unwindfunclet$?GetJSONFromObject@JSONHandler@@SA_NPAXHAAV?$basic_string@DU?$char_traits@D@std@@V?$allocator@D@2@@std@@AAI@Z$200 10028a36 f   JSONHandler.obj
 0001:00027a41       __unwindfunclet$?GetJSONFromObject@JSONHandler@@SA_NPAXHAAV?$basic_string@DU?$char_traits@D@std@@V?$allocator@D@2@@std@@AAI@Z$201 10028a41 f   JSONHandler.obj
 0001:00027a4c       __unwindfunclet$?GetJSONFromObject@JSONHandler@@SA_NPAXHAAV?$basic_string@DU?$char_traits@D@std@@V?$allocator@D@2@@std@@AAI@Z$202 10028a4c f   JSONHandler.obj
 0001:00027a57       __unwindfunclet$?GetJSONFromObject@JSONHandler@@SA_NPAXHAAV?$basic_string@DU?$char_traits@D@std@@V?$allocator@D@2@@std@@AAI@Z$203 10028a57 f   JSONHandler.obj
 0001:00027a62       __unwindfunclet$?GetJSONFromObject@JSONHandler@@SA_NPAXHAAV?$basic_string@DU?$char_traits@D@std@@V?$allocator@D@2@@std@@AAI@Z$204 10028a62 f   JSONHandler.obj
 0001:00027a6d       __unwindfunclet$?GetJSONFromObject@JSONHandler@@SA_NPAXHAAV?$basic_string@DU?$char_traits@D@std@@V?$allocator@D@2@@std@@AAI@Z$206 10028a6d f   JSONHandler.obj
 0001:00027a78       __unwindfunclet$?GetJSONFromObject@JSONHandler@@SA_NPAXHAAV?$basic_string@DU?$char_traits@D@std@@V?$allocator@D@2@@std@@AAI@Z$207 10028a78 f   JSONHandler.obj
 0001:00027a83       __unwindfunclet$?GetJSONFromObject@JSONHandler@@SA_NPAXHAAV?$basic_string@DU?$char_traits@D@std@@V?$allocator@D@2@@std@@AAI@Z$208 10028a83 f   JSONHandler.obj
 0001:00027a8e       __unwindfunclet$?GetJSONFromObject@JSONHandler@@SA_NPAXHAAV?$basic_string@DU?$char_traits@D@std@@V?$allocator@D@2@@std@@AAI@Z$209 10028a8e f   JSONHandler.obj
 0001:00027a99       __unwindfunclet$?GetJSONFromObject@JSONHandler@@SA_NPAXHAAV?$basic_string@DU?$char_traits@D@std@@V?$allocator@D@2@@std@@AAI@Z$210 10028a99 f   JSONHandler.obj
 0001:00027aa4       __unwindfunclet$?GetJSONFromObject@JSONHandler@@SA_NPAXHAAV?$basic_string@DU?$char_traits@D@std@@V?$allocator@D@2@@std@@AAI@Z$211 10028aa4 f   JSONHandler.obj
 0001:00027aaf       __unwindfunclet$?GetJSONFromObject@JSONHandler@@SA_NPAXHAAV?$basic_string@DU?$char_traits@D@std@@V?$allocator@D@2@@std@@AAI@Z$212 10028aaf f   JSONHandler.obj
 0001:00027aba       __unwindfunclet$?GetJSONFromObject@JSONHandler@@SA_NPAXHAAV?$basic_string@DU?$char_traits@D@std@@V?$allocator@D@2@@std@@AAI@Z$213 10028aba f   JSONHandler.obj
 0001:00027ac5       __unwindfunclet$?GetJSONFromObject@JSONHandler@@SA_NPAXHAAV?$basic_string@DU?$char_traits@D@std@@V?$allocator@D@2@@std@@AAI@Z$214 10028ac5 f   JSONHandler.obj
 0001:00027ad0       __unwindfunclet$?GetJSONFromObject@JSONHandler@@SA_NPAXHAAV?$basic_string@DU?$char_traits@D@std@@V?$allocator@D@2@@std@@AAI@Z$215 10028ad0 f   JSONHandler.obj
 0001:00027adb       __unwindfunclet$?GetJSONFromObject@JSONHandler@@SA_NPAXHAAV?$basic_string@DU?$char_traits@D@std@@V?$allocator@D@2@@std@@AAI@Z$216 10028adb f   JSONHandler.obj
 0001:00027ae6       __unwindfunclet$?GetJSONFromObject@JSONHandler@@SA_NPAXHAAV?$basic_string@DU?$char_traits@D@std@@V?$allocator@D@2@@std@@AAI@Z$217 10028ae6 f   JSONHandler.obj
 0001:00027af1       __unwindfunclet$?GetJSONFromObject@JSONHandler@@SA_NPAXHAAV?$basic_string@DU?$char_traits@D@std@@V?$allocator@D@2@@std@@AAI@Z$218 10028af1 f   JSONHandler.obj
 0001:00027afc       __unwindfunclet$?GetJSONFromObject@JSONHandler@@SA_NPAXHAAV?$basic_string@DU?$char_traits@D@std@@V?$allocator@D@2@@std@@AAI@Z$219 10028afc f   JSONHandler.obj
 0001:00027b07       __unwindfunclet$?GetJSONFromObject@JSONHandler@@SA_NPAXHAAV?$basic_string@DU?$char_traits@D@std@@V?$allocator@D@2@@std@@AAI@Z$220 10028b07 f   JSONHandler.obj
 0001:00027b12       __unwindfunclet$?GetJSONFromObject@JSONHandler@@SA_NPAXHAAV?$basic_string@DU?$char_traits@D@std@@V?$allocator@D@2@@std@@AAI@Z$221 10028b12 f   JSONHandler.obj
 0001:00027b1d       __unwindfunclet$?GetJSONFromObject@JSONHandler@@SA_NPAXHAAV?$basic_string@DU?$char_traits@D@std@@V?$allocator@D@2@@std@@AAI@Z$222 10028b1d f   JSONHandler.obj
 0001:00027b28       __unwindfunclet$?GetJSONFromObject@JSONHandler@@SA_NPAXHAAV?$basic_string@DU?$char_traits@D@std@@V?$allocator@D@2@@std@@AAI@Z$223 10028b28 f   JSONHandler.obj
 0001:00027b33       __unwindfunclet$?GetJSONFromObject@JSONHandler@@SA_NPAXHAAV?$basic_string@DU?$char_traits@D@std@@V?$allocator@D@2@@std@@AAI@Z$224 10028b33 f   JSONHandler.obj
 0001:00027b3e       __unwindfunclet$?GetJSONFromObject@JSONHandler@@SA_NPAXHAAV?$basic_string@DU?$char_traits@D@std@@V?$allocator@D@2@@std@@AAI@Z$225 10028b3e f   JSONHandler.obj
 0001:00027b49       __unwindfunclet$?GetJSONFromObject@JSONHandler@@SA_NPAXHAAV?$basic_string@DU?$char_traits@D@std@@V?$allocator@D@2@@std@@AAI@Z$226 10028b49 f   JSONHandler.obj
 0001:00027b54       __unwindfunclet$?GetJSONFromObject@JSONHandler@@SA_NPAXHAAV?$basic_string@DU?$char_traits@D@std@@V?$allocator@D@2@@std@@AAI@Z$227 10028b54 f   JSONHandler.obj
 0001:00027b5f       __unwindfunclet$?GetJSONFromObject@JSONHandler@@SA_NPAXHAAV?$basic_string@DU?$char_traits@D@std@@V?$allocator@D@2@@std@@AAI@Z$228 10028b5f f   JSONHandler.obj
 0001:00027b6a       __unwindfunclet$?GetJSONFromObject@JSONHandler@@SA_NPAXHAAV?$basic_string@DU?$char_traits@D@std@@V?$allocator@D@2@@std@@AAI@Z$229 10028b6a f   JSONHandler.obj
 0001:00027b75       __unwindfunclet$?GetJSONFromObject@JSONHandler@@SA_NPAXHAAV?$basic_string@DU?$char_traits@D@std@@V?$allocator@D@2@@std@@AAI@Z$230 10028b75 f   JSONHandler.obj
 0001:00027b80       __unwindfunclet$?GetJSONFromObject@JSONHandler@@SA_NPAXHAAV?$basic_string@DU?$char_traits@D@std@@V?$allocator@D@2@@std@@AAI@Z$231 10028b80 f   JSONHandler.obj
 0001:00027b8b       __unwindfunclet$?GetJSONFromObject@JSONHandler@@SA_NPAXHAAV?$basic_string@DU?$char_traits@D@std@@V?$allocator@D@2@@std@@AAI@Z$232 10028b8b f   JSONHandler.obj
 0001:00027b96       __unwindfunclet$?GetJSONFromObject@JSONHandler@@SA_NPAXHAAV?$basic_string@DU?$char_traits@D@std@@V?$allocator@D@2@@std@@AAI@Z$233 10028b96 f   JSONHandler.obj
 0001:00027ba1       __unwindfunclet$?GetJSONFromObject@JSONHandler@@SA_NPAXHAAV?$basic_string@DU?$char_traits@D@std@@V?$allocator@D@2@@std@@AAI@Z$234 10028ba1 f   JSONHandler.obj
 0001:00027bac       __unwindfunclet$?GetJSONFromObject@JSONHandler@@SA_NPAXHAAV?$basic_string@DU?$char_traits@D@std@@V?$allocator@D@2@@std@@AAI@Z$235 10028bac f   JSONHandler.obj
 0001:00027bb7       __unwindfunclet$?GetJSONFromObject@JSONHandler@@SA_NPAXHAAV?$basic_string@DU?$char_traits@D@std@@V?$allocator@D@2@@std@@AAI@Z$236 10028bb7 f   JSONHandler.obj
 0001:00027bc2       __unwindfunclet$?GetJSONFromObject@JSONHandler@@SA_NPAXHAAV?$basic_string@DU?$char_traits@D@std@@V?$allocator@D@2@@std@@AAI@Z$238 10028bc2 f   JSONHandler.obj
 0001:00027bcd       __unwindfunclet$?GetJSONFromObject@JSONHandler@@SA_NPAXHAAV?$basic_string@DU?$char_traits@D@std@@V?$allocator@D@2@@std@@AAI@Z$239 10028bcd f   JSONHandler.obj
 0001:00027bd8       __unwindfunclet$?GetJSONFromObject@JSONHandler@@SA_NPAXHAAV?$basic_string@DU?$char_traits@D@std@@V?$allocator@D@2@@std@@AAI@Z$240 10028bd8 f   JSONHandler.obj
 0001:00027be3       __unwindfunclet$?GetJSONFromObject@JSONHandler@@SA_NPAXHAAV?$basic_string@DU?$char_traits@D@std@@V?$allocator@D@2@@std@@AAI@Z$241 10028be3 f   JSONHandler.obj
 0001:00027bee       __unwindfunclet$?GetJSONFromObject@JSONHandler@@SA_NPAXHAAV?$basic_string@DU?$char_traits@D@std@@V?$allocator@D@2@@std@@AAI@Z$242 10028bee f   JSONHandler.obj
 0001:00027bf9       __unwindfunclet$?GetJSONFromObject@JSONHandler@@SA_NPAXHAAV?$basic_string@DU?$char_traits@D@std@@V?$allocator@D@2@@std@@AAI@Z$243 10028bf9 f   JSONHandler.obj
 0001:00027c04       __unwindfunclet$?GetJSONFromObject@JSONHandler@@SA_NPAXHAAV?$basic_string@DU?$char_traits@D@std@@V?$allocator@D@2@@std@@AAI@Z$244 10028c04 f   JSONHandler.obj
 0001:00027c0f       __unwindfunclet$?GetJSONFromObject@JSONHandler@@SA_NPAXHAAV?$basic_string@DU?$char_traits@D@std@@V?$allocator@D@2@@std@@AAI@Z$245 10028c0f f   JSONHandler.obj
 0001:00027c1a       __unwindfunclet$?GetJSONFromObject@JSONHandler@@SA_NPAXHAAV?$basic_string@DU?$char_traits@D@std@@V?$allocator@D@2@@std@@AAI@Z$246 10028c1a f   JSONHandler.obj
 0001:00027c25       __unwindfunclet$?GetJSONFromObject@JSONHandler@@SA_NPAXHAAV?$basic_string@DU?$char_traits@D@std@@V?$allocator@D@2@@std@@AAI@Z$247 10028c25 f   JSONHandler.obj
 0001:00027c30       __unwindfunclet$?GetJSONFromObject@JSONHandler@@SA_NPAXHAAV?$basic_string@DU?$char_traits@D@std@@V?$allocator@D@2@@std@@AAI@Z$248 10028c30 f   JSONHandler.obj
 0001:00027c3b       __unwindfunclet$?GetJSONFromObject@JSONHandler@@SA_NPAXHAAV?$basic_string@DU?$char_traits@D@std@@V?$allocator@D@2@@std@@AAI@Z$249 10028c3b f   JSONHandler.obj
 0001:00027c46       __unwindfunclet$?GetJSONFromObject@JSONHandler@@SA_NPAXHAAV?$basic_string@DU?$char_traits@D@std@@V?$allocator@D@2@@std@@AAI@Z$250 10028c46 f   JSONHandler.obj
 0001:00027c51       __unwindfunclet$?GetJSONFromObject@JSONHandler@@SA_NPAXHAAV?$basic_string@DU?$char_traits@D@std@@V?$allocator@D@2@@std@@AAI@Z$251 10028c51 f   JSONHandler.obj
 0001:00027c5c       __unwindfunclet$?GetJSONFromObject@JSONHandler@@SA_NPAXHAAV?$basic_string@DU?$char_traits@D@std@@V?$allocator@D@2@@std@@AAI@Z$252 10028c5c f   JSONHandler.obj
 0001:00027c67       __unwindfunclet$?GetJSONFromObject@JSONHandler@@SA_NPAXHAAV?$basic_string@DU?$char_traits@D@std@@V?$allocator@D@2@@std@@AAI@Z$253 10028c67 f   JSONHandler.obj
 0001:00027c72       __unwindfunclet$?GetJSONFromObject@JSONHandler@@SA_NPAXHAAV?$basic_string@DU?$char_traits@D@std@@V?$allocator@D@2@@std@@AAI@Z$254 10028c72 f   JSONHandler.obj
 0001:00027c7d       __unwindfunclet$?GetJSONFromObject@JSONHandler@@SA_NPAXHAAV?$basic_string@DU?$char_traits@D@std@@V?$allocator@D@2@@std@@AAI@Z$255 10028c7d f   JSONHandler.obj
 0001:00027c88       __unwindfunclet$?GetJSONFromObject@JSONHandler@@SA_NPAXHAAV?$basic_string@DU?$char_traits@D@std@@V?$allocator@D@2@@std@@AAI@Z$256 10028c88 f   JSONHandler.obj
 0001:00027c93       __unwindfunclet$?GetJSONFromObject@JSONHandler@@SA_NPAXHAAV?$basic_string@DU?$char_traits@D@std@@V?$allocator@D@2@@std@@AAI@Z$258 10028c93 f   JSONHandler.obj
 0001:00027c9e       __unwindfunclet$?GetJSONFromObject@JSONHandler@@SA_NPAXHAAV?$basic_string@DU?$char_traits@D@std@@V?$allocator@D@2@@std@@AAI@Z$259 10028c9e f   JSONHandler.obj
 0001:00027ca9       __unwindfunclet$?GetJSONFromObject@JSONHandler@@SA_NPAXHAAV?$basic_string@DU?$char_traits@D@std@@V?$allocator@D@2@@std@@AAI@Z$260 10028ca9 f   JSONHandler.obj
 0001:00027cb4       __unwindfunclet$?GetJSONFromObject@JSONHandler@@SA_NPAXHAAV?$basic_string@DU?$char_traits@D@std@@V?$allocator@D@2@@std@@AAI@Z$262 10028cb4 f   JSONHandler.obj
 0001:00027cbf       __unwindfunclet$?GetJSONFromObject@JSONHandler@@SA_NPAXHAAV?$basic_string@DU?$char_traits@D@std@@V?$allocator@D@2@@std@@AAI@Z$263 10028cbf f   JSONHandler.obj
 0001:00027cca       __unwindfunclet$?GetJSONFromObject@JSONHandler@@SA_NPAXHAAV?$basic_string@DU?$char_traits@D@std@@V?$allocator@D@2@@std@@AAI@Z$264 10028cca f   JSONHandler.obj
 0001:00027cd5       __unwindfunclet$?GetJSONFromObject@JSONHandler@@SA_NPAXHAAV?$basic_string@DU?$char_traits@D@std@@V?$allocator@D@2@@std@@AAI@Z$266 10028cd5 f   JSONHandler.obj
 0001:00027ce0       __unwindfunclet$?GetJSONFromObject@JSONHandler@@SA_NPAXHAAV?$basic_string@DU?$char_traits@D@std@@V?$allocator@D@2@@std@@AAI@Z$267 10028ce0 f   JSONHandler.obj
 0001:00027ceb       __unwindfunclet$?GetJSONFromObject@JSONHandler@@SA_NPAXHAAV?$basic_string@DU?$char_traits@D@std@@V?$allocator@D@2@@std@@AAI@Z$268 10028ceb f   JSONHandler.obj
 0001:00027cf6       __unwindfunclet$?GetJSONFromObject@JSONHandler@@SA_NPAXHAAV?$basic_string@DU?$char_traits@D@std@@V?$allocator@D@2@@std@@AAI@Z$270 10028cf6 f   JSONHandler.obj
 0001:00027d01       __unwindfunclet$?GetJSONFromObject@JSONHandler@@SA_NPAXHAAV?$basic_string@DU?$char_traits@D@std@@V?$allocator@D@2@@std@@AAI@Z$271 10028d01 f   JSONHandler.obj
 0001:00027d0c       __unwindfunclet$?GetJSONFromObject@JSONHandler@@SA_NPAXHAAV?$basic_string@DU?$char_traits@D@std@@V?$allocator@D@2@@std@@AAI@Z$272 10028d0c f   JSONHandler.obj
 0001:00027d17       __unwindfunclet$?GetJSONFromObject@JSONHandler@@SA_NPAXHAAV?$basic_string@DU?$char_traits@D@std@@V?$allocator@D@2@@std@@AAI@Z$273 10028d17 f   JSONHandler.obj
 0001:00027d22       __unwindfunclet$?GetJSONFromObject@JSONHandler@@SA_NPAXHAAV?$basic_string@DU?$char_traits@D@std@@V?$allocator@D@2@@std@@AAI@Z$274 10028d22 f   JSONHandler.obj
 0001:00027d2d       __unwindfunclet$?GetJSONFromObject@JSONHandler@@SA_NPAXHAAV?$basic_string@DU?$char_traits@D@std@@V?$allocator@D@2@@std@@AAI@Z$275 10028d2d f   JSONHandler.obj
 0001:00027d38       __unwindfunclet$?GetJSONFromObject@JSONHandler@@SA_NPAXHAAV?$basic_string@DU?$char_traits@D@std@@V?$allocator@D@2@@std@@AAI@Z$276 10028d38 f   JSONHandler.obj
 0001:00027d43       __unwindfunclet$?GetJSONFromObject@JSONHandler@@SA_NPAXHAAV?$basic_string@DU?$char_traits@D@std@@V?$allocator@D@2@@std@@AAI@Z$277 10028d43 f   JSONHandler.obj
 0001:00027d4e       __unwindfunclet$?GetJSONFromObject@JSONHandler@@SA_NPAXHAAV?$basic_string@DU?$char_traits@D@std@@V?$allocator@D@2@@std@@AAI@Z$278 10028d4e f   JSONHandler.obj
 0001:00027d59       __unwindfunclet$?GetJSONFromObject@JSONHandler@@SA_NPAXHAAV?$basic_string@DU?$char_traits@D@std@@V?$allocator@D@2@@std@@AAI@Z$279 10028d59 f   JSONHandler.obj
 0001:00027d64       __unwindfunclet$?GetJSONFromObject@JSONHandler@@SA_NPAXHAAV?$basic_string@DU?$char_traits@D@std@@V?$allocator@D@2@@std@@AAI@Z$280 10028d64 f   JSONHandler.obj
 0001:00027d6f       __unwindfunclet$?GetJSONFromObject@JSONHandler@@SA_NPAXHAAV?$basic_string@DU?$char_traits@D@std@@V?$allocator@D@2@@std@@AAI@Z$281 10028d6f f   JSONHandler.obj
 0001:00027d7a       __unwindfunclet$?GetJSONFromObject@JSONHandler@@SA_NPAXHAAV?$basic_string@DU?$char_traits@D@std@@V?$allocator@D@2@@std@@AAI@Z$282 10028d7a f   JSONHandler.obj
 0001:00027d85       __unwindfunclet$?GetJSONFromObject@JSONHandler@@SA_NPAXHAAV?$basic_string@DU?$char_traits@D@std@@V?$allocator@D@2@@std@@AAI@Z$283 10028d85 f   JSONHandler.obj
 0001:00027d90       __unwindfunclet$?GetJSONFromObject@JSONHandler@@SA_NPAXHAAV?$basic_string@DU?$char_traits@D@std@@V?$allocator@D@2@@std@@AAI@Z$284 10028d90 f   JSONHandler.obj
 0001:00027d9b       __unwindfunclet$?GetJSONFromObject@JSONHandler@@SA_NPAXHAAV?$basic_string@DU?$char_traits@D@std@@V?$allocator@D@2@@std@@AAI@Z$285 10028d9b f   JSONHandler.obj
 0001:00027da6       __unwindfunclet$?GetJSONFromObject@JSONHandler@@SA_NPAXHAAV?$basic_string@DU?$char_traits@D@std@@V?$allocator@D@2@@std@@AAI@Z$286 10028da6 f   JSONHandler.obj
 0001:00027db1       __unwindfunclet$?GetJSONFromObject@JSONHandler@@SA_NPAXHAAV?$basic_string@DU?$char_traits@D@std@@V?$allocator@D@2@@std@@AAI@Z$287 10028db1 f   JSONHandler.obj
 0001:00027dbc       __unwindfunclet$?GetJSONFromObject@JSONHandler@@SA_NPAXHAAV?$basic_string@DU?$char_traits@D@std@@V?$allocator@D@2@@std@@AAI@Z$288 10028dbc f   JSONHandler.obj
 0001:00027dc7       __unwindfunclet$?GetJSONFromObject@JSONHandler@@SA_NPAXHAAV?$basic_string@DU?$char_traits@D@std@@V?$allocator@D@2@@std@@AAI@Z$289 10028dc7 f   JSONHandler.obj
 0001:00027dd2       __unwindfunclet$?GetJSONFromObject@JSONHandler@@SA_NPAXHAAV?$basic_string@DU?$char_traits@D@std@@V?$allocator@D@2@@std@@AAI@Z$290 10028dd2 f   JSONHandler.obj
 0001:00027ddd       __unwindfunclet$?GetJSONFromObject@JSONHandler@@SA_NPAXHAAV?$basic_string@DU?$char_traits@D@std@@V?$allocator@D@2@@std@@AAI@Z$291 10028ddd f   JSONHandler.obj
 0001:00027de8       __unwindfunclet$?GetJSONFromObject@JSONHandler@@SA_NPAXHAAV?$basic_string@DU?$char_traits@D@std@@V?$allocator@D@2@@std@@AAI@Z$292 10028de8 f   JSONHandler.obj
 0001:00027df3       __unwindfunclet$?GetJSONFromObject@JSONHandler@@SA_NPAXHAAV?$basic_string@DU?$char_traits@D@std@@V?$allocator@D@2@@std@@AAI@Z$293 10028df3 f   JSONHandler.obj
 0001:00027dfe       __unwindfunclet$?GetJSONFromObject@JSONHandler@@SA_NPAXHAAV?$basic_string@DU?$char_traits@D@std@@V?$allocator@D@2@@std@@AAI@Z$294 10028dfe f   JSONHandler.obj
 0001:00027e09       __unwindfunclet$?GetJSONFromObject@JSONHandler@@SA_NPAXHAAV?$basic_string@DU?$char_traits@D@std@@V?$allocator@D@2@@std@@AAI@Z$295 10028e09 f   JSONHandler.obj
 0001:00027e14       __unwindfunclet$?GetJSONFromObject@JSONHandler@@SA_NPAXHAAV?$basic_string@DU?$char_traits@D@std@@V?$allocator@D@2@@std@@AAI@Z$296 10028e14 f   JSONHandler.obj
 0001:00027e1f       __unwindfunclet$?GetJSONFromObject@JSONHandler@@SA_NPAXHAAV?$basic_string@DU?$char_traits@D@std@@V?$allocator@D@2@@std@@AAI@Z$297 10028e1f f   JSONHandler.obj
 0001:00027e2a       __unwindfunclet$?GetJSONFromObject@JSONHandler@@SA_NPAXHAAV?$basic_string@DU?$char_traits@D@std@@V?$allocator@D@2@@std@@AAI@Z$298 10028e2a f   JSONHandler.obj
 0001:00027e35       __unwindfunclet$?GetJSONFromObject@JSONHandler@@SA_NPAXHAAV?$basic_string@DU?$char_traits@D@std@@V?$allocator@D@2@@std@@AAI@Z$299 10028e35 f   JSONHandler.obj
 0001:00027e40       __unwindfunclet$?GetJSONFromObject@JSONHandler@@SA_NPAXHAAV?$basic_string@DU?$char_traits@D@std@@V?$allocator@D@2@@std@@AAI@Z$300 10028e40 f   JSONHandler.obj
 0001:00027e4b       __unwindfunclet$?GetJSONFromObject@JSONHandler@@SA_NPAXHAAV?$basic_string@DU?$char_traits@D@std@@V?$allocator@D@2@@std@@AAI@Z$301 10028e4b f   JSONHandler.obj
 0001:00027e56       __unwindfunclet$?GetJSONFromObject@JSONHandler@@SA_NPAXHAAV?$basic_string@DU?$char_traits@D@std@@V?$allocator@D@2@@std@@AAI@Z$302 10028e56 f   JSONHandler.obj
 0001:00027e61       __unwindfunclet$?GetJSONFromObject@JSONHandler@@SA_NPAXHAAV?$basic_string@DU?$char_traits@D@std@@V?$allocator@D@2@@std@@AAI@Z$303 10028e61 f   JSONHandler.obj
 0001:00027e69       __unwindfunclet$?GetJSONFromObject@JSONHandler@@SA_NPAXHAAV?$basic_string@DU?$char_traits@D@std@@V?$allocator@D@2@@std@@AAI@Z$304 10028e69 f   JSONHandler.obj
 0001:00027e74       __unwindfunclet$?GetJSONFromObject@JSONHandler@@SA_NPAXHAAV?$basic_string@DU?$char_traits@D@std@@V?$allocator@D@2@@std@@AAI@Z$306 10028e74 f   JSONHandler.obj
 0001:00027e7f       __unwindfunclet$?GetJSONFromObject@JSONHandler@@SA_NPAXHAAV?$basic_string@DU?$char_traits@D@std@@V?$allocator@D@2@@std@@AAI@Z$307 10028e7f f   JSONHandler.obj
 0001:00027e8a       __unwindfunclet$?GetJSONFromObject@JSONHandler@@SA_NPAXHAAV?$basic_string@DU?$char_traits@D@std@@V?$allocator@D@2@@std@@AAI@Z$308 10028e8a f   JSONHandler.obj
 0001:00027e95       __unwindfunclet$?GetJSONFromObject@JSONHandler@@SA_NPAXHAAV?$basic_string@DU?$char_traits@D@std@@V?$allocator@D@2@@std@@AAI@Z$310 10028e95 f   JSONHandler.obj
 0001:00027ea0       __unwindfunclet$?GetJSONFromObject@JSONHandler@@SA_NPAXHAAV?$basic_string@DU?$char_traits@D@std@@V?$allocator@D@2@@std@@AAI@Z$311 10028ea0 f   JSONHandler.obj
 0001:00027eab       __unwindfunclet$?GetJSONFromObject@JSONHandler@@SA_NPAXHAAV?$basic_string@DU?$char_traits@D@std@@V?$allocator@D@2@@std@@AAI@Z$312 10028eab f   JSONHandler.obj
 0001:00027eb6       __unwindfunclet$?GetJSONFromObject@JSONHandler@@SA_NPAXHAAV?$basic_string@DU?$char_traits@D@std@@V?$allocator@D@2@@std@@AAI@Z$314 10028eb6 f   JSONHandler.obj
 0001:00027ec1       __unwindfunclet$?GetJSONFromObject@JSONHandler@@SA_NPAXHAAV?$basic_string@DU?$char_traits@D@std@@V?$allocator@D@2@@std@@AAI@Z$315 10028ec1 f   JSONHandler.obj
 0001:00027ecc       __unwindfunclet$?GetJSONFromObject@JSONHandler@@SA_NPAXHAAV?$basic_string@DU?$char_traits@D@std@@V?$allocator@D@2@@std@@AAI@Z$316 10028ecc f   JSONHandler.obj
 0001:00027ed7       __unwindfunclet$?GetJSONFromObject@JSONHandler@@SA_NPAXHAAV?$basic_string@DU?$char_traits@D@std@@V?$allocator@D@2@@std@@AAI@Z$318 10028ed7 f   JSONHandler.obj
 0001:00027ee2       __unwindfunclet$?GetJSONFromObject@JSONHandler@@SA_NPAXHAAV?$basic_string@DU?$char_traits@D@std@@V?$allocator@D@2@@std@@AAI@Z$319 10028ee2 f   JSONHandler.obj
 0001:00027eed       __unwindfunclet$?GetJSONFromObject@JSONHandler@@SA_NPAXHAAV?$basic_string@DU?$char_traits@D@std@@V?$allocator@D@2@@std@@AAI@Z$320 10028eed f   JSONHandler.obj
 0001:00027ef8       __unwindfunclet$?GetJSONFromObject@JSONHandler@@SA_NPAXHAAV?$basic_string@DU?$char_traits@D@std@@V?$allocator@D@2@@std@@AAI@Z$322 10028ef8 f   JSONHandler.obj
 0001:00027f03       __unwindfunclet$?GetJSONFromObject@JSONHandler@@SA_NPAXHAAV?$basic_string@DU?$char_traits@D@std@@V?$allocator@D@2@@std@@AAI@Z$323 10028f03 f   JSONHandler.obj
 0001:00027f0e       __unwindfunclet$?GetJSONFromObject@JSONHandler@@SA_NPAXHAAV?$basic_string@DU?$char_traits@D@std@@V?$allocator@D@2@@std@@AAI@Z$324 10028f0e f   JSONHandler.obj
 0001:00027f19       __unwindfunclet$?GetJSONFromObject@JSONHandler@@SA_NPAXHAAV?$basic_string@DU?$char_traits@D@std@@V?$allocator@D@2@@std@@AAI@Z$325 10028f19 f   JSONHandler.obj
 0001:00027f24       __unwindfunclet$?GetJSONFromObject@JSONHandler@@SA_NPAXHAAV?$basic_string@DU?$char_traits@D@std@@V?$allocator@D@2@@std@@AAI@Z$327 10028f24 f   JSONHandler.obj
 0001:00027f2f       __unwindfunclet$?GetJSONFromObject@JSONHandler@@SA_NPAXHAAV?$basic_string@DU?$char_traits@D@std@@V?$allocator@D@2@@std@@AAI@Z$328 10028f2f f   JSONHandler.obj
 0001:00027f3a       __unwindfunclet$?GetJSONFromObject@JSONHandler@@SA_NPAXHAAV?$basic_string@DU?$char_traits@D@std@@V?$allocator@D@2@@std@@AAI@Z$329 10028f3a f   JSONHandler.obj
 0001:00027f45       __unwindfunclet$?GetJSONFromObject@JSONHandler@@SA_NPAXHAAV?$basic_string@DU?$char_traits@D@std@@V?$allocator@D@2@@std@@AAI@Z$330 10028f45 f   JSONHandler.obj
 0001:00027f50       __unwindfunclet$?GetJSONFromObject@JSONHandler@@SA_NPAXHAAV?$basic_string@DU?$char_traits@D@std@@V?$allocator@D@2@@std@@AAI@Z$331 10028f50 f   JSONHandler.obj
 0001:00027f5b       __unwindfunclet$?GetJSONFromObject@JSONHandler@@SA_NPAXHAAV?$basic_string@DU?$char_traits@D@std@@V?$allocator@D@2@@std@@AAI@Z$333 10028f5b f   JSONHandler.obj
 0001:00027f66       __unwindfunclet$?GetJSONFromObject@JSONHandler@@SA_NPAXHAAV?$basic_string@DU?$char_traits@D@std@@V?$allocator@D@2@@std@@AAI@Z$334 10028f66 f   JSONHandler.obj
 0001:00027f71       __unwindfunclet$?GetJSONFromObject@JSONHandler@@SA_NPAXHAAV?$basic_string@DU?$char_traits@D@std@@V?$allocator@D@2@@std@@AAI@Z$335 10028f71 f   JSONHandler.obj
 0001:00027f7c       __unwindfunclet$?GetJSONFromObject@JSONHandler@@SA_NPAXHAAV?$basic_string@DU?$char_traits@D@std@@V?$allocator@D@2@@std@@AAI@Z$337 10028f7c f   JSONHandler.obj
 0001:00027f87       __unwindfunclet$?GetJSONFromObject@JSONHandler@@SA_NPAXHAAV?$basic_string@DU?$char_traits@D@std@@V?$allocator@D@2@@std@@AAI@Z$338 10028f87 f   JSONHandler.obj
 0001:00027f92       __unwindfunclet$?GetJSONFromObject@JSONHandler@@SA_NPAXHAAV?$basic_string@DU?$char_traits@D@std@@V?$allocator@D@2@@std@@AAI@Z$339 10028f92 f   JSONHandler.obj
 0001:00027f9d       __unwindfunclet$?GetJSONFromObject@JSONHandler@@SA_NPAXHAAV?$basic_string@DU?$char_traits@D@std@@V?$allocator@D@2@@std@@AAI@Z$340 10028f9d f   JSONHandler.obj
 0001:00027fa8       __unwindfunclet$?GetJSONFromObject@JSONHandler@@SA_NPAXHAAV?$basic_string@DU?$char_traits@D@std@@V?$allocator@D@2@@std@@AAI@Z$341 10028fa8 f   JSONHandler.obj
 0001:00027fb3       __unwindfunclet$?GetJSONFromObject@JSONHandler@@SA_NPAXHAAV?$basic_string@DU?$char_traits@D@std@@V?$allocator@D@2@@std@@AAI@Z$342 10028fb3 f   JSONHandler.obj
 0001:00027fbe       __unwindfunclet$?GetJSONFromObject@JSONHandler@@SA_NPAXHAAV?$basic_string@DU?$char_traits@D@std@@V?$allocator@D@2@@std@@AAI@Z$343 10028fbe f   JSONHandler.obj
 0001:00027fc9       __unwindfunclet$?GetJSONFromObject@JSONHandler@@SA_NPAXHAAV?$basic_string@DU?$char_traits@D@std@@V?$allocator@D@2@@std@@AAI@Z$345 10028fc9 f   JSONHandler.obj
 0001:00027fd4       __unwindfunclet$?GetJSONFromObject@JSONHandler@@SA_NPAXHAAV?$basic_string@DU?$char_traits@D@std@@V?$allocator@D@2@@std@@AAI@Z$346 10028fd4 f   JSONHandler.obj
 0001:00027fdf       __unwindfunclet$?GetJSONFromObject@JSONHandler@@SA_NPAXHAAV?$basic_string@DU?$char_traits@D@std@@V?$allocator@D@2@@std@@AAI@Z$347 10028fdf f   JSONHandler.obj
 0001:00027fea       __unwindfunclet$?GetJSONFromObject@JSONHandler@@SA_NPAXHAAV?$basic_string@DU?$char_traits@D@std@@V?$allocator@D@2@@std@@AAI@Z$349 10028fea f   JSONHandler.obj
 0001:00027ff5       __unwindfunclet$?GetJSONFromObject@JSONHandler@@SA_NPAXHAAV?$basic_string@DU?$char_traits@D@std@@V?$allocator@D@2@@std@@AAI@Z$350 10028ff5 f   JSONHandler.obj
 0001:00028000       __unwindfunclet$?GetJSONFromObject@JSONHandler@@SA_NPAXHAAV?$basic_string@DU?$char_traits@D@std@@V?$allocator@D@2@@std@@AAI@Z$351 10029000 f   JSONHandler.obj
 0001:0002800b       __unwindfunclet$?GetJSONFromObject@JSONHandler@@SA_NPAXHAAV?$basic_string@DU?$char_traits@D@std@@V?$allocator@D@2@@std@@AAI@Z$353 1002900b f   JSONHandler.obj
 0001:00028016       __unwindfunclet$?GetJSONFromObject@JSONHandler@@SA_NPAXHAAV?$basic_string@DU?$char_traits@D@std@@V?$allocator@D@2@@std@@AAI@Z$354 10029016 f   JSONHandler.obj
 0001:00028021       __unwindfunclet$?GetJSONFromObject@JSONHandler@@SA_NPAXHAAV?$basic_string@DU?$char_traits@D@std@@V?$allocator@D@2@@std@@AAI@Z$355 10029021 f   JSONHandler.obj
 0001:0002802c       __unwindfunclet$?GetJSONFromObject@JSONHandler@@SA_NPAXHAAV?$basic_string@DU?$char_traits@D@std@@V?$allocator@D@2@@std@@AAI@Z$357 1002902c f   JSONHandler.obj
 0001:00028037       __unwindfunclet$?GetJSONFromObject@JSONHandler@@SA_NPAXHAAV?$basic_string@DU?$char_traits@D@std@@V?$allocator@D@2@@std@@AAI@Z$358 10029037 f   JSONHandler.obj
 0001:00028042       __unwindfunclet$?GetJSONFromObject@JSONHandler@@SA_NPAXHAAV?$basic_string@DU?$char_traits@D@std@@V?$allocator@D@2@@std@@AAI@Z$359 10029042 f   JSONHandler.obj
 0001:0002804d       __unwindfunclet$?GetJSONFromObject@JSONHandler@@SA_NPAXHAAV?$basic_string@DU?$char_traits@D@std@@V?$allocator@D@2@@std@@AAI@Z$361 1002904d f   JSONHandler.obj
 0001:00028058       __unwindfunclet$?GetJSONFromObject@JSONHandler@@SA_NPAXHAAV?$basic_string@DU?$char_traits@D@std@@V?$allocator@D@2@@std@@AAI@Z$362 10029058 f   JSONHandler.obj
 0001:00028063       __unwindfunclet$?GetJSONFromObject@JSONHandler@@SA_NPAXHAAV?$basic_string@DU?$char_traits@D@std@@V?$allocator@D@2@@std@@AAI@Z$363 10029063 f   JSONHandler.obj
 0001:0002806e       __unwindfunclet$?GetJSONFromObject@JSONHandler@@SA_NPAXHAAV?$basic_string@DU?$char_traits@D@std@@V?$allocator@D@2@@std@@AAI@Z$364 1002906e f   JSONHandler.obj
 0001:00028079       __unwindfunclet$?GetJSONFromObject@JSONHandler@@SA_NPAXHAAV?$basic_string@DU?$char_traits@D@std@@V?$allocator@D@2@@std@@AAI@Z$365 10029079 f   JSONHandler.obj
 0001:00028084       __unwindfunclet$?GetJSONFromObject@JSONHandler@@SA_NPAXHAAV?$basic_string@DU?$char_traits@D@std@@V?$allocator@D@2@@std@@AAI@Z$366 10029084 f   JSONHandler.obj
 0001:0002808f       __unwindfunclet$?GetJSONFromObject@JSONHandler@@SA_NPAXHAAV?$basic_string@DU?$char_traits@D@std@@V?$allocator@D@2@@std@@AAI@Z$367 1002908f f   JSONHandler.obj
 0001:0002809a       __unwindfunclet$?GetJSONFromObject@JSONHandler@@SA_NPAXHAAV?$basic_string@DU?$char_traits@D@std@@V?$allocator@D@2@@std@@AAI@Z$369 1002909a f   JSONHandler.obj
 0001:000280a5       __unwindfunclet$?GetJSONFromObject@JSONHandler@@SA_NPAXHAAV?$basic_string@DU?$char_traits@D@std@@V?$allocator@D@2@@std@@AAI@Z$370 100290a5 f   JSONHandler.obj
 0001:000280b0       __unwindfunclet$?GetJSONFromObject@JSONHandler@@SA_NPAXHAAV?$basic_string@DU?$char_traits@D@std@@V?$allocator@D@2@@std@@AAI@Z$371 100290b0 f   JSONHandler.obj
 0001:000280bb       __unwindfunclet$?GetJSONFromObject@JSONHandler@@SA_NPAXHAAV?$basic_string@DU?$char_traits@D@std@@V?$allocator@D@2@@std@@AAI@Z$373 100290bb f   JSONHandler.obj
 0001:000280c6       __unwindfunclet$?GetJSONFromObject@JSONHandler@@SA_NPAXHAAV?$basic_string@DU?$char_traits@D@std@@V?$allocator@D@2@@std@@AAI@Z$374 100290c6 f   JSONHandler.obj
 0001:000280d1       __unwindfunclet$?GetJSONFromObject@JSONHandler@@SA_NPAXHAAV?$basic_string@DU?$char_traits@D@std@@V?$allocator@D@2@@std@@AAI@Z$375 100290d1 f   JSONHandler.obj
 0001:000280dc       __unwindfunclet$?GetJSONFromObject@JSONHandler@@SA_NPAXHAAV?$basic_string@DU?$char_traits@D@std@@V?$allocator@D@2@@std@@AAI@Z$376 100290dc f   JSONHandler.obj
 0001:000280e7       __unwindfunclet$?GetJSONFromObject@JSONHandler@@SA_NPAXHAAV?$basic_string@DU?$char_traits@D@std@@V?$allocator@D@2@@std@@AAI@Z$377 100290e7 f   JSONHandler.obj
 0001:000280f2       __unwindfunclet$?GetJSONFromObject@JSONHandler@@SA_NPAXHAAV?$basic_string@DU?$char_traits@D@std@@V?$allocator@D@2@@std@@AAI@Z$378 100290f2 f   JSONHandler.obj
 0001:000280fd       __unwindfunclet$?GetJSONFromObject@JSONHandler@@SA_NPAXHAAV?$basic_string@DU?$char_traits@D@std@@V?$allocator@D@2@@std@@AAI@Z$379 100290fd f   JSONHandler.obj
 0001:00028108       __unwindfunclet$?GetJSONFromObject@JSONHandler@@SA_NPAXHAAV?$basic_string@DU?$char_traits@D@std@@V?$allocator@D@2@@std@@AAI@Z$381 10029108 f   JSONHandler.obj
 0001:00028113       __unwindfunclet$?GetJSONFromObject@JSONHandler@@SA_NPAXHAAV?$basic_string@DU?$char_traits@D@std@@V?$allocator@D@2@@std@@AAI@Z$382 10029113 f   JSONHandler.obj
 0001:0002811e       __unwindfunclet$?GetJSONFromObject@JSONHandler@@SA_NPAXHAAV?$basic_string@DU?$char_traits@D@std@@V?$allocator@D@2@@std@@AAI@Z$383 1002911e f   JSONHandler.obj
 0001:00028129       __unwindfunclet$?GetJSONFromObject@JSONHandler@@SA_NPAXHAAV?$basic_string@DU?$char_traits@D@std@@V?$allocator@D@2@@std@@AAI@Z$385 10029129 f   JSONHandler.obj
 0001:00028134       __unwindfunclet$?GetJSONFromObject@JSONHandler@@SA_NPAXHAAV?$basic_string@DU?$char_traits@D@std@@V?$allocator@D@2@@std@@AAI@Z$386 10029134 f   JSONHandler.obj
 0001:0002813f       __unwindfunclet$?GetJSONFromObject@JSONHandler@@SA_NPAXHAAV?$basic_string@DU?$char_traits@D@std@@V?$allocator@D@2@@std@@AAI@Z$387 1002913f f   JSONHandler.obj
 0001:0002814a       __unwindfunclet$?GetJSONFromObject@JSONHandler@@SA_NPAXHAAV?$basic_string@DU?$char_traits@D@std@@V?$allocator@D@2@@std@@AAI@Z$388 1002914a f   JSONHandler.obj
 0001:00028155       __unwindfunclet$?GetJSONFromObject@JSONHandler@@SA_NPAXHAAV?$basic_string@DU?$char_traits@D@std@@V?$allocator@D@2@@std@@AAI@Z$389 10029155 f   JSONHandler.obj
 0001:00028160       __unwindfunclet$?GetJSONFromObject@JSONHandler@@SA_NPAXHAAV?$basic_string@DU?$char_traits@D@std@@V?$allocator@D@2@@std@@AAI@Z$390 10029160 f   JSONHandler.obj
 0001:0002816b       __unwindfunclet$?GetJSONFromObject@JSONHandler@@SA_NPAXHAAV?$basic_string@DU?$char_traits@D@std@@V?$allocator@D@2@@std@@AAI@Z$391 1002916b f   JSONHandler.obj
 0001:00028176       __unwindfunclet$?GetJSONFromObject@JSONHandler@@SA_NPAXHAAV?$basic_string@DU?$char_traits@D@std@@V?$allocator@D@2@@std@@AAI@Z$392 10029176 f   JSONHandler.obj
 0001:00028181       __unwindfunclet$?GetJSONFromObject@JSONHandler@@SA_NPAXHAAV?$basic_string@DU?$char_traits@D@std@@V?$allocator@D@2@@std@@AAI@Z$393 10029181 f   JSONHandler.obj
 0001:0002818c       __unwindfunclet$?GetJSONFromObject@JSONHandler@@SA_NPAXHAAV?$basic_string@DU?$char_traits@D@std@@V?$allocator@D@2@@std@@AAI@Z$394 1002918c f   JSONHandler.obj
 0001:00028197       __unwindfunclet$?GetJSONFromObject@JSONHandler@@SA_NPAXHAAV?$basic_string@DU?$char_traits@D@std@@V?$allocator@D@2@@std@@AAI@Z$395 10029197 f   JSONHandler.obj
 0001:000281a2       __unwindfunclet$?GetJSONFromObject@JSONHandler@@SA_NPAXHAAV?$basic_string@DU?$char_traits@D@std@@V?$allocator@D@2@@std@@AAI@Z$396 100291a2 f   JSONHandler.obj
 0001:000281ad       __unwindfunclet$?GetJSONFromObject@JSONHandler@@SA_NPAXHAAV?$basic_string@DU?$char_traits@D@std@@V?$allocator@D@2@@std@@AAI@Z$397 100291ad f   JSONHandler.obj
 0001:000281b8       __unwindfunclet$?GetJSONFromObject@JSONHandler@@SA_NPAXHAAV?$basic_string@DU?$char_traits@D@std@@V?$allocator@D@2@@std@@AAI@Z$398 100291b8 f   JSONHandler.obj
 0001:000281c3       __unwindfunclet$?GetJSONFromObject@JSONHandler@@SA_NPAXHAAV?$basic_string@DU?$char_traits@D@std@@V?$allocator@D@2@@std@@AAI@Z$399 100291c3 f   JSONHandler.obj
 0001:000281ce       __unwindfunclet$?GetJSONFromObject@JSONHandler@@SA_NPAXHAAV?$basic_string@DU?$char_traits@D@std@@V?$allocator@D@2@@std@@AAI@Z$400 100291ce f   JSONHandler.obj
 0001:000281d9       __unwindfunclet$?GetJSONFromObject@JSONHandler@@SA_NPAXHAAV?$basic_string@DU?$char_traits@D@std@@V?$allocator@D@2@@std@@AAI@Z$401 100291d9 f   JSONHandler.obj
 0001:000281e4       __unwindfunclet$?GetJSONFromObject@JSONHandler@@SA_NPAXHAAV?$basic_string@DU?$char_traits@D@std@@V?$allocator@D@2@@std@@AAI@Z$402 100291e4 f   JSONHandler.obj
 0001:000281ef       __unwindfunclet$?GetJSONFromObject@JSONHandler@@SA_NPAXHAAV?$basic_string@DU?$char_traits@D@std@@V?$allocator@D@2@@std@@AAI@Z$403 100291ef f   JSONHandler.obj
 0001:000281fa       __unwindfunclet$?GetJSONFromObject@JSONHandler@@SA_NPAXHAAV?$basic_string@DU?$char_traits@D@std@@V?$allocator@D@2@@std@@AAI@Z$404 100291fa f   JSONHandler.obj
 0001:00028205       __unwindfunclet$?GetJSONFromObject@JSONHandler@@SA_NPAXHAAV?$basic_string@DU?$char_traits@D@std@@V?$allocator@D@2@@std@@AAI@Z$405 10029205 f   JSONHandler.obj
 0001:00028210       __unwindfunclet$?GetJSONFromObject@JSONHandler@@SA_NPAXHAAV?$basic_string@DU?$char_traits@D@std@@V?$allocator@D@2@@std@@AAI@Z$406 10029210 f   JSONHandler.obj
 0001:0002821b       __unwindfunclet$?GetJSONFromObject@JSONHandler@@SA_NPAXHAAV?$basic_string@DU?$char_traits@D@std@@V?$allocator@D@2@@std@@AAI@Z$407 1002921b f   JSONHandler.obj
 0001:00028226       __unwindfunclet$?GetJSONFromObject@JSONHandler@@SA_NPAXHAAV?$basic_string@DU?$char_traits@D@std@@V?$allocator@D@2@@std@@AAI@Z$408 10029226 f   JSONHandler.obj
 0001:00028231       __unwindfunclet$?GetJSONFromObject@JSONHandler@@SA_NPAXHAAV?$basic_string@DU?$char_traits@D@std@@V?$allocator@D@2@@std@@AAI@Z$409 10029231 f   JSONHandler.obj
 0001:0002823c       __unwindfunclet$?GetJSONFromObject@JSONHandler@@SA_NPAXHAAV?$basic_string@DU?$char_traits@D@std@@V?$allocator@D@2@@std@@AAI@Z$410 1002923c f   JSONHandler.obj
 0001:00028247       __unwindfunclet$?GetJSONFromObject@JSONHandler@@SA_NPAXHAAV?$basic_string@DU?$char_traits@D@std@@V?$allocator@D@2@@std@@AAI@Z$411 10029247 f   JSONHandler.obj
 0001:00028252       __unwindfunclet$?GetJSONFromObject@JSONHandler@@SA_NPAXHAAV?$basic_string@DU?$char_traits@D@std@@V?$allocator@D@2@@std@@AAI@Z$412 10029252 f   JSONHandler.obj
 0001:0002825a       __unwindfunclet$?GetJSONFromObject@JSONHandler@@SA_NPAXHAAV?$basic_string@DU?$char_traits@D@std@@V?$allocator@D@2@@std@@AAI@Z$413 1002925a f   JSONHandler.obj
 0001:00028265       __unwindfunclet$?GetJSONFromObject@JSONHandler@@SA_NPAXHAAV?$basic_string@DU?$char_traits@D@std@@V?$allocator@D@2@@std@@AAI@Z$415 10029265 f   JSONHandler.obj
 0001:00028270       __unwindfunclet$?GetJSONFromObject@JSONHandler@@SA_NPAXHAAV?$basic_string@DU?$char_traits@D@std@@V?$allocator@D@2@@std@@AAI@Z$416 10029270 f   JSONHandler.obj
 0001:0002827b       __unwindfunclet$?GetJSONFromObject@JSONHandler@@SA_NPAXHAAV?$basic_string@DU?$char_traits@D@std@@V?$allocator@D@2@@std@@AAI@Z$417 1002927b f   JSONHandler.obj
 0001:00028286       __unwindfunclet$?GetJSONFromObject@JSONHandler@@SA_NPAXHAAV?$basic_string@DU?$char_traits@D@std@@V?$allocator@D@2@@std@@AAI@Z$418 10029286 f   JSONHandler.obj
 0001:00028291       __unwindfunclet$?GetJSONFromObject@JSONHandler@@SA_NPAXHAAV?$basic_string@DU?$char_traits@D@std@@V?$allocator@D@2@@std@@AAI@Z$419 10029291 f   JSONHandler.obj
 0001:0002829c       __unwindfunclet$?GetJSONFromObject@JSONHandler@@SA_NPAXHAAV?$basic_string@DU?$char_traits@D@std@@V?$allocator@D@2@@std@@AAI@Z$420 1002929c f   JSONHandler.obj
 0001:000282a7       __unwindfunclet$?GetJSONFromObject@JSONHandler@@SA_NPAXHAAV?$basic_string@DU?$char_traits@D@std@@V?$allocator@D@2@@std@@AAI@Z$421 100292a7 f   JSONHandler.obj
 0001:000282b2       __unwindfunclet$?GetJSONFromObject@JSONHandler@@SA_NPAXHAAV?$basic_string@DU?$char_traits@D@std@@V?$allocator@D@2@@std@@AAI@Z$422 100292b2 f   JSONHandler.obj
 0001:000282bd       __unwindfunclet$?GetJSONFromObject@JSONHandler@@SA_NPAXHAAV?$basic_string@DU?$char_traits@D@std@@V?$allocator@D@2@@std@@AAI@Z$423 100292bd f   JSONHandler.obj
 0001:000282c8       __unwindfunclet$?GetJSONFromObject@JSONHandler@@SA_NPAXHAAV?$basic_string@DU?$char_traits@D@std@@V?$allocator@D@2@@std@@AAI@Z$424 100292c8 f   JSONHandler.obj
 0001:000282d3       __unwindfunclet$?GetJSONFromObject@JSONHandler@@SA_NPAXHAAV?$basic_string@DU?$char_traits@D@std@@V?$allocator@D@2@@std@@AAI@Z$425 100292d3 f   JSONHandler.obj
 0001:000282de       __unwindfunclet$?GetJSONFromObject@JSONHandler@@SA_NPAXHAAV?$basic_string@DU?$char_traits@D@std@@V?$allocator@D@2@@std@@AAI@Z$427 100292de f   JSONHandler.obj
 0001:000282e9       __unwindfunclet$?GetJSONFromObject@JSONHandler@@SA_NPAXHAAV?$basic_string@DU?$char_traits@D@std@@V?$allocator@D@2@@std@@AAI@Z$428 100292e9 f   JSONHandler.obj
 0001:000282f4       __unwindfunclet$?GetJSONFromObject@JSONHandler@@SA_NPAXHAAV?$basic_string@DU?$char_traits@D@std@@V?$allocator@D@2@@std@@AAI@Z$429 100292f4 f   JSONHandler.obj
 0001:000282ff       __unwindfunclet$?GetJSONFromObject@JSONHandler@@SA_NPAXHAAV?$basic_string@DU?$char_traits@D@std@@V?$allocator@D@2@@std@@AAI@Z$431 100292ff f   JSONHandler.obj
 0001:0002830a       __unwindfunclet$?GetJSONFromObject@JSONHandler@@SA_NPAXHAAV?$basic_string@DU?$char_traits@D@std@@V?$allocator@D@2@@std@@AAI@Z$432 1002930a f   JSONHandler.obj
 0001:00028315       __unwindfunclet$?GetJSONFromObject@JSONHandler@@SA_NPAXHAAV?$basic_string@DU?$char_traits@D@std@@V?$allocator@D@2@@std@@AAI@Z$433 10029315 f   JSONHandler.obj
 0001:00028320       __unwindfunclet$?GetJSONFromObject@JSONHandler@@SA_NPAXHAAV?$basic_string@DU?$char_traits@D@std@@V?$allocator@D@2@@std@@AAI@Z$435 10029320 f   JSONHandler.obj
 0001:0002832b       __unwindfunclet$?GetJSONFromObject@JSONHandler@@SA_NPAXHAAV?$basic_string@DU?$char_traits@D@std@@V?$allocator@D@2@@std@@AAI@Z$436 1002932b f   JSONHandler.obj
 0001:00028336       __unwindfunclet$?GetJSONFromObject@JSONHandler@@SA_NPAXHAAV?$basic_string@DU?$char_traits@D@std@@V?$allocator@D@2@@std@@AAI@Z$437 10029336 f   JSONHandler.obj
 0001:00028341       __unwindfunclet$?GetJSONFromObject@JSONHandler@@SA_NPAXHAAV?$basic_string@DU?$char_traits@D@std@@V?$allocator@D@2@@std@@AAI@Z$439 10029341 f   JSONHandler.obj
 0001:0002834c       __unwindfunclet$?GetJSONFromObject@JSONHandler@@SA_NPAXHAAV?$basic_string@DU?$char_traits@D@std@@V?$allocator@D@2@@std@@AAI@Z$440 1002934c f   JSONHandler.obj
 0001:00028357       __unwindfunclet$?GetJSONFromObject@JSONHandler@@SA_NPAXHAAV?$basic_string@DU?$char_traits@D@std@@V?$allocator@D@2@@std@@AAI@Z$441 10029357 f   JSONHandler.obj
 0001:00028362       __unwindfunclet$?GetJSONFromObject@JSONHandler@@SA_NPAXHAAV?$basic_string@DU?$char_traits@D@std@@V?$allocator@D@2@@std@@AAI@Z$442 10029362 f   JSONHandler.obj
 0001:0002836d       __unwindfunclet$?GetJSONFromObject@JSONHandler@@SA_NPAXHAAV?$basic_string@DU?$char_traits@D@std@@V?$allocator@D@2@@std@@AAI@Z$444 1002936d f   JSONHandler.obj
 0001:00028378       __unwindfunclet$?GetJSONFromObject@JSONHandler@@SA_NPAXHAAV?$basic_string@DU?$char_traits@D@std@@V?$allocator@D@2@@std@@AAI@Z$445 10029378 f   JSONHandler.obj
 0001:00028383       __unwindfunclet$?GetJSONFromObject@JSONHandler@@SA_NPAXHAAV?$basic_string@DU?$char_traits@D@std@@V?$allocator@D@2@@std@@AAI@Z$446 10029383 f   JSONHandler.obj
 0001:0002838e       __unwindfunclet$?GetJSONFromObject@JSONHandler@@SA_NPAXHAAV?$basic_string@DU?$char_traits@D@std@@V?$allocator@D@2@@std@@AAI@Z$448 1002938e f   JSONHandler.obj
 0001:00028399       __unwindfunclet$?GetJSONFromObject@JSONHandler@@SA_NPAXHAAV?$basic_string@DU?$char_traits@D@std@@V?$allocator@D@2@@std@@AAI@Z$449 10029399 f   JSONHandler.obj
 0001:000283a4       __unwindfunclet$?GetJSONFromObject@JSONHandler@@SA_NPAXHAAV?$basic_string@DU?$char_traits@D@std@@V?$allocator@D@2@@std@@AAI@Z$450 100293a4 f   JSONHandler.obj
 0001:000283af       __unwindfunclet$?GetJSONFromObject@JSONHandler@@SA_NPAXHAAV?$basic_string@DU?$char_traits@D@std@@V?$allocator@D@2@@std@@AAI@Z$452 100293af f   JSONHandler.obj
 0001:000283ba       __unwindfunclet$?GetJSONFromObject@JSONHandler@@SA_NPAXHAAV?$basic_string@DU?$char_traits@D@std@@V?$allocator@D@2@@std@@AAI@Z$453 100293ba f   JSONHandler.obj
 0001:000283c5       __unwindfunclet$?GetJSONFromObject@JSONHandler@@SA_NPAXHAAV?$basic_string@DU?$char_traits@D@std@@V?$allocator@D@2@@std@@AAI@Z$454 100293c5 f   JSONHandler.obj
 0001:000283d0       __unwindfunclet$?GetJSONFromObject@JSONHandler@@SA_NPAXHAAV?$basic_string@DU?$char_traits@D@std@@V?$allocator@D@2@@std@@AAI@Z$456 100293d0 f   JSONHandler.obj
 0001:000283db       __unwindfunclet$?GetJSONFromObject@JSONHandler@@SA_NPAXHAAV?$basic_string@DU?$char_traits@D@std@@V?$allocator@D@2@@std@@AAI@Z$457 100293db f   JSONHandler.obj
 0001:000283e6       __unwindfunclet$?GetJSONFromObject@JSONHandler@@SA_NPAXHAAV?$basic_string@DU?$char_traits@D@std@@V?$allocator@D@2@@std@@AAI@Z$458 100293e6 f   JSONHandler.obj
 0001:000283f1       __unwindfunclet$?GetJSONFromObject@JSONHandler@@SA_NPAXHAAV?$basic_string@DU?$char_traits@D@std@@V?$allocator@D@2@@std@@AAI@Z$459 100293f1 f   JSONHandler.obj
 0001:000283fc       __unwindfunclet$?GetJSONFromObject@JSONHandler@@SA_NPAXHAAV?$basic_string@DU?$char_traits@D@std@@V?$allocator@D@2@@std@@AAI@Z$460 100293fc f   JSONHandler.obj
 0001:00028407       __unwindfunclet$?GetJSONFromObject@JSONHandler@@SA_NPAXHAAV?$basic_string@DU?$char_traits@D@std@@V?$allocator@D@2@@std@@AAI@Z$461 10029407 f   JSONHandler.obj
 0001:00028412       __unwindfunclet$?GetJSONFromObject@JSONHandler@@SA_NPAXHAAV?$basic_string@DU?$char_traits@D@std@@V?$allocator@D@2@@std@@AAI@Z$462 10029412 f   JSONHandler.obj
 0001:0002841d       __unwindfunclet$?GetJSONFromObject@JSONHandler@@SA_NPAXHAAV?$basic_string@DU?$char_traits@D@std@@V?$allocator@D@2@@std@@AAI@Z$464 1002941d f   JSONHandler.obj
 0001:00028428       __unwindfunclet$?GetJSONFromObject@JSONHandler@@SA_NPAXHAAV?$basic_string@DU?$char_traits@D@std@@V?$allocator@D@2@@std@@AAI@Z$465 10029428 f   JSONHandler.obj
 0001:00028433       __unwindfunclet$?GetJSONFromObject@JSONHandler@@SA_NPAXHAAV?$basic_string@DU?$char_traits@D@std@@V?$allocator@D@2@@std@@AAI@Z$466 10029433 f   JSONHandler.obj
 0001:0002843e       __unwindfunclet$?GetJSONFromObject@JSONHandler@@SA_NPAXHAAV?$basic_string@DU?$char_traits@D@std@@V?$allocator@D@2@@std@@AAI@Z$468 1002943e f   JSONHandler.obj
 0001:00028449       __unwindfunclet$?GetJSONFromObject@JSONHandler@@SA_NPAXHAAV?$basic_string@DU?$char_traits@D@std@@V?$allocator@D@2@@std@@AAI@Z$469 10029449 f   JSONHandler.obj
 0001:00028454       __unwindfunclet$?GetJSONFromObject@JSONHandler@@SA_NPAXHAAV?$basic_string@DU?$char_traits@D@std@@V?$allocator@D@2@@std@@AAI@Z$470 10029454 f   JSONHandler.obj
 0001:0002845f       __unwindfunclet$?GetJSONFromObject@JSONHandler@@SA_NPAXHAAV?$basic_string@DU?$char_traits@D@std@@V?$allocator@D@2@@std@@AAI@Z$471 1002945f f   JSONHandler.obj
 0001:0002846a       __unwindfunclet$?GetJSONFromObject@JSONHandler@@SA_NPAXHAAV?$basic_string@DU?$char_traits@D@std@@V?$allocator@D@2@@std@@AAI@Z$472 1002946a f   JSONHandler.obj
 0001:00028475       __unwindfunclet$?GetJSONFromObject@JSONHandler@@SA_NPAXHAAV?$basic_string@DU?$char_traits@D@std@@V?$allocator@D@2@@std@@AAI@Z$473 10029475 f   JSONHandler.obj
 0001:00028480       __unwindfunclet$?GetJSONFromObject@JSONHandler@@SA_NPAXHAAV?$basic_string@DU?$char_traits@D@std@@V?$allocator@D@2@@std@@AAI@Z$474 10029480 f   JSONHandler.obj
 0001:0002848b       __unwindfunclet$?GetJSONFromObject@JSONHandler@@SA_NPAXHAAV?$basic_string@DU?$char_traits@D@std@@V?$allocator@D@2@@std@@AAI@Z$475 1002948b f   JSONHandler.obj
 0001:00028496       __unwindfunclet$?GetJSONFromObject@JSONHandler@@SA_NPAXHAAV?$basic_string@DU?$char_traits@D@std@@V?$allocator@D@2@@std@@AAI@Z$476 10029496 f   JSONHandler.obj
 0001:000284a1       __unwindfunclet$?GetJSONFromObject@JSONHandler@@SA_NPAXHAAV?$basic_string@DU?$char_traits@D@std@@V?$allocator@D@2@@std@@AAI@Z$477 100294a1 f   JSONHandler.obj
 0001:000284ac       __unwindfunclet$?GetJSONFromObject@JSONHandler@@SA_NPAXHAAV?$basic_string@DU?$char_traits@D@std@@V?$allocator@D@2@@std@@AAI@Z$478 100294ac f   JSONHandler.obj
 0001:000284b7       __unwindfunclet$?GetJSONFromObject@JSONHandler@@SA_NPAXHAAV?$basic_string@DU?$char_traits@D@std@@V?$allocator@D@2@@std@@AAI@Z$479 100294b7 f   JSONHandler.obj
 0001:000284c2       __unwindfunclet$?GetJSONFromObject@JSONHandler@@SA_NPAXHAAV?$basic_string@DU?$char_traits@D@std@@V?$allocator@D@2@@std@@AAI@Z$480 100294c2 f   JSONHandler.obj
 0001:000284cd       __unwindfunclet$?GetJSONFromObject@JSONHandler@@SA_NPAXHAAV?$basic_string@DU?$char_traits@D@std@@V?$allocator@D@2@@std@@AAI@Z$481 100294cd f   JSONHandler.obj
 0001:000284d8       __unwindfunclet$?GetJSONFromObject@JSONHandler@@SA_NPAXHAAV?$basic_string@DU?$char_traits@D@std@@V?$allocator@D@2@@std@@AAI@Z$482 100294d8 f   JSONHandler.obj
 0001:000284e3       __unwindfunclet$?GetJSONFromObject@JSONHandler@@SA_NPAXHAAV?$basic_string@DU?$char_traits@D@std@@V?$allocator@D@2@@std@@AAI@Z$483 100294e3 f   JSONHandler.obj
 0001:000284ee       __unwindfunclet$?GetJSONFromObject@JSONHandler@@SA_NPAXHAAV?$basic_string@DU?$char_traits@D@std@@V?$allocator@D@2@@std@@AAI@Z$484 100294ee f   JSONHandler.obj
 0001:000284f9       __unwindfunclet$?GetJSONFromObject@JSONHandler@@SA_NPAXHAAV?$basic_string@DU?$char_traits@D@std@@V?$allocator@D@2@@std@@AAI@Z$486 100294f9 f   JSONHandler.obj
 0001:00028504       __unwindfunclet$?GetJSONFromObject@JSONHandler@@SA_NPAXHAAV?$basic_string@DU?$char_traits@D@std@@V?$allocator@D@2@@std@@AAI@Z$487 10029504 f   JSONHandler.obj
 0001:0002850f       __unwindfunclet$?GetJSONFromObject@JSONHandler@@SA_NPAXHAAV?$basic_string@DU?$char_traits@D@std@@V?$allocator@D@2@@std@@AAI@Z$488 1002950f f   JSONHandler.obj
 0001:0002851a       __unwindfunclet$?GetJSONFromObject@JSONHandler@@SA_NPAXHAAV?$basic_string@DU?$char_traits@D@std@@V?$allocator@D@2@@std@@AAI@Z$490 1002951a f   JSONHandler.obj
 0001:00028525       __unwindfunclet$?GetJSONFromObject@JSONHandler@@SA_NPAXHAAV?$basic_string@DU?$char_traits@D@std@@V?$allocator@D@2@@std@@AAI@Z$491 10029525 f   JSONHandler.obj
 0001:00028530       __unwindfunclet$?GetJSONFromObject@JSONHandler@@SA_NPAXHAAV?$basic_string@DU?$char_traits@D@std@@V?$allocator@D@2@@std@@AAI@Z$492 10029530 f   JSONHandler.obj
 0001:0002853b       __unwindfunclet$?GetJSONFromObject@JSONHandler@@SA_NPAXHAAV?$basic_string@DU?$char_traits@D@std@@V?$allocator@D@2@@std@@AAI@Z$493 1002953b f   JSONHandler.obj
 0001:00028546       __unwindfunclet$?GetJSONFromObject@JSONHandler@@SA_NPAXHAAV?$basic_string@DU?$char_traits@D@std@@V?$allocator@D@2@@std@@AAI@Z$494 10029546 f   JSONHandler.obj
 0001:00028551       __unwindfunclet$?GetJSONFromObject@JSONHandler@@SA_NPAXHAAV?$basic_string@DU?$char_traits@D@std@@V?$allocator@D@2@@std@@AAI@Z$495 10029551 f   JSONHandler.obj
 0001:0002855c       __unwindfunclet$?GetJSONFromObject@JSONHandler@@SA_NPAXHAAV?$basic_string@DU?$char_traits@D@std@@V?$allocator@D@2@@std@@AAI@Z$496 1002955c f   JSONHandler.obj
 0001:00028567       __unwindfunclet$?GetJSONFromObject@JSONHandler@@SA_NPAXHAAV?$basic_string@DU?$char_traits@D@std@@V?$allocator@D@2@@std@@AAI@Z$497 10029567 f   JSONHandler.obj
 0001:00028572       __unwindfunclet$?GetJSONFromObject@JSONHandler@@SA_NPAXHAAV?$basic_string@DU?$char_traits@D@std@@V?$allocator@D@2@@std@@AAI@Z$498 10029572 f   JSONHandler.obj
 0001:0002857d       __unwindfunclet$?GetJSONFromObject@JSONHandler@@SA_NPAXHAAV?$basic_string@DU?$char_traits@D@std@@V?$allocator@D@2@@std@@AAI@Z$499 1002957d f   JSONHandler.obj
 0001:00028588       __unwindfunclet$?GetJSONFromObject@JSONHandler@@SA_NPAXHAAV?$basic_string@DU?$char_traits@D@std@@V?$allocator@D@2@@std@@AAI@Z$500 10029588 f   JSONHandler.obj
 0001:00028593       __unwindfunclet$?GetJSONFromObject@JSONHandler@@SA_NPAXHAAV?$basic_string@DU?$char_traits@D@std@@V?$allocator@D@2@@std@@AAI@Z$502 10029593 f   JSONHandler.obj
 0001:0002859e       __unwindfunclet$?GetJSONFromObject@JSONHandler@@SA_NPAXHAAV?$basic_string@DU?$char_traits@D@std@@V?$allocator@D@2@@std@@AAI@Z$503 1002959e f   JSONHandler.obj
 0001:000285a9       __unwindfunclet$?GetJSONFromObject@JSONHandler@@SA_NPAXHAAV?$basic_string@DU?$char_traits@D@std@@V?$allocator@D@2@@std@@AAI@Z$504 100295a9 f   JSONHandler.obj
 0001:000285b4       __unwindfunclet$?GetJSONFromObject@JSONHandler@@SA_NPAXHAAV?$basic_string@DU?$char_traits@D@std@@V?$allocator@D@2@@std@@AAI@Z$506 100295b4 f   JSONHandler.obj
 0001:000285bf       __unwindfunclet$?GetJSONFromObject@JSONHandler@@SA_NPAXHAAV?$basic_string@DU?$char_traits@D@std@@V?$allocator@D@2@@std@@AAI@Z$507 100295bf f   JSONHandler.obj
 0001:000285ca       __unwindfunclet$?GetJSONFromObject@JSONHandler@@SA_NPAXHAAV?$basic_string@DU?$char_traits@D@std@@V?$allocator@D@2@@std@@AAI@Z$508 100295ca f   JSONHandler.obj
 0001:000285d5       __unwindfunclet$?GetJSONFromObject@JSONHandler@@SA_NPAXHAAV?$basic_string@DU?$char_traits@D@std@@V?$allocator@D@2@@std@@AAI@Z$509 100295d5 f   JSONHandler.obj
 0001:000285e0       __unwindfunclet$?GetJSONFromObject@JSONHandler@@SA_NPAXHAAV?$basic_string@DU?$char_traits@D@std@@V?$allocator@D@2@@std@@AAI@Z$510 100295e0 f   JSONHandler.obj
 0001:000285eb       __unwindfunclet$?GetJSONFromObject@JSONHandler@@SA_NPAXHAAV?$basic_string@DU?$char_traits@D@std@@V?$allocator@D@2@@std@@AAI@Z$511 100295eb f   JSONHandler.obj
 0001:000285f6       __unwindfunclet$?GetJSONFromObject@JSONHandler@@SA_NPAXHAAV?$basic_string@DU?$char_traits@D@std@@V?$allocator@D@2@@std@@AAI@Z$512 100295f6 f   JSONHandler.obj
 0001:00028601       __unwindfunclet$?GetJSONFromObject@JSONHandler@@SA_NPAXHAAV?$basic_string@DU?$char_traits@D@std@@V?$allocator@D@2@@std@@AAI@Z$513 10029601 f   JSONHandler.obj
 0001:0002860c       __unwindfunclet$?GetJSONFromObject@JSONHandler@@SA_NPAXHAAV?$basic_string@DU?$char_traits@D@std@@V?$allocator@D@2@@std@@AAI@Z$514 1002960c f   JSONHandler.obj
 0001:00028617       __unwindfunclet$?GetJSONFromObject@JSONHandler@@SA_NPAXHAAV?$basic_string@DU?$char_traits@D@std@@V?$allocator@D@2@@std@@AAI@Z$515 10029617 f   JSONHandler.obj
 0001:00028622       __unwindfunclet$?GetJSONFromObject@JSONHandler@@SA_NPAXHAAV?$basic_string@DU?$char_traits@D@std@@V?$allocator@D@2@@std@@AAI@Z$516 10029622 f   JSONHandler.obj
 0001:0002862d       __unwindfunclet$?GetJSONFromObject@JSONHandler@@SA_NPAXHAAV?$basic_string@DU?$char_traits@D@std@@V?$allocator@D@2@@std@@AAI@Z$517 1002962d f   JSONHandler.obj
 0001:00028638       __unwindfunclet$?GetJSONFromObject@JSONHandler@@SA_NPAXHAAV?$basic_string@DU?$char_traits@D@std@@V?$allocator@D@2@@std@@AAI@Z$518 10029638 f   JSONHandler.obj
 0001:00028643       __unwindfunclet$?GetJSONFromObject@JSONHandler@@SA_NPAXHAAV?$basic_string@DU?$char_traits@D@std@@V?$allocator@D@2@@std@@AAI@Z$519 10029643 f   JSONHandler.obj
 0001:0002864e       __unwindfunclet$?GetJSONFromObject@JSONHandler@@SA_NPAXHAAV?$basic_string@DU?$char_traits@D@std@@V?$allocator@D@2@@std@@AAI@Z$521 1002964e f   JSONHandler.obj
 0001:00028659       __unwindfunclet$?GetJSONFromObject@JSONHandler@@SA_NPAXHAAV?$basic_string@DU?$char_traits@D@std@@V?$allocator@D@2@@std@@AAI@Z$522 10029659 f   JSONHandler.obj
 0001:00028664       __unwindfunclet$?GetJSONFromObject@JSONHandler@@SA_NPAXHAAV?$basic_string@DU?$char_traits@D@std@@V?$allocator@D@2@@std@@AAI@Z$523 10029664 f   JSONHandler.obj
 0001:0002866f       __unwindfunclet$?GetJSONFromObject@JSONHandler@@SA_NPAXHAAV?$basic_string@DU?$char_traits@D@std@@V?$allocator@D@2@@std@@AAI@Z$525 1002966f f   JSONHandler.obj
 0001:0002867a       __unwindfunclet$?GetJSONFromObject@JSONHandler@@SA_NPAXHAAV?$basic_string@DU?$char_traits@D@std@@V?$allocator@D@2@@std@@AAI@Z$526 1002967a f   JSONHandler.obj
 0001:00028685       __unwindfunclet$?GetJSONFromObject@JSONHandler@@SA_NPAXHAAV?$basic_string@DU?$char_traits@D@std@@V?$allocator@D@2@@std@@AAI@Z$527 10029685 f   JSONHandler.obj
 0001:00028690       __unwindfunclet$?GetJSONFromObject@JSONHandler@@SA_NPAXHAAV?$basic_string@DU?$char_traits@D@std@@V?$allocator@D@2@@std@@AAI@Z$529 10029690 f   JSONHandler.obj
 0001:0002869b       __unwindfunclet$?GetJSONFromObject@JSONHandler@@SA_NPAXHAAV?$basic_string@DU?$char_traits@D@std@@V?$allocator@D@2@@std@@AAI@Z$530 1002969b f   JSONHandler.obj
 0001:000286a6       __unwindfunclet$?GetJSONFromObject@JSONHandler@@SA_NPAXHAAV?$basic_string@DU?$char_traits@D@std@@V?$allocator@D@2@@std@@AAI@Z$531 100296a6 f   JSONHandler.obj
 0001:000286b1       __unwindfunclet$?GetJSONFromObject@JSONHandler@@SA_NPAXHAAV?$basic_string@DU?$char_traits@D@std@@V?$allocator@D@2@@std@@AAI@Z$533 100296b1 f   JSONHandler.obj
 0001:000286bc       __unwindfunclet$?GetJSONFromObject@JSONHandler@@SA_NPAXHAAV?$basic_string@DU?$char_traits@D@std@@V?$allocator@D@2@@std@@AAI@Z$534 100296bc f   JSONHandler.obj
 0001:000286c7       __unwindfunclet$?GetJSONFromObject@JSONHandler@@SA_NPAXHAAV?$basic_string@DU?$char_traits@D@std@@V?$allocator@D@2@@std@@AAI@Z$535 100296c7 f   JSONHandler.obj
 0001:000286d2       __unwindfunclet$?GetJSONFromObject@JSONHandler@@SA_NPAXHAAV?$basic_string@DU?$char_traits@D@std@@V?$allocator@D@2@@std@@AAI@Z$537 100296d2 f   JSONHandler.obj
 0001:000286dd       __unwindfunclet$?GetJSONFromObject@JSONHandler@@SA_NPAXHAAV?$basic_string@DU?$char_traits@D@std@@V?$allocator@D@2@@std@@AAI@Z$538 100296dd f   JSONHandler.obj
 0001:000286e8       __unwindfunclet$?GetJSONFromObject@JSONHandler@@SA_NPAXHAAV?$basic_string@DU?$char_traits@D@std@@V?$allocator@D@2@@std@@AAI@Z$539 100296e8 f   JSONHandler.obj
 0001:000286f3       __unwindfunclet$?GetJSONFromObject@JSONHandler@@SA_NPAXHAAV?$basic_string@DU?$char_traits@D@std@@V?$allocator@D@2@@std@@AAI@Z$540 100296f3 f   JSONHandler.obj
 0001:000286fe       __unwindfunclet$?GetJSONFromObject@JSONHandler@@SA_NPAXHAAV?$basic_string@DU?$char_traits@D@std@@V?$allocator@D@2@@std@@AAI@Z$541 100296fe f   JSONHandler.obj
 0001:00028709       __unwindfunclet$?GetJSONFromObject@JSONHandler@@SA_NPAXHAAV?$basic_string@DU?$char_traits@D@std@@V?$allocator@D@2@@std@@AAI@Z$542 10029709 f   JSONHandler.obj
 0001:00028714       __unwindfunclet$?GetJSONFromObject@JSONHandler@@SA_NPAXHAAV?$basic_string@DU?$char_traits@D@std@@V?$allocator@D@2@@std@@AAI@Z$543 10029714 f   JSONHandler.obj
 0001:0002871f       __unwindfunclet$?GetJSONFromObject@JSONHandler@@SA_NPAXHAAV?$basic_string@DU?$char_traits@D@std@@V?$allocator@D@2@@std@@AAI@Z$544 1002971f f   JSONHandler.obj
 0001:0002872a       __unwindfunclet$?GetJSONFromObject@JSONHandler@@SA_NPAXHAAV?$basic_string@DU?$char_traits@D@std@@V?$allocator@D@2@@std@@AAI@Z$545 1002972a f   JSONHandler.obj
 0001:00028735       __unwindfunclet$?GetJSONFromObject@JSONHandler@@SA_NPAXHAAV?$basic_string@DU?$char_traits@D@std@@V?$allocator@D@2@@std@@AAI@Z$546 10029735 f   JSONHandler.obj
 0001:00028740       __unwindfunclet$?GetJSONFromObject@JSONHandler@@SA_NPAXHAAV?$basic_string@DU?$char_traits@D@std@@V?$allocator@D@2@@std@@AAI@Z$547 10029740 f   JSONHandler.obj
 0001:0002874b       __unwindfunclet$?GetJSONFromObject@JSONHandler@@SA_NPAXHAAV?$basic_string@DU?$char_traits@D@std@@V?$allocator@D@2@@std@@AAI@Z$548 1002974b f   JSONHandler.obj
 0001:00028756       __unwindfunclet$?GetJSONFromObject@JSONHandler@@SA_NPAXHAAV?$basic_string@DU?$char_traits@D@std@@V?$allocator@D@2@@std@@AAI@Z$549 10029756 f   JSONHandler.obj
 0001:00028761       __unwindfunclet$?GetJSONFromObject@JSONHandler@@SA_NPAXHAAV?$basic_string@DU?$char_traits@D@std@@V?$allocator@D@2@@std@@AAI@Z$550 10029761 f   JSONHandler.obj
 0001:0002876c       __unwindfunclet$?GetJSONFromObject@JSONHandler@@SA_NPAXHAAV?$basic_string@DU?$char_traits@D@std@@V?$allocator@D@2@@std@@AAI@Z$551 1002976c f   JSONHandler.obj
 0001:00028777       __unwindfunclet$?GetJSONFromObject@JSONHandler@@SA_NPAXHAAV?$basic_string@DU?$char_traits@D@std@@V?$allocator@D@2@@std@@AAI@Z$552 10029777 f   JSONHandler.obj
 0001:00028782       __unwindfunclet$?GetJSONFromObject@JSONHandler@@SA_NPAXHAAV?$basic_string@DU?$char_traits@D@std@@V?$allocator@D@2@@std@@AAI@Z$553 10029782 f   JSONHandler.obj
 0001:0002878d       __unwindfunclet$?GetJSONFromObject@JSONHandler@@SA_NPAXHAAV?$basic_string@DU?$char_traits@D@std@@V?$allocator@D@2@@std@@AAI@Z$554 1002978d f   JSONHandler.obj
 0001:00028798       __unwindfunclet$?GetJSONFromObject@JSONHandler@@SA_NPAXHAAV?$basic_string@DU?$char_traits@D@std@@V?$allocator@D@2@@std@@AAI@Z$555 10029798 f   JSONHandler.obj
 0001:000287a3       __unwindfunclet$?GetJSONFromObject@JSONHandler@@SA_NPAXHAAV?$basic_string@DU?$char_traits@D@std@@V?$allocator@D@2@@std@@AAI@Z$556 100297a3 f   JSONHandler.obj
 0001:000287ae       __unwindfunclet$?GetJSONFromObject@JSONHandler@@SA_NPAXHAAV?$basic_string@DU?$char_traits@D@std@@V?$allocator@D@2@@std@@AAI@Z$557 100297ae f   JSONHandler.obj
 0001:000287b9       __unwindfunclet$?GetJSONFromObject@JSONHandler@@SA_NPAXHAAV?$basic_string@DU?$char_traits@D@std@@V?$allocator@D@2@@std@@AAI@Z$558 100297b9 f   JSONHandler.obj
 0001:000287c4       __unwindfunclet$?GetJSONFromObject@JSONHandler@@SA_NPAXHAAV?$basic_string@DU?$char_traits@D@std@@V?$allocator@D@2@@std@@AAI@Z$559 100297c4 f   JSONHandler.obj
 0001:000287cf       __unwindfunclet$?GetJSONFromObject@JSONHandler@@SA_NPAXHAAV?$basic_string@DU?$char_traits@D@std@@V?$allocator@D@2@@std@@AAI@Z$560 100297cf f   JSONHandler.obj
 0001:000287da       __unwindfunclet$?GetJSONFromObject@JSONHandler@@SA_NPAXHAAV?$basic_string@DU?$char_traits@D@std@@V?$allocator@D@2@@std@@AAI@Z$561 100297da f   JSONHandler.obj
 0001:000287e5       __unwindfunclet$?GetJSONFromObject@JSONHandler@@SA_NPAXHAAV?$basic_string@DU?$char_traits@D@std@@V?$allocator@D@2@@std@@AAI@Z$562 100297e5 f   JSONHandler.obj
 0001:000287f0       __unwindfunclet$?GetJSONFromObject@JSONHandler@@SA_NPAXHAAV?$basic_string@DU?$char_traits@D@std@@V?$allocator@D@2@@std@@AAI@Z$563 100297f0 f   JSONHandler.obj
 0001:000287fb       __unwindfunclet$?GetJSONFromObject@JSONHandler@@SA_NPAXHAAV?$basic_string@DU?$char_traits@D@std@@V?$allocator@D@2@@std@@AAI@Z$564 100297fb f   JSONHandler.obj
 0001:00028806       __unwindfunclet$?GetJSONFromObject@JSONHandler@@SA_NPAXHAAV?$basic_string@DU?$char_traits@D@std@@V?$allocator@D@2@@std@@AAI@Z$565 10029806 f   JSONHandler.obj
 0001:00028811       __unwindfunclet$?GetJSONFromObject@JSONHandler@@SA_NPAXHAAV?$basic_string@DU?$char_traits@D@std@@V?$allocator@D@2@@std@@AAI@Z$566 10029811 f   JSONHandler.obj
 0001:0002881c       __unwindfunclet$?GetJSONFromObject@JSONHandler@@SA_NPAXHAAV?$basic_string@DU?$char_traits@D@std@@V?$allocator@D@2@@std@@AAI@Z$567 1002981c f   JSONHandler.obj
 0001:00028827       __unwindfunclet$?GetJSONFromObject@JSONHandler@@SA_NPAXHAAV?$basic_string@DU?$char_traits@D@std@@V?$allocator@D@2@@std@@AAI@Z$568 10029827 f   JSONHandler.obj
 0001:00028832       __unwindfunclet$?GetJSONFromObject@JSONHandler@@SA_NPAXHAAV?$basic_string@DU?$char_traits@D@std@@V?$allocator@D@2@@std@@AAI@Z$569 10029832 f   JSONHandler.obj
 0001:0002883d       __unwindfunclet$?GetJSONFromObject@JSONHandler@@SA_NPAXHAAV?$basic_string@DU?$char_traits@D@std@@V?$allocator@D@2@@std@@AAI@Z$570 1002983d f   JSONHandler.obj
 0001:00028848       __unwindfunclet$?GetJSONFromObject@JSONHandler@@SA_NPAXHAAV?$basic_string@DU?$char_traits@D@std@@V?$allocator@D@2@@std@@AAI@Z$571 10029848 f   JSONHandler.obj
 0001:00028853       __unwindfunclet$?GetJSONFromObject@JSONHandler@@SA_NPAXHAAV?$basic_string@DU?$char_traits@D@std@@V?$allocator@D@2@@std@@AAI@Z$572 10029853 f   JSONHandler.obj
 0001:0002885e       __unwindfunclet$?GetJSONFromObject@JSONHandler@@SA_NPAXHAAV?$basic_string@DU?$char_traits@D@std@@V?$allocator@D@2@@std@@AAI@Z$573 1002985e f   JSONHandler.obj
 0001:00028869       __unwindfunclet$?GetJSONFromObject@JSONHandler@@SA_NPAXHAAV?$basic_string@DU?$char_traits@D@std@@V?$allocator@D@2@@std@@AAI@Z$574 10029869 f   JSONHandler.obj
 0001:00028874       __unwindfunclet$?GetJSONFromObject@JSONHandler@@SA_NPAXHAAV?$basic_string@DU?$char_traits@D@std@@V?$allocator@D@2@@std@@AAI@Z$575 10029874 f   JSONHandler.obj
 0001:0002887f       __unwindfunclet$?GetJSONFromObject@JSONHandler@@SA_NPAXHAAV?$basic_string@DU?$char_traits@D@std@@V?$allocator@D@2@@std@@AAI@Z$576 1002987f f   JSONHandler.obj
 0001:0002888a       __unwindfunclet$?GetJSONFromObject@JSONHandler@@SA_NPAXHAAV?$basic_string@DU?$char_traits@D@std@@V?$allocator@D@2@@std@@AAI@Z$578 1002988a f   JSONHandler.obj
 0001:00028895       __unwindfunclet$?GetJSONFromObject@JSONHandler@@SA_NPAXHAAV?$basic_string@DU?$char_traits@D@std@@V?$allocator@D@2@@std@@AAI@Z$579 10029895 f   JSONHandler.obj
 0001:000288a0       __unwindfunclet$?GetJSONFromObject@JSONHandler@@SA_NPAXHAAV?$basic_string@DU?$char_traits@D@std@@V?$allocator@D@2@@std@@AAI@Z$580 100298a0 f   JSONHandler.obj
 0001:000288ab       __unwindfunclet$?GetJSONFromObject@JSONHandler@@SA_NPAXHAAV?$basic_string@DU?$char_traits@D@std@@V?$allocator@D@2@@std@@AAI@Z$581 100298ab f   JSONHandler.obj
 0001:000288b6       __unwindfunclet$?GetJSONFromObject@JSONHandler@@SA_NPAXHAAV?$basic_string@DU?$char_traits@D@std@@V?$allocator@D@2@@std@@AAI@Z$582 100298b6 f   JSONHandler.obj
 0001:000288c1       __unwindfunclet$?GetJSONFromObject@JSONHandler@@SA_NPAXHAAV?$basic_string@DU?$char_traits@D@std@@V?$allocator@D@2@@std@@AAI@Z$583 100298c1 f   JSONHandler.obj
 0001:000288cc       __unwindfunclet$?GetJSONFromObject@JSONHandler@@SA_NPAXHAAV?$basic_string@DU?$char_traits@D@std@@V?$allocator@D@2@@std@@AAI@Z$584 100298cc f   JSONHandler.obj
 0001:000288d7       __unwindfunclet$?GetJSONFromObject@JSONHandler@@SA_NPAXHAAV?$basic_string@DU?$char_traits@D@std@@V?$allocator@D@2@@std@@AAI@Z$585 100298d7 f   JSONHandler.obj
 0001:000288e2       __unwindfunclet$?GetJSONFromObject@JSONHandler@@SA_NPAXHAAV?$basic_string@DU?$char_traits@D@std@@V?$allocator@D@2@@std@@AAI@Z$586 100298e2 f   JSONHandler.obj
 0001:000288ed       __unwindfunclet$?GetJSONFromObject@JSONHandler@@SA_NPAXHAAV?$basic_string@DU?$char_traits@D@std@@V?$allocator@D@2@@std@@AAI@Z$587 100298ed f   JSONHandler.obj
 0001:000288f8       __unwindfunclet$?GetJSONFromObject@JSONHandler@@SA_NPAXHAAV?$basic_string@DU?$char_traits@D@std@@V?$allocator@D@2@@std@@AAI@Z$588 100298f8 f   JSONHandler.obj
 0001:00028903       __unwindfunclet$?GetJSONFromObject@JSONHandler@@SA_NPAXHAAV?$basic_string@DU?$char_traits@D@std@@V?$allocator@D@2@@std@@AAI@Z$589 10029903 f   JSONHandler.obj
 0001:0002890e       __unwindfunclet$?GetJSONFromObject@JSONHandler@@SA_NPAXHAAV?$basic_string@DU?$char_traits@D@std@@V?$allocator@D@2@@std@@AAI@Z$590 1002990e f   JSONHandler.obj
 0001:00028919       __unwindfunclet$?GetJSONFromObject@JSONHandler@@SA_NPAXHAAV?$basic_string@DU?$char_traits@D@std@@V?$allocator@D@2@@std@@AAI@Z$591 10029919 f   JSONHandler.obj
 0001:00028924       __unwindfunclet$?GetJSONFromObject@JSONHandler@@SA_NPAXHAAV?$basic_string@DU?$char_traits@D@std@@V?$allocator@D@2@@std@@AAI@Z$592 10029924 f   JSONHandler.obj
 0001:0002892f       __unwindfunclet$?GetJSONFromObject@JSONHandler@@SA_NPAXHAAV?$basic_string@DU?$char_traits@D@std@@V?$allocator@D@2@@std@@AAI@Z$594 1002992f f   JSONHandler.obj
 0001:0002893a       __unwindfunclet$?GetJSONFromObject@JSONHandler@@SA_NPAXHAAV?$basic_string@DU?$char_traits@D@std@@V?$allocator@D@2@@std@@AAI@Z$595 1002993a f   JSONHandler.obj
 0001:00028945       __unwindfunclet$?GetJSONFromObject@JSONHandler@@SA_NPAXHAAV?$basic_string@DU?$char_traits@D@std@@V?$allocator@D@2@@std@@AAI@Z$596 10029945 f   JSONHandler.obj
 0001:00028950       __unwindfunclet$?GetJSONFromObject@JSONHandler@@SA_NPAXHAAV?$basic_string@DU?$char_traits@D@std@@V?$allocator@D@2@@std@@AAI@Z$597 10029950 f   JSONHandler.obj
 0001:0002895b       __unwindfunclet$?GetJSONFromObject@JSONHandler@@SA_NPAXHAAV?$basic_string@DU?$char_traits@D@std@@V?$allocator@D@2@@std@@AAI@Z$598 1002995b f   JSONHandler.obj
 0001:00028966       __unwindfunclet$?GetJSONFromObject@JSONHandler@@SA_NPAXHAAV?$basic_string@DU?$char_traits@D@std@@V?$allocator@D@2@@std@@AAI@Z$599 10029966 f   JSONHandler.obj
 0001:00028971       __unwindfunclet$?GetJSONFromObject@JSONHandler@@SA_NPAXHAAV?$basic_string@DU?$char_traits@D@std@@V?$allocator@D@2@@std@@AAI@Z$600 10029971 f   JSONHandler.obj
 0001:0002897c       __unwindfunclet$?GetJSONFromObject@JSONHandler@@SA_NPAXHAAV?$basic_string@DU?$char_traits@D@std@@V?$allocator@D@2@@std@@AAI@Z$601 1002997c f   JSONHandler.obj
 0001:00028987       __unwindfunclet$?GetJSONFromObject@JSONHandler@@SA_NPAXHAAV?$basic_string@DU?$char_traits@D@std@@V?$allocator@D@2@@std@@AAI@Z$602 10029987 f   JSONHandler.obj
 0001:00028992       __unwindfunclet$?GetJSONFromObject@JSONHandler@@SA_NPAXHAAV?$basic_string@DU?$char_traits@D@std@@V?$allocator@D@2@@std@@AAI@Z$603 10029992 f   JSONHandler.obj
 0001:0002899d       __unwindfunclet$?GetJSONFromObject@JSONHandler@@SA_NPAXHAAV?$basic_string@DU?$char_traits@D@std@@V?$allocator@D@2@@std@@AAI@Z$604 1002999d f   JSONHandler.obj
 0001:000289a8       __unwindfunclet$?GetJSONFromObject@JSONHandler@@SA_NPAXHAAV?$basic_string@DU?$char_traits@D@std@@V?$allocator@D@2@@std@@AAI@Z$605 100299a8 f   JSONHandler.obj
 0001:000289b3       __unwindfunclet$?GetJSONFromObject@JSONHandler@@SA_NPAXHAAV?$basic_string@DU?$char_traits@D@std@@V?$allocator@D@2@@std@@AAI@Z$607 100299b3 f   JSONHandler.obj
 0001:000289be       __unwindfunclet$?GetJSONFromObject@JSONHandler@@SA_NPAXHAAV?$basic_string@DU?$char_traits@D@std@@V?$allocator@D@2@@std@@AAI@Z$608 100299be f   JSONHandler.obj
 0001:000289c9       __unwindfunclet$?GetJSONFromObject@JSONHandler@@SA_NPAXHAAV?$basic_string@DU?$char_traits@D@std@@V?$allocator@D@2@@std@@AAI@Z$609 100299c9 f   JSONHandler.obj
 0001:000289d4       __unwindfunclet$?GetJSONFromObject@JSONHandler@@SA_NPAXHAAV?$basic_string@DU?$char_traits@D@std@@V?$allocator@D@2@@std@@AAI@Z$611 100299d4 f   JSONHandler.obj
 0001:000289df       __unwindfunclet$?GetJSONFromObject@JSONHandler@@SA_NPAXHAAV?$basic_string@DU?$char_traits@D@std@@V?$allocator@D@2@@std@@AAI@Z$612 100299df f   JSONHandler.obj
 0001:000289ea       __unwindfunclet$?GetJSONFromObject@JSONHandler@@SA_NPAXHAAV?$basic_string@DU?$char_traits@D@std@@V?$allocator@D@2@@std@@AAI@Z$613 100299ea f   JSONHandler.obj
 0001:000289f5       __unwindfunclet$?GetJSONFromObject@JSONHandler@@SA_NPAXHAAV?$basic_string@DU?$char_traits@D@std@@V?$allocator@D@2@@std@@AAI@Z$615 100299f5 f   JSONHandler.obj
 0001:00028a00       __unwindfunclet$?GetJSONFromObject@JSONHandler@@SA_NPAXHAAV?$basic_string@DU?$char_traits@D@std@@V?$allocator@D@2@@std@@AAI@Z$616 10029a00 f   JSONHandler.obj
 0001:00028a0b       __unwindfunclet$?GetJSONFromObject@JSONHandler@@SA_NPAXHAAV?$basic_string@DU?$char_traits@D@std@@V?$allocator@D@2@@std@@AAI@Z$617 10029a0b f   JSONHandler.obj
 0001:00028a16       __unwindfunclet$?GetJSONFromObject@JSONHandler@@SA_NPAXHAAV?$basic_string@DU?$char_traits@D@std@@V?$allocator@D@2@@std@@AAI@Z$619 10029a16 f   JSONHandler.obj
 0001:00028a21       __unwindfunclet$?GetJSONFromObject@JSONHandler@@SA_NPAXHAAV?$basic_string@DU?$char_traits@D@std@@V?$allocator@D@2@@std@@AAI@Z$620 10029a21 f   JSONHandler.obj
 0001:00028a2c       __unwindfunclet$?GetJSONFromObject@JSONHandler@@SA_NPAXHAAV?$basic_string@DU?$char_traits@D@std@@V?$allocator@D@2@@std@@AAI@Z$621 10029a2c f   JSONHandler.obj
 0001:00028a37       __unwindfunclet$?GetJSONFromObject@JSONHandler@@SA_NPAXHAAV?$basic_string@DU?$char_traits@D@std@@V?$allocator@D@2@@std@@AAI@Z$623 10029a37 f   JSONHandler.obj
 0001:00028a42       __unwindfunclet$?GetJSONFromObject@JSONHandler@@SA_NPAXHAAV?$basic_string@DU?$char_traits@D@std@@V?$allocator@D@2@@std@@AAI@Z$624 10029a42 f   JSONHandler.obj
 0001:00028a4d       __unwindfunclet$?GetJSONFromObject@JSONHandler@@SA_NPAXHAAV?$basic_string@DU?$char_traits@D@std@@V?$allocator@D@2@@std@@AAI@Z$625 10029a4d f   JSONHandler.obj
 0001:00028a58       __unwindfunclet$?GetJSONFromObject@JSONHandler@@SA_NPAXHAAV?$basic_string@DU?$char_traits@D@std@@V?$allocator@D@2@@std@@AAI@Z$626 10029a58 f   JSONHandler.obj
 0001:00028a63       __unwindfunclet$?GetJSONFromObject@JSONHandler@@SA_NPAXHAAV?$basic_string@DU?$char_traits@D@std@@V?$allocator@D@2@@std@@AAI@Z$627 10029a63 f   JSONHandler.obj
 0001:00028a6e       __unwindfunclet$?GetJSONFromObject@JSONHandler@@SA_NPAXHAAV?$basic_string@DU?$char_traits@D@std@@V?$allocator@D@2@@std@@AAI@Z$628 10029a6e f   JSONHandler.obj
 0001:00028a79       __unwindfunclet$?GetJSONFromObject@JSONHandler@@SA_NPAXHAAV?$basic_string@DU?$char_traits@D@std@@V?$allocator@D@2@@std@@AAI@Z$629 10029a79 f   JSONHandler.obj
 0001:00028a81       __unwindfunclet$?GetJSONFromObject@JSONHandler@@SA_NPAXHAAV?$basic_string@DU?$char_traits@D@std@@V?$allocator@D@2@@std@@AAI@Z$630 10029a81 f   JSONHandler.obj
 0001:00028a8c       __unwindfunclet$?GetJSONFromObject@JSONHandler@@SA_NPAXHAAV?$basic_string@DU?$char_traits@D@std@@V?$allocator@D@2@@std@@AAI@Z$631 10029a8c f   JSONHandler.obj
 0001:00028a97       __unwindfunclet$?GetJSONFromObject@JSONHandler@@SA_NPAXHAAV?$basic_string@DU?$char_traits@D@std@@V?$allocator@D@2@@std@@AAI@Z$632 10029a97 f   JSONHandler.obj
 0001:00028aa2       __unwindfunclet$?GetJSONFromObject@JSONHandler@@SA_NPAXHAAV?$basic_string@DU?$char_traits@D@std@@V?$allocator@D@2@@std@@AAI@Z$633 10029aa2 f   JSONHandler.obj
 0001:00028aad       __unwindfunclet$?GetJSONFromObject@JSONHandler@@SA_NPAXHAAV?$basic_string@DU?$char_traits@D@std@@V?$allocator@D@2@@std@@AAI@Z$634 10029aad f   JSONHandler.obj
 0001:00028ab8       __unwindfunclet$?GetJSONFromObject@JSONHandler@@SA_NPAXHAAV?$basic_string@DU?$char_traits@D@std@@V?$allocator@D@2@@std@@AAI@Z$635 10029ab8 f   JSONHandler.obj
 0001:00028ac3       __unwindfunclet$?GetJSONFromObject@JSONHandler@@SA_NPAXHAAV?$basic_string@DU?$char_traits@D@std@@V?$allocator@D@2@@std@@AAI@Z$637 10029ac3 f   JSONHandler.obj
 0001:00028ace       __unwindfunclet$?GetJSONFromObject@JSONHandler@@SA_NPAXHAAV?$basic_string@DU?$char_traits@D@std@@V?$allocator@D@2@@std@@AAI@Z$638 10029ace f   JSONHandler.obj
 0001:00028ad9       __unwindfunclet$?GetJSONFromObject@JSONHandler@@SA_NPAXHAAV?$basic_string@DU?$char_traits@D@std@@V?$allocator@D@2@@std@@AAI@Z$639 10029ad9 f   JSONHandler.obj
 0001:00028ae4       __unwindfunclet$?GetJSONFromObject@JSONHandler@@SA_NPAXHAAV?$basic_string@DU?$char_traits@D@std@@V?$allocator@D@2@@std@@AAI@Z$641 10029ae4 f   JSONHandler.obj
 0001:00028aef       __unwindfunclet$?GetJSONFromObject@JSONHandler@@SA_NPAXHAAV?$basic_string@DU?$char_traits@D@std@@V?$allocator@D@2@@std@@AAI@Z$642 10029aef f   JSONHandler.obj
 0001:00028afa       __unwindfunclet$?GetJSONFromObject@JSONHandler@@SA_NPAXHAAV?$basic_string@DU?$char_traits@D@std@@V?$allocator@D@2@@std@@AAI@Z$643 10029afa f   JSONHandler.obj
 0001:00028b05       __unwindfunclet$?GetJSONFromObject@JSONHandler@@SA_NPAXHAAV?$basic_string@DU?$char_traits@D@std@@V?$allocator@D@2@@std@@AAI@Z$644 10029b05 f   JSONHandler.obj
 0001:00028b10       __unwindfunclet$?GetJSONFromObject@JSONHandler@@SA_NPAXHAAV?$basic_string@DU?$char_traits@D@std@@V?$allocator@D@2@@std@@AAI@Z$645 10029b10 f   JSONHandler.obj
 0001:00028b1b       __unwindfunclet$?GetJSONFromObject@JSONHandler@@SA_NPAXHAAV?$basic_string@DU?$char_traits@D@std@@V?$allocator@D@2@@std@@AAI@Z$647 10029b1b f   JSONHandler.obj
 0001:00028b26       __unwindfunclet$?GetJSONFromObject@JSONHandler@@SA_NPAXHAAV?$basic_string@DU?$char_traits@D@std@@V?$allocator@D@2@@std@@AAI@Z$648 10029b26 f   JSONHandler.obj
 0001:00028b31       __unwindfunclet$?GetJSONFromObject@JSONHandler@@SA_NPAXHAAV?$basic_string@DU?$char_traits@D@std@@V?$allocator@D@2@@std@@AAI@Z$649 10029b31 f   JSONHandler.obj
 0001:00028b3c       __unwindfunclet$?GetJSONFromObject@JSONHandler@@SA_NPAXHAAV?$basic_string@DU?$char_traits@D@std@@V?$allocator@D@2@@std@@AAI@Z$650 10029b3c f   JSONHandler.obj
 0001:00028b47       __unwindfunclet$?GetJSONFromObject@JSONHandler@@SA_NPAXHAAV?$basic_string@DU?$char_traits@D@std@@V?$allocator@D@2@@std@@AAI@Z$651 10029b47 f   JSONHandler.obj
 0001:00028b52       __unwindfunclet$?GetJSONFromObject@JSONHandler@@SA_NPAXHAAV?$basic_string@DU?$char_traits@D@std@@V?$allocator@D@2@@std@@AAI@Z$653 10029b52 f   JSONHandler.obj
 0001:00028b5d       __unwindfunclet$?GetJSONFromObject@JSONHandler@@SA_NPAXHAAV?$basic_string@DU?$char_traits@D@std@@V?$allocator@D@2@@std@@AAI@Z$654 10029b5d f   JSONHandler.obj
 0001:00028b68       __unwindfunclet$?GetJSONFromObject@JSONHandler@@SA_NPAXHAAV?$basic_string@DU?$char_traits@D@std@@V?$allocator@D@2@@std@@AAI@Z$655 10029b68 f   JSONHandler.obj
 0001:00028b73       __unwindfunclet$?GetJSONFromObject@JSONHandler@@SA_NPAXHAAV?$basic_string@DU?$char_traits@D@std@@V?$allocator@D@2@@std@@AAI@Z$656 10029b73 f   JSONHandler.obj
 0001:00028b7e       __unwindfunclet$?GetJSONFromObject@JSONHandler@@SA_NPAXHAAV?$basic_string@DU?$char_traits@D@std@@V?$allocator@D@2@@std@@AAI@Z$657 10029b7e f   JSONHandler.obj
 0001:00028b89       __unwindfunclet$?GetJSONFromObject@JSONHandler@@SA_NPAXHAAV?$basic_string@DU?$char_traits@D@std@@V?$allocator@D@2@@std@@AAI@Z$658 10029b89 f   JSONHandler.obj
 0001:00028b94       __unwindfunclet$?GetJSONFromObject@JSONHandler@@SA_NPAXHAAV?$basic_string@DU?$char_traits@D@std@@V?$allocator@D@2@@std@@AAI@Z$659 10029b94 f   JSONHandler.obj
 0001:00028b9f       __unwindfunclet$?GetJSONFromObject@JSONHandler@@SA_NPAXHAAV?$basic_string@DU?$char_traits@D@std@@V?$allocator@D@2@@std@@AAI@Z$660 10029b9f f   JSONHandler.obj
 0001:00028baa       __unwindfunclet$?GetJSONFromObject@JSONHandler@@SA_NPAXHAAV?$basic_string@DU?$char_traits@D@std@@V?$allocator@D@2@@std@@AAI@Z$661 10029baa f   JSONHandler.obj
 0001:00028bb5       __unwindfunclet$?GetJSONFromObject@JSONHandler@@SA_NPAXHAAV?$basic_string@DU?$char_traits@D@std@@V?$allocator@D@2@@std@@AAI@Z$663 10029bb5 f   JSONHandler.obj
 0001:00028bc0       __unwindfunclet$?GetJSONFromObject@JSONHandler@@SA_NPAXHAAV?$basic_string@DU?$char_traits@D@std@@V?$allocator@D@2@@std@@AAI@Z$664 10029bc0 f   JSONHandler.obj
 0001:00028bcb       __unwindfunclet$?GetJSONFromObject@JSONHandler@@SA_NPAXHAAV?$basic_string@DU?$char_traits@D@std@@V?$allocator@D@2@@std@@AAI@Z$665 10029bcb f   JSONHandler.obj
 0001:00028bd6       __unwindfunclet$?GetJSONFromObject@JSONHandler@@SA_NPAXHAAV?$basic_string@DU?$char_traits@D@std@@V?$allocator@D@2@@std@@AAI@Z$667 10029bd6 f   JSONHandler.obj
 0001:00028be1       __unwindfunclet$?GetJSONFromObject@JSONHandler@@SA_NPAXHAAV?$basic_string@DU?$char_traits@D@std@@V?$allocator@D@2@@std@@AAI@Z$668 10029be1 f   JSONHandler.obj
 0001:00028bec       __unwindfunclet$?GetJSONFromObject@JSONHandler@@SA_NPAXHAAV?$basic_string@DU?$char_traits@D@std@@V?$allocator@D@2@@std@@AAI@Z$669 10029bec f   JSONHandler.obj
 0001:00028bf7       __unwindfunclet$?GetJSONFromObject@JSONHandler@@SA_NPAXHAAV?$basic_string@DU?$char_traits@D@std@@V?$allocator@D@2@@std@@AAI@Z$671 10029bf7 f   JSONHandler.obj
 0001:00028c02       __unwindfunclet$?GetJSONFromObject@JSONHandler@@SA_NPAXHAAV?$basic_string@DU?$char_traits@D@std@@V?$allocator@D@2@@std@@AAI@Z$672 10029c02 f   JSONHandler.obj
 0001:00028c0d       __unwindfunclet$?GetJSONFromObject@JSONHandler@@SA_NPAXHAAV?$basic_string@DU?$char_traits@D@std@@V?$allocator@D@2@@std@@AAI@Z$673 10029c0d f   JSONHandler.obj
 0001:00028c18       __unwindfunclet$?GetJSONFromObject@JSONHandler@@SA_NPAXHAAV?$basic_string@DU?$char_traits@D@std@@V?$allocator@D@2@@std@@AAI@Z$674 10029c18 f   JSONHandler.obj
 0001:00028c23       __unwindfunclet$?GetJSONFromObject@JSONHandler@@SA_NPAXHAAV?$basic_string@DU?$char_traits@D@std@@V?$allocator@D@2@@std@@AAI@Z$675 10029c23 f   JSONHandler.obj
 0001:00028c2e       __unwindfunclet$?GetJSONFromObject@JSONHandler@@SA_NPAXHAAV?$basic_string@DU?$char_traits@D@std@@V?$allocator@D@2@@std@@AAI@Z$676 10029c2e f   JSONHandler.obj
 0001:00028c39       __unwindfunclet$?GetJSONFromObject@JSONHandler@@SA_NPAXHAAV?$basic_string@DU?$char_traits@D@std@@V?$allocator@D@2@@std@@AAI@Z$677 10029c39 f   JSONHandler.obj
 0001:00028c44       __unwindfunclet$?GetJSONFromObject@JSONHandler@@SA_NPAXHAAV?$basic_string@DU?$char_traits@D@std@@V?$allocator@D@2@@std@@AAI@Z$678 10029c44 f   JSONHandler.obj
 0001:00028c4f       __unwindfunclet$?GetJSONFromObject@JSONHandler@@SA_NPAXHAAV?$basic_string@DU?$char_traits@D@std@@V?$allocator@D@2@@std@@AAI@Z$679 10029c4f f   JSONHandler.obj
 0001:00028c5a       __unwindfunclet$?GetJSONFromObject@JSONHandler@@SA_NPAXHAAV?$basic_string@DU?$char_traits@D@std@@V?$allocator@D@2@@std@@AAI@Z$680 10029c5a f   JSONHandler.obj
 0001:00028c65       __unwindfunclet$?GetJSONFromObject@JSONHandler@@SA_NPAXHAAV?$basic_string@DU?$char_traits@D@std@@V?$allocator@D@2@@std@@AAI@Z$681 10029c65 f   JSONHandler.obj
 0001:00028c70       __unwindfunclet$?GetJSONFromObject@JSONHandler@@SA_NPAXHAAV?$basic_string@DU?$char_traits@D@std@@V?$allocator@D@2@@std@@AAI@Z$682 10029c70 f   JSONHandler.obj
 0001:00028c7b       __unwindfunclet$?GetJSONFromObject@JSONHandler@@SA_NPAXHAAV?$basic_string@DU?$char_traits@D@std@@V?$allocator@D@2@@std@@AAI@Z$683 10029c7b f   JSONHandler.obj
 0001:00028c86       __unwindfunclet$?GetJSONFromObject@JSONHandler@@SA_NPAXHAAV?$basic_string@DU?$char_traits@D@std@@V?$allocator@D@2@@std@@AAI@Z$684 10029c86 f   JSONHandler.obj
 0001:00028c91       __unwindfunclet$?GetJSONFromObject@JSONHandler@@SA_NPAXHAAV?$basic_string@DU?$char_traits@D@std@@V?$allocator@D@2@@std@@AAI@Z$685 10029c91 f   JSONHandler.obj
 0001:00028c9c       __unwindfunclet$?GetJSONFromObject@JSONHandler@@SA_NPAXHAAV?$basic_string@DU?$char_traits@D@std@@V?$allocator@D@2@@std@@AAI@Z$686 10029c9c f   JSONHandler.obj
 0001:00028ca7       __unwindfunclet$?GetJSONFromObject@JSONHandler@@SA_NPAXHAAV?$basic_string@DU?$char_traits@D@std@@V?$allocator@D@2@@std@@AAI@Z$687 10029ca7 f   JSONHandler.obj
 0001:00028cb2       __unwindfunclet$?GetJSONFromObject@JSONHandler@@SA_NPAXHAAV?$basic_string@DU?$char_traits@D@std@@V?$allocator@D@2@@std@@AAI@Z$689 10029cb2 f   JSONHandler.obj
 0001:00028cbd       __unwindfunclet$?GetJSONFromObject@JSONHandler@@SA_NPAXHAAV?$basic_string@DU?$char_traits@D@std@@V?$allocator@D@2@@std@@AAI@Z$690 10029cbd f   JSONHandler.obj
 0001:00028cc8       __unwindfunclet$?GetJSONFromObject@JSONHandler@@SA_NPAXHAAV?$basic_string@DU?$char_traits@D@std@@V?$allocator@D@2@@std@@AAI@Z$691 10029cc8 f   JSONHandler.obj
 0001:00028cd3       __unwindfunclet$?GetJSONFromObject@JSONHandler@@SA_NPAXHAAV?$basic_string@DU?$char_traits@D@std@@V?$allocator@D@2@@std@@AAI@Z$693 10029cd3 f   JSONHandler.obj
 0001:00028cde       __unwindfunclet$?GetJSONFromObject@JSONHandler@@SA_NPAXHAAV?$basic_string@DU?$char_traits@D@std@@V?$allocator@D@2@@std@@AAI@Z$694 10029cde f   JSONHandler.obj
 0001:00028ce9       __unwindfunclet$?GetJSONFromObject@JSONHandler@@SA_NPAXHAAV?$basic_string@DU?$char_traits@D@std@@V?$allocator@D@2@@std@@AAI@Z$695 10029ce9 f   JSONHandler.obj
 0001:00028cf4       __unwindfunclet$?GetJSONFromObject@JSONHandler@@SA_NPAXHAAV?$basic_string@DU?$char_traits@D@std@@V?$allocator@D@2@@std@@AAI@Z$696 10029cf4 f   JSONHandler.obj
 0001:00028cff       __unwindfunclet$?GetJSONFromObject@JSONHandler@@SA_NPAXHAAV?$basic_string@DU?$char_traits@D@std@@V?$allocator@D@2@@std@@AAI@Z$697 10029cff f   JSONHandler.obj
 0001:00028d0a       __unwindfunclet$?GetJSONFromObject@JSONHandler@@SA_NPAXHAAV?$basic_string@DU?$char_traits@D@std@@V?$allocator@D@2@@std@@AAI@Z$698 10029d0a f   JSONHandler.obj
 0001:00028d15       __unwindfunclet$?GetJSONFromObject@JSONHandler@@SA_NPAXHAAV?$basic_string@DU?$char_traits@D@std@@V?$allocator@D@2@@std@@AAI@Z$700 10029d15 f   JSONHandler.obj
 0001:00028d20       __unwindfunclet$?GetJSONFromObject@JSONHandler@@SA_NPAXHAAV?$basic_string@DU?$char_traits@D@std@@V?$allocator@D@2@@std@@AAI@Z$701 10029d20 f   JSONHandler.obj
 0001:00028d2b       __unwindfunclet$?GetJSONFromObject@JSONHandler@@SA_NPAXHAAV?$basic_string@DU?$char_traits@D@std@@V?$allocator@D@2@@std@@AAI@Z$702 10029d2b f   JSONHandler.obj
 0001:00028d36       __unwindfunclet$?GetJSONFromObject@JSONHandler@@SA_NPAXHAAV?$basic_string@DU?$char_traits@D@std@@V?$allocator@D@2@@std@@AAI@Z$704 10029d36 f   JSONHandler.obj
 0001:00028d41       __unwindfunclet$?GetJSONFromObject@JSONHandler@@SA_NPAXHAAV?$basic_string@DU?$char_traits@D@std@@V?$allocator@D@2@@std@@AAI@Z$705 10029d41 f   JSONHandler.obj
 0001:00028d4c       __unwindfunclet$?GetJSONFromObject@JSONHandler@@SA_NPAXHAAV?$basic_string@DU?$char_traits@D@std@@V?$allocator@D@2@@std@@AAI@Z$706 10029d4c f   JSONHandler.obj
 0001:00028d57       __unwindfunclet$?GetJSONFromObject@JSONHandler@@SA_NPAXHAAV?$basic_string@DU?$char_traits@D@std@@V?$allocator@D@2@@std@@AAI@Z$707 10029d57 f   JSONHandler.obj
 0001:00028d62       __ehhandler$?GetJSONFromObject@JSONHandler@@SA_NPAXHAAV?$basic_string@DU?$char_traits@D@std@@V?$allocator@D@2@@std@@AAI@Z 10029d62 f   JSONHandler.obj
 0001:00028d90       __unwindfunclet$??0?$basic_stringstream@_WU?$char_traits@_W@std@@V?$allocator@_W@2@@std@@QAE@H@Z$0 10029d90 f   JSONHandler.obj
 0001:00028dad       __unwindfunclet$??0?$basic_stringstream@_WU?$char_traits@_W@std@@V?$allocator@_W@2@@std@@QAE@H@Z$1 10029dad f   JSONHandler.obj
 0001:00028db9       __ehhandler$??0?$basic_stringstream@_WU?$char_traits@_W@std@@V?$allocator@_W@2@@std@@QAE@H@Z 10029db9 f   JSONHandler.obj
 0001:00028de0       __unwindfunclet$??0?$basic_stringbuf@_WU?$char_traits@_W@std@@V?$allocator@_W@2@@std@@QAE@H@Z$0 10029de0 f   JSONHandler.obj
 0001:00028de9       __ehhandler$??0?$basic_stringbuf@_WU?$char_traits@_W@std@@V?$allocator@_W@2@@std@@QAE@H@Z 10029de9 f   JSONHandler.obj
 0001:00028e10       __ehhandler$?_Copy@?$basic_string@_WU?$char_traits@_W@std@@V?$allocator@_W@2@@std@@QAEXII@Z 10029e10 f   JSONHandler.obj
 0001:00028e30       __unwindfunclet$??0sentry@?$basic_ostream@_WU?$char_traits@_W@std@@@std@@QAE@AAV12@@Z$0 10029e30 f   JSONHandler.obj
 0001:00028e38       __ehhandler$??0sentry@?$basic_ostream@_WU?$char_traits@_W@std@@@std@@QAE@AAV12@@Z 10029e38 f   JSONHandler.obj
 0001:00028e60       __unwindfunclet$??$?6_WU?$char_traits@_W@std@@V?$allocator@_W@1@@std@@YAAAV?$basic_ostream@_WU?$char_traits@_W@std@@@0@AAV10@ABV?$basic_string@_WU?$char_traits@_W@std@@V?$allocator@_W@2@@0@@Z$2 10029e60 f   JSONHandler.obj
 0001:00028e68       __ehhandler$??$?6_WU?$char_traits@_W@std@@V?$allocator@_W@1@@std@@YAAAV?$basic_ostream@_WU?$char_traits@_W@std@@@0@AAV10@ABV?$basic_string@_WU?$char_traits@_W@std@@V?$allocator@_W@2@@0@@Z 10029e68 f   JSONHandler.obj
 0001:00028e90       __unwindfunclet$??0ServerProtocol@@QAE@XZ$0 10029e90 f   ServerProtocolImpl.obj
 0001:00028e98       __unwindfunclet$??0ServerProtocol@@QAE@XZ$1 10029e98 f   ServerProtocolImpl.obj
 0001:00028ea7       __ehhandler$??0ServerProtocol@@QAE@XZ 10029ea7 f   ServerProtocolImpl.obj
 0001:00028ed0       __unwindfunclet$?CreateServerProtocol@@YGPAVIServerProtocol@@XZ$0 10029ed0 f   ServerProtocolImpl.obj
 0001:00028edf       __ehhandler$?CreateServerProtocol@@YGPAVIServerProtocol@@XZ 10029edf f   ServerProtocolImpl.obj
 0001:00028f00       ??__F_AtlBaseModule@ATL@@YAXXZ 10029f00 f   atls:atlbase.obj
 0002:00000288       ?_AtlBaseModule$initializer$@ATL@@3P6AXXZA 1002a288     atls:atlbase.obj
 0002:00000294       ?__scrt_initialize_tss_var@@3P6AHXZA 1002a294     MSVCRT:thread_safe_statics.obj
 0002:000003cc       _GS_ExceptionPointers      1002a3cc     MSVCRT:gs_report.obj
 0002:00000438       $SG4294967283              1002a438     ClientProtocolImpl.obj
 0002:00000448       $SG4294967282              1002a448     ClientProtocolImpl.obj
 0002:00000454       $SG4294967281              1002a454     ClientProtocolImpl.obj
 0002:0000045f       ?piecewise_construct@std@@3Upiecewise_construct_t@1@B 1002a45f     ClientSession.obj
 0002:00000460       $SG4294967280              1002a460     ClientProtocolImpl.obj
 0002:00000472       ?piecewise_construct@std@@3Upiecewise_construct_t@1@B 1002a472     JSONHandler.obj
 0002:00000473       $SG4294919646              1002a473     JSONHandler.obj
 0002:00000474       $SG4294967279              1002a474     ClientProtocolImpl.obj
 0002:00000485       $SG4294919628              1002a485     JSONHandler.obj
 0002:00000486       $SG4294919612              1002a486     JSONHandler.obj
 0002:00000487       $SG4294919284              1002a487     JSONHandler.obj
 0002:00000488       $SG4294967278              1002a488     ClientProtocolImpl.obj
 0002:0000049c       $SG4294967277              1002a49c     ClientProtocolImpl.obj
 0002:000004b0       $SG4294967276              1002a4b0     ClientProtocolImpl.obj
 0002:000004c0       $SG4294967275              1002a4c0     ClientProtocolImpl.obj
 0002:000004d4       $SG4294967274              1002a4d4     ClientProtocolImpl.obj
 0002:000004e8       $SG4294967273              1002a4e8     ClientProtocolImpl.obj
 0002:000004f8       $SG4294967272              1002a4f8     ClientProtocolImpl.obj
 0002:00000508       $SG4294967271              1002a508     ClientProtocolImpl.obj
 0002:0000051c       $SG4294967270              1002a51c     ClientProtocolImpl.obj
 0002:00000530       $SG4294967269              1002a530     ClientProtocolImpl.obj
 0002:00000540       $SG4294967268              1002a540     ClientProtocolImpl.obj
 0002:00000550       $SG4294967267              1002a550     ClientProtocolImpl.obj
 0002:00000560       $SG4294967266              1002a560     ClientProtocolImpl.obj
 0002:00000570       $SG4294967265              1002a570     ClientProtocolImpl.obj
 0002:0000057c       $SG4294967264              1002a57c     ClientProtocolImpl.obj
 0002:0000058c       $SG4294967263              1002a58c     ClientProtocolImpl.obj
 0002:000005a0       $SG4294967262              1002a5a0     ClientProtocolImpl.obj
 0002:000005b0       $SG4294967261              1002a5b0     ClientProtocolImpl.obj
 0002:000005c0       $SG4294967216              1002a5c0     ClientProtocolImpl.obj
 0002:000005c4       $SG4294967215              1002a5c4     ClientProtocolImpl.obj
 0002:000005c8       $SG4294967214              1002a5c8     ClientProtocolImpl.obj
 0002:000005cc       $SG4294967213              1002a5cc     ClientProtocolImpl.obj
 0002:000005d0       $SG4294967212              1002a5d0     ClientProtocolImpl.obj
 0002:000005d4       $SG4294967211              1002a5d4     ClientProtocolImpl.obj
 0002:000005e0       $SG4294967210              1002a5e0     ClientProtocolImpl.obj
 0002:000005ec       $SG4294967209              1002a5ec     ClientProtocolImpl.obj
 0002:000005f4       $SG4294967208              1002a5f4     ClientProtocolImpl.obj
 0002:000005fc       $SG4294967207              1002a5fc     ClientProtocolImpl.obj
 0002:00000604       $SG4294967206              1002a604     ClientProtocolImpl.obj
 0002:0000061c       $SG4294967205              1002a61c     ClientProtocolImpl.obj
 0002:00000628       $SG4294967204              1002a628     ClientProtocolImpl.obj
 0002:00000634       $SG4294967203              1002a634     ClientProtocolImpl.obj
 0002:00000640       $SG4294967202              1002a640     ClientProtocolImpl.obj
 0002:00000648       $SG4294967201              1002a648     ClientProtocolImpl.obj
 0002:0000064c       $SG4294967200              1002a64c     ClientProtocolImpl.obj
 0002:00000658       $SG4294967199              1002a658     ClientProtocolImpl.obj
 0002:00000660       $SG4294967198              1002a660     ClientProtocolImpl.obj
 0002:0000066c       $SG4294967197              1002a66c     ClientProtocolImpl.obj
 0002:00000674       $SG4294967142              1002a674     ClientProtocolImpl.obj
 0002:00000688       $SG4294967141              1002a688     ClientProtocolImpl.obj
 0002:000006a0       $SG4294967048              1002a6a0     ClientProtocolImpl.obj
 0002:000006b4       $SG4294967047              1002a6b4     ClientProtocolImpl.obj
 0002:000006cc       $SG4294967046              1002a6cc     ClientProtocolImpl.obj
 0002:000006d4       $SG4294967045              1002a6d4     ClientProtocolImpl.obj
 0002:000006dc       $SG4294967044              1002a6dc     ClientProtocolImpl.obj
 0002:000006e4       $SG4294967043              1002a6e4     ClientProtocolImpl.obj
 0002:000006e8       $SG4294967042              1002a6e8     ClientProtocolImpl.obj
 0002:000006ec       $SG4294967041              1002a6ec     ClientProtocolImpl.obj
 0002:000006f0       $SG4294960283              1002a6f0     ClientSession.obj
 0002:00000704       $SG4294960282              1002a704     ClientSession.obj
 0002:0000071c       $SG4294960281              1002a71c     ClientSession.obj
 0002:00000724       $SG4294960280              1002a724     ClientSession.obj
 0002:0000072c       $SG4294960279              1002a72c     ClientSession.obj
 0002:00000734       $SG4294960278              1002a734     ClientSession.obj
 0002:00000738       $SG4294960277              1002a738     ClientSession.obj
 0002:0000073c       $SG4294960276              1002a73c     ClientSession.obj
 0002:00000740       $SG4294960275              1002a740     ClientSession.obj
 0002:00000750       $SG4294960274              1002a750     ClientSession.obj
 0002:0000075c       $SG4294960273              1002a75c     ClientSession.obj
 0002:00000768       $SG4294960272              1002a768     ClientSession.obj
 0002:0000077c       $SG4294960271              1002a77c     ClientSession.obj
 0002:00000790       $SG4294960270              1002a790     ClientSession.obj
 0002:000007a4       $SG4294960269              1002a7a4     ClientSession.obj
 0002:000007b8       $SG4294960268              1002a7b8     ClientSession.obj
 0002:000007c8       $SG4294960267              1002a7c8     ClientSession.obj
 0002:000007dc       $SG4294960266              1002a7dc     ClientSession.obj
 0002:000007f0       $SG4294960265              1002a7f0     ClientSession.obj
 0002:00000800       $SG4294960264              1002a800     ClientSession.obj
 0002:00000810       $SG4294960263              1002a810     ClientSession.obj
 0002:00000824       $SG4294960262              1002a824     ClientSession.obj
 0002:00000838       $SG4294960261              1002a838     ClientSession.obj
 0002:00000848       $SG4294960260              1002a848     ClientSession.obj
 0002:00000858       $SG4294960259              1002a858     ClientSession.obj
 0002:00000868       $SG4294960258              1002a868     ClientSession.obj
 0002:00000878       $SG4294960257              1002a878     ClientSession.obj
 0002:00000884       $SG4294960256              1002a884     ClientSession.obj
 0002:00000894       $SG4294960255              1002a894     ClientSession.obj
 0002:000008a8       $SG4294960254              1002a8a8     ClientSession.obj
 0002:000008b8       $SG4294960253              1002a8b8     ClientSession.obj
 0002:000008c8       $SG4294960208              1002a8c8     ClientSession.obj
 0002:000008cc       $SG4294960207              1002a8cc     ClientSession.obj
 0002:000008d0       $SG4294960206              1002a8d0     ClientSession.obj
 0002:000008d4       $SG4294960205              1002a8d4     ClientSession.obj
 0002:000008d8       $SG4294960204              1002a8d8     ClientSession.obj
 0002:000008dc       $SG4294960203              1002a8dc     ClientSession.obj
 0002:000008e8       $SG4294960202              1002a8e8     ClientSession.obj
 0002:000008f4       $SG4294960201              1002a8f4     ClientSession.obj
 0002:000008fc       $SG4294960200              1002a8fc     ClientSession.obj
 0002:00000904       $SG4294960199              1002a904     ClientSession.obj
 0002:0000090c       $SG4294960198              1002a90c     ClientSession.obj
 0002:00000924       $SG4294960197              1002a924     ClientSession.obj
 0002:00000930       $SG4294960196              1002a930     ClientSession.obj
 0002:0000093c       $SG4294960195              1002a93c     ClientSession.obj
 0002:00000948       $SG4294960194              1002a948     ClientSession.obj
 0002:00000950       $SG4294960193              1002a950     ClientSession.obj
 0002:00000954       $SG4294960192              1002a954     ClientSession.obj
 0002:00000960       $SG4294960191              1002a960     ClientSession.obj
 0002:00000968       $SG4294960190              1002a968     ClientSession.obj
 0002:00000974       $SG4294960189              1002a974     ClientSession.obj
 0002:0000097c       $SG4294960136              1002a97c     ClientSession.obj
 0002:00000990       $SG4294960135              1002a990     ClientSession.obj
 0002:000009a8       $SG4294960054              1002a9a8     ClientSession.obj
 0002:000009cc       $SG4294960053              1002a9cc     ClientSession.obj
 0002:000009f8       $SG4294960052              1002a9f8     ClientSession.obj
 0002:00000a20       $SG4294960051              1002aa20     ClientSession.obj
 0002:00000a4c       $SG4294960028              1002aa4c     ClientSession.obj
 0002:00000a74       $SG4294960022              1002aa74     ClientSession.obj
 0002:00000ab0       $SG4294960027              1002aab0     ClientSession.obj
 0002:00000b28       $SG4294960026              1002ab28     ClientSession.obj
 0002:00000ba0       $SG4294960025              1002aba0     ClientSession.obj
 0002:00000bd8       $SG4294960024              1002abd8     ClientSession.obj
 0002:00000c50       $SG4294960023              1002ac50     ClientSession.obj
 0002:00000c80       $SG4294960021              1002ac80     ClientSession.obj
 0002:00000cb8       $SG4294960020              1002acb8     ClientSession.obj
 0002:00000d04       $SG4294960019              1002ad04     ClientSession.obj
 0002:00000d3c       $SG4294960018              1002ad3c     ClientSession.obj
 0002:00000d54       $SG4294960014              1002ad54     ClientSession.obj
 0002:00000d58       $SG4294960017              1002ad58     ClientSession.obj
 0002:00000d9c       $SG4294960016              1002ad9c     ClientSession.obj
 0002:00000dc4       $SG4294960015              1002adc4     ClientSession.obj
 0002:00000dcc       $SG4294960013              1002adcc     ClientSession.obj
 0002:00000dd8       $SG4294960012              1002add8     ClientSession.obj
 0002:00000ddc       $SG4294960011              1002addc     ClientSession.obj
 0002:00000de8       $SG4294960010              1002ade8     ClientSession.obj
 0002:00000dec       $SG4294960009              1002adec     ClientSession.obj
 0002:00000df4       $SG4294960008              1002adf4     ClientSession.obj
 0002:00000e2c       $SG4294960007              1002ae2c     ClientSession.obj
 0002:00000e38       $SG4294960006              1002ae38     ClientSession.obj
 0002:00000e70       $SG4294960005              1002ae70     ClientSession.obj
 0002:00000e78       $SG4294960004              1002ae78     ClientSession.obj
 0002:00000eb0       $SG4294960003              1002aeb0     ClientSession.obj
 0002:00000ec8       $SG4294960002              1002aec8     ClientSession.obj
 0002:00000ecc       $SG4294960001              1002aecc     ClientSession.obj
 0002:00000f04       $SG4294960000              1002af04     ClientSession.obj
 0002:00000f18       $SG4294959999              1002af18     ClientSession.obj
 0002:00000f1c       $SG4294959998              1002af1c     ClientSession.obj
 0002:00000f30       $SG4294959997              1002af30     ClientSession.obj
 0002:00000f68       $SG4294959996              1002af68     ClientSession.obj
 0002:00000f84       $SG4294959995              1002af84     ClientSession.obj
 0002:00000fb0       $SG4294959994              1002afb0     ClientSession.obj
 0002:00000ff4       $SG4294959993              1002aff4     ClientSession.obj
 0002:00001018       $SG4294959992              1002b018     ClientSession.obj
 0002:0000101c       $SG4294959991              1002b01c     ClientSession.obj
 0002:00001020       $SG4294959990              1002b020     ClientSession.obj
 0002:0000106c       $SG4294959989              1002b06c     ClientSession.obj
 0002:000010a8       $SG4294959988              1002b0a8     ClientSession.obj
 0002:000010dc       $SG4294959987              1002b0dc     ClientSession.obj
 0002:0000110c       $SG4294959983              1002b10c     ClientSession.obj
 0002:00001148       $SG4294959986              1002b148     ClientSession.obj
 0002:0000118c       $SG4294959981              1002b18c     ClientSession.obj
 0002:000011a0       $SG4294959985              1002b1a0     ClientSession.obj
 0002:000011e0       $SG4294959984              1002b1e0     ClientSession.obj
 0002:00001224       $SG4294959982              1002b224     ClientSession.obj
 0002:00001254       $SG4294959980              1002b254     ClientSession.obj
 0002:00001290       $SG4294959979              1002b290     ClientSession.obj
 0002:000012a0       $SG4294959978              1002b2a0     ClientSession.obj
 0002:000012b0       $SG4294959977              1002b2b0     ClientSession.obj
 0002:000012f0       $SG4294959976              1002b2f0     ClientSession.obj
 0002:00001334       $SG4294959975              1002b334     ClientSession.obj
 0002:00001368       $SG4294959974              1002b368     ClientSession.obj
 0002:0000139c       $SG4294959973              1002b39c     ClientSession.obj
 0002:000013d8       $SG4294959972              1002b3d8     ClientSession.obj
 0002:00001414       $SG4294959971              1002b414     ClientSession.obj
 0002:00001444       $SG4294959970              1002b444     ClientSession.obj
 0002:00001470       $SG4294959969              1002b470     ClientSession.obj
 0002:000014bc       $SG4294959968              1002b4bc     ClientSession.obj
 0002:000014f4       $SG4294959964              1002b4f4     ClientSession.obj
 0002:00001528       $SG4294959967              1002b528     ClientSession.obj
 0002:0000157c       $SG4294959963              1002b57c     ClientSession.obj
 0002:000015b4       $SG4294959960              1002b5b4     ClientSession.obj
 0002:000015f0       $SG4294959966              1002b5f0     ClientSession.obj
 0002:00001640       $SG4294959965              1002b640     ClientSession.obj
 0002:00001684       $SG4294959955              1002b684     ClientSession.obj
 0002:000016c0       $SG4294959962              1002b6c0     ClientSession.obj
 0002:00001704       $SG4294959959              1002b704     ClientSession.obj
 0002:0000173c       $SG4294919954              1002b73c     JSONHandler.obj
 0002:00001750       $SG4294959961              1002b750     ClientSession.obj
 0002:00001798       $SG4294959958              1002b798     ClientSession.obj
 0002:000017d8       $SG4294959957              1002b7d8     ClientSession.obj
 0002:00001818       $SG4294959956              1002b818     ClientSession.obj
 0002:00001858       $SG4294919953              1002b858     JSONHandler.obj
 0002:00001870       $SG4294919952              1002b870     JSONHandler.obj
 0002:00001878       $SG4294919951              1002b878     JSONHandler.obj
 0002:00001880       $SG4294919950              1002b880     JSONHandler.obj
 0002:00001888       $SG4294919949              1002b888     JSONHandler.obj
 0002:0000188c       $SG4294919948              1002b88c     JSONHandler.obj
 0002:00001890       $SG4294919947              1002b890     JSONHandler.obj
 0002:00001894       $SG4294919946              1002b894     JSONHandler.obj
 0002:000018a4       $SG4294919945              1002b8a4     JSONHandler.obj
 0002:000018b0       $SG4294919944              1002b8b0     JSONHandler.obj
 0002:000018bc       $SG4294919943              1002b8bc     JSONHandler.obj
 0002:000018d0       $SG4294919942              1002b8d0     JSONHandler.obj
 0002:000018e4       $SG4294919941              1002b8e4     JSONHandler.obj
 0002:000018f8       $SG4294919940              1002b8f8     JSONHandler.obj
 0002:0000190c       $SG4294919939              1002b90c     JSONHandler.obj
 0002:0000191c       $SG4294919938              1002b91c     JSONHandler.obj
 0002:00001930       $SG4294919937              1002b930     JSONHandler.obj
 0002:00001944       $SG4294919936              1002b944     JSONHandler.obj
 0002:00001954       $SG4294919935              1002b954     JSONHandler.obj
 0002:00001964       $SG4294919934              1002b964     JSONHandler.obj
 0002:00001978       $SG4294919933              1002b978     JSONHandler.obj
 0002:0000198c       $SG4294919932              1002b98c     JSONHandler.obj
 0002:0000199c       $SG4294919931              1002b99c     JSONHandler.obj
 0002:000019ac       $SG4294919930              1002b9ac     JSONHandler.obj
 0002:000019bc       $SG4294919929              1002b9bc     JSONHandler.obj
 0002:000019cc       $SG4294919928              1002b9cc     JSONHandler.obj
 0002:000019d8       $SG4294919927              1002b9d8     JSONHandler.obj
 0002:000019e8       $SG4294919926              1002b9e8     JSONHandler.obj
 0002:000019fc       $SG4294919925              1002b9fc     JSONHandler.obj
 0002:00001a0c       $SG4294919924              1002ba0c     JSONHandler.obj
 0002:00001a1c       $SG4294919879              1002ba1c     JSONHandler.obj
 0002:00001a20       $SG4294919878              1002ba20     JSONHandler.obj
 0002:00001a24       $SG4294919877              1002ba24     JSONHandler.obj
 0002:00001a28       $SG4294919876              1002ba28     JSONHandler.obj
 0002:00001a2c       $SG4294919875              1002ba2c     JSONHandler.obj
 0002:00001a30       $SG4294919874              1002ba30     JSONHandler.obj
 0002:00001a3c       $SG4294919873              1002ba3c     JSONHandler.obj
 0002:00001a48       $SG4294919872              1002ba48     JSONHandler.obj
 0002:00001a50       $SG4294919871              1002ba50     JSONHandler.obj
 0002:00001a58       $SG4294919870              1002ba58     JSONHandler.obj
 0002:00001a60       $SG4294919869              1002ba60     JSONHandler.obj
 0002:00001a78       $SG4294919868              1002ba78     JSONHandler.obj
 0002:00001a84       $SG4294919867              1002ba84     JSONHandler.obj
 0002:00001a90       $SG4294919866              1002ba90     JSONHandler.obj
 0002:00001a9c       $SG4294919865              1002ba9c     JSONHandler.obj
 0002:00001aa4       $SG4294919864              1002baa4     JSONHandler.obj
 0002:00001aa8       $SG4294919863              1002baa8     JSONHandler.obj
 0002:00001ab4       $SG4294919862              1002bab4     JSONHandler.obj
 0002:00001abc       $SG4294919861              1002babc     JSONHandler.obj
 0002:00001ac8       $SG4294919860              1002bac8     JSONHandler.obj
 0002:00001ad0       $SG4294919807              1002bad0     JSONHandler.obj
 0002:00001ae4       $SG4294919806              1002bae4     JSONHandler.obj
 0002:00001afc       $SG4294919725              1002bafc     JSONHandler.obj
 0002:00001b20       $SG4294919724              1002bb20     JSONHandler.obj
 0002:00001b4c       $SG4294919723              1002bb4c     JSONHandler.obj
 0002:00001b74       $SG4294919722              1002bb74     JSONHandler.obj
 0002:00001ba0       $SG4294919699              1002bba0     JSONHandler.obj
 0002:00001bb0       $SG4294919698              1002bbb0     JSONHandler.obj
 0002:00001bc8       $SG4294919697              1002bbc8     JSONHandler.obj
 0002:00001bd8       $SG4294919696              1002bbd8     JSONHandler.obj
 0002:00001bec       $SG4294919695              1002bbec     JSONHandler.obj
 0002:00001bfc       $SG4294919694              1002bbfc     JSONHandler.obj
 0002:00001c1c       $SG4294919693              1002bc1c     JSONHandler.obj
 0002:00001c30       $SG4294919692              1002bc30     JSONHandler.obj
 0002:00001c44       $SG4294919691              1002bc44     JSONHandler.obj
 0002:00001c54       $SG4294919690              1002bc54     JSONHandler.obj
 0002:00001c68       $SG4294919689              1002bc68     JSONHandler.obj
 0002:00001c88       $SG4294919688              1002bc88     JSONHandler.obj
 0002:00001cac       $SG4294919687              1002bcac     JSONHandler.obj
 0002:00001cc0       $SG4294919686              1002bcc0     JSONHandler.obj
 0002:00001cd4       $SG4294919685              1002bcd4     JSONHandler.obj
 0002:00001cf4       $SG4294919684              1002bcf4     JSONHandler.obj
 0002:00001d18       $SG4294919683              1002bd18     JSONHandler.obj
 0002:00001d44       $SG4294919682              1002bd44     JSONHandler.obj
 0002:00001d58       $SG4294919681              1002bd58     JSONHandler.obj
 0002:00001d84       $SG4294919680              1002bd84     JSONHandler.obj
 0002:00001da8       $SG4294919679              1002bda8     JSONHandler.obj
 0002:00001db8       $SG4294919678              1002bdb8     JSONHandler.obj
 0002:00001dcc       $SG4294919677              1002bdcc     JSONHandler.obj
 0002:00001ddc       $SG4294919676              1002bddc     JSONHandler.obj
 0002:00001df4       $SG4294919675              1002bdf4     JSONHandler.obj
 0002:00001e04       $SG4294919674              1002be04     JSONHandler.obj
 0002:00001e18       $SG4294919673              1002be18     JSONHandler.obj
 0002:00001e28       $SG4294919672              1002be28     JSONHandler.obj
 0002:00001e3c       $SG4294919671              1002be3c     JSONHandler.obj
 0002:00001e48       $SG4294919670              1002be48     JSONHandler.obj
 0002:00001e54       $SG4294919669              1002be54     JSONHandler.obj
 0002:00001e6c       $SG4294919668              1002be6c     JSONHandler.obj
 0002:00001e7c       $SG4294919667              1002be7c     JSONHandler.obj
 0002:00001e8c       $SG4294919666              1002be8c     JSONHandler.obj
 0002:00001ea4       $SG4294919665              1002bea4     JSONHandler.obj
 0002:00001ec4       $SG4294919664              1002bec4     JSONHandler.obj
 0002:00001ed8       $SG4294919663              1002bed8     JSONHandler.obj
 0002:00001ef8       $SG4294919662              1002bef8     JSONHandler.obj
 0002:00001f20       $SG4294919661              1002bf20     JSONHandler.obj
 0002:00001f30       $SG4294919660              1002bf30     JSONHandler.obj
 0002:00001f44       $SG4294919659              1002bf44     JSONHandler.obj
 0002:00001f54       $SG4294919658              1002bf54     JSONHandler.obj
 0002:00001f6c       $SG4294919657              1002bf6c     JSONHandler.obj
 0002:00001f7c       $SG4294919656              1002bf7c     JSONHandler.obj
 0002:00001f90       $SG4294919655              1002bf90     JSONHandler.obj
 0002:00001fa0       $SG4294919654              1002bfa0     JSONHandler.obj
 0002:00001fb4       $SG4294919653              1002bfb4     JSONHandler.obj
 0002:00001fc0       $SG4294919652              1002bfc0     JSONHandler.obj
 0002:00001fcc       $SG4294919651              1002bfcc     JSONHandler.obj
 0002:00001fe4       $SG4294919650              1002bfe4     JSONHandler.obj
 0002:00001ff4       $SG4294919649              1002bff4     JSONHandler.obj
 0002:00002004       $SG4294919648              1002c004     JSONHandler.obj
 0002:0000201c       $SG4294919647              1002c01c     JSONHandler.obj
 0002:0000203c       $SG4294919645              1002c03c     JSONHandler.obj
 0002:00002064       $SG4294919644              1002c064     JSONHandler.obj
 0002:0000208c       $SG4294919643              1002c08c     JSONHandler.obj
 0002:0000209c       $SG4294919642              1002c09c     JSONHandler.obj
 0002:000020b0       $SG4294919641              1002c0b0     JSONHandler.obj
 0002:000020c0       $SG4294919640              1002c0c0     JSONHandler.obj
 0002:000020d8       $SG4294919639              1002c0d8     JSONHandler.obj
 0002:000020e8       $SG4294919638              1002c0e8     JSONHandler.obj
 0002:000020fc       $SG4294919637              1002c0fc     JSONHandler.obj
 0002:0000210c       $SG4294919636              1002c10c     JSONHandler.obj
 0002:00002120       $SG4294919635              1002c120     JSONHandler.obj
 0002:0000212c       $SG4294919634              1002c12c     JSONHandler.obj
 0002:00002138       $SG4294919633              1002c138     JSONHandler.obj
 0002:00002150       $SG4294919632              1002c150     JSONHandler.obj
 0002:00002160       $SG4294919631              1002c160     JSONHandler.obj
 0002:00002170       $SG4294919630              1002c170     JSONHandler.obj
 0002:00002188       $SG4294919629              1002c188     JSONHandler.obj
 0002:000021a8       $SG4294919627              1002c1a8     JSONHandler.obj
 0002:000021c0       $SG4294919626              1002c1c0     JSONHandler.obj
 0002:000021d8       $SG4294919625              1002c1d8     JSONHandler.obj
 0002:000021f0       $SG4294919624              1002c1f0     JSONHandler.obj
 0002:00002210       $SG4294919623              1002c210     JSONHandler.obj
 0002:00002228       $SG4294919622              1002c228     JSONHandler.obj
 0002:00002240       $SG4294919621              1002c240     JSONHandler.obj
 0002:00002258       $SG4294919620              1002c258     JSONHandler.obj
 0002:00002274       $SG4294919619              1002c274     JSONHandler.obj
 0002:00002288       $SG4294919618              1002c288     JSONHandler.obj
 0002:00002298       $SG4294919617              1002c298     JSONHandler.obj
 0002:000022b8       $SG4294919616              1002c2b8     JSONHandler.obj
 0002:000022cc       $SG4294919615              1002c2cc     JSONHandler.obj
 0002:000022e4       $SG4294919614              1002c2e4     JSONHandler.obj
 0002:00002304       $SG4294919613              1002c304     JSONHandler.obj
 0002:00002328       $SG4294919611              1002c328     JSONHandler.obj
 0002:00002350       $SG4294919610              1002c350     JSONHandler.obj
 0002:00002374       $SG4294919609              1002c374     JSONHandler.obj
 0002:00002384       $SG4294919608              1002c384     JSONHandler.obj
 0002:00002398       $SG4294919607              1002c398     JSONHandler.obj
 0002:000023ac       $SG4294919606              1002c3ac     JSONHandler.obj
 0002:000023d0       $SG4294919605              1002c3d0     JSONHandler.obj
 0002:000023f4       $SG4294919604              1002c3f4     JSONHandler.obj
 0002:00002404       $SG4294919603              1002c404     JSONHandler.obj
 0002:00002418       $SG4294919602              1002c418     JSONHandler.obj
 0002:0000242c       $SG4294919601              1002c42c     JSONHandler.obj
 0002:00002450       $SG4294919600              1002c450     JSONHandler.obj
 0002:00002478       $SG4294919599              1002c478     JSONHandler.obj
 0002:00002488       $SG4294919598              1002c488     JSONHandler.obj
 0002:00002498       $SG4294919597              1002c498     JSONHandler.obj
 0002:000024ac       $SG4294919596              1002c4ac     JSONHandler.obj
 0002:000024d4       $SG4294919595              1002c4d4     JSONHandler.obj
 0002:000024fc       $SG4294919594              1002c4fc     JSONHandler.obj
 0002:0000250c       $SG4294919593              1002c50c     JSONHandler.obj
 0002:0000251c       $SG4294919592              1002c51c     JSONHandler.obj
 0002:00002530       $SG4294919591              1002c530     JSONHandler.obj
 0002:00002558       $SG4294919590              1002c558     JSONHandler.obj
 0002:00002584       $SG4294919589              1002c584     JSONHandler.obj
 0002:0000259c       $SG4294919588              1002c59c     JSONHandler.obj
 0002:000025ac       $SG4294919587              1002c5ac     JSONHandler.obj
 0002:000025c4       $SG4294919586              1002c5c4     JSONHandler.obj
 0002:000025d4       $SG4294919585              1002c5d4     JSONHandler.obj
 0002:000025e8       $SG4294919584              1002c5e8     JSONHandler.obj
 0002:000025f8       $SG4294919583              1002c5f8     JSONHandler.obj
 0002:00002624       $SG4294919582              1002c624     JSONHandler.obj
 0002:00002644       $SG4294919581              1002c644     JSONHandler.obj
 0002:0000265c       $SG4294919580              1002c65c     JSONHandler.obj
 0002:0000267c       $SG4294919579              1002c67c     JSONHandler.obj
 0002:0000268c       $SG4294919578              1002c68c     JSONHandler.obj
 0002:000026a4       $SG4294919577              1002c6a4     JSONHandler.obj
 0002:000026b4       $SG4294919576              1002c6b4     JSONHandler.obj
 0002:000026c8       $SG4294919575              1002c6c8     JSONHandler.obj
 0002:000026d8       $SG4294919574              1002c6d8     JSONHandler.obj
 0002:000026f8       $SG4294919573              1002c6f8     JSONHandler.obj
 0002:00002718       $SG4294919572              1002c718     JSONHandler.obj
 0002:00002738       $SG4294919571              1002c738     JSONHandler.obj
 0002:00002748       $SG4294919570              1002c748     JSONHandler.obj
 0002:0000277c       $SG4294919569              1002c77c     JSONHandler.obj
 0002:0000278c       $SG4294919568              1002c78c     JSONHandler.obj
 0002:000027b8       $SG4294919567              1002c7b8     JSONHandler.obj
 0002:000027c8       $SG4294919566              1002c7c8     JSONHandler.obj
 0002:000027fc       $SG4294919565              1002c7fc     JSONHandler.obj
 0002:0000282c       $SG4294919564              1002c82c     JSONHandler.obj
 0002:00002858       $SG4294919563              1002c858     JSONHandler.obj
 0002:00002870       $SG4294919562              1002c870     JSONHandler.obj
 0002:00002898       $SG4294919561              1002c898     JSONHandler.obj
 0002:000028c4       $SG4294919560              1002c8c4     JSONHandler.obj
 0002:000028d0       $SG4294919559              1002c8d0     JSONHandler.obj
 0002:000028e0       $SG4294919558              1002c8e0     JSONHandler.obj
 0002:0000290c       $SG4294919557              1002c90c     JSONHandler.obj
 0002:00002930       $SG4294919556              1002c930     JSONHandler.obj
 0002:00002940       $SG4294919555              1002c940     JSONHandler.obj
 0002:00002958       $SG4294919554              1002c958     JSONHandler.obj
 0002:00002970       $SG4294919553              1002c970     JSONHandler.obj
 0002:00002980       $SG4294919552              1002c980     JSONHandler.obj
 0002:00002990       $SG4294919551              1002c990     JSONHandler.obj
 0002:000029b4       $SG4294919550              1002c9b4     JSONHandler.obj
 0002:000029e4       $SG4294919549              1002c9e4     JSONHandler.obj
 0002:00002a08       $SG4294919548              1002ca08     JSONHandler.obj
 0002:00002a1c       $SG4294919547              1002ca1c     JSONHandler.obj
 0002:00002a34       $SG4294919546              1002ca34     JSONHandler.obj
 0002:00002a44       $SG4294919545              1002ca44     JSONHandler.obj
 0002:00002a58       $SG4294919544              1002ca58     JSONHandler.obj
 0002:00002a64       $SG4294919543              1002ca64     JSONHandler.obj
 0002:00002a7c       $SG4294919542              1002ca7c     JSONHandler.obj
 0002:00002a8c       $SG4294919541              1002ca8c     JSONHandler.obj
 0002:00002aa4       $SG4294919540              1002caa4     JSONHandler.obj
 0002:00002abc       $SG4294919539              1002cabc     JSONHandler.obj
 0002:00002acc       $SG4294919538              1002cacc     JSONHandler.obj
 0002:00002aec       $SG4294919537              1002caec     JSONHandler.obj
 0002:00002b0c       $SG4294919536              1002cb0c     JSONHandler.obj
 0002:00002b30       $SG4294919535              1002cb30     JSONHandler.obj
 0002:00002b48       $SG4294919534              1002cb48     JSONHandler.obj
 0002:00002b60       $SG4294919533              1002cb60     JSONHandler.obj
 0002:00002b78       $SG4294919532              1002cb78     JSONHandler.obj
 0002:00002b90       $SG4294919531              1002cb90     JSONHandler.obj
 0002:00002ba4       $SG4294919530              1002cba4     JSONHandler.obj
 0002:00002bb4       $SG4294919529              1002cbb4     JSONHandler.obj
 0002:00002bcc       $SG4294919528              1002cbcc     JSONHandler.obj
 0002:00002be0       $SG4294919527              1002cbe0     JSONHandler.obj
 0002:00002bf0       $SG4294919526              1002cbf0     JSONHandler.obj
 0002:00002c20       $SG4294919525              1002cc20     JSONHandler.obj
 0002:00002c4c       $SG4294919524              1002cc4c     JSONHandler.obj
 0002:00002c5c       $SG4294919523              1002cc5c     JSONHandler.obj
 0002:00002c70       $SG4294919522              1002cc70     JSONHandler.obj
 0002:00002c80       $SG4294919521              1002cc80     JSONHandler.obj
 0002:00002cd8       $SG4294919520              1002ccd8     JSONHandler.obj
 0002:00002cf0       $SG4294919519              1002ccf0     JSONHandler.obj
 0002:00002d2c       $SG4294919518              1002cd2c     JSONHandler.obj
 0002:00002d44       $SG4294919517              1002cd44     JSONHandler.obj
 0002:00002d54       $SG4294919516              1002cd54     JSONHandler.obj
 0002:00002d68       $SG4294919515              1002cd68     JSONHandler.obj
 0002:00002d78       $SG4294919514              1002cd78     JSONHandler.obj
 0002:00002d8c       $SG4294919513              1002cd8c     JSONHandler.obj
 0002:00002d98       $SG4294919512              1002cd98     JSONHandler.obj
 0002:00002da4       $SG4294919511              1002cda4     JSONHandler.obj
 0002:00002dbc       $SG4294919510              1002cdbc     JSONHandler.obj
 0002:00002dcc       $SG4294919509              1002cdcc     JSONHandler.obj
 0002:00002ddc       $SG4294919508              1002cddc     JSONHandler.obj
 0002:00002df4       $SG4294919507              1002cdf4     JSONHandler.obj
 0002:00002e14       $SG4294919506              1002ce14     JSONHandler.obj
 0002:00002e24       $SG4294919505              1002ce24     JSONHandler.obj
 0002:00002e40       $SG4294919504              1002ce40     JSONHandler.obj
 0002:00002e54       $SG4294919503              1002ce54     JSONHandler.obj
 0002:00002e6c       $SG4294919502              1002ce6c     JSONHandler.obj
 0002:00002e88       $SG4294919501              1002ce88     JSONHandler.obj
 0002:00002ea0       $SG4294919500              1002cea0     JSONHandler.obj
 0002:00002eac       $SG4294919499              1002ceac     JSONHandler.obj
 0002:00002ebc       $SG4294919498              1002cebc     JSONHandler.obj
 0002:00002ec8       $SG4294919497              1002cec8     JSONHandler.obj
 0002:00002ecc       $SG4294919496              1002cecc     JSONHandler.obj
 0002:00002ee0       $SG4294919495              1002cee0     JSONHandler.obj
 0002:00002ef0       $SG4294919494              1002cef0     JSONHandler.obj
 0002:00002efc       $SG4294919493              1002cefc     JSONHandler.obj
 0002:00002f04       $SG4294919492              1002cf04     JSONHandler.obj
 0002:00002f18       $SG4294919491              1002cf18     JSONHandler.obj
 0002:00002f2c       $SG4294919490              1002cf2c     JSONHandler.obj
 0002:00002f3c       $SG4294919489              1002cf3c     JSONHandler.obj
 0002:00002f4c       $SG4294919488              1002cf4c     JSONHandler.obj
 0002:00002f78       $SG4294919487              1002cf78     JSONHandler.obj
 0002:00002fa0       $SG4294919486              1002cfa0     JSONHandler.obj
 0002:00002fb4       $SG4294919485              1002cfb4     JSONHandler.obj
 0002:00002fc4       $SG4294919484              1002cfc4     JSONHandler.obj
 0002:00002fec       $SG4294919483              1002cfec     JSONHandler.obj
 0002:00003014       $SG4294919482              1002d014     JSONHandler.obj
 0002:00003030       $SG4294919481              1002d030     JSONHandler.obj
 0002:00003048       $SG4294919480              1002d048     JSONHandler.obj
 0002:00003058       $SG4294919479              1002d058     JSONHandler.obj
 0002:0000306c       $SG4294919478              1002d06c     JSONHandler.obj
 0002:00003078       $SG4294919477              1002d078     JSONHandler.obj
 0002:00003090       $SG4294919476              1002d090     JSONHandler.obj
 0002:000030a0       $SG4294919475              1002d0a0     JSONHandler.obj
 0002:000030b8       $SG4294919474              1002d0b8     JSONHandler.obj
 0002:000030d0       $SG4294919473              1002d0d0     JSONHandler.obj
 0002:000030e0       $SG4294919472              1002d0e0     JSONHandler.obj
 0002:00003100       $SG4294919471              1002d100     JSONHandler.obj
 0002:00003120       $SG4294919470              1002d120     JSONHandler.obj
 0002:00003144       $SG4294919469              1002d144     JSONHandler.obj
 0002:0000315c       $SG4294919468              1002d15c     JSONHandler.obj
 0002:00003174       $SG4294919467              1002d174     JSONHandler.obj
 0002:0000318c       $SG4294919466              1002d18c     JSONHandler.obj
 0002:000031a4       $SG4294919465              1002d1a4     JSONHandler.obj
 0002:000031b8       $SG4294919464              1002d1b8     JSONHandler.obj
 0002:000031c8       $SG4294919463              1002d1c8     JSONHandler.obj
 0002:000031e0       $SG4294919462              1002d1e0     JSONHandler.obj
 0002:000031f4       $SG4294919461              1002d1f4     JSONHandler.obj
 0002:00003204       $SG4294919460              1002d204     JSONHandler.obj
 0002:0000322c       $SG4294919459              1002d22c     JSONHandler.obj
 0002:00003254       $SG4294919458              1002d254     JSONHandler.obj
 0002:00003270       $SG4294919457              1002d270     JSONHandler.obj
 0002:00003280       $SG4294919456              1002d280     JSONHandler.obj
 0002:00003294       $SG4294919455              1002d294     JSONHandler.obj
 0002:000032a4       $SG4294919454              1002d2a4     JSONHandler.obj
 0002:000032b4       $SG4294919453              1002d2b4     JSONHandler.obj
 0002:000032cc       $SG4294919452              1002d2cc     JSONHandler.obj
 0002:000032dc       $SG4294919451              1002d2dc     JSONHandler.obj
 0002:000032ec       $SG4294919450              1002d2ec     JSONHandler.obj
 0002:000032fc       $SG4294919449              1002d2fc     JSONHandler.obj
 0002:00003310       $SG4294919448              1002d310     JSONHandler.obj
 0002:00003320       $SG4294919447              1002d320     JSONHandler.obj
 0002:00003330       $SG4294919446              1002d330     JSONHandler.obj
 0002:00003340       $SG4294919445              1002d340     JSONHandler.obj
 0002:00003350       $SG4294919444              1002d350     JSONHandler.obj
 0002:00003360       $SG4294919443              1002d360     JSONHandler.obj
 0002:00003374       $SG4294919442              1002d374     JSONHandler.obj
 0002:00003388       $SG4294919441              1002d388     JSONHandler.obj
 0002:00003398       $SG4294919440              1002d398     JSONHandler.obj
 0002:000033c0       $SG4294919439              1002d3c0     JSONHandler.obj
 0002:000033ec       $SG4294919438              1002d3ec     JSONHandler.obj
 0002:00003404       $SG4294919437              1002d404     JSONHandler.obj
 0002:00003414       $SG4294919436              1002d414     JSONHandler.obj
 0002:00003428       $SG4294919435              1002d428     JSONHandler.obj
 0002:00003438       $SG4294919434              1002d438     JSONHandler.obj
 0002:00003450       $SG4294919433              1002d450     JSONHandler.obj
 0002:00003460       $SG4294919432              1002d460     JSONHandler.obj
 0002:00003474       $SG4294919431              1002d474     JSONHandler.obj
 0002:00003484       $SG4294919430              1002d484     JSONHandler.obj
 0002:00003498       $SG4294919429              1002d498     JSONHandler.obj
 0002:000034a4       $SG4294919428              1002d4a4     JSONHandler.obj
 0002:000034b0       $SG4294919427              1002d4b0     JSONHandler.obj
 0002:000034c8       $SG4294919426              1002d4c8     JSONHandler.obj
 0002:000034d8       $SG4294919425              1002d4d8     JSONHandler.obj
 0002:000034e8       $SG4294919424              1002d4e8     JSONHandler.obj
 0002:00003500       $SG4294919423              1002d500     JSONHandler.obj
 0002:00003520       $SG4294919422              1002d520     JSONHandler.obj
 0002:00003530       $SG4294919421              1002d530     JSONHandler.obj
 0002:0000354c       $SG4294919420              1002d54c     JSONHandler.obj
 0002:00003560       $SG4294919419              1002d560     JSONHandler.obj
 0002:00003578       $SG4294919418              1002d578     JSONHandler.obj
 0002:00003594       $SG4294919417              1002d594     JSONHandler.obj
 0002:000035ac       $SG4294919416              1002d5ac     JSONHandler.obj
 0002:000035c8       $SG4294919415              1002d5c8     JSONHandler.obj
 0002:000035d4       $SG4294919414              1002d5d4     JSONHandler.obj
 0002:000035e4       $SG4294919412              1002d5e4     JSONHandler.obj
 0002:000035fc       $SG4294919411              1002d5fc     JSONHandler.obj
 0002:00003638       $SG4294919413              1002d638     JSONHandler.obj
 0002:00003690       $SG4294919410              1002d690     JSONHandler.obj
 0002:0000369c       $SG4294919409              1002d69c     JSONHandler.obj
 0002:000036a0       $SG4294919408              1002d6a0     JSONHandler.obj
 0002:000036b4       $SG4294919407              1002d6b4     JSONHandler.obj
 0002:000036c4       $SG4294919406              1002d6c4     JSONHandler.obj
 0002:000036d0       $SG4294919405              1002d6d0     JSONHandler.obj
 0002:000036d8       $SG4294919404              1002d6d8     JSONHandler.obj
 0002:000036ec       $SG4294919403              1002d6ec     JSONHandler.obj
 0002:00003700       $SG4294919402              1002d700     JSONHandler.obj
 0002:00003710       $SG4294919401              1002d710     JSONHandler.obj
 0002:00003730       $SG4294919400              1002d730     JSONHandler.obj
 0002:00003744       $SG4294919399              1002d744     JSONHandler.obj
 0002:00003754       $SG4294919398              1002d754     JSONHandler.obj
 0002:00003780       $SG4294919397              1002d780     JSONHandler.obj
 0002:000037ac       $SG4294919396              1002d7ac     JSONHandler.obj
 0002:000037c4       $SG4294919395              1002d7c4     JSONHandler.obj
 0002:000037d4       $SG4294919394              1002d7d4     JSONHandler.obj
 0002:000037e4       $SG4294919393              1002d7e4     JSONHandler.obj
 0002:000037f4       $SG4294919392              1002d7f4     JSONHandler.obj
 0002:00003800       $SG4294919391              1002d800     JSONHandler.obj
 0002:00003810       $SG4294919390              1002d810     JSONHandler.obj
 0002:00003824       $SG4294919389              1002d824     JSONHandler.obj
 0002:0000383c       $SG4294919388              1002d83c     JSONHandler.obj
 0002:0000384c       $SG4294919387              1002d84c     JSONHandler.obj
 0002:00003860       $SG4294919386              1002d860     JSONHandler.obj
 0002:00003870       $SG4294919385              1002d870     JSONHandler.obj
 0002:00003888       $SG4294919384              1002d888     JSONHandler.obj
 0002:0000389c       $SG4294919383              1002d89c     JSONHandler.obj
 0002:000038b4       $SG4294919382              1002d8b4     JSONHandler.obj
 0002:000038c0       $SG4294919381              1002d8c0     JSONHandler.obj
 0002:000038d0       $SG4294919380              1002d8d0     JSONHandler.obj
 0002:000038dc       $SG4294919379              1002d8dc     JSONHandler.obj
 0002:000038e8       $SG4294919378              1002d8e8     JSONHandler.obj
 0002:00003900       $SG4294919377              1002d900     JSONHandler.obj
 0002:0000391c       $SG4294919376              1002d91c     JSONHandler.obj
 0002:00003930       $SG4294919375              1002d930     JSONHandler.obj
 0002:00003940       $SG4294919374              1002d940     JSONHandler.obj
 0002:00003954       $SG4294919373              1002d954     JSONHandler.obj
 0002:0000396c       $SG4294919372              1002d96c     JSONHandler.obj
 0002:00003978       $SG4294919371              1002d978     JSONHandler.obj
 0002:00003980       $SG4294919370              1002d980     JSONHandler.obj
 0002:00003998       $SG4294919369              1002d998     JSONHandler.obj
 0002:000039b8       $SG4294919368              1002d9b8     JSONHandler.obj
 0002:000039cc       $SG4294919367              1002d9cc     JSONHandler.obj
 0002:000039e0       $SG4294919366              1002d9e0     JSONHandler.obj
 0002:000039f8       $SG4294919365              1002d9f8     JSONHandler.obj
 0002:00003a10       $SG4294919364              1002da10     JSONHandler.obj
 0002:00003a28       $SG4294919363              1002da28     JSONHandler.obj
 0002:00003a44       $SG4294919362              1002da44     JSONHandler.obj
 0002:00003a60       $SG4294919361              1002da60     JSONHandler.obj
 0002:00003a74       $SG4294919360              1002da74     JSONHandler.obj
 0002:00003a84       $SG4294919359              1002da84     JSONHandler.obj
 0002:00003ab0       $SG4294919358              1002dab0     JSONHandler.obj
 0002:00003ae0       $SG4294919357              1002dae0     JSONHandler.obj
 0002:00003af8       $SG4294919356              1002daf8     JSONHandler.obj
 0002:00003b0c       $SG4294919355              1002db0c     JSONHandler.obj
 0002:00003b24       $SG4294919354              1002db24     JSONHandler.obj
 0002:00003b34       $SG4294919353              1002db34     JSONHandler.obj
 0002:00003b48       $SG4294919352              1002db48     JSONHandler.obj
 0002:00003b58       $SG4294919351              1002db58     JSONHandler.obj
 0002:00003b64       $SG4294919350              1002db64     JSONHandler.obj
 0002:00003b70       $SG4294919349              1002db70     JSONHandler.obj
 0002:00003b84       $SG4294919348              1002db84     JSONHandler.obj
 0002:00003b98       $SG4294919347              1002db98     JSONHandler.obj
 0002:00003bac       $SG4294919346              1002dbac     JSONHandler.obj
 0002:00003bb4       $SG4294919345              1002dbb4     JSONHandler.obj
 0002:00003bc0       $SG4294919344              1002dbc0     JSONHandler.obj
 0002:00003bd0       $SG4294919343              1002dbd0     JSONHandler.obj
 0002:00003be8       $SG4294919342              1002dbe8     JSONHandler.obj
 0002:00003c00       $SG4294919341              1002dc00     JSONHandler.obj
 0002:00003c20       $SG4294919340              1002dc20     JSONHandler.obj
 0002:00003c44       $SG4294919339              1002dc44     JSONHandler.obj
 0002:00003c58       $SG4294919338              1002dc58     JSONHandler.obj
 0002:00003c68       $SG4294919337              1002dc68     JSONHandler.obj
 0002:00003c78       $SG4294919336              1002dc78     JSONHandler.obj
 0002:00003c8c       $SG4294919335              1002dc8c     JSONHandler.obj
 0002:00003c9c       $SG4294919334              1002dc9c     JSONHandler.obj
 0002:00003cac       $SG4294919333              1002dcac     JSONHandler.obj
 0002:00003cbc       $SG4294919332              1002dcbc     JSONHandler.obj
 0002:00003cc8       $SG4294919331              1002dcc8     JSONHandler.obj
 0002:00003ce0       $SG4294919330              1002dce0     JSONHandler.obj
 0002:00003cec       $SG4294919329              1002dcec     JSONHandler.obj
 0002:00003d00       $SG4294919328              1002dd00     JSONHandler.obj
 0002:00003d10       $SG4294919327              1002dd10     JSONHandler.obj
 0002:00003d40       $SG4294919326              1002dd40     JSONHandler.obj
 0002:00003d64       $SG4294919325              1002dd64     JSONHandler.obj
 0002:00003d7c       $SG4294919324              1002dd7c     JSONHandler.obj
 0002:00003d90       $SG4294919323              1002dd90     JSONHandler.obj
 0002:00003da8       $SG4294919322              1002dda8     JSONHandler.obj
 0002:00003db4       $SG4294919321              1002ddb4     JSONHandler.obj
 0002:00003dc0       $SG4294919320              1002ddc0     JSONHandler.obj
 0002:00003dcc       $SG4294919319              1002ddcc     JSONHandler.obj
 0002:00003df0       $SG4294919318              1002ddf0     JSONHandler.obj
 0002:00003e08       $SG4294919317              1002de08     JSONHandler.obj
 0002:00003e18       $SG4294919316              1002de18     JSONHandler.obj
 0002:00003e2c       $SG4294919315              1002de2c     JSONHandler.obj
 0002:00003e3c       $SG4294919314              1002de3c     JSONHandler.obj
 0002:00003e54       $SG4294919313              1002de54     JSONHandler.obj
 0002:00003e68       $SG4294919312              1002de68     JSONHandler.obj
 0002:00003e78       $SG4294919311              1002de78     JSONHandler.obj
 0002:00003e9c       $SG4294919310              1002de9c     JSONHandler.obj
 0002:00003ea8       $SG4294919309              1002dea8     JSONHandler.obj
 0002:00003eb4       $SG4294919308              1002deb4     JSONHandler.obj
 0002:00003ec4       $SG4294919307              1002dec4     JSONHandler.obj
 0002:00003ed4       $SG4294919306              1002ded4     JSONHandler.obj
 0002:00003ee4       $SG4294919305              1002dee4     JSONHandler.obj
 0002:00003eec       $SG4294919304              1002deec     JSONHandler.obj
 0002:00003efc       $SG4294919303              1002defc     JSONHandler.obj
 0002:00003f10       $SG4294919302              1002df10     JSONHandler.obj
 0002:00003f28       $SG4294919301              1002df28     JSONHandler.obj
 0002:00003f30       $SG4294919300              1002df30     JSONHandler.obj
 0002:00003f38       $SG4294919299              1002df38     JSONHandler.obj
 0002:00003f50       $SG4294919298              1002df50     JSONHandler.obj
 0002:00003f68       $SG4294919297              1002df68     JSONHandler.obj
 0002:00003f80       $SG4294919296              1002df80     JSONHandler.obj
 0002:00003f8c       $SG4294919295              1002df8c     JSONHandler.obj
 0002:00003fb0       $SG4294919294              1002dfb0     JSONHandler.obj
 0002:00003fc0       $SG4294919293              1002dfc0     JSONHandler.obj
 0002:00003fd8       $SG4294919292              1002dfd8     JSONHandler.obj
 0002:00003fe8       $SG4294919291              1002dfe8     JSONHandler.obj
 0002:00003ff4       $SG4294919290              1002dff4     JSONHandler.obj
 0002:00004000       $SG4294919289              1002e000     JSONHandler.obj
 0002:00004010       $SG4294919288              1002e010     JSONHandler.obj
 0002:00004024       $SG4294919287              1002e024     JSONHandler.obj
 0002:00004034       $SG4294919286              1002e034     JSONHandler.obj
 0002:00004044       $SG4294919285              1002e044     JSONHandler.obj
 0002:00004054       $SG4294919283              1002e054     JSONHandler.obj
 0002:0000408c       $SG4294919280              1002e08c     JSONHandler.obj
 0002:000040b8       $SG4294919282              1002e0b8     JSONHandler.obj
 0002:000040fc       $SG4294880728              1002e0fc     ServerProtocolImpl.obj
 0002:00004114       $SG4294880729              1002e114     ServerProtocolImpl.obj
 0002:00004128       $SG4294919281              1002e128     JSONHandler.obj
 0002:00004170       $SG4294880726              1002e170     ServerProtocolImpl.obj
 0002:00004178       $SG4294880727              1002e178     ServerProtocolImpl.obj
 0002:00004180       $SG4294880724              1002e180     ServerProtocolImpl.obj
 0002:00004184       $SG4294880725              1002e184     ServerProtocolImpl.obj
 0002:0000418c       $SG4294880722              1002e18c     ServerProtocolImpl.obj
 0002:00004190       $SG4294880723              1002e190     ServerProtocolImpl.obj
 0002:00004194       $SG4294880720              1002e194     ServerProtocolImpl.obj
 0002:000041a0       $SG4294880721              1002e1a0     ServerProtocolImpl.obj
 0002:000041b0       $SG4294880718              1002e1b0     ServerProtocolImpl.obj
 0002:000041c4       $SG4294880719              1002e1c4     ServerProtocolImpl.obj
 0002:000041d0       $SG4294880716              1002e1d0     ServerProtocolImpl.obj
 0002:000041e4       $SG4294880717              1002e1e4     ServerProtocolImpl.obj
 0002:000041f8       $SG4294880714              1002e1f8     ServerProtocolImpl.obj
 0002:00004208       $SG4294880715              1002e208     ServerProtocolImpl.obj
 0002:0000421c       $SG4294880712              1002e21c     ServerProtocolImpl.obj
 0002:00004230       $SG4294880713              1002e230     ServerProtocolImpl.obj
 0002:00004244       $SG4294880710              1002e244     ServerProtocolImpl.obj
 0002:00004254       $SG4294880711              1002e254     ServerProtocolImpl.obj
 0002:00004264       $SG4294880708              1002e264     ServerProtocolImpl.obj
 0002:00004278       $SG4294880709              1002e278     ServerProtocolImpl.obj
 0002:0000428c       $SG4294880706              1002e28c     ServerProtocolImpl.obj
 0002:0000429c       $SG4294880707              1002e29c     ServerProtocolImpl.obj
 0002:000042ac       $SG4294880704              1002e2ac     ServerProtocolImpl.obj
 0002:000042bc       $SG4294880705              1002e2bc     ServerProtocolImpl.obj
 0002:000042cc       $SG4294880702              1002e2cc     ServerProtocolImpl.obj
 0002:000042dc       $SG4294880703              1002e2dc     ServerProtocolImpl.obj
 0002:000042e8       $SG4294880700              1002e2e8     ServerProtocolImpl.obj
 0002:000042f8       $SG4294880701              1002e2f8     ServerProtocolImpl.obj
 0002:0000430c       $SG4294880699              1002e30c     ServerProtocolImpl.obj
 0002:0000431c       $SG4294880654              1002e31c     ServerProtocolImpl.obj
 0002:00004320       $SG4294880652              1002e320     ServerProtocolImpl.obj
 0002:00004324       $SG4294880653              1002e324     ServerProtocolImpl.obj
 0002:00004328       $SG4294880650              1002e328     ServerProtocolImpl.obj
 0002:0000432c       $SG4294880651              1002e32c     ServerProtocolImpl.obj
 0002:00004330       $SG4294880648              1002e330     ServerProtocolImpl.obj
 0002:0000433c       $SG4294880649              1002e33c     ServerProtocolImpl.obj
 0002:00004348       $SG4294880646              1002e348     ServerProtocolImpl.obj
 0002:00004350       $SG4294880647              1002e350     ServerProtocolImpl.obj
 0002:00004358       $SG4294880644              1002e358     ServerProtocolImpl.obj
 0002:00004370       $SG4294880645              1002e370     ServerProtocolImpl.obj
 0002:00004378       $SG4294880642              1002e378     ServerProtocolImpl.obj
 0002:00004384       $SG4294880643              1002e384     ServerProtocolImpl.obj
 0002:00004390       $SG4294880640              1002e390     ServerProtocolImpl.obj
 0002:00004398       $SG4294880641              1002e398     ServerProtocolImpl.obj
 0002:000043a4       $SG4294880638              1002e3a4     ServerProtocolImpl.obj
 0002:000043b0       $SG4294880639              1002e3b0     ServerProtocolImpl.obj
 0002:000043b4       $SG4294880636              1002e3b4     ServerProtocolImpl.obj
 0002:000043c0       $SG4294880637              1002e3c0     ServerProtocolImpl.obj
 0002:000043c8       $SG4294880635              1002e3c8     ServerProtocolImpl.obj
 0002:000043d0       $SG4294880582              1002e3d0     ServerProtocolImpl.obj
 0002:000043e4       $SG4294880581              1002e3e4     ServerProtocolImpl.obj
 0002:000043fc       $SG4294880572              1002e3fc     ServerProtocolImpl.obj
 0002:0000441c       $SG4294880570              1002e41c     ServerProtocolImpl.obj
 0002:0000443c       $SG4294880571              1002e43c     ServerProtocolImpl.obj
 0002:0000446c       $SG4294880568              1002e46c     ServerProtocolImpl.obj
 0002:00004498       $SG4294880569              1002e498     ServerProtocolImpl.obj
 0002:00005440       __ehfuncinfo$??0ClientProtocol@@QAE@XZ 1002f440     ClientProtocolImpl.obj
 0002:00005464       __unwindtable$??0ClientProtocol@@QAE@XZ 1002f464     ClientProtocolImpl.obj
 0002:0000546c       __ehfuncinfo$??$_Pocma@U?$_Wrap_alloc@V?$allocator@D@std@@@std@@@std@@YAXAAU?$_Wrap_alloc@V?$allocator@D@std@@@0@0U?$integral_constant@_N$00@0@@Z 1002f46c     ClientSession.obj
 0002:0000546c       __ehfuncinfo$??1_Sentry_base@?$basic_ostream@_WU?$char_traits@_W@std@@@std@@QAE@XZ 1002f46c     JSONHandler.obj
 0002:0000546c       __ehfuncinfo$??1?$basic_string@DU?$char_traits@D@std@@V?$allocator@D@2@@std@@QAE@XZ 1002f46c     ClientProtocolImpl.obj
 0002:0000546c       __ehfuncinfo$??$forward_as_tuple@ABI@std@@YA?AV?$tuple@ABI@0@ABI@Z 1002f46c     ClientSession.obj
 0002:0000546c       __ehfuncinfo$??1sentry@?$basic_ostream@_WU?$char_traits@_W@std@@@std@@QAE@XZ 1002f46c     JSONHandler.obj
 0002:0000546c       __ehfuncinfo$?begin@?$list@IV?$allocator@I@std@@@std@@QBE?AV?$_List_const_iterator@V?$_List_val@U?$_List_simple_types@I@std@@@std@@@2@XZ 1002f46c     ClientSession.obj
 0002:0000546c       __ehfuncinfo$?end@?$list@IV?$allocator@I@std@@@std@@QBE?AV?$_List_const_iterator@V?$_List_val@U?$_List_simple_types@I@std@@@std@@@2@XZ 1002f46c     ClientSession.obj
 0002:0000546c       __ehfuncinfo$?clear@?$_Tree@V?$_Tmap_traits@V?$basic_string@DU?$char_traits@D@std@@V?$allocator@D@2@@std@@V?$list@IV?$allocator@I@std@@@2@U?$less@V?$basic_string@DU?$char_traits@D@std@@V?$allocator@D@2@@std@@@2@V?$allocator@U?$pair@$$CBV?$basic_string@DU?$char_traits@D@std@@V?$allocator@D@2@@std@@V?$list@IV?$allocator@I@std@@@2@@std@@@2@$0A@@std@@@std@@QAEXXZ 1002f46c     ClientSession.obj
 0002:0000546c       __ehfuncinfo$?clear@?$list@PAVIAccount@@V?$allocator@PAVIAccount@@@std@@@std@@QAEXXZ 1002f46c     ClientSession.obj
