 Socket

 Timestamp is 595de3b8 (Thu Jul  6 12:46:08 2017)

 Preferred load address is 10000000

 Start         Length     Name                   Class
 0001:00000000 0000cca0H .text$mn                CODE
 0001:0000cca0 0000075dH .text$x                 CODE
 0002:00000000 00000158H .idata$5                DATA
 0002:00000158 00000004H .00cfg                  DATA
 0002:0000015c 00000004H .CRT$XCA                DATA
 0002:00000160 00000004H .CRT$XCZ                DATA
 0002:00000164 00000004H .CRT$XIA                DATA
 0002:00000168 00000004H .CRT$XIZ                DATA
 0002:0000016c 00000004H .CRT$XPA                DATA
 0002:00000170 00000004H .CRT$XPZ                DATA
 0002:00000174 00000004H .CRT$XTA                DATA
 0002:00000178 00000008H .CRT$XTZ                DATA
 0002:00000180 0000146cH .rdata                  DATA
 0002:000015ec 00000264H .rdata$r                DATA
 0002:00001850 000000a0H .rdata$sxdata           DATA
 0002:000018f0 000002c8H .rdata$zzzdbg           DATA
 0002:00001bb8 00000004H .rtc$IAA                DATA
 0002:00001bbc 00000004H .rtc$IZZ                DATA
 0002:00001bc0 00000004H .rtc$TAA                DATA
 0002:00001bc4 00000004H .rtc$TZZ                DATA
 0002:00001bc8 00000a58H .xdata$x                DATA
 0002:00002620 000000f4H .edata                  DATA
 0002:00002714 0000008cH .idata$2                DATA
 0002:000027a0 00000014H .idata$3                DATA
 0002:000027b4 00000158H .idata$4                DATA
 0002:0000290c 000005caH .idata$6                DATA
 0003:00000000 00000020H .data                   DATA
 0003:00000020 000000d8H .data$r                 DATA
 0003:000000f8 00000374H .bss                    DATA
 0004:00000000 00000044H .gfids$y                DATA
 0005:00000000 000000a0H .rsrc$01                DATA
 0005:000000a0 000004a0H .rsrc$02                DATA

  Address         Publics by Value              Rva+Base       Lib:Object

 0000:00000000       ___guard_longjmp_count     00000000     <absolute>
 0000:00000000       ___guard_fids_count        00000000     <absolute>
 0000:00000000       ___guard_iat_count         00000000     <absolute>
 0000:00000000       ___guard_longjmp_table     00000000     <absolute>
 0000:00000000       ___guard_fids_table        00000000     <absolute>
 0000:00000000       ___guard_iat_table         00000000     <absolute>
 0000:00000000       ___dynamic_value_reloc_table 00000000     <absolute>
 0000:00000028       ___safe_se_handler_count   00000028     <absolute>
 0000:00000100       ___guard_flags             00000100     <absolute>
 0000:00000000       ___ImageBase               10000000     <linker-defined>
 0001:00000000       _DllMain@12                10001000 f   dllmain.obj
 0001:00000020       ??0CIOCPBuffer@@QAE@XZ     10001020 f   IOCPBuffer.obj
 0001:00000050       ??_ECIOCPBuffer@@UAEPAXI@Z 10001050 f i * CIL library *:* CIL module *
 0001:00000050       ??_GCIOCPBuffer@@UAEPAXI@Z 10001050 f i IOCPBuffer.obj
 0001:00000090       ?Init@CIOCPBuffer@@QAEXXZ  10001090 f   IOCPBuffer.obj
 0001:000000e0       ??1CIOCPBuffer@@UAE@XZ     100010e0 f   IOCPBuffer.obj
 0001:00000100       ?GetBuffer@CIOCPBuffer@@QAEPAEXZ 10001100 f   IOCPBuffer.obj
 0001:00000120       ?AddData@CIOCPBuffer@@QAEHPBEI@Z 10001120 f   IOCPBuffer.obj
 0001:00000180       ?GetUsed@CIOCPBuffer@@QAEIXZ 10001180 f   IOCPBuffer.obj
 0001:000001a0       ?Use@CIOCPBuffer@@QAEII@Z  100011a0 f   IOCPBuffer.obj
 0001:000001d0       ?EmptyUsed@CIOCPBuffer@@QAEXXZ 100011d0 f   IOCPBuffer.obj
 0001:000001f0       ?SetOperation@CIOCPBuffer@@QAEXH@Z 100011f0 f   IOCPBuffer.obj
 0001:00000220       ?SetupZeroByteRead@CIOCPBuffer@@QAEXXZ 10001220 f   IOCPBuffer.obj
 0001:00000250       ?SetupRead@CIOCPBuffer@@QAEXXZ 10001250 f   IOCPBuffer.obj
 0001:000002b0       ?SetupWrite@CIOCPBuffer@@QAEXXZ 100012b0 f   IOCPBuffer.obj
 0001:000002e0       ?GetWSABuffer@CIOCPBuffer@@QAEPAU_WSABUF@@XZ 100012e0 f   IOCPBuffer.obj
 0001:00000300       ?GetOperation@CIOCPBuffer@@QAEHXZ 10001300 f   IOCPBuffer.obj
 0001:00000320       ?SetSequenceNumber@CIOCPBuffer@@QAEXH@Z 10001320 f   IOCPBuffer.obj
 0001:00000340       ?GetSequenceNumber@CIOCPBuffer@@QAEHXZ 10001340 f   IOCPBuffer.obj
 0001:00000360       ?CreatePackage@CIOCPBuffer@@QAEHEIPAD@Z 10001360 f   IOCPBuffer.obj
 0001:000003a0       ?GetPackageSize@CIOCPBuffer@@QAEIXZ 100013a0 f   IOCPBuffer.obj
 0001:000003e0       ?GetPackageInfo@CIOCPBuffer@@QAEHAAEAAIPAD@Z 100013e0 f   IOCPBuffer.obj
 0001:00000440       ??0?$_List_iterator@V?$_List_val@U?$_List_simple_types@PAVCIOCPBuffer@@@std@@@std@@@std@@QAE@XZ 10001440 f i IOCPBuffer.obj
 0001:00000460       ??4?$basic_string@DU?$char_traits@D@std@@V?$allocator@D@2@@std@@QAEAAV01@PBD@Z 10001460 f i IOCPBuffer.obj
 0001:00000480       ??1?$basic_string@DU?$char_traits@D@std@@V?$allocator@D@2@@std@@QAE@XZ 10001480 f i IOCPBuffer.obj
 0001:000004d0       ??1?$_String_alloc@U?$_String_base_types@DV?$allocator@D@std@@@std@@@std@@QAE@XZ 100014d0 f i IOCPBuffer.obj
 0001:000004f0       ??1?$_Compressed_pair@U?$_Wrap_alloc@V?$allocator@D@std@@@std@@V?$_String_val@U?$_Simple_types@D@std@@@2@$00@std@@QAE@XZ 100014f0 f i IOCPBuffer.obj
 0001:00000510       ??1?$_String_val@U?$_Simple_types@D@std@@@std@@QAE@XZ 10001510 f i IOCPBuffer.obj
 0001:00000530       ??0?$_Tree_const_iterator@V?$_Tree_val@U?$_Tree_simple_types@U?$pair@$$CBIPAVCIOCPBuffer@@@std@@@std@@@std@@@std@@QAE@XZ 10001530 f i IOCPS.obj
 0001:00000530       ??0?$_Tree_const_iterator@V?$_Tree_val@U?$_Tree_simple_types@U?$pair@$$CBGPAX@std@@@std@@@std@@@std@@QAE@XZ 10001530 f i IOCPS.obj
 0001:00000530       ??0?$_Tree_const_iterator@V?$_Tree_val@U?$_Tree_simple_types@U?$pair@$$CBIPAUClientContext@@@std@@@std@@@std@@@std@@QAE@XZ 10001530 f i IOCPS.obj
 0001:00000530       ??0?$_List_const_iterator@V?$_List_val@U?$_List_simple_types@PAVCIOCPBuffer@@@std@@@std@@@std@@QAE@XZ 10001530 f i IOCPBuffer.obj
 0001:00000550       ??1_Bxty@?$_String_val@U?$_Simple_types@D@std@@@std@@QAE@XZ 10001550 f i IOCPBuffer.obj
 0001:00000560       ?_Mysize@?$_String_alloc@U?$_String_base_types@DV?$allocator@D@std@@@std@@@std@@QBEABIXZ 10001560 f i IOCPBuffer.obj
 0001:00000560       ?_Mysize@?$_String_alloc@U?$_String_base_types@DV?$allocator@D@std@@@std@@@std@@QAEAAIXZ 10001560 f i IOCPBuffer.obj
 0001:00000580       ?_Getal@?$_List_alloc@U?$_List_base_types@PAUClientContext@@V?$allocator@PAUClientContext@@@std@@@std@@@std@@QAEAAU?$_Wrap_alloc@V?$allocator@U?$_List_node@PAUClientContext@@PAX@std@@@std@@@2@XZ 10001580 f i IOCPS.obj
 0001:00000580       ?_Getal@?$_List_alloc@U?$_List_base_types@PAUJobItem@@V?$allocator@PAUJobItem@@@std@@@std@@@std@@QAEAAU?$_Wrap_alloc@V?$allocator@U?$_List_node@PAUJobItem@@PAX@std@@@std@@@2@XZ 10001580 f i IOCPS.obj
 0001:00000580       ?_Get_data@?$_String_alloc@U?$_String_base_types@DV?$allocator@D@std@@@std@@@std@@QAEAAV?$_String_val@U?$_Simple_types@D@std@@@2@XZ 10001580 f i IOCPBuffer.obj
 0001:00000580       ?_Getcomp@?$_Tree_comp_alloc@V?$_Tmap_traits@IPAVCIOCPBuffer@@U?$less@I@std@@V?$allocator@U?$pair@$$CBIPAVCIOCPBuffer@@@std@@@3@$0A@@std@@@std@@QAEAAU?$less@I@2@XZ 10001580 f i IOCPS.obj
 0001:00000580       ?_Getal@?$_List_alloc@U?$_List_base_types@PAXV?$allocator@PAX@std@@@std@@@std@@QBEABU?$_Wrap_alloc@V?$allocator@U?$_List_node@PAXPAX@std@@@std@@@2@XZ 10001580 f i IOCPS.obj
 0001:00000580       ?_Getal@?$_List_alloc@U?$_List_base_types@PAUClientContext@@V?$allocator@PAUClientContext@@@std@@@std@@@std@@QBEABU?$_Wrap_alloc@V?$allocator@U?$_List_node@PAUClientContext@@PAX@std@@@std@@@2@XZ 10001580 f i IOCPS.obj
 0001:00000580       ?_Get_data@?$_List_alloc@U?$_List_base_types@PAUJobItem@@V?$allocator@PAUJobItem@@@std@@@std@@@std@@QBEABV?$_List_val@U?$_List_simple_types@PAUJobItem@@@std@@@2@XZ 10001580 f i IOCPS.obj
 0001:00000580       ?_Getcomp@?$_Tree_comp_alloc@V?$_Tmap_traits@IPAVCIOCPBuffer@@U?$less@I@std@@V?$allocator@U?$pair@$$CBIPAVCIOCPBuffer@@@std@@@3@$0A@@std@@@std@@QBEABU?$less@I@2@XZ 10001580 f i IOCPS.obj
 0001:00000580       ?_Getal@?$_List_alloc@U?$_List_base_types@PAVCIOCPBuffer@@V?$allocator@PAVCIOCPBuffer@@@std@@@std@@@std@@QBEABU?$_Wrap_alloc@V?$allocator@U?$_List_node@PAVCIOCPBuffer@@PAX@std@@@std@@@2@XZ 10001580 f i IOCPS.obj
 0001:00000580       ?_Getal@?$_List_alloc@U?$_List_base_types@PAVCIOCPBuffer@@V?$allocator@PAVCIOCPBuffer@@@std@@@std@@@std@@QAEAAU?$_Wrap_alloc@V?$allocator@U?$_List_node@PAVCIOCPBuffer@@PAX@std@@@std@@@2@XZ 10001580 f i IOCPS.obj
 0001:00000580       ?_Get_data@?$_List_alloc@U?$_List_base_types@PAVCIOCPBuffer@@V?$allocator@PAVCIOCPBuffer@@@std@@@std@@@std@@QAEAAV?$_List_val@U?$_List_simple_types@PAVCIOCPBuffer@@@std@@@2@XZ 10001580 f i IOCPS.obj
 0001:00000580       ?_Getal@?$_String_alloc@U?$_String_base_types@DV?$allocator@D@std@@@std@@@std@@QAEAAU?$_Wrap_alloc@V?$allocator@D@std@@@2@XZ 10001580 f i IOCPBuffer.obj
 0001:00000580       ?_Get_data@?$_List_alloc@U?$_List_base_types@PAXV?$allocator@PAX@std@@@std@@@std@@QBEABV?$_List_val@U?$_List_simple_types@PAX@std@@@2@XZ 10001580 f i IOCPS.obj
 0001:00000580       ?_Getcomp@?$_Tree_comp_alloc@V?$_Tmap_traits@GPAXU?$less@G@std@@V?$allocator@U?$pair@$$CBGPAX@std@@@2@$0A@@std@@@std@@QBEABU?$less@G@2@XZ 10001580 f i IOCPS.obj
 0001:00000580       ?_Getcomp@?$_Tree_comp_alloc@V?$_Tmap_traits@GPAXU?$less@G@std@@V?$allocator@U?$pair@$$CBGPAX@std@@@2@$0A@@std@@@std@@QAEAAU?$less@G@2@XZ 10001580 f i IOCPS.obj
 0001:00000580       ?_Get_data@?$_String_alloc@U?$_String_base_types@DV?$allocator@D@std@@@std@@@std@@QBEABV?$_String_val@U?$_Simple_types@D@std@@@2@XZ 10001580 f i IOCPBuffer.obj
 0001:00000580       ?_Getcomp@?$_Tree_comp_alloc@V?$_Tmap_traits@IPAUClientContext@@U?$less@I@std@@V?$allocator@U?$pair@$$CBIPAUClientContext@@@std@@@3@$0A@@std@@@std@@QAEAAU?$less@I@2@XZ 10001580 f i IOCPS.obj
 0001:00000580       ?_Getal@?$_String_alloc@U?$_String_base_types@DV?$allocator@D@std@@@std@@@std@@QBEABU?$_Wrap_alloc@V?$allocator@D@std@@@2@XZ 10001580 f i IOCPBuffer.obj
 0001:00000580       ?_Getal@?$_List_alloc@U?$_List_base_types@PAXV?$allocator@PAX@std@@@std@@@std@@QAEAAU?$_Wrap_alloc@V?$allocator@U?$_List_node@PAXPAX@std@@@std@@@2@XZ 10001580 f i IOCPS.obj
 0001:00000580       ?_Get_data@?$_List_alloc@U?$_List_base_types@PAXV?$allocator@PAX@std@@@std@@@std@@QAEAAV?$_List_val@U?$_List_simple_types@PAX@std@@@2@XZ 10001580 f i IOCPS.obj
 0001:00000580       ?_Getcomp@?$_Tree_comp_alloc@V?$_Tmap_traits@IPAUClientContext@@U?$less@I@std@@V?$allocator@U?$pair@$$CBIPAUClientContext@@@std@@@3@$0A@@std@@@std@@QBEABU?$less@I@2@XZ 10001580 f i IOCPS.obj
 0001:00000580       ?_Get_data@?$_List_alloc@U?$_List_base_types@PAUJobItem@@V?$allocator@PAUJobItem@@@std@@@std@@@std@@QAEAAV?$_List_val@U?$_List_simple_types@PAUJobItem@@@std@@@2@XZ 10001580 f i IOCPS.obj
 0001:00000580       ?_Get_data@?$_List_alloc@U?$_List_base_types@PAUClientContext@@V?$allocator@PAUClientContext@@@std@@@std@@@std@@QBEABV?$_List_val@U?$_List_simple_types@PAUClientContext@@@std@@@2@XZ 10001580 f i IOCPS.obj
 0001:00000580       ?_Get_data@?$_List_alloc@U?$_List_base_types@PAUClientContext@@V?$allocator@PAUClientContext@@@std@@@std@@@std@@QAEAAV?$_List_val@U?$_List_simple_types@PAUClientContext@@@std@@@2@XZ 10001580 f i IOCPS.obj
 0001:00000580       ?_Get_data@?$_List_alloc@U?$_List_base_types@PAVCIOCPBuffer@@V?$allocator@PAVCIOCPBuffer@@@std@@@std@@@std@@QBEABV?$_List_val@U?$_List_simple_types@PAVCIOCPBuffer@@@std@@@2@XZ 10001580 f i IOCPS.obj
 0001:000005a0       ?_Myptr@?$_String_alloc@U?$_String_base_types@DV?$allocator@D@std@@@std@@@std@@QAEPADXZ 100015a0 f i IOCPBuffer.obj
 0001:000005a0       ?_Myptr@?$_String_alloc@U?$_String_base_types@DV?$allocator@D@std@@@std@@@std@@QBEPBDXZ 100015a0 f i IOCPBuffer.obj
 0001:000005c0       ?_Tidy@?$basic_string@DU?$char_traits@D@std@@V?$allocator@D@2@@std@@QAEX_NI@Z 100015c0 f i IOCPBuffer.obj
 0001:00000680       ?assign@?$basic_string@DU?$char_traits@D@std@@V?$allocator@D@2@@std@@QAEAAV12@PBD@Z 10001680 f i IOCPBuffer.obj
 0001:000006b0       ?assign@?$basic_string@DU?$char_traits@D@std@@V?$allocator@D@2@@std@@QAEAAV12@PBDI@Z 100016b0 f i IOCPBuffer.obj
 0001:00000730       ?assign@?$basic_string@DU?$char_traits@D@std@@V?$allocator@D@2@@std@@QAEAAV12@ABV12@II@Z 10001730 f i IOCPBuffer.obj
 0001:000007d0       ??0?$_List_unchecked_const_iterator@V?$_List_val@U?$_List_simple_types@PAVCIOCPBuffer@@@std@@@std@@U_Iterator_base0@2@@std@@QAE@XZ 100017d0 f i IOCPBuffer.obj
 0001:000007d0       ??0?$_Tree_unchecked_const_iterator@V?$_Tree_val@U?$_Tree_simple_types@U?$pair@$$CBGPAX@std@@@std@@@std@@U_Iterator_base0@2@@std@@QAE@XZ 100017d0 f i IOCPS.obj
 0001:000007d0       ??0?$_Tree_unchecked_const_iterator@V?$_Tree_val@U?$_Tree_simple_types@U?$pair@$$CBIPAVCIOCPBuffer@@@std@@@std@@@std@@U_Iterator_base0@2@@std@@QAE@XZ 100017d0 f i IOCPS.obj
 0001:000007d0       ??0?$_Tree_unchecked_const_iterator@V?$_Tree_val@U?$_Tree_simple_types@U?$pair@$$CBIPAUClientContext@@@std@@@std@@@std@@U_Iterator_base0@2@@std@@QAE@XZ 100017d0 f i IOCPS.obj
 0001:000007f0       ??0?$allocator@U?$_Tree_node@U?$pair@$$CBIPAVCIOCPBuffer@@@std@@PAX@std@@@std@@QAE@XZ 100017f0 f i IOCPS.obj
 0001:000007f0       ?_Get_first@?$_Compressed_pair@U?$_Wrap_alloc@V?$allocator@U?$_List_node@PAVCIOCPBuffer@@PAX@std@@@std@@@std@@V?$_List_val@U?$_List_simple_types@PAVCIOCPBuffer@@@std@@@2@$00@std@@QBEABU?$_Wrap_alloc@V?$allocator@U?$_List_node@PAVCIOCPBuffer@@PAX@std@@@std@@@2@XZ 100017f0 f i IOCPS.obj
 0001:000007f0       ?_Get_first@?$_Compressed_pair@U?$_Wrap_alloc@V?$allocator@U?$_List_node@PAUClientContext@@PAX@std@@@std@@@std@@V?$_List_val@U?$_List_simple_types@PAUClientContext@@@std@@@2@$00@std@@QBEABU?$_Wrap_alloc@V?$allocator@U?$_List_node@PAUClientContext@@PAX@std@@@std@@@2@XZ 100017f0 f i IOCPS.obj
 0001:000007f0       ?_Get_first@?$_Compressed_pair@U?$_Wrap_alloc@V?$allocator@U?$_Tree_node@U?$pair@$$CBIPAUClientContext@@@std@@PAX@std@@@std@@@std@@V?$_Tree_val@U?$_Tree_simple_types@U?$pair@$$CBIPAUClientContext@@@std@@@std@@@2@$00@std@@QBEABU?$_Wrap_alloc@V?$allocator@U?$_Tree_node@U?$pair@$$CBIPAUClientContext@@@std@@PAX@std@@@std@@@2@XZ 100017f0 f i IOCPS.obj
 0001:000007f0       ?_Get_first@?$_Compressed_pair@U?$_Wrap_alloc@V?$allocator@U?$_Tree_node@U?$pair@$$CBGPAX@std@@PAX@std@@@std@@@std@@V?$_Tree_val@U?$_Tree_simple_types@U?$pair@$$CBGPAX@std@@@std@@@2@$00@std@@QBEABU?$_Wrap_alloc@V?$allocator@U?$_Tree_node@U?$pair@$$CBGPAX@std@@PAX@std@@@std@@@2@XZ 100017f0 f i IOCPS.obj
 0001:000007f0       ?_Get_first@?$_Compressed_pair@U?$_Wrap_alloc@V?$allocator@D@std@@@std@@V?$_String_val@U?$_Simple_types@D@std@@@2@$00@std@@QBEABU?$_Wrap_alloc@V?$allocator@D@std@@@2@XZ 100017f0 f i IOCPBuffer.obj
 0001:000007f0       ?_Get_first@?$_Compressed_pair@U?$_Wrap_alloc@V?$allocator@U?$_List_node@PAXPAX@std@@@std@@@std@@V?$_List_val@U?$_List_simple_types@PAX@std@@@2@$00@std@@QBEABU?$_Wrap_alloc@V?$allocator@U?$_List_node@PAXPAX@std@@@std@@@2@XZ 100017f0 f i IOCPS.obj
 0001:000007f0       ?_Get_first@?$_Compressed_pair@U?$_Wrap_alloc@V?$allocator@U?$_Tree_node@U?$pair@$$CBIPAUClientContext@@@std@@PAX@std@@@std@@@std@@V?$_Tree_val@U?$_Tree_simple_types@U?$pair@$$CBIPAUClientContext@@@std@@@std@@@2@$00@std@@QAEAAU?$_Wrap_alloc@V?$allocator@U?$_Tree_node@U?$pair@$$CBIPAUClientContext@@@std@@PAX@std@@@std@@@2@XZ 100017f0 f i IOCPS.obj
 0001:000007f0       ?_Get_second@?$_Compressed_pair@U?$_Wrap_alloc@V?$allocator@D@std@@@std@@V?$_String_val@U?$_Simple_types@D@std@@@2@$00@std@@QBEABV?$_String_val@U?$_Simple_types@D@std@@@2@XZ 100017f0 f i IOCPBuffer.obj
 0001:000007f0       ??0?$tuple@$$V@std@@QAE@XZ 100017f0 f i IOCPS.obj
 0001:000007f0       ?_Get_second@?$_Compressed_pair@U?$_Wrap_alloc@V?$allocator@U?$_List_node@PAXPAX@std@@@std@@@std@@V?$_List_val@U?$_List_simple_types@PAX@std@@@2@$00@std@@QBEABV?$_List_val@U?$_List_simple_types@PAX@std@@@2@XZ 100017f0 f i IOCPS.obj
 0001:000007f0       ??0?$allocator@D@std@@QAE@XZ 100017f0 f i IOCPS.obj
 0001:000007f0       ?_Get_second@?$_Compressed_pair@U?$less@I@std@@V?$_Compressed_pair@U?$_Wrap_alloc@V?$allocator@U?$_Tree_node@U?$pair@$$CBIPAVCIOCPBuffer@@@std@@PAX@std@@@std@@@std@@V?$_Tree_val@U?$_Tree_simple_types@U?$pair@$$CBIPAVCIOCPBuffer@@@std@@@std@@@2@$00@2@$00@std@@QAEAAV?$_Compressed_pair@U?$_Wrap_alloc@V?$allocator@U?$_Tree_node@U?$pair@$$CBIPAVCIOCPBuffer@@@std@@PAX@std@@@std@@@std@@V?$_Tree_val@U?$_Tree_simple_types@U?$pair@$$CBIPAVCIOCPBuffer@@@std@@@std@@@2@$00@2@XZ 100017f0 f i IOCPS.obj
 0001:000007f0       ??0?$allocator@U?$_List_node@PAVCIOCPBuffer@@PAX@std@@@std@@QAE@XZ 100017f0 f i IOCPS.obj
 0001:000007f0       ?_Get_second@?$_Compressed_pair@U?$_Wrap_alloc@V?$allocator@U?$_List_node@PAUJobItem@@PAX@std@@@std@@@std@@V?$_List_val@U?$_List_simple_types@PAUJobItem@@@std@@@2@$00@std@@QAEAAV?$_List_val@U?$_List_simple_types@PAUJobItem@@@std@@@2@XZ 100017f0 f i IOCPS.obj
 0001:000007f0       ?_Get_first@?$_Compressed_pair@U?$_Wrap_alloc@V?$allocator@U?$_List_node@PAUJobItem@@PAX@std@@@std@@@std@@V?$_List_val@U?$_List_simple_types@PAUJobItem@@@std@@@2@$00@std@@QAEAAU?$_Wrap_alloc@V?$allocator@U?$_List_node@PAUJobItem@@PAX@std@@@std@@@2@XZ 100017f0 f i IOCPS.obj
 0001:000007f0       ?_Get_second@?$_Compressed_pair@U?$_Wrap_alloc@V?$allocator@U?$_Tree_node@U?$pair@$$CBIPAUClientContext@@@std@@PAX@std@@@std@@@std@@V?$_Tree_val@U?$_Tree_simple_types@U?$pair@$$CBIPAUClientContext@@@std@@@std@@@2@$00@std@@QAEAAV?$_Tree_val@U?$_Tree_simple_types@U?$pair@$$CBIPAUClientContext@@@std@@@std@@@2@XZ 100017f0 f i IOCPS.obj
 0001:000007f0       ?_Get_second@?$_Compressed_pair@U?$_Wrap_alloc@V?$allocator@U?$_Tree_node@U?$pair@$$CBGPAX@std@@PAX@std@@@std@@@std@@V?$_Tree_val@U?$_Tree_simple_types@U?$pair@$$CBGPAX@std@@@std@@@2@$00@std@@QBEABV?$_Tree_val@U?$_Tree_simple_types@U?$pair@$$CBGPAX@std@@@std@@@2@XZ 100017f0 f i IOCPS.obj
 0001:000007f0       ?_Get_second@?$_Compressed_pair@U?$_Wrap_alloc@V?$allocator@U?$_List_node@PAVCIOCPBuffer@@PAX@std@@@std@@@std@@V?$_List_val@U?$_List_simple_types@PAVCIOCPBuffer@@@std@@@2@$00@std@@QBEABV?$_List_val@U?$_List_simple_types@PAVCIOCPBuffer@@@std@@@2@XZ 100017f0 f i IOCPS.obj
 0001:000007f0       ?_Get_first@?$_Compressed_pair@U?$_Wrap_alloc@V?$allocator@U?$_List_node@PAUClientContext@@PAX@std@@@std@@@std@@V?$_List_val@U?$_List_simple_types@PAUClientContext@@@std@@@2@$00@std@@QAEAAU?$_Wrap_alloc@V?$allocator@U?$_List_node@PAUClientContext@@PAX@std@@@std@@@2@XZ 100017f0 f i IOCPS.obj
 0001:000007f0       ?_Get_second@?$_Compressed_pair@U?$_Wrap_alloc@V?$allocator@U?$_List_node@PAUJobItem@@PAX@std@@@std@@@std@@V?$_List_val@U?$_List_simple_types@PAUJobItem@@@std@@@2@$00@std@@QBEABV?$_List_val@U?$_List_simple_types@PAUJobItem@@@std@@@2@XZ 100017f0 f i IOCPS.obj
 0001:000007f0       ?_Get_second@?$_Compressed_pair@U?$_Wrap_alloc@V?$allocator@U?$_Tree_node@U?$pair@$$CBIPAUClientContext@@@std@@PAX@std@@@std@@@std@@V?$_Tree_val@U?$_Tree_simple_types@U?$pair@$$CBIPAUClientContext@@@std@@@std@@@2@$00@std@@QBEABV?$_Tree_val@U?$_Tree_simple_types@U?$pair@$$CBIPAUClientContext@@@std@@@std@@@2@XZ 100017f0 f i IOCPS.obj
 0001:000007f0       ?_Get_first@?$_Compressed_pair@U?$less@I@std@@V?$_Compressed_pair@U?$_Wrap_alloc@V?$allocator@U?$_Tree_node@U?$pair@$$CBIPAVCIOCPBuffer@@@std@@PAX@std@@@std@@@std@@V?$_Tree_val@U?$_Tree_simple_types@U?$pair@$$CBIPAVCIOCPBuffer@@@std@@@std@@@2@$00@2@$00@std@@QBEABU?$less@I@2@XZ 100017f0 f i IOCPS.obj
 0001:000007f0       ?_Get_second@?$_Compressed_pair@U?$less@I@std@@V?$_Compressed_pair@U?$_Wrap_alloc@V?$allocator@U?$_Tree_node@U?$pair@$$CBIPAUClientContext@@@std@@PAX@std@@@std@@@std@@V?$_Tree_val@U?$_Tree_simple_types@U?$pair@$$CBIPAUClientContext@@@std@@@std@@@2@$00@2@$00@std@@QAEAAV?$_Compressed_pair@U?$_Wrap_alloc@V?$allocator@U?$_Tree_node@U?$pair@$$CBIPAUClientContext@@@std@@PAX@std@@@std@@@std@@V?$_Tree_val@U?$_Tree_simple_types@U?$pair@$$CBIPAUClientContext@@@std@@@std@@@2@$00@2@XZ 100017f0 f i IOCPS.obj
 0001:000007f0       ??0?$allocator@U?$_List_node@PAUClientContext@@PAX@std@@@std@@QAE@XZ 100017f0 f i IOCPS.obj
 0001:000007f0       ?_Get_first@?$_Compressed_pair@U?$_Wrap_alloc@V?$allocator@D@std@@@std@@V?$_String_val@U?$_Simple_types@D@std@@@2@$00@std@@QAEAAU?$_Wrap_alloc@V?$allocator@D@std@@@2@XZ 100017f0 f i IOCPBuffer.obj
 0001:000007f0       ??0_Bxty@?$_String_val@U?$_Simple_types@D@std@@@std@@QAE@XZ 100017f0 f i IOCPS.obj
 0001:000007f0       ?_Get_first@?$_Compressed_pair@U?$_Wrap_alloc@V?$allocator@U?$_Tree_node@U?$pair@$$CBGPAX@std@@PAX@std@@@std@@@std@@V?$_Tree_val@U?$_Tree_simple_types@U?$pair@$$CBGPAX@std@@@std@@@2@$00@std@@QAEAAU?$_Wrap_alloc@V?$allocator@U?$_Tree_node@U?$pair@$$CBGPAX@std@@PAX@std@@@std@@@2@XZ 100017f0 f i IOCPS.obj
 0001:000007f0       ?_Get_first@?$_Compressed_pair@U?$less@I@std@@V?$_Compressed_pair@U?$_Wrap_alloc@V?$allocator@U?$_Tree_node@U?$pair@$$CBIPAUClientContext@@@std@@PAX@std@@@std@@@std@@V?$_Tree_val@U?$_Tree_simple_types@U?$pair@$$CBIPAUClientContext@@@std@@@std@@@2@$00@2@$00@std@@QAEAAU?$less@I@2@XZ 100017f0 f i IOCPS.obj
 0001:000007f0       ??0?$allocator@U?$_List_node@PAUJobItem@@PAX@std@@@std@@QAE@XZ 100017f0 f i IOCPS.obj
 0001:000007f0       ?_Get_first@?$_Compressed_pair@U?$_Wrap_alloc@V?$allocator@U?$_List_node@PAXPAX@std@@@std@@@std@@V?$_List_val@U?$_List_simple_types@PAX@std@@@2@$00@std@@QAEAAU?$_Wrap_alloc@V?$allocator@U?$_List_node@PAXPAX@std@@@std@@@2@XZ 100017f0 f i IOCPS.obj
 0001:000007f0       ?_Get_second@?$_Compressed_pair@U?$less@I@std@@V?$_Compressed_pair@U?$_Wrap_alloc@V?$allocator@U?$_Tree_node@U?$pair@$$CBIPAUClientContext@@@std@@PAX@std@@@std@@@std@@V?$_Tree_val@U?$_Tree_simple_types@U?$pair@$$CBIPAUClientContext@@@std@@@std@@@2@$00@2@$00@std@@QBEABV?$_Compressed_pair@U?$_Wrap_alloc@V?$allocator@U?$_Tree_node@U?$pair@$$CBIPAUClientContext@@@std@@PAX@std@@@std@@@std@@V?$_Tree_val@U?$_Tree_simple_types@U?$pair@$$CBIPAUClientContext@@@std@@@std@@@2@$00@2@XZ 100017f0 f i IOCPS.obj
 0001:000007f0       ?_Get_second@?$_Compressed_pair@U?$_Wrap_alloc@V?$allocator@D@std@@@std@@V?$_String_val@U?$_Simple_types@D@std@@@2@$00@std@@QAEAAV?$_String_val@U?$_Simple_types@D@std@@@2@XZ 100017f0 f i IOCPBuffer.obj
 0001:000007f0       ?_Get_second@?$_Compressed_pair@U?$_Wrap_alloc@V?$allocator@U?$_List_node@PAVCIOCPBuffer@@PAX@std@@@std@@@std@@V?$_List_val@U?$_List_simple_types@PAVCIOCPBuffer@@@std@@@2@$00@std@@QAEAAV?$_List_val@U?$_List_simple_types@PAVCIOCPBuffer@@@std@@@2@XZ 100017f0 f i IOCPS.obj
 0001:000007f0       ?_Get_second@?$_Compressed_pair@U?$_Wrap_alloc@V?$allocator@U?$_Tree_node@U?$pair@$$CBIPAVCIOCPBuffer@@@std@@PAX@std@@@std@@@std@@V?$_Tree_val@U?$_Tree_simple_types@U?$pair@$$CBIPAVCIOCPBuffer@@@std@@@std@@@2@$00@std@@QBEABV?$_Tree_val@U?$_Tree_simple_types@U?$pair@$$CBIPAVCIOCPBuffer@@@std@@@std@@@2@XZ 100017f0 f i IOCPS.obj
 0001:000007f0       ?_Get_second@?$_Compressed_pair@U?$_Wrap_alloc@V?$allocator@U?$_Tree_node@U?$pair@$$CBGPAX@std@@PAX@std@@@std@@@std@@V?$_Tree_val@U?$_Tree_simple_types@U?$pair@$$CBGPAX@std@@@std@@@2@$00@std@@QAEAAV?$_Tree_val@U?$_Tree_simple_types@U?$pair@$$CBGPAX@std@@@std@@@2@XZ 100017f0 f i IOCPS.obj
 0001:000007f0       ?_Get_second@?$_Compressed_pair@U?$_Wrap_alloc@V?$allocator@U?$_List_node@PAXPAX@std@@@std@@@std@@V?$_List_val@U?$_List_simple_types@PAX@std@@@2@$00@std@@QAEAAV?$_List_val@U?$_List_simple_types@PAX@std@@@2@XZ 100017f0 f i IOCPS.obj
 0001:000007f0       ?_Get_second@?$_Compressed_pair@U?$less@I@std@@V?$_Compressed_pair@U?$_Wrap_alloc@V?$allocator@U?$_Tree_node@U?$pair@$$CBIPAVCIOCPBuffer@@@std@@PAX@std@@@std@@@std@@V?$_Tree_val@U?$_Tree_simple_types@U?$pair@$$CBIPAVCIOCPBuffer@@@std@@@std@@@2@$00@2@$00@std@@QBEABV?$_Compressed_pair@U?$_Wrap_alloc@V?$allocator@U?$_Tree_node@U?$pair@$$CBIPAVCIOCPBuffer@@@std@@PAX@std@@@std@@@std@@V?$_Tree_val@U?$_Tree_simple_types@U?$pair@$$CBIPAVCIOCPBuffer@@@std@@@std@@@2@$00@2@XZ 100017f0 f i IOCPS.obj
 0001:000007f0       ?_Get_second@?$_Compressed_pair@U?$_Wrap_alloc@V?$allocator@U?$_List_node@PAUClientContext@@PAX@std@@@std@@@std@@V?$_List_val@U?$_List_simple_types@PAUClientContext@@@std@@@2@$00@std@@QAEAAV?$_List_val@U?$_List_simple_types@PAUClientContext@@@std@@@2@XZ 100017f0 f i IOCPS.obj
 0001:000007f0       ?_Get_second@?$_Compressed_pair@U?$_Wrap_alloc@V?$allocator@U?$_Tree_node@U?$pair@$$CBIPAVCIOCPBuffer@@@std@@PAX@std@@@std@@@std@@V?$_Tree_val@U?$_Tree_simple_types@U?$pair@$$CBIPAVCIOCPBuffer@@@std@@@std@@@2@$00@std@@QAEAAV?$_Tree_val@U?$_Tree_simple_types@U?$pair@$$CBIPAVCIOCPBuffer@@@std@@@std@@@2@XZ 100017f0 f i IOCPS.obj
 0001:000007f0       ?_Get_second@?$_Compressed_pair@U?$less@G@std@@V?$_Compressed_pair@U?$_Wrap_alloc@V?$allocator@U?$_Tree_node@U?$pair@$$CBGPAX@std@@PAX@std@@@std@@@std@@V?$_Tree_val@U?$_Tree_simple_types@U?$pair@$$CBGPAX@std@@@std@@@2@$00@2@$00@std@@QAEAAV?$_Compressed_pair@U?$_Wrap_alloc@V?$allocator@U?$_Tree_node@U?$pair@$$CBGPAX@std@@PAX@std@@@std@@@std@@V?$_Tree_val@U?$_Tree_simple_types@U?$pair@$$CBGPAX@std@@@std@@@2@$00@2@XZ 100017f0 f i IOCPS.obj
 0001:000007f0       ?_Get_first@?$_Compressed_pair@U?$less@I@std@@V?$_Compressed_pair@U?$_Wrap_alloc@V?$allocator@U?$_Tree_node@U?$pair@$$CBIPAUClientContext@@@std@@PAX@std@@@std@@@std@@V?$_Tree_val@U?$_Tree_simple_types@U?$pair@$$CBIPAUClientContext@@@std@@@std@@@2@$00@2@$00@std@@QBEABU?$less@I@2@XZ 100017f0 f i IOCPS.obj
 0001:000007f0       ?_Get_second@?$_Compressed_pair@U?$less@G@std@@V?$_Compressed_pair@U?$_Wrap_alloc@V?$allocator@U?$_Tree_node@U?$pair@$$CBGPAX@std@@PAX@std@@@std@@@std@@V?$_Tree_val@U?$_Tree_simple_types@U?$pair@$$CBGPAX@std@@@std@@@2@$00@2@$00@std@@QBEABV?$_Compressed_pair@U?$_Wrap_alloc@V?$allocator@U?$_Tree_node@U?$pair@$$CBGPAX@std@@PAX@std@@@std@@@std@@V?$_Tree_val@U?$_Tree_simple_types@U?$pair@$$CBGPAX@std@@@std@@@2@$00@2@XZ 100017f0 f i IOCPS.obj
 0001:000007f0       ??0?$allocator@U?$_Tree_node@U?$pair@$$CBGPAX@std@@PAX@std@@@std@@QAE@XZ 100017f0 f i IOCPS.obj
 0001:000007f0       ?_Get_first@?$_Compressed_pair@U?$_Wrap_alloc@V?$allocator@U?$_Tree_node@U?$pair@$$CBIPAVCIOCPBuffer@@@std@@PAX@std@@@std@@@std@@V?$_Tree_val@U?$_Tree_simple_types@U?$pair@$$CBIPAVCIOCPBuffer@@@std@@@std@@@2@$00@std@@QAEAAU?$_Wrap_alloc@V?$allocator@U?$_Tree_node@U?$pair@$$CBIPAVCIOCPBuffer@@@std@@PAX@std@@@std@@@2@XZ 100017f0 f i IOCPS.obj
 0001:000007f0       ?_Get_first@?$_Compressed_pair@U?$less@I@std@@V?$_Compressed_pair@U?$_Wrap_alloc@V?$allocator@U?$_Tree_node@U?$pair@$$CBIPAVCIOCPBuffer@@@std@@PAX@std@@@std@@@std@@V?$_Tree_val@U?$_Tree_simple_types@U?$pair@$$CBIPAVCIOCPBuffer@@@std@@@std@@@2@$00@2@$00@std@@QAEAAU?$less@I@2@XZ 100017f0 f i IOCPS.obj
 0001:000007f0       ?_Get_first@?$_Compressed_pair@U?$_Wrap_alloc@V?$allocator@U?$_Tree_node@U?$pair@$$CBIPAVCIOCPBuffer@@@std@@PAX@std@@@std@@@std@@V?$_Tree_val@U?$_Tree_simple_types@U?$pair@$$CBIPAVCIOCPBuffer@@@std@@@std@@@2@$00@std@@QBEABU?$_Wrap_alloc@V?$allocator@U?$_Tree_node@U?$pair@$$CBIPAVCIOCPBuffer@@@std@@PAX@std@@@std@@@2@XZ 100017f0 f i IOCPS.obj
 0001:000007f0       ?_Get_second@?$_Compressed_pair@U?$_Wrap_alloc@V?$allocator@U?$_List_node@PAUClientContext@@PAX@std@@@std@@@std@@V?$_List_val@U?$_List_simple_types@PAUClientContext@@@std@@@2@$00@std@@QBEABV?$_List_val@U?$_List_simple_types@PAUClientContext@@@std@@@2@XZ 100017f0 f i IOCPS.obj
 0001:000007f0       ?_Get_first@?$_Compressed_pair@U?$less@G@std@@V?$_Compressed_pair@U?$_Wrap_alloc@V?$allocator@U?$_Tree_node@U?$pair@$$CBGPAX@std@@PAX@std@@@std@@@std@@V?$_Tree_val@U?$_Tree_simple_types@U?$pair@$$CBGPAX@std@@@std@@@2@$00@2@$00@std@@QAEAAU?$less@G@2@XZ 100017f0 f i IOCPS.obj
 0001:000007f0       ??0?$allocator@U?$_List_node@PAXPAX@std@@@std@@QAE@XZ 100017f0 f i IOCPS.obj
 0001:000007f0       ??0?$allocator@U?$_Tree_node@U?$pair@$$CBIPAUClientContext@@@std@@PAX@std@@@std@@QAE@XZ 100017f0 f i IOCPS.obj
 0001:000007f0       ?_Get_first@?$_Compressed_pair@U?$_Wrap_alloc@V?$allocator@U?$_List_node@PAVCIOCPBuffer@@PAX@std@@@std@@@std@@V?$_List_val@U?$_List_simple_types@PAVCIOCPBuffer@@@std@@@2@$00@std@@QAEAAU?$_Wrap_alloc@V?$allocator@U?$_List_node@PAVCIOCPBuffer@@PAX@std@@@std@@@2@XZ 100017f0 f i IOCPS.obj
 0001:000007f0       ?_Get_first@?$_Compressed_pair@U?$less@G@std@@V?$_Compressed_pair@U?$_Wrap_alloc@V?$allocator@U?$_Tree_node@U?$pair@$$CBGPAX@std@@PAX@std@@@std@@@std@@V?$_Tree_val@U?$_Tree_simple_types@U?$pair@$$CBGPAX@std@@@std@@@2@$00@2@$00@std@@QBEABU?$less@G@2@XZ 100017f0 f i IOCPS.obj
 0001:00000800       ?_Myptr@?$_String_val@U?$_Simple_types@D@std@@@std@@QAEPADXZ 10001800 f i IOCPBuffer.obj
 0001:00000800       ?_Myptr@?$_String_val@U?$_Simple_types@D@std@@@std@@QBEPBDXZ 10001800 f i IOCPBuffer.obj
 0001:00000840       ?deallocate@?$_Wrap_alloc@V?$allocator@D@std@@@std@@QAEXPADI@Z 10001840 f i IOCPBuffer.obj
 0001:00000860       ?_Myres@?$_String_alloc@U?$_String_base_types@DV?$allocator@D@std@@@std@@@std@@QAEAAIXZ 10001860 f i IOCPBuffer.obj
 0001:00000880       ?_Myhead@?$_List_alloc@U?$_List_base_types@PAUJobItem@@V?$allocator@PAUJobItem@@@std@@@std@@@std@@QAEAAPAU?$_List_node@PAUJobItem@@PAX@2@XZ 10001880 f i IOCPS.obj
 0001:00000880       ?_Bx@?$_String_alloc@U?$_String_base_types@DV?$allocator@D@std@@@std@@@std@@QAEAAT_Bxty@?$_String_val@U?$_Simple_types@D@std@@@2@XZ 10001880 f i IOCPBuffer.obj
 0001:00000880       ?_Myhead@?$_List_alloc@U?$_List_base_types@PAUClientContext@@V?$allocator@PAUClientContext@@@std@@@std@@@std@@QAEAAPAU?$_List_node@PAUClientContext@@PAX@2@XZ 10001880 f i IOCPS.obj
 0001:00000880       ?_Myhead@?$_List_alloc@U?$_List_base_types@PAXV?$allocator@PAX@std@@@std@@@std@@QAEAAPAU?$_List_node@PAXPAX@2@XZ 10001880 f i IOCPS.obj
 0001:00000880       ?_Myhead@?$_List_alloc@U?$_List_base_types@PAVCIOCPBuffer@@V?$allocator@PAVCIOCPBuffer@@@std@@@std@@@std@@QAEAAPAU?$_List_node@PAVCIOCPBuffer@@PAX@2@XZ 10001880 f i IOCPS.obj
 0001:000008a0       ?_Check_offset@?$basic_string@DU?$char_traits@D@std@@V?$allocator@D@2@@std@@QBEXI@Z 100018a0 f i IOCPBuffer.obj
 0001:000008d0       ?_Xlen@?$basic_string@DU?$char_traits@D@std@@V?$allocator@D@2@@std@@QBEXXZ 100018d0 f i IOCPBuffer.obj
 0001:000008f0       ?_Inside@?$basic_string@DU?$char_traits@D@std@@V?$allocator@D@2@@std@@QAE_NPBD@Z 100018f0 f i IOCPBuffer.obj
 0001:00000940       ?_Grow@?$basic_string@DU?$char_traits@D@std@@V?$allocator@D@2@@std@@QAE_NI_N@Z 10001940 f i IOCPBuffer.obj
 0001:00000a00       ?_Eos@?$basic_string@DU?$char_traits@D@std@@V?$allocator@D@2@@std@@QAEXI@Z 10001a00 f i IOCPBuffer.obj
 0001:00000a40       ?_Clamp_suffix_size@?$basic_string@DU?$char_traits@D@std@@V?$allocator@D@2@@std@@QBEIII@Z 10001a40 f i IOCPBuffer.obj
 0001:00000a80       ?erase@?$basic_string@DU?$char_traits@D@std@@V?$allocator@D@2@@std@@QAEAAV12@II@Z 10001a80 f i IOCPBuffer.obj
 0001:00000b10       ?erase@?$basic_string@DU?$char_traits@D@std@@V?$allocator@D@2@@std@@QAEAAV12@I@Z 10001b10 f i IOCPBuffer.obj
 0001:00000b40       ?_Xran@?$basic_string@DU?$char_traits@D@std@@V?$allocator@D@2@@std@@QBEXXZ 10001b40 f i IOCPBuffer.obj
 0001:00000b60       ?_Copy@?$basic_string@DU?$char_traits@D@std@@V?$allocator@D@2@@std@@QAEXII@Z 10001b60 f i IOCPBuffer.obj
 0001:00000d40       ?max_size@?$basic_string@DU?$char_traits@D@std@@V?$allocator@D@2@@std@@QBEIXZ 10001d40 f i IOCPBuffer.obj
 0001:00000d80       ?deallocate@?$allocator@D@std@@QAEXPADI@Z 10001d80 f i IOCPBuffer.obj
 0001:00000da0       ?max_size@?$_Wrap_alloc@V?$allocator@D@std@@@std@@QBEIU_Nil@2@@Z 10001da0 f i IOCPBuffer.obj
 0001:00000dc0       ?allocate@?$_Wrap_alloc@V?$allocator@D@std@@@std@@QAEPADI@Z 10001dc0 f i IOCPBuffer.obj
 0001:00000de0       ?max_size@?$allocator_traits@V?$allocator@D@std@@@std@@SAIABV?$allocator@D@2@@Z 10001de0 f i IOCPBuffer.obj
 0001:00000df0       ?allocate@?$allocator@D@std@@QAEPADI@Z 10001df0 f i IOCPBuffer.obj
 0001:00000e10       ?max_size@?$allocator@D@std@@QBEIXZ 10001e10 f i IOCPBuffer.obj
 0001:00000e20       ??$forward@U?$pair@IPAVCIOCPBuffer@@@std@@@std@@YA$$QAU?$pair@IPAVCIOCPBuffer@@@0@AAU10@@Z 10001e20 f i IOCPS.obj
 0001:00000e20       ??$move@AAD@std@@YA$$QADAAD@Z 10001e20 f i IOCPS.obj
 0001:00000e20       ??$forward@V?$_Tree_iterator@V?$_Tree_val@U?$_Tree_simple_types@U?$pair@$$CBIPAUClientContext@@@std@@@std@@@std@@@std@@@std@@YA$$QAV?$_Tree_iterator@V?$_Tree_val@U?$_Tree_simple_types@U?$pair@$$CBIPAUClientContext@@@std@@@std@@@std@@@0@AAV10@@Z 10001e20 f i IOCPS.obj
 0001:00000e20       ??$forward@V?$_Tree_iterator@V?$_Tree_val@U?$_Tree_simple_types@U?$pair@$$CBIPAVCIOCPBuffer@@@std@@@std@@@std@@@std@@@std@@YA$$QAV?$_Tree_iterator@V?$_Tree_val@U?$_Tree_simple_types@U?$pair@$$CBIPAVCIOCPBuffer@@@std@@@std@@@std@@@0@AAV10@@Z 10001e20 f i IOCPS.obj
 0001:00000e20       ??$addressof@PAU?$_List_node@PAVCIOCPBuffer@@PAX@std@@@std@@YAPAPAU?$_List_node@PAVCIOCPBuffer@@PAX@0@AAPAU10@@Z 10001e20 f i IOCPS.obj
 0001:00000e20       ??$forward@AAV?$_Tree_iterator@V?$_Tree_val@U?$_Tree_simple_types@U?$pair@$$CBIPAVCIOCPBuffer@@@std@@@std@@@std@@@std@@@std@@YAAAV?$_Tree_iterator@V?$_Tree_val@U?$_Tree_simple_types@U?$pair@$$CBIPAVCIOCPBuffer@@@std@@@std@@@std@@@0@AAV10@@Z 10001e20 f i IOCPS.obj
 0001:00000e20       ??$forward@AAU?$pair@$$CBIPAUClientContext@@@std@@@std@@YAAAU?$pair@$$CBIPAUClientContext@@@0@AAU10@@Z 10001e20 f i IOCPS.obj
 0001:00000e20       ??$_Kfn@$$CBGPAX@?$_Tmap_traits@GPAXU?$less@G@std@@V?$allocator@U?$pair@$$CBGPAX@std@@@2@$0A@@std@@SAABGABU?$pair@$$CBGPAX@1@@Z 10001e20 f i IOCPS.obj
 0001:00000e20       ??$forward@AAU?$pair@$$CBGPAX@std@@@std@@YAAAU?$pair@$$CBGPAX@0@AAU10@@Z 10001e20 f i IOCPS.obj
 0001:00000e20       ??$forward@ABU?$less@G@std@@@std@@YAABU?$less@G@0@ABU10@@Z 10001e20 f i IOCPS.obj
 0001:00000e20       ??$addressof@PAU?$_List_node@PAUJobItem@@PAX@std@@@std@@YAPAPAU?$_List_node@PAUJobItem@@PAX@0@AAPAU10@@Z 10001e20 f i IOCPS.obj
 0001:00000e20       ??$addressof@PAU?$_Tree_node@U?$pair@$$CBIPAVCIOCPBuffer@@@std@@PAX@std@@@std@@YAPAPAU?$_Tree_node@U?$pair@$$CBIPAVCIOCPBuffer@@@std@@PAX@0@AAPAU10@@Z 10001e20 f i IOCPS.obj
 0001:00000e20       ??$addressof@U?$pair@$$CBIPAUClientContext@@@std@@@std@@YAPAU?$pair@$$CBIPAUClientContext@@@0@AAU10@@Z 10001e20 f i IOCPS.obj
 0001:00000e20       ??$forward@AAPAU?$_List_node@PAVCIOCPBuffer@@PAX@std@@@std@@YAAAPAU?$_List_node@PAVCIOCPBuffer@@PAX@0@AAPAU10@@Z 10001e20 f i IOCPS.obj
 0001:00000e20       ??$forward@AAPAU?$_List_node@PAXPAX@std@@@std@@YAAAPAU?$_List_node@PAXPAX@0@AAPAU10@@Z 10001e20 f i IOCPS.obj
 0001:00000e20       ??$forward@ABUpiecewise_construct_t@std@@@std@@YAABUpiecewise_construct_t@0@ABU10@@Z 10001e20 f i IOCPS.obj
 0001:00000e20       ??$forward@_N@std@@YA$$QA_NAA_N@Z 10001e20 f i IOCPS.obj
 0001:00000e20       ??$forward@V?$tuple@ABG@std@@@std@@YA$$QAV?$tuple@ABG@0@AAV10@@Z 10001e20 f i IOCPS.obj
 0001:00000e20       ??$forward@AAPAU?$_List_node@PAUJobItem@@PAX@std@@@std@@YAAAPAU?$_List_node@PAUJobItem@@PAX@0@AAPAU10@@Z 10001e20 f i IOCPS.obj
 0001:00000e20       ?_Nextnode@?$_List_val@U?$_List_simple_types@PAUJobItem@@@std@@@std@@SAAAPAU?$_List_node@PAUJobItem@@PAX@2@PAU32@@Z 10001e20 f i IOCPS.obj
 0001:00000e20       ??$forward@U?$_Wrap_alloc@V?$allocator@D@std@@@std@@@std@@YA$$QAU?$_Wrap_alloc@V?$allocator@D@std@@@0@AAU10@@Z 10001e20 f i IOCPS.obj
 0001:00000e20       ??$addressof@PAUJobItem@@@std@@YAPAPAUJobItem@@AAPAU1@@Z 10001e20 f i IOCPS.obj
 0001:00000e20       ?_Left@?$_Tree_val@U?$_Tree_simple_types@U?$pair@$$CBIPAUClientContext@@@std@@@std@@@std@@SAAAPAU?$_Tree_node@U?$pair@$$CBIPAUClientContext@@@std@@PAX@2@PAU32@@Z 10001e20 f i IOCPS.obj
 0001:00000e20       ??$forward@AAPAX@std@@YAAAPAXAAPAX@Z 10001e20 f i IOCPS.obj
 0001:00000e20       ??$_Kfn@$$CBIPAUClientContext@@@?$_Tmap_traits@IPAUClientContext@@U?$less@I@std@@V?$allocator@U?$pair@$$CBIPAUClientContext@@@std@@@3@$0A@@std@@SAABIABU?$pair@$$CBIPAUClientContext@@@1@@Z 10001e20 f i IOCPS.obj
 0001:00000e20       ??$forward@U?$pair@GPAX@std@@@std@@YA$$QAU?$pair@GPAX@0@AAU10@@Z 10001e20 f i IOCPS.obj
 0001:00000e20       ??$_Unfancy@D@std@@YAPADPAD@Z 10001e20 f i IOCPBuffer.obj
 0001:00000e20       ?_Left@?$_Tree_val@U?$_Tree_simple_types@U?$pair@$$CBIPAVCIOCPBuffer@@@std@@@std@@@std@@SAAAPAU?$_Tree_node@U?$pair@$$CBIPAVCIOCPBuffer@@@std@@PAX@2@PAU32@@Z 10001e20 f i IOCPS.obj
 0001:00000e20       ??$addressof@PAVCIOCPBuffer@@@std@@YAPAPAVCIOCPBuffer@@AAPAV1@@Z 10001e20 f i IOCPS.obj
 0001:00000e20       ??$addressof@QAVCIOCPBuffer@@@std@@YAPBQAVCIOCPBuffer@@ABQAV1@@Z 10001e20 f i IOCPS.obj
 0001:00000e20       ??$forward@V?$tuple@$$V@std@@@std@@YA$$QAV?$tuple@$$V@0@AAV10@@Z 10001e20 f i IOCPS.obj
 0001:00000e20       ?_Nextnode@?$_List_val@U?$_List_simple_types@PAVCIOCPBuffer@@@std@@@std@@SAAAPAU?$_List_node@PAVCIOCPBuffer@@PAX@2@PAU32@@Z 10001e20 f i IOCPS.obj
 0001:00000e20       ??$_Kfn@$$CBIPAVCIOCPBuffer@@@?$_Tmap_traits@IPAVCIOCPBuffer@@U?$less@I@std@@V?$allocator@U?$pair@$$CBIPAVCIOCPBuffer@@@std@@@3@$0A@@std@@SAABIABU?$pair@$$CBIPAVCIOCPBuffer@@@1@@Z 10001e20 f i IOCPS.obj
 0001:00000e20       ??$addressof@PAU?$_Tree_node@U?$pair@$$CBGPAX@std@@PAX@std@@@std@@YAPAPAU?$_Tree_node@U?$pair@$$CBGPAX@std@@PAX@0@AAPAU10@@Z 10001e20 f i IOCPS.obj
 0001:00000e20       ??$addressof@PAUClientContext@@@std@@YAPAPAUClientContext@@AAPAU1@@Z 10001e20 f i IOCPS.obj
 0001:00000e20       ?_Nextnode@?$_List_val@U?$_List_simple_types@PAUClientContext@@@std@@@std@@SAAAPAU?$_List_node@PAUClientContext@@PAX@2@PAU32@@Z 10001e20 f i IOCPS.obj
 0001:00000e20       ??$forward@ABQAVCIOCPBuffer@@@std@@YAABQAVCIOCPBuffer@@ABQAV1@@Z 10001e20 f i IOCPS.obj
 0001:00000e20       ??$forward@V?$basic_string@DU?$char_traits@D@std@@V?$allocator@D@2@@std@@@std@@YA$$QAV?$basic_string@DU?$char_traits@D@std@@V?$allocator@D@2@@0@AAV10@@Z 10001e20 f i IOCPS.obj
 0001:00000e20       ??$forward@AAV?$_Tree_iterator@V?$_Tree_val@U?$_Tree_simple_types@U?$pair@$$CBGPAX@std@@@std@@@std@@@std@@@std@@YAAAV?$_Tree_iterator@V?$_Tree_val@U?$_Tree_simple_types@U?$pair@$$CBGPAX@std@@@std@@@std@@@0@AAV10@@Z 10001e20 f i IOCPS.obj
 0001:00000e20       ??$addressof@PAD@std@@YAPAPADAAPAD@Z 10001e20 f i IOCPBuffer.obj
 0001:00000e20       ??$forward@ABI@std@@YAABIABI@Z 10001e20 f i IOCPS.obj
 0001:00000e20       ??$forward@ABQAX@std@@YAABQAXABQAX@Z 10001e20 f i IOCPS.obj
 0001:00000e20       ??$forward@ABQAUClientContext@@@std@@YAABQAUClientContext@@ABQAU1@@Z 10001e20 f i IOCPS.obj
 0001:00000e20       ??$forward@PAX@std@@YA$$QAPAXAAPAX@Z 10001e20 f i IOCPS.obj
 0001:00000e20       ??$forward@AAI@std@@YAAAIAAI@Z 10001e20 f i IOCPS.obj
 0001:00000e20       ??$forward@AAPAU?$_Tree_node@U?$pair@$$CBGPAX@std@@PAX@std@@@std@@YAAAPAU?$_Tree_node@U?$pair@$$CBGPAX@std@@PAX@0@AAPAU10@@Z 10001e20 f i IOCPS.obj
 0001:00000e20       ??$move@AAU?$_Wrap_alloc@V?$allocator@D@std@@@std@@@std@@YA$$QAU?$_Wrap_alloc@V?$allocator@D@std@@@0@AAU10@@Z 10001e20 f i IOCPS.obj
 0001:00000e20       ??$forward@V?$_Tree_iterator@V?$_Tree_val@U?$_Tree_simple_types@U?$pair@$$CBGPAX@std@@@std@@@std@@@std@@@std@@YA$$QAV?$_Tree_iterator@V?$_Tree_val@U?$_Tree_simple_types@U?$pair@$$CBGPAX@std@@@std@@@std@@@0@AAV10@@Z 10001e20 f i IOCPS.obj
 0001:00000e20       ??$move@AAV?$tuple@ABG@std@@@std@@YA$$QAV?$tuple@ABG@0@AAV10@@Z 10001e20 f i IOCPS.obj
 0001:00000e20       ?_Left@?$_Tree_val@U?$_Tree_simple_types@U?$pair@$$CBGPAX@std@@@std@@@std@@SAAAPAU?$_Tree_node@U?$pair@$$CBGPAX@std@@PAX@2@PAU32@@Z 10001e20 f i IOCPS.obj
 0001:00000e20       ??$forward@G@std@@YA$$QAGAAG@Z 10001e20 f i IOCPS.obj
 0001:00000e20       ??$forward@ABU?$less@I@std@@@std@@YAABU?$less@I@0@ABU10@@Z 10001e20 f i IOCPS.obj
 0001:00000e20       ??$forward@ABG@std@@YAABGABG@Z 10001e20 f i IOCPS.obj
 0001:00000e20       ??$forward@AAPAU?$_Tree_node@U?$pair@$$CBIPAUClientContext@@@std@@PAX@std@@@std@@YAAAPAU?$_Tree_node@U?$pair@$$CBIPAUClientContext@@@std@@PAX@0@AAPAU10@@Z 10001e20 f i IOCPS.obj
 0001:00000e20       ??$forward@AAPAU?$_Tree_node@U?$pair@$$CBIPAVCIOCPBuffer@@@std@@PAX@std@@@std@@YAAAPAU?$_Tree_node@U?$pair@$$CBIPAVCIOCPBuffer@@@std@@PAX@0@AAPAU10@@Z 10001e20 f i IOCPS.obj
 0001:00000e20       ??$forward@AAPAVCIOCPBuffer@@@std@@YAAAPAVCIOCPBuffer@@AAPAV1@@Z 10001e20 f i IOCPS.obj
 0001:00000e20       ??$forward@V?$tuple@ABI@std@@@std@@YA$$QAV?$tuple@ABI@0@AAV10@@Z 10001e20 f i IOCPS.obj
 0001:00000e20       ??$addressof@U?$pair@$$CBGPAX@std@@@std@@YAPAU?$pair@$$CBGPAX@0@AAU10@@Z 10001e20 f i IOCPS.obj
 0001:00000e20       ??$forward@AAV?$_Tree_iterator@V?$_Tree_val@U?$_Tree_simple_types@U?$pair@$$CBIPAUClientContext@@@std@@@std@@@std@@@std@@@std@@YAAAV?$_Tree_iterator@V?$_Tree_val@U?$_Tree_simple_types@U?$pair@$$CBIPAUClientContext@@@std@@@std@@@std@@@0@AAV10@@Z 10001e20 f i IOCPS.obj
 0001:00000e20       ??$addressof@PAX@std@@YAPAPAXAAPAX@Z 10001e20 f i IOCPS.obj
 0001:00000e20       ??$forward@PAVCIOCPBuffer@@@std@@YA$$QAPAVCIOCPBuffer@@AAPAV1@@Z 10001e20 f i IOCPS.obj
 0001:00000e20       ??$forward@AAPAD@std@@YAAAPADAAPAD@Z 10001e20 f i IOCPBuffer.obj
 0001:00000e20       ?_Nextnode@?$_List_val@U?$_List_simple_types@PAX@std@@@std@@SAAAPAU?$_List_node@PAXPAX@2@PAU32@@Z 10001e20 f i IOCPS.obj
 0001:00000e20       ??$move@AAV?$tuple@ABI@std@@@std@@YA$$QAV?$tuple@ABI@0@AAV10@@Z 10001e20 f i IOCPS.obj
 0001:00000e20       ??$addressof@PAU?$_List_node@PAXPAX@std@@@std@@YAPAPAU?$_List_node@PAXPAX@0@AAPAU10@@Z 10001e20 f i IOCPS.obj
 0001:00000e20       ??$forward@AAU?$pair@$$CBIPAVCIOCPBuffer@@@std@@@std@@YAAAU?$pair@$$CBIPAVCIOCPBuffer@@@0@AAU10@@Z 10001e20 f i IOCPS.obj
 0001:00000e20       ??$addressof@U?$pair@$$CBIPAVCIOCPBuffer@@@std@@@std@@YAPAU?$pair@$$CBIPAVCIOCPBuffer@@@0@AAU10@@Z 10001e20 f i IOCPS.obj
 0001:00000e20       ??$forward@U_Zero_then_variadic_args_t@std@@@std@@YA$$QAU_Zero_then_variadic_args_t@0@AAU10@@Z 10001e20 f i IOCPS.obj
 0001:00000e20       ??$forward@AAPAU?$_List_node@PAUClientContext@@PAX@std@@@std@@YAAAPAU?$_List_node@PAUClientContext@@PAX@0@AAPAU10@@Z 10001e20 f i IOCPS.obj
 0001:00000e20       ??$addressof@PAU?$_List_node@PAUClientContext@@PAX@std@@@std@@YAPAPAU?$_List_node@PAUClientContext@@PAX@0@AAPAU10@@Z 10001e20 f i IOCPS.obj
 0001:00000e20       ??$forward@I@std@@YA$$QAIAAI@Z 10001e20 f i IOCPS.obj
 0001:00000e20       ??$addressof@PAU?$_Tree_node@U?$pair@$$CBIPAUClientContext@@@std@@PAX@std@@@std@@YAPAPAU?$_Tree_node@U?$pair@$$CBIPAUClientContext@@@std@@PAX@0@AAPAU10@@Z 10001e20 f i IOCPS.obj
 0001:00000e30       ??$destroy@PAU?$_List_node@PAXPAX@std@@@?$_Wrap_alloc@V?$allocator@U?$_List_node@PAXPAX@std@@@std@@@std@@QAEXPAPAU?$_List_node@PAXPAX@1@@Z 10001e30 f i IOCPS.obj
 0001:00000e30       ??$destroy@PAU?$_Tree_node@U?$pair@$$CBGPAX@std@@PAX@std@@@?$_Wrap_alloc@V?$allocator@U?$_Tree_node@U?$pair@$$CBGPAX@std@@PAX@std@@@std@@@std@@QAEXPAPAU?$_Tree_node@U?$pair@$$CBGPAX@std@@PAX@1@@Z 10001e30 f i IOCPS.obj
 0001:00000e30       ??$destroy@PAU?$_List_node@PAUJobItem@@PAX@std@@@?$_Wrap_alloc@V?$allocator@U?$_List_node@PAUJobItem@@PAX@std@@@std@@@std@@QAEXPAPAU?$_List_node@PAUJobItem@@PAX@1@@Z 10001e30 f i IOCPS.obj
 0001:00000e30       ??$destroy@U?$pair@$$CBIPAUClientContext@@@std@@@?$_Wrap_alloc@V?$allocator@U?$_Tree_node@U?$pair@$$CBIPAUClientContext@@@std@@PAX@std@@@std@@@std@@QAEXPAU?$pair@$$CBIPAUClientContext@@@1@@Z 10001e30 f i IOCPS.obj
 0001:00000e30       ??$destroy@PAD@?$_Wrap_alloc@V?$allocator@D@std@@@std@@QAEXPAPAD@Z 10001e30 f i IOCPBuffer.obj
 0001:00000e30       ??$destroy@U?$pair@$$CBIPAVCIOCPBuffer@@@std@@@?$_Wrap_alloc@V?$allocator@U?$_Tree_node@U?$pair@$$CBIPAVCIOCPBuffer@@@std@@PAX@std@@@std@@@std@@QAEXPAU?$pair@$$CBIPAVCIOCPBuffer@@@1@@Z 10001e30 f i IOCPS.obj
 0001:00000e30       ??$destroy@PAU?$_List_node@PAVCIOCPBuffer@@PAX@std@@@?$_Wrap_alloc@V?$allocator@U?$_List_node@PAVCIOCPBuffer@@PAX@std@@@std@@@std@@QAEXPAPAU?$_List_node@PAVCIOCPBuffer@@PAX@1@@Z 10001e30 f i IOCPS.obj
 0001:00000e30       ??$destroy@PAUClientContext@@@?$_Wrap_alloc@V?$allocator@U?$_List_node@PAUClientContext@@PAX@std@@@std@@@std@@QAEXPAPAUClientContext@@@Z 10001e30 f i IOCPS.obj
 0001:00000e30       ??$destroy@PAU?$_Tree_node@U?$pair@$$CBIPAVCIOCPBuffer@@@std@@PAX@std@@@?$_Wrap_alloc@V?$allocator@U?$_Tree_node@U?$pair@$$CBIPAVCIOCPBuffer@@@std@@PAX@std@@@std@@@std@@QAEXPAPAU?$_Tree_node@U?$pair@$$CBIPAVCIOCPBuffer@@@std@@PAX@1@@Z 10001e30 f i IOCPS.obj
 0001:00000e30       ??$destroy@PAU?$_Tree_node@U?$pair@$$CBIPAUClientContext@@@std@@PAX@std@@@?$_Wrap_alloc@V?$allocator@U?$_Tree_node@U?$pair@$$CBIPAUClientContext@@@std@@PAX@std@@@std@@@std@@QAEXPAPAU?$_Tree_node@U?$pair@$$CBIPAUClientContext@@@std@@PAX@1@@Z 10001e30 f i IOCPS.obj
 0001:00000e30       ??$destroy@PAX@?$_Wrap_alloc@V?$allocator@U?$_List_node@PAXPAX@std@@@std@@@std@@QAEXPAPAX@Z 10001e30 f i IOCPS.obj
 0001:00000e30       ??$destroy@PAUJobItem@@@?$_Wrap_alloc@V?$allocator@U?$_List_node@PAUJobItem@@PAX@std@@@std@@@std@@QAEXPAPAUJobItem@@@Z 10001e30 f i IOCPS.obj
 0001:00000e30       ??$destroy@PAVCIOCPBuffer@@@?$_Wrap_alloc@V?$allocator@U?$_List_node@PAVCIOCPBuffer@@PAX@std@@@std@@@std@@QAEXPAPAVCIOCPBuffer@@@Z 10001e30 f i IOCPS.obj
 0001:00000e30       ??$destroy@U?$pair@$$CBGPAX@std@@@?$_Wrap_alloc@V?$allocator@U?$_Tree_node@U?$pair@$$CBGPAX@std@@PAX@std@@@std@@@std@@QAEXPAU?$pair@$$CBGPAX@1@@Z 10001e30 f i IOCPS.obj
 0001:00000e30       ??$destroy@PAU?$_List_node@PAUClientContext@@PAX@std@@@?$_Wrap_alloc@V?$allocator@U?$_List_node@PAUClientContext@@PAX@std@@@std@@@std@@QAEXPAPAU?$_List_node@PAUClientContext@@PAX@1@@Z 10001e30 f i IOCPS.obj
 0001:00000e50       ??$construct@PAU?$_List_node@PAVCIOCPBuffer@@PAX@std@@AAPAU12@@?$_Wrap_alloc@V?$allocator@U?$_List_node@PAVCIOCPBuffer@@PAX@std@@@std@@@std@@QAEXPAPAU?$_List_node@PAVCIOCPBuffer@@PAX@1@AAPAU21@@Z 10001e50 f i IOCPS.obj
 0001:00000e50       ??$construct@PADAAPAD@?$_Wrap_alloc@V?$allocator@D@std@@@std@@QAEXPAPADAAPAD@Z 10001e50 f i IOCPBuffer.obj
 0001:00000e50       ??$construct@PAU?$_List_node@PAXPAX@std@@AAPAU12@@?$_Wrap_alloc@V?$allocator@U?$_List_node@PAXPAX@std@@@std@@@std@@QAEXPAPAU?$_List_node@PAXPAX@1@AAPAU21@@Z 10001e50 f i IOCPS.obj
 0001:00000e50       ??$construct@PAU?$_Tree_node@U?$pair@$$CBIPAUClientContext@@@std@@PAX@std@@AAPAU12@@?$_Wrap_alloc@V?$allocator@U?$_Tree_node@U?$pair@$$CBIPAUClientContext@@@std@@PAX@std@@@std@@@std@@QAEXPAPAU?$_Tree_node@U?$pair@$$CBIPAUClientContext@@@std@@PAX@1@AAPAU21@@Z 10001e50 f i IOCPS.obj
 0001:00000e50       ??$construct@PAU?$_List_node@PAUClientContext@@PAX@std@@AAPAU12@@?$_Wrap_alloc@V?$allocator@U?$_List_node@PAUClientContext@@PAX@std@@@std@@@std@@QAEXPAPAU?$_List_node@PAUClientContext@@PAX@1@AAPAU21@@Z 10001e50 f i IOCPS.obj
 0001:00000e50       ??$construct@PAUClientContext@@ABQAU1@@?$_Wrap_alloc@V?$allocator@U?$_List_node@PAUClientContext@@PAX@std@@@std@@@std@@QAEXPAPAUClientContext@@ABQAU2@@Z 10001e50 f i IOCPS.obj
 0001:00000e50       ??$construct@PAU?$_Tree_node@U?$pair@$$CBIPAVCIOCPBuffer@@@std@@PAX@std@@AAPAU12@@?$_Wrap_alloc@V?$allocator@U?$_Tree_node@U?$pair@$$CBIPAVCIOCPBuffer@@@std@@PAX@std@@@std@@@std@@QAEXPAPAU?$_Tree_node@U?$pair@$$CBIPAVCIOCPBuffer@@@std@@PAX@1@AAPAU21@@Z 10001e50 f i IOCPS.obj
 0001:00000e50       ??$construct@PAVCIOCPBuffer@@ABQAV1@@?$_Wrap_alloc@V?$allocator@U?$_List_node@PAVCIOCPBuffer@@PAX@std@@@std@@@std@@QAEXPAPAVCIOCPBuffer@@ABQAV2@@Z 10001e50 f i IOCPS.obj
 0001:00000e50       ??$construct@PAU?$_List_node@PAUJobItem@@PAX@std@@AAPAU12@@?$_Wrap_alloc@V?$allocator@U?$_List_node@PAUJobItem@@PAX@std@@@std@@@std@@QAEXPAPAU?$_List_node@PAUJobItem@@PAX@1@AAPAU21@@Z 10001e50 f i IOCPS.obj
 0001:00000e50       ??$construct@PAXABQAX@?$_Wrap_alloc@V?$allocator@U?$_List_node@PAXPAX@std@@@std@@@std@@QAEXPAPAXABQAX@Z 10001e50 f i IOCPS.obj
 0001:00000e50       ??$construct@PAU?$_Tree_node@U?$pair@$$CBGPAX@std@@PAX@std@@AAPAU12@@?$_Wrap_alloc@V?$allocator@U?$_Tree_node@U?$pair@$$CBGPAX@std@@PAX@std@@@std@@@std@@QAEXPAPAU?$_Tree_node@U?$pair@$$CBGPAX@std@@PAX@1@AAPAU21@@Z 10001e50 f i IOCPS.obj
 0001:00000e80       ??$destroy@PAU?$_List_node@PAVCIOCPBuffer@@PAX@std@@@?$allocator_traits@V?$allocator@U?$_List_node@PAVCIOCPBuffer@@PAX@std@@@std@@@std@@SAXAAV?$allocator@U?$_List_node@PAVCIOCPBuffer@@PAX@std@@@1@PAPAU?$_List_node@PAVCIOCPBuffer@@PAX@1@@Z 10001e80 f i IOCPS.obj
 0001:00000e80       ??$destroy@PAU?$_Tree_node@U?$pair@$$CBIPAVCIOCPBuffer@@@std@@PAX@std@@@?$allocator_traits@V?$allocator@U?$_Tree_node@U?$pair@$$CBIPAVCIOCPBuffer@@@std@@PAX@std@@@std@@@std@@SAXAAV?$allocator@U?$_Tree_node@U?$pair@$$CBIPAVCIOCPBuffer@@@std@@PAX@std@@@1@PAPAU?$_Tree_node@U?$pair@$$CBIPAVCIOCPBuffer@@@std@@PAX@1@@Z 10001e80 f i IOCPS.obj
 0001:00000e80       ??$destroy@PAUJobItem@@@?$allocator_traits@V?$allocator@U?$_List_node@PAUJobItem@@PAX@std@@@std@@@std@@SAXAAV?$allocator@U?$_List_node@PAUJobItem@@PAX@std@@@1@PAPAUJobItem@@@Z 10001e80 f i IOCPS.obj
 0001:00000e80       ??$destroy@PAU?$_Tree_node@U?$pair@$$CBIPAUClientContext@@@std@@PAX@std@@@?$allocator_traits@V?$allocator@U?$_Tree_node@U?$pair@$$CBIPAUClientContext@@@std@@PAX@std@@@std@@@std@@SAXAAV?$allocator@U?$_Tree_node@U?$pair@$$CBIPAUClientContext@@@std@@PAX@std@@@1@PAPAU?$_Tree_node@U?$pair@$$CBIPAUClientContext@@@std@@PAX@1@@Z 10001e80 f i IOCPS.obj
 0001:00000e80       ??$destroy@PAX@?$allocator_traits@V?$allocator@U?$_List_node@PAXPAX@std@@@std@@@std@@SAXAAV?$allocator@U?$_List_node@PAXPAX@std@@@1@PAPAX@Z 10001e80 f i IOCPS.obj
 0001:00000e80       ??$destroy@U?$pair@$$CBIPAUClientContext@@@std@@@?$allocator_traits@V?$allocator@U?$_Tree_node@U?$pair@$$CBIPAUClientContext@@@std@@PAX@std@@@std@@@std@@SAXAAV?$allocator@U?$_Tree_node@U?$pair@$$CBIPAUClientContext@@@std@@PAX@std@@@1@PAU?$pair@$$CBIPAUClientContext@@@1@@Z 10001e80 f i IOCPS.obj
 0001:00000e80       ??$destroy@U?$pair@$$CBIPAVCIOCPBuffer@@@std@@@?$allocator_traits@V?$allocator@U?$_Tree_node@U?$pair@$$CBIPAVCIOCPBuffer@@@std@@PAX@std@@@std@@@std@@SAXAAV?$allocator@U?$_Tree_node@U?$pair@$$CBIPAVCIOCPBuffer@@@std@@PAX@std@@@1@PAU?$pair@$$CBIPAVCIOCPBuffer@@@1@@Z 10001e80 f i IOCPS.obj
 0001:00000e80       ??$destroy@PAU?$_List_node@PAUJobItem@@PAX@std@@@?$allocator_traits@V?$allocator@U?$_List_node@PAUJobItem@@PAX@std@@@std@@@std@@SAXAAV?$allocator@U?$_List_node@PAUJobItem@@PAX@std@@@1@PAPAU?$_List_node@PAUJobItem@@PAX@1@@Z 10001e80 f i IOCPS.obj
 0001:00000e80       ??$destroy@PAU?$_Tree_node@U?$pair@$$CBGPAX@std@@PAX@std@@@?$allocator_traits@V?$allocator@U?$_Tree_node@U?$pair@$$CBGPAX@std@@PAX@std@@@std@@@std@@SAXAAV?$allocator@U?$_Tree_node@U?$pair@$$CBGPAX@std@@PAX@std@@@1@PAPAU?$_Tree_node@U?$pair@$$CBGPAX@std@@PAX@1@@Z 10001e80 f i IOCPS.obj
 0001:00000e80       ??$destroy@U?$pair@$$CBGPAX@std@@@?$allocator_traits@V?$allocator@U?$_Tree_node@U?$pair@$$CBGPAX@std@@PAX@std@@@std@@@std@@SAXAAV?$allocator@U?$_Tree_node@U?$pair@$$CBGPAX@std@@PAX@std@@@1@PAU?$pair@$$CBGPAX@1@@Z 10001e80 f i IOCPS.obj
 0001:00000e80       ??$destroy@PAUClientContext@@@?$allocator_traits@V?$allocator@U?$_List_node@PAUClientContext@@PAX@std@@@std@@@std@@SAXAAV?$allocator@U?$_List_node@PAUClientContext@@PAX@std@@@1@PAPAUClientContext@@@Z 10001e80 f i IOCPS.obj
 0001:00000e80       ??$destroy@PAD@?$allocator_traits@V?$allocator@D@std@@@std@@SAXAAV?$allocator@D@1@PAPAD@Z 10001e80 f i IOCPBuffer.obj
 0001:00000e80       ??$destroy@PAU?$_List_node@PAUClientContext@@PAX@std@@@?$allocator_traits@V?$allocator@U?$_List_node@PAUClientContext@@PAX@std@@@std@@@std@@SAXAAV?$allocator@U?$_List_node@PAUClientContext@@PAX@std@@@1@PAPAU?$_List_node@PAUClientContext@@PAX@1@@Z 10001e80 f i IOCPS.obj
 0001:00000e80       ??$destroy@PAVCIOCPBuffer@@@?$allocator_traits@V?$allocator@U?$_List_node@PAVCIOCPBuffer@@PAX@std@@@std@@@std@@SAXAAV?$allocator@U?$_List_node@PAVCIOCPBuffer@@PAX@std@@@1@PAPAVCIOCPBuffer@@@Z 10001e80 f i IOCPS.obj
 0001:00000e80       ??$destroy@PAU?$_List_node@PAXPAX@std@@@?$allocator_traits@V?$allocator@U?$_List_node@PAXPAX@std@@@std@@@std@@SAXAAV?$allocator@U?$_List_node@PAXPAX@std@@@1@PAPAU?$_List_node@PAXPAX@1@@Z 10001e80 f i IOCPS.obj
 0001:00000ea0       ??$construct@PAU?$_Tree_node@U?$pair@$$CBIPAVCIOCPBuffer@@@std@@PAX@std@@AAPAU12@@?$allocator_traits@V?$allocator@U?$_Tree_node@U?$pair@$$CBIPAVCIOCPBuffer@@@std@@PAX@std@@@std@@@std@@SAXAAV?$allocator@U?$_Tree_node@U?$pair@$$CBIPAVCIOCPBuffer@@@std@@PAX@std@@@1@PAPAU?$_Tree_node@U?$pair@$$CBIPAVCIOCPBuffer@@@std@@PAX@1@AAPAU31@@Z 10001ea0 f i IOCPS.obj
 0001:00000ea0       ??$construct@PAU?$_Tree_node@U?$pair@$$CBGPAX@std@@PAX@std@@AAPAU12@@?$allocator_traits@V?$allocator@U?$_Tree_node@U?$pair@$$CBGPAX@std@@PAX@std@@@std@@@std@@SAXAAV?$allocator@U?$_Tree_node@U?$pair@$$CBGPAX@std@@PAX@std@@@1@PAPAU?$_Tree_node@U?$pair@$$CBGPAX@std@@PAX@1@AAPAU31@@Z 10001ea0 f i IOCPS.obj
 0001:00000ea0       ??$construct@PAVCIOCPBuffer@@ABQAV1@@?$allocator_traits@V?$allocator@U?$_List_node@PAVCIOCPBuffer@@PAX@std@@@std@@@std@@SAXAAV?$allocator@U?$_List_node@PAVCIOCPBuffer@@PAX@std@@@1@PAPAVCIOCPBuffer@@ABQAV3@@Z 10001ea0 f i IOCPS.obj
 0001:00000ea0       ??$construct@PAU?$_List_node@PAUJobItem@@PAX@std@@AAPAU12@@?$allocator_traits@V?$allocator@U?$_List_node@PAUJobItem@@PAX@std@@@std@@@std@@SAXAAV?$allocator@U?$_List_node@PAUJobItem@@PAX@std@@@1@PAPAU?$_List_node@PAUJobItem@@PAX@1@AAPAU31@@Z 10001ea0 f i IOCPS.obj
 0001:00000ea0       ??$construct@PAU?$_List_node@PAUClientContext@@PAX@std@@AAPAU12@@?$allocator_traits@V?$allocator@U?$_List_node@PAUClientContext@@PAX@std@@@std@@@std@@SAXAAV?$allocator@U?$_List_node@PAUClientContext@@PAX@std@@@1@PAPAU?$_List_node@PAUClientContext@@PAX@1@AAPAU31@@Z 10001ea0 f i IOCPS.obj
 0001:00000ea0       ??$construct@PAUClientContext@@ABQAU1@@?$allocator_traits@V?$allocator@U?$_List_node@PAUClientContext@@PAX@std@@@std@@@std@@SAXAAV?$allocator@U?$_List_node@PAUClientContext@@PAX@std@@@1@PAPAUClientContext@@ABQAU3@@Z 10001ea0 f i IOCPS.obj
 0001:00000ea0       ??$construct@PAU?$_List_node@PAXPAX@std@@AAPAU12@@?$allocator_traits@V?$allocator@U?$_List_node@PAXPAX@std@@@std@@@std@@SAXAAV?$allocator@U?$_List_node@PAXPAX@std@@@1@PAPAU?$_List_node@PAXPAX@1@AAPAU31@@Z 10001ea0 f i IOCPS.obj
 0001:00000ea0       ??$construct@PAU?$_List_node@PAVCIOCPBuffer@@PAX@std@@AAPAU12@@?$allocator_traits@V?$allocator@U?$_List_node@PAVCIOCPBuffer@@PAX@std@@@std@@@std@@SAXAAV?$allocator@U?$_List_node@PAVCIOCPBuffer@@PAX@std@@@1@PAPAU?$_List_node@PAVCIOCPBuffer@@PAX@1@AAPAU31@@Z 10001ea0 f i IOCPS.obj
 0001:00000ea0       ??$construct@PAXABQAX@?$allocator_traits@V?$allocator@U?$_List_node@PAXPAX@std@@@std@@@std@@SAXAAV?$allocator@U?$_List_node@PAXPAX@std@@@1@PAPAXABQAX@Z 10001ea0 f i IOCPS.obj
 0001:00000ea0       ??$construct@PAU?$_Tree_node@U?$pair@$$CBIPAUClientContext@@@std@@PAX@std@@AAPAU12@@?$allocator_traits@V?$allocator@U?$_Tree_node@U?$pair@$$CBIPAUClientContext@@@std@@PAX@std@@@std@@@std@@SAXAAV?$allocator@U?$_Tree_node@U?$pair@$$CBIPAUClientContext@@@std@@PAX@std@@@1@PAPAU?$_Tree_node@U?$pair@$$CBIPAUClientContext@@@std@@PAX@1@AAPAU31@@Z 10001ea0 f i IOCPS.obj
 0001:00000ea0       ??$construct@PADAAPAD@?$allocator_traits@V?$allocator@D@std@@@std@@SAXAAV?$allocator@D@1@PAPADAAPAD@Z 10001ea0 f i IOCPBuffer.obj
 0001:00000ec0       ??$destroy@PAVCIOCPBuffer@@@?$allocator@U?$_List_node@PAVCIOCPBuffer@@PAX@std@@@std@@QAEXPAPAVCIOCPBuffer@@@Z 10001ec0 f i IOCPS.obj
 0001:00000ec0       ??$destroy@U?$pair@$$CBIPAUClientContext@@@std@@@?$allocator@U?$_Tree_node@U?$pair@$$CBIPAUClientContext@@@std@@PAX@std@@@std@@QAEXPAU?$pair@$$CBIPAUClientContext@@@1@@Z 10001ec0 f i IOCPS.obj
 0001:00000ec0       ??$destroy@PAU?$_List_node@PAUClientContext@@PAX@std@@@?$allocator@U?$_List_node@PAUClientContext@@PAX@std@@@std@@QAEXPAPAU?$_List_node@PAUClientContext@@PAX@1@@Z 10001ec0 f i IOCPS.obj
 0001:00000ec0       ?_Adopt@_Iterator_base0@std@@QAEXPBX@Z 10001ec0 f i IOCPS.obj
 0001:00000ec0       ??$destroy@PAU?$_List_node@PAVCIOCPBuffer@@PAX@std@@@?$allocator@U?$_List_node@PAVCIOCPBuffer@@PAX@std@@@std@@QAEXPAPAU?$_List_node@PAVCIOCPBuffer@@PAX@1@@Z 10001ec0 f i IOCPS.obj
 0001:00000ec0       ?NotifyFileCompleted@IOCPS@@MAEXPAUClientContext@@@Z 10001ec0 f i IOCPS.obj
 0001:00000ec0       ?NotifyNewConnection@IOCPS@@MAEXPAUClientContext@@@Z 10001ec0 f i IOCPS.obj
 0001:00000ec0       ??$destroy@PAU?$_Tree_node@U?$pair@$$CBIPAUClientContext@@@std@@PAX@std@@@?$allocator@U?$_Tree_node@U?$pair@$$CBIPAUClientContext@@@std@@PAX@std@@@std@@QAEXPAPAU?$_Tree_node@U?$pair@$$CBIPAUClientContext@@@std@@PAX@1@@Z 10001ec0 f i IOCPS.obj
 0001:00000ec0       ??$destroy@PAU?$_Tree_node@U?$pair@$$CBIPAVCIOCPBuffer@@@std@@PAX@std@@@?$allocator@U?$_Tree_node@U?$pair@$$CBIPAVCIOCPBuffer@@@std@@PAX@std@@@std@@QAEXPAPAU?$_Tree_node@U?$pair@$$CBIPAVCIOCPBuffer@@@std@@PAX@1@@Z 10001ec0 f i IOCPS.obj
 0001:00000ec0       ??$destroy@PAX@?$allocator@U?$_List_node@PAXPAX@std@@@std@@QAEXPAPAX@Z 10001ec0 f i IOCPS.obj
 0001:00000ec0       ??$destroy@PAUClientContext@@@?$allocator@U?$_List_node@PAUClientContext@@PAX@std@@@std@@QAEXPAPAUClientContext@@@Z 10001ec0 f i IOCPS.obj
 0001:00000ec0       ?NotifyNewClientContext@IOCPS@@MAEXPAUClientContext@@@Z 10001ec0 f i IOCPS.obj
 0001:00000ec0       ??$destroy@U?$pair@$$CBIPAVCIOCPBuffer@@@std@@@?$allocator@U?$_Tree_node@U?$pair@$$CBIPAVCIOCPBuffer@@@std@@PAX@std@@@std@@QAEXPAU?$pair@$$CBIPAVCIOCPBuffer@@@1@@Z 10001ec0 f i IOCPS.obj
 0001:00000ec0       ??$destroy@U?$pair@$$CBGPAX@std@@@?$allocator@U?$_Tree_node@U?$pair@$$CBGPAX@std@@PAX@std@@@std@@QAEXPAU?$pair@$$CBGPAX@1@@Z 10001ec0 f i IOCPS.obj
 0001:00000ec0       ??$destroy@PAD@?$allocator@D@std@@QAEXPAPAD@Z 10001ec0 f i IOCPBuffer.obj
 0001:00000ec0       ??$destroy@PAU?$_List_node@PAUJobItem@@PAX@std@@@?$allocator@U?$_List_node@PAUJobItem@@PAX@std@@@std@@QAEXPAPAU?$_List_node@PAUJobItem@@PAX@1@@Z 10001ec0 f i IOCPS.obj
 0001:00000ec0       ??$destroy@PAU?$_List_node@PAXPAX@std@@@?$allocator@U?$_List_node@PAXPAX@std@@@std@@QAEXPAPAU?$_List_node@PAXPAX@1@@Z 10001ec0 f i IOCPS.obj
 0001:00000ec0       ??$destroy@PAU?$_Tree_node@U?$pair@$$CBGPAX@std@@PAX@std@@@?$allocator@U?$_Tree_node@U?$pair@$$CBGPAX@std@@PAX@std@@@std@@QAEXPAPAU?$_Tree_node@U?$pair@$$CBGPAX@std@@PAX@1@@Z 10001ec0 f i IOCPS.obj
 0001:00000ec0       ?NotifyDisconnectedClient@IOCPS@@MAEXPAUClientContext@@@Z 10001ec0 f i IOCPS.obj
 0001:00000ec0       ?NotifyContextRelease@IOCPS@@MAEXPAUClientContext@@@Z 10001ec0 f i IOCPS.obj
 0001:00000ec0       ??$destroy@PAUJobItem@@@?$allocator@U?$_List_node@PAUJobItem@@PAX@std@@@std@@QAEXPAPAUJobItem@@@Z 10001ec0 f i IOCPS.obj
 0001:00000ed0       ??$construct@PADAAPAD@?$allocator@D@std@@QAEXPAPADAAPAD@Z 10001ed0 f i IOCPBuffer.obj
 0001:00000ed0       ??$construct@PAVCIOCPBuffer@@ABQAV1@@?$allocator@U?$_List_node@PAVCIOCPBuffer@@PAX@std@@@std@@QAEXPAPAVCIOCPBuffer@@ABQAV2@@Z 10001ed0 f i IOCPS.obj
 0001:00000ed0       ??$construct@PAU?$_Tree_node@U?$pair@$$CBGPAX@std@@PAX@std@@AAPAU12@@?$allocator@U?$_Tree_node@U?$pair@$$CBGPAX@std@@PAX@std@@@std@@QAEXPAPAU?$_Tree_node@U?$pair@$$CBGPAX@std@@PAX@1@AAPAU21@@Z 10001ed0 f i IOCPS.obj
 0001:00000ed0       ??$construct@PAUClientContext@@ABQAU1@@?$allocator@U?$_List_node@PAUClientContext@@PAX@std@@@std@@QAEXPAPAUClientContext@@ABQAU2@@Z 10001ed0 f i IOCPS.obj
 0001:00000ed0       ??$construct@PAU?$_List_node@PAVCIOCPBuffer@@PAX@std@@AAPAU12@@?$allocator@U?$_List_node@PAVCIOCPBuffer@@PAX@std@@@std@@QAEXPAPAU?$_List_node@PAVCIOCPBuffer@@PAX@1@AAPAU21@@Z 10001ed0 f i IOCPS.obj
 0001:00000ed0       ??$construct@PAU?$_Tree_node@U?$pair@$$CBIPAVCIOCPBuffer@@@std@@PAX@std@@AAPAU12@@?$allocator@U?$_Tree_node@U?$pair@$$CBIPAVCIOCPBuffer@@@std@@PAX@std@@@std@@QAEXPAPAU?$_Tree_node@U?$pair@$$CBIPAVCIOCPBuffer@@@std@@PAX@1@AAPAU21@@Z 10001ed0 f i IOCPS.obj
 0001:00000ed0       ??$construct@PAXABQAX@?$allocator@U?$_List_node@PAXPAX@std@@@std@@QAEXPAPAXABQAX@Z 10001ed0 f i IOCPS.obj
 0001:00000ed0       ??$construct@PAU?$_List_node@PAXPAX@std@@AAPAU12@@?$allocator@U?$_List_node@PAXPAX@std@@@std@@QAEXPAPAU?$_List_node@PAXPAX@1@AAPAU21@@Z 10001ed0 f i IOCPS.obj
 0001:00000ed0       ??$construct@PAU?$_Tree_node@U?$pair@$$CBIPAUClientContext@@@std@@PAX@std@@AAPAU12@@?$allocator@U?$_Tree_node@U?$pair@$$CBIPAUClientContext@@@std@@PAX@std@@@std@@QAEXPAPAU?$_Tree_node@U?$pair@$$CBIPAUClientContext@@@std@@PAX@1@AAPAU21@@Z 10001ed0 f i IOCPS.obj
 0001:00000ed0       ??$construct@PAU?$_List_node@PAUClientContext@@PAX@std@@AAPAU12@@?$allocator@U?$_List_node@PAUClientContext@@PAX@std@@@std@@QAEXPAPAU?$_List_node@PAUClientContext@@PAX@1@AAPAU21@@Z 10001ed0 f i IOCPS.obj
 0001:00000ed0       ??$construct@PAU?$_List_node@PAUJobItem@@PAX@std@@AAPAU12@@?$allocator@U?$_List_node@PAUJobItem@@PAX@std@@@std@@QAEXPAPAU?$_List_node@PAUJobItem@@PAX@1@AAPAU21@@Z 10001ed0 f i IOCPS.obj
 0001:00000f20       ??2@YAPAXIPAX@Z            10001f20 f i IOCPBuffer.obj
 0001:00000f30       ?_Allocate@std@@YAPAXII_N@Z 10001f30 f i IOCPBuffer.obj
 0001:00000ff0       ?_Deallocate@std@@YAXPAXII@Z 10001ff0 f i IOCPBuffer.obj
 0001:00001090       ?assign@?$char_traits@D@std@@SAXAADABD@Z 10002090 f i IOCPBuffer.obj
 0001:000010a0       ?move@?$char_traits@D@std@@SAPADPADPBDI@Z 100020a0 f i IOCPBuffer.obj
 0001:000010e0       ?copy@?$char_traits@D@std@@SAPADPADPBDI@Z 100020e0 f i IOCPBuffer.obj
 0001:00001110       ?length@?$char_traits@D@std@@SAIPBD@Z 10002110 f i IOCPBuffer.obj
 0001:00001160       ?c_str@?$basic_string@DU?$char_traits@D@std@@V?$allocator@D@2@@std@@QBEPBDXZ 10002160 f i IOCPBuffer.obj
 0001:000011a0       ??1Socket@@UAE@XZ          100021a0 f i IOCPS.obj
 0001:000011c0       ??_GSocket@@UAEPAXI@Z      100021c0 f i IOCPS.obj
 0001:000011c0       ??_ESocket@@UAEPAXI@Z      100021c0 f i * CIL library *:* CIL module *
 0001:000011f0       ??0IOCPS@@QAE@XZ           100021f0 f   IOCPS.obj
 0001:00001490       ??_GIOCPS@@UAEPAXI@Z       10002490 f i IOCPS.obj
 0001:00001490       ??_EIOCPS@@UAEPAXI@Z       10002490 f i * CIL library *:* CIL module *
 0001:000014d0       ??0Socket@@QAE@XZ          100024d0 f i IOCPS.obj
 0001:000014f0       ??1?$map@IPAUClientContext@@U?$less@I@std@@V?$allocator@U?$pair@$$CBIPAUClientContext@@@std@@@3@@std@@QAE@XZ 100024f0 f i IOCPS.obj
 0001:000014f0       ??1?$map@GPAXU?$less@G@std@@V?$allocator@U?$pair@$$CBGPAX@std@@@2@@std@@QAE@XZ 100024f0 f i IOCPS.obj
 0001:000014f0       ??1?$map@IPAVCIOCPBuffer@@U?$less@I@std@@V?$allocator@U?$pair@$$CBIPAVCIOCPBuffer@@@std@@@3@@std@@QAE@XZ 100024f0 f i IOCPS.obj
 0001:00001510       ??1IOCPS@@UAE@XZ           10002510 f   IOCPS.obj
 0001:000015e0       ?Start@IOCPS@@UAEHHHHHHHHHH@Z 100025e0 f   IOCPS.obj
 0001:00001690       ?Startup@IOCPS@@QAEHXZ     10002690 f   IOCPS.obj
 0001:000017f0       ?ListnerThreadProc@IOCPS@@CGIPAX@Z 100027f0 f   IOCPS.obj
 0001:000019f0       ?IOWorkerThreadProc@IOCPS@@CGIPAX@Z 100029f0 f   IOCPS.obj
 0001:00001b90       ?AssociateIncomingClientWithContext@IOCPS@@AAEHI@Z 10002b90 f i IOCPS.obj
 0001:00002040       ?AssociateSocketWithCompletionPort@IOCPS@@AAEHIPAXK@Z 10003040 f i IOCPS.obj
 0001:00002090       ?AddClientContext@IOCPS@@AAEHPAUClientContext@@@Z 10003090 f i IOCPS.obj
 0001:00002160       ?FreeClientContext@IOCPS@@AAEXXZ 10003160 f i IOCPS.obj
 0001:00002410       ??_GClientContext@@QAEPAXI@Z 10003410 f i IOCPS.obj
 0001:00002440       ??1ClientContext@@QAE@XZ   10003440 f i IOCPS.obj
 0001:00002470       ?ProcessIOMessage@IOCPS@@AAEXPAVCIOCPBuffer@@PAUClientContext@@K@Z 10003470 f i IOCPS.obj
 0001:00002590       ?OnInitialize@IOCPS@@AAEXPAUClientContext@@KPAVCIOCPBuffer@@@Z 10003590 f i IOCPS.obj
 0001:00002620       ?OnRead@IOCPS@@AAEXPAUClientContext@@PAVCIOCPBuffer@@@Z 10003620 f i IOCPS.obj
 0001:00002880       ?OnPostedPackage@IOCPS@@AAEXPAUClientContext@@PAVCIOCPBuffer@@@Z 10003880 f i IOCPS.obj
 0001:00002920       ?OnReadCompleted@IOCPS@@AAEXPAUClientContext@@KPAVCIOCPBuffer@@@Z 10003920 f i IOCPS.obj
 0001:00002aa0       ?ProcessPackage@IOCPS@@AAEXPAUClientContext@@KPAVCIOCPBuffer@@@Z 10003aa0 f i IOCPS.obj
 0001:00002b00       ?OnWrite@IOCPS@@AAEXPAUClientContext@@KPAVCIOCPBuffer@@@Z 10003b00 f i IOCPS.obj
 0001:00002d40       ?OnWriteCompleted@IOCPS@@AAEXPAUClientContext@@KPAVCIOCPBuffer@@@Z 10003d40 f i IOCPS.obj
 0001:00002dc0       ?ASend@IOCPS@@QAEHHPAVCIOCPBuffer@@@Z 10003dc0 f   IOCPS.obj
 0001:00002e40       ?FindClient@IOCPS@@QAEPAUClientContext@@I@Z 10003e40 f   IOCPS.obj
 0001:00002e80       ?GetHostKeyName@IOCPS@@QAE?AV?$basic_string@DU?$char_traits@D@std@@V?$allocator@D@2@@std@@I@Z 10003e80 f   IOCPS.obj
 0001:00002f40       ?GetHostAddress@IOCPS@@QAE?AV?$basic_string@DU?$char_traits@D@std@@V?$allocator@D@2@@std@@I@Z 10003f40 f   IOCPS.obj
 0001:00003020       ?ASend@IOCPS@@IAEHPAUClientContext@@PAVCIOCPBuffer@@@Z 10004020 f   IOCPS.obj
 0001:00003100       ?DisconnectClient@IOCPS@@AAEXPAUClientContext@@H@Z 10004100 f i IOCPS.obj
 0001:00003270       ?DisconnectClient@IOCPS@@UAEXI@Z 10004270 f   IOCPS.obj
 0001:000032e0       ?ReleaseBufferMap@IOCPS@@AAEXPAV?$map@IPAVCIOCPBuffer@@U?$less@I@std@@V?$allocator@U?$pair@$$CBIPAVCIOCPBuffer@@@std@@@3@@std@@@Z 100042e0 f i IOCPS.obj
 0001:00003360       ?AbortiveClose@IOCPS@@AAEXPAUClientContext@@@Z 10004360 f i IOCPS.obj
 0001:00003450       ?ShutDown@IOCPS@@UAEXXZ    10004450 f   IOCPS.obj
 0001:00003550       ?OnZeroByteRead@IOCPS@@AAEXPAUClientContext@@PAVCIOCPBuffer@@@Z 10004550 f i IOCPS.obj
 0001:00003780       ?OnZeroByteReadCompleted@IOCPS@@AAEXPAUClientContext@@KPAVCIOCPBuffer@@@Z 10004780 f i IOCPS.obj
 0001:000037b0       ?ARead@IOCPS@@AAEHPAUClientContext@@PAVCIOCPBuffer@@@Z 100047b0 f i IOCPS.obj
 0001:00003880       ?AZeroByteRead@IOCPS@@AAEHPAUClientContext@@PAVCIOCPBuffer@@@Z 10004880 f i IOCPS.obj
 0001:00003a10       ?ErrorCode2Text@IOCPS@@IAE?AV?$basic_string@DU?$char_traits@D@std@@V?$allocator@D@2@@std@@K@Z 10004a10 f   IOCPS.obj
 0001:00003cc0       ?EnterIOLoop@IOCPS@@AAEXPAUClientContext@@@Z 10004cc0 f i IOCPS.obj
 0001:00003d00       ?ExitIOLoop@IOCPS@@AAEHPAUClientContext@@@Z 10004d00 f i IOCPS.obj
 0001:00003d60       ?DisconnectAll@IOCPS@@UAEXXZ 10004d60 f   IOCPS.obj
 0001:00003e10       ?ShutDownIOWorkers@IOCPS@@AAEXXZ 10004e10 f i IOCPS.obj
 0001:00003ef0       ?SetWorkers@IOCPS@@QAEHH@Z 10004ef0 f   IOCPS.obj
 0001:00004120       ?WorkerThreadProc@IOCPS@@CGIPAX@Z 10005120 f   IOCPS.obj
 0001:000041c0       ?GetWorker@IOCPS@@AAEPAXG@Z 100051c0 f   IOCPS.obj
 0001:00004210       ?ShutDownWorkers@IOCPS@@AAEXXZ 10005210 f i IOCPS.obj
 0001:000042f0       ?FreeJob@IOCPS@@QAEXPAUJobItem@@@Z 100052f0 f i IOCPS.obj
 0001:00004330       ??_GJobItem@@QAEPAXI@Z     10005330 f i IOCPS.obj
 0001:00004360       ??1JobItem@@QAE@XZ         10005360 f i IOCPS.obj
 0001:00004380       ?GetJob@IOCPS@@QAEPAUJobItem@@XZ 10005380 f   IOCPS.obj
 0001:000043f0       ?ProcessJob@IOCPS@@UAEXPAUJobItem@@PAV1@@Z 100053f0 f i IOCPS.obj
 0001:00004400       ?NotifyWriteCompleted@IOCPS@@MAEXPAUClientContext@@KPAVCIOCPBuffer@@@Z 10005400 f i IOCPS.obj
 0001:00004400       ?NotifyReceivedPackage@IOCPS@@MAEXPAVCIOCPBuffer@@HPAUClientContext@@@Z 10005400 f i IOCPS.obj
 0001:00004410       ?AllocateContext@IOCPS@@AAEPAUClientContext@@XZ 10005410 f i IOCPS.obj
 0001:000045c0       ??0ClientContext@@QAE@XZ   100055c0 f i IOCPS.obj
 0001:00004630       ?AllocateBuffer@IOCPS@@IAEPAVCIOCPBuffer@@H@Z 10005630 f   IOCPS.obj
 0001:000047f0       ?ReleaseBuffer@IOCPS@@IAEHPAVCIOCPBuffer@@@Z 100057f0 f   IOCPS.obj
 0001:000048d0       ?ReleaseClientContext@IOCPS@@AAEHPAUClientContext@@@Z 100058d0 f i IOCPS.obj
 0001:00004a30       ?FreeBuffers@IOCPS@@AAEXXZ 10005a30 f i IOCPS.obj
 0001:00004ba0       ?SetupListner@IOCPS@@AAEHXZ 10005ba0 f   IOCPS.obj
 0001:00005090       ?CreateCompletionPort@IOCPS@@AAEHXZ 10006090 f i IOCPS.obj
 0001:00005210       ?SetupIOWorkers@IOCPS@@AAEHXZ 10006210 f   IOCPS.obj
 0001:00005340       ?Connect@IOCPS@@UAEHABV?$basic_string@DU?$char_traits@D@std@@V?$allocator@D@2@@std@@H@Z 10006340 f   IOCPS.obj
 0001:00005540       ?GetNextSendBuffer@IOCPS@@AAEPAVCIOCPBuffer@@PAUClientContext@@PAV2@@Z 10006540 f i IOCPS.obj
 0001:00005650       ?SetSendSequenceNumber@IOCPS@@AAEXPAUClientContext@@PAVCIOCPBuffer@@@Z 10006650 f i IOCPS.obj
 0001:000056b0       ?GetNextReadBuffer@IOCPS@@AAEPAVCIOCPBuffer@@PAUClientContext@@PAV2@@Z 100066b0 f i IOCPS.obj
 0001:00005810       ?MakeOrderdRead@IOCPS@@AAEXPAUClientContext@@PAVCIOCPBuffer@@@Z 10006810 f i IOCPS.obj
 0001:00005990       ?IncreaseReadSequenceNumber@IOCPS@@AAEXPAUClientContext@@@Z 10006990 f i IOCPS.obj
 0001:000059e0       ?IncreaseSendSequenceNumber@IOCPS@@AAEXPAUClientContext@@@Z 100069e0 f i IOCPS.obj
 0001:00005a30       ?AppendLog@IOCPS@@MAEXV?$basic_string@DU?$char_traits@D@std@@V?$allocator@D@2@@std@@@Z 10006a30 f   IOCPS.obj
 0001:00005a30       ?AppendLog@ITIOCP@@UAEXV?$basic_string@DU?$char_traits@D@std@@V?$allocator@D@2@@std@@@Z 10006a30 f   MyIOCP.obj
 0001:00005a50       ?RegisterEvents@IOCPS@@UAEXPAVISocketEvents@@@Z 10006a50 f   IOCPS.obj
 0001:00005a70       ??E?$_Tree_iterator@V?$_Tree_val@U?$_Tree_simple_types@U?$pair@$$CBIPAVCIOCPBuffer@@@std@@@std@@@std@@@std@@QAE?AV01@H@Z 10006a70 f i IOCPS.obj
 0001:00005a70       ??E?$_Tree_iterator@V?$_Tree_val@U?$_Tree_simple_types@U?$pair@$$CBGPAX@std@@@std@@@std@@@std@@QAE?AV01@H@Z 10006a70 f i IOCPS.obj
 0001:00005a70       ??E?$_Tree_iterator@V?$_Tree_val@U?$_Tree_simple_types@U?$pair@$$CBIPAUClientContext@@@std@@@std@@@std@@@std@@QAE?AV01@H@Z 10006a70 f i IOCPS.obj
 0001:00005aa0       ??D?$_Tree_iterator@V?$_Tree_val@U?$_Tree_simple_types@U?$pair@$$CBIPAVCIOCPBuffer@@@std@@@std@@@std@@@std@@QBEAAU?$pair@$$CBIPAVCIOCPBuffer@@@1@XZ 10006aa0 f i IOCPS.obj
 0001:00005aa0       ??D?$_Tree_iterator@V?$_Tree_val@U?$_Tree_simple_types@U?$pair@$$CBIPAUClientContext@@@std@@@std@@@std@@@std@@QBEAAU?$pair@$$CBIPAUClientContext@@@1@XZ 10006aa0 f i IOCPS.obj
 0001:00005aa0       ??D?$_Tree_iterator@V?$_Tree_val@U?$_Tree_simple_types@U?$pair@$$CBGPAX@std@@@std@@@std@@@std@@QBEAAU?$pair@$$CBGPAX@1@XZ 10006aa0 f i IOCPS.obj
 0001:00005ac0       ??9?$_List_const_iterator@V?$_List_val@U?$_List_simple_types@PAUClientContext@@@std@@@std@@@std@@QBE_NABV01@@Z 10006ac0 f i IOCPS.obj
 0001:00005ac0       ??9?$_Tree_const_iterator@V?$_Tree_val@U?$_Tree_simple_types@U?$pair@$$CBIPAUClientContext@@@std@@@std@@@std@@@std@@QBE_NABV01@@Z 10006ac0 f i IOCPS.obj
 0001:00005ac0       ??9?$_Tree_const_iterator@V?$_Tree_val@U?$_Tree_simple_types@U?$pair@$$CBIPAVCIOCPBuffer@@@std@@@std@@@std@@@std@@QBE_NABV01@@Z 10006ac0 f i IOCPS.obj
 0001:00005ac0       ??9?$_List_const_iterator@V?$_List_val@U?$_List_simple_types@PAUJobItem@@@std@@@std@@@std@@QBE_NABV01@@Z 10006ac0 f i IOCPS.obj
 0001:00005ac0       ??9?$_List_const_iterator@V?$_List_val@U?$_List_simple_types@PAX@std@@@std@@@std@@QBE_NABV01@@Z 10006ac0 f i IOCPS.obj
 0001:00005ac0       ??9?$_Tree_const_iterator@V?$_Tree_val@U?$_Tree_simple_types@U?$pair@$$CBGPAX@std@@@std@@@std@@@std@@QBE_NABV01@@Z 10006ac0 f i IOCPS.obj
 0001:00005ac0       ??9?$_List_const_iterator@V?$_List_val@U?$_List_simple_types@PAVCIOCPBuffer@@@std@@@std@@@std@@QBE_NABV01@@Z 10006ac0 f i IOCPS.obj
 0001:00005b00       ?find@?$_Tree@V?$_Tmap_traits@IPAUClientContext@@U?$less@I@std@@V?$allocator@U?$pair@$$CBIPAUClientContext@@@std@@@3@$0A@@std@@@std@@QAE?AV?$_Tree_iterator@V?$_Tree_val@U?$_Tree_simple_types@U?$pair@$$CBIPAUClientContext@@@std@@@std@@@std@@@2@ABI@Z 10006b00 f i IOCPS.obj
 0001:00005b00       ?find@?$_Tree@V?$_Tmap_traits@IPAVCIOCPBuffer@@U?$less@I@std@@V?$allocator@U?$pair@$$CBIPAVCIOCPBuffer@@@std@@@3@$0A@@std@@@std@@QAE?AV?$_Tree_iterator@V?$_Tree_val@U?$_Tree_simple_types@U?$pair@$$CBIPAVCIOCPBuffer@@@std@@@std@@@std@@@2@ABI@Z 10006b00 f i IOCPS.obj
 0001:00005ba0       ?clear@?$_Tree@V?$_Tmap_traits@GPAXU?$less@G@std@@V?$allocator@U?$pair@$$CBGPAX@std@@@2@$0A@@std@@@std@@QAEXXZ 10006ba0 f i IOCPS.obj
 0001:00005ba0       ?clear@?$_Tree@V?$_Tmap_traits@IPAUClientContext@@U?$less@I@std@@V?$allocator@U?$pair@$$CBIPAUClientContext@@@std@@@3@$0A@@std@@@std@@QAEXXZ 10006ba0 f i IOCPS.obj
 0001:00005ba0       ?clear@?$_Tree@V?$_Tmap_traits@IPAVCIOCPBuffer@@U?$less@I@std@@V?$allocator@U?$pair@$$CBIPAVCIOCPBuffer@@@std@@@3@$0A@@std@@@std@@QAEXXZ 10006ba0 f i IOCPS.obj
 0001:00005c40       ?erase@?$_Tree@V?$_Tmap_traits@IPAUClientContext@@U?$less@I@std@@V?$allocator@U?$pair@$$CBIPAUClientContext@@@std@@@3@$0A@@std@@@std@@QAE?AV?$_Tree_iterator@V?$_Tree_val@U?$_Tree_simple_types@U?$pair@$$CBIPAUClientContext@@@std@@@std@@@std@@@2@V?$_Tree_const_iterator@V?$_Tree_val@U?$_Tree_simple_types@U?$pair@$$CBIPAUClientContext@@@std@@@std@@@std@@@2@@Z 10006c40 f i IOCPS.obj
 0001:00005c40       ?erase@?$_Tree@V?$_Tmap_traits@GPAXU?$less@G@std@@V?$allocator@U?$pair@$$CBGPAX@std@@@2@$0A@@std@@@std@@QAE?AV?$_Tree_iterator@V?$_Tree_val@U?$_Tree_simple_types@U?$pair@$$CBGPAX@std@@@std@@@std@@@2@V?$_Tree_const_iterator@V?$_Tree_val@U?$_Tree_simple_types@U?$pair@$$CBGPAX@std@@@std@@@std@@@2@@Z 10006c40 f i IOCPS.obj
 0001:00005c40       ?erase@?$_Tree@V?$_Tmap_traits@IPAVCIOCPBuffer@@U?$less@I@std@@V?$allocator@U?$pair@$$CBIPAVCIOCPBuffer@@@std@@@3@$0A@@std@@@std@@QAE?AV?$_Tree_iterator@V?$_Tree_val@U?$_Tree_simple_types@U?$pair@$$CBIPAVCIOCPBuffer@@@std@@@std@@@std@@@2@V?$_Tree_const_iterator@V?$_Tree_val@U?$_Tree_simple_types@U?$pair@$$CBIPAVCIOCPBuffer@@@std@@@std@@@std@@@2@@Z 10006c40 f i IOCPS.obj
 0001:000063c0       ?empty@?$_Tree@V?$_Tmap_traits@IPAUClientContext@@U?$less@I@std@@V?$allocator@U?$pair@$$CBIPAUClientContext@@@std@@@3@$0A@@std@@@std@@QBE_NXZ 100073c0 f i IOCPS.obj
 0001:000063c0       ?empty@?$_Tree@V?$_Tmap_traits@IPAVCIOCPBuffer@@U?$less@I@std@@V?$allocator@U?$pair@$$CBIPAVCIOCPBuffer@@@std@@@3@$0A@@std@@@std@@QBE_NXZ 100073c0 f i IOCPS.obj
 0001:000063f0       ?size@?$_Tree@V?$_Tmap_traits@IPAUClientContext@@U?$less@I@std@@V?$allocator@U?$pair@$$CBIPAUClientContext@@@std@@@3@$0A@@std@@@std@@QBEIXZ 100073f0 f i IOCPS.obj
 0001:000063f0       ?size@?$_Tree@V?$_Tmap_traits@IPAVCIOCPBuffer@@U?$less@I@std@@V?$allocator@U?$pair@$$CBIPAVCIOCPBuffer@@@std@@@3@$0A@@std@@@std@@QBEIXZ 100073f0 f i IOCPS.obj
 0001:000063f0       ?size@?$_Tree@V?$_Tmap_traits@GPAXU?$less@G@std@@V?$allocator@U?$pair@$$CBGPAX@std@@@2@$0A@@std@@@std@@QBEIXZ 100073f0 f i IOCPS.obj
 0001:00006410       ?end@?$_Tree@V?$_Tmap_traits@GPAXU?$less@G@std@@V?$allocator@U?$pair@$$CBGPAX@std@@@2@$0A@@std@@@std@@QAE?AV?$_Tree_iterator@V?$_Tree_val@U?$_Tree_simple_types@U?$pair@$$CBGPAX@std@@@std@@@std@@@2@XZ 10007410 f i IOCPS.obj
 0001:00006410       ?end@?$_Tree@V?$_Tmap_traits@IPAUClientContext@@U?$less@I@std@@V?$allocator@U?$pair@$$CBIPAUClientContext@@@std@@@3@$0A@@std@@@std@@QAE?AV?$_Tree_iterator@V?$_Tree_val@U?$_Tree_simple_types@U?$pair@$$CBIPAUClientContext@@@std@@@std@@@std@@@2@XZ 10007410 f i IOCPS.obj
 0001:00006410       ?end@?$_Tree@V?$_Tmap_traits@IPAVCIOCPBuffer@@U?$less@I@std@@V?$allocator@U?$pair@$$CBIPAVCIOCPBuffer@@@std@@@3@$0A@@std@@@std@@QAE?AV?$_Tree_iterator@V?$_Tree_val@U?$_Tree_simple_types@U?$pair@$$CBIPAVCIOCPBuffer@@@std@@@std@@@std@@@2@XZ 10007410 f i IOCPS.obj
 0001:00006470       ?begin@?$_Tree@V?$_Tmap_traits@GPAXU?$less@G@std@@V?$allocator@U?$pair@$$CBGPAX@std@@@2@$0A@@std@@@std@@QAE?AV?$_Tree_iterator@V?$_Tree_val@U?$_Tree_simple_types@U?$pair@$$CBGPAX@std@@@std@@@std@@@2@XZ 10007470 f i IOCPS.obj
 0001:00006470       ?begin@?$_Tree@V?$_Tmap_traits@IPAVCIOCPBuffer@@U?$less@I@std@@V?$allocator@U?$pair@$$CBIPAVCIOCPBuffer@@@std@@@3@$0A@@std@@@std@@QAE?AV?$_Tree_iterator@V?$_Tree_val@U?$_Tree_simple_types@U?$pair@$$CBIPAVCIOCPBuffer@@@std@@@std@@@std@@@2@XZ 10007470 f i IOCPS.obj
 0001:00006470       ?begin@?$_Tree@V?$_Tmap_traits@IPAUClientContext@@U?$less@I@std@@V?$allocator@U?$pair@$$CBIPAUClientContext@@@std@@@3@$0A@@std@@@std@@QAE?AV?$_Tree_iterator@V?$_Tree_val@U?$_Tree_simple_types@U?$pair@$$CBIPAUClientContext@@@std@@@std@@@std@@@2@XZ 10007470 f i IOCPS.obj
 0001:000064d0       ??1?$_Tree@V?$_Tmap_traits@IPAUClientContext@@U?$less@I@std@@V?$allocator@U?$pair@$$CBIPAUClientContext@@@std@@@3@$0A@@std@@@std@@QAE@XZ 100074d0 f i IOCPS.obj
 0001:000064d0       ??1?$_Tree@V?$_Tmap_traits@IPAVCIOCPBuffer@@U?$less@I@std@@V?$allocator@U?$pair@$$CBIPAVCIOCPBuffer@@@std@@@3@$0A@@std@@@std@@QAE@XZ 100074d0 f i IOCPS.obj
 0001:000064d0       ??1?$_Tree@V?$_Tmap_traits@GPAXU?$less@G@std@@V?$allocator@U?$pair@$$CBGPAX@std@@@2@$0A@@std@@@std@@QAE@XZ 100074d0 f i IOCPS.obj
 0001:00006520       ??A?$map@GPAXU?$less@G@std@@V?$allocator@U?$pair@$$CBGPAX@std@@@2@@std@@QAEAAPAXABG@Z 10007520 f i IOCPS.obj
 0001:00006550       ??0?$map@GPAXU?$less@G@std@@V?$allocator@U?$pair@$$CBGPAX@std@@@2@@std@@QAE@XZ 10007550 f i IOCPS.obj
 0001:00006550       ??0?$map@IPAUClientContext@@U?$less@I@std@@V?$allocator@U?$pair@$$CBIPAUClientContext@@@std@@@3@@std@@QAE@XZ 10007550 f i IOCPS.obj
 0001:00006550       ??0?$map@IPAVCIOCPBuffer@@U?$less@I@std@@V?$allocator@U?$pair@$$CBIPAVCIOCPBuffer@@@std@@@3@@std@@QAE@XZ 10007550 f i IOCPS.obj
 0001:00006570       ??E?$_List_iterator@V?$_List_val@U?$_List_simple_types@PAUJobItem@@@std@@@std@@@std@@QAE?AV01@H@Z 10007570 f i IOCPS.obj
 0001:00006570       ??E?$_List_iterator@V?$_List_val@U?$_List_simple_types@PAX@std@@@std@@@std@@QAE?AV01@H@Z 10007570 f i IOCPS.obj
 0001:00006570       ??E?$_List_iterator@V?$_List_val@U?$_List_simple_types@PAUClientContext@@@std@@@std@@@std@@QAE?AV01@H@Z 10007570 f i IOCPS.obj
 0001:00006570       ??E?$_List_iterator@V?$_List_val@U?$_List_simple_types@PAVCIOCPBuffer@@@std@@@std@@@std@@QAE?AV01@H@Z 10007570 f i IOCPS.obj
 0001:000065a0       ??D?$_List_iterator@V?$_List_val@U?$_List_simple_types@PAVCIOCPBuffer@@@std@@@std@@@std@@QBEAAPAVCIOCPBuffer@@XZ 100075a0 f i IOCPS.obj
 0001:000065a0       ??D?$_List_iterator@V?$_List_val@U?$_List_simple_types@PAX@std@@@std@@@std@@QBEAAPAXXZ 100075a0 f i IOCPS.obj
 0001:000065a0       ??D?$_List_iterator@V?$_List_val@U?$_List_simple_types@PAUJobItem@@@std@@@std@@@std@@QBEAAPAUJobItem@@XZ 100075a0 f i IOCPS.obj
 0001:000065a0       ??D?$_List_iterator@V?$_List_val@U?$_List_simple_types@PAUClientContext@@@std@@@std@@@std@@QBEAAPAUClientContext@@XZ 100075a0 f i IOCPS.obj
 0001:000065c0       ?clear@?$list@PAUClientContext@@V?$allocator@PAUClientContext@@@std@@@std@@QAEXXZ 100075c0 f i IOCPS.obj
 0001:000065c0       ?clear@?$list@PAXV?$allocator@PAX@std@@@std@@QAEXXZ 100075c0 f i IOCPS.obj
 0001:000065c0       ?clear@?$list@PAVCIOCPBuffer@@V?$allocator@PAVCIOCPBuffer@@@std@@@std@@QAEXXZ 100075c0 f i IOCPS.obj
 0001:000065c0       ?clear@?$list@PAUJobItem@@V?$allocator@PAUJobItem@@@std@@@std@@QAEXXZ 100075c0 f i IOCPS.obj
 0001:000066a0       ?pop_back@?$list@PAUJobItem@@V?$allocator@PAUJobItem@@@std@@@std@@QAEXXZ 100076a0 f i IOCPS.obj
 0001:000066e0       ?back@?$list@PAUJobItem@@V?$allocator@PAUJobItem@@@std@@@std@@QAEAAPAUJobItem@@XZ 100076e0 f i IOCPS.obj
 0001:00006710       ?empty@?$list@PAUClientContext@@V?$allocator@PAUClientContext@@@std@@@std@@QBE_NXZ 10007710 f i IOCPS.obj
 0001:00006710       ?empty@?$list@PAUJobItem@@V?$allocator@PAUJobItem@@@std@@@std@@QBE_NXZ 10007710 f i IOCPS.obj
 0001:00006710       ?empty@?$list@PAVCIOCPBuffer@@V?$allocator@PAVCIOCPBuffer@@@std@@@std@@QBE_NXZ 10007710 f i IOCPS.obj
 0001:00006740       ?end@?$list@PAUClientContext@@V?$allocator@PAUClientContext@@@std@@@std@@QAE?AV?$_List_iterator@V?$_List_val@U?$_List_simple_types@PAUClientContext@@@std@@@std@@@2@XZ 10007740 f i IOCPS.obj
 0001:00006740       ?end@?$list@PAXV?$allocator@PAX@std@@@std@@QAE?AV?$_List_iterator@V?$_List_val@U?$_List_simple_types@PAX@std@@@std@@@2@XZ 10007740 f i IOCPS.obj
 0001:00006740       ?end@?$list@PAVCIOCPBuffer@@V?$allocator@PAVCIOCPBuffer@@@std@@@std@@QAE?AV?$_List_iterator@V?$_List_val@U?$_List_simple_types@PAVCIOCPBuffer@@@std@@@std@@@2@XZ 10007740 f i IOCPS.obj
 0001:00006740       ?end@?$list@PAUJobItem@@V?$allocator@PAUJobItem@@@std@@@std@@QAE?AV?$_List_iterator@V?$_List_val@U?$_List_simple_types@PAUJobItem@@@std@@@std@@@2@XZ 10007740 f i IOCPS.obj
 0001:000067a0       ?begin@?$list@PAUClientContext@@V?$allocator@PAUClientContext@@@std@@@std@@QAE?AV?$_List_iterator@V?$_List_val@U?$_List_simple_types@PAUClientContext@@@std@@@std@@@2@XZ 100077a0 f i IOCPS.obj
 0001:000067a0       ?begin@?$list@PAVCIOCPBuffer@@V?$allocator@PAVCIOCPBuffer@@@std@@@std@@QAE?AV?$_List_iterator@V?$_List_val@U?$_List_simple_types@PAVCIOCPBuffer@@@std@@@std@@@2@XZ 100077a0 f i IOCPS.obj
 0001:000067a0       ?begin@?$list@PAXV?$allocator@PAX@std@@@std@@QAE?AV?$_List_iterator@V?$_List_val@U?$_List_simple_types@PAX@std@@@std@@@2@XZ 100077a0 f i IOCPS.obj
 0001:000067a0       ?begin@?$list@PAUJobItem@@V?$allocator@PAUJobItem@@@std@@@std@@QAE?AV?$_List_iterator@V?$_List_val@U?$_List_simple_types@PAUJobItem@@@std@@@std@@@2@XZ 100077a0 f i IOCPS.obj
 0001:00006810       ??1?$list@PAUClientContext@@V?$allocator@PAUClientContext@@@std@@@std@@QAE@XZ 10007810 f i IOCPS.obj
 0001:00006810       ??1?$list@PAVCIOCPBuffer@@V?$allocator@PAVCIOCPBuffer@@@std@@@std@@QAE@XZ 10007810 f i IOCPS.obj
 0001:00006810       ??1?$list@PAUJobItem@@V?$allocator@PAUJobItem@@@std@@@std@@QAE@XZ 10007810 f i IOCPS.obj
 0001:00006810       ??1?$list@PAXV?$allocator@PAX@std@@@std@@QAE@XZ 10007810 f i IOCPS.obj
 0001:00006860       ??0?$list@PAUJobItem@@V?$allocator@PAUJobItem@@@std@@@std@@QAE@XZ 10007860 f i IOCPS.obj
 0001:00006860       ??0?$list@PAXV?$allocator@PAX@std@@@std@@QAE@XZ 10007860 f i IOCPS.obj
 0001:00006860       ??0?$list@PAUClientContext@@V?$allocator@PAUClientContext@@@std@@@std@@QAE@XZ 10007860 f i IOCPS.obj
 0001:00006860       ??0?$list@PAVCIOCPBuffer@@V?$allocator@PAVCIOCPBuffer@@@std@@@std@@QAE@XZ 10007860 f i IOCPS.obj
 0001:00006880       ?pop_front@?$list@PAVCIOCPBuffer@@V?$allocator@PAVCIOCPBuffer@@@std@@@std@@QAEXXZ 10007880 f i IOCPS.obj
 0001:00006880       ?pop_front@?$list@PAUClientContext@@V?$allocator@PAUClientContext@@@std@@@std@@QAEXXZ 10007880 f i IOCPS.obj
 0001:000068b0       ?push_front@?$list@PAXV?$allocator@PAX@std@@@std@@QAEXABQAX@Z 100078b0 f i IOCPS.obj
 0001:000068b0       ?push_front@?$list@PAUClientContext@@V?$allocator@PAUClientContext@@@std@@@std@@QAEXABQAUClientContext@@@Z 100078b0 f i IOCPS.obj
 0001:000068b0       ?push_front@?$list@PAVCIOCPBuffer@@V?$allocator@PAVCIOCPBuffer@@@std@@@std@@QAEXABQAVCIOCPBuffer@@@Z 100078b0 f i IOCPS.obj
 0001:000068e0       ?front@?$list@PAUClientContext@@V?$allocator@PAUClientContext@@@std@@@std@@QAEAAPAUClientContext@@XZ 100078e0 f i IOCPS.obj
 0001:000068e0       ?front@?$list@PAVCIOCPBuffer@@V?$allocator@PAVCIOCPBuffer@@@std@@@std@@QAEAAPAVCIOCPBuffer@@XZ 100078e0 f i IOCPS.obj
 0001:00006900       ?size@?$list@PAUClientContext@@V?$allocator@PAUClientContext@@@std@@@std@@QBEIXZ 10007900 f i IOCPS.obj
 0001:00006900       ?size@?$list@PAXV?$allocator@PAX@std@@@std@@QBEIXZ 10007900 f i IOCPS.obj
 0001:00006900       ?size@?$list@PAVCIOCPBuffer@@V?$allocator@PAVCIOCPBuffer@@@std@@@std@@QBEIXZ 10007900 f i IOCPS.obj
 0001:00006920       ??A?$map@IPAVCIOCPBuffer@@U?$less@I@std@@V?$allocator@U?$pair@$$CBIPAVCIOCPBuffer@@@std@@@3@@std@@QAEAAPAVCIOCPBuffer@@ABI@Z 10007920 f i IOCPS.obj
 0001:00006920       ??A?$map@IPAUClientContext@@U?$less@I@std@@V?$allocator@U?$pair@$$CBIPAUClientContext@@@std@@@3@@std@@QAEAAPAUClientContext@@ABI@Z 10007920 f i IOCPS.obj
 0001:00006950       ?remove@?$list@PAVCIOCPBuffer@@V?$allocator@PAVCIOCPBuffer@@@std@@@std@@QAEXABQAVCIOCPBuffer@@@Z 10007950 f i IOCPS.obj
 0001:00006a40       ?empty@?$basic_string@DU?$char_traits@D@std@@V?$allocator@D@2@@std@@QBE_NXZ 10007a40 f i IOCPS.obj
 0001:00006a70       ??0?$basic_string@DU?$char_traits@D@std@@V?$allocator@D@2@@std@@QAE@$$QAV01@@Z 10007a70 f i IOCPS.obj
 0001:00006af0       ??0?$basic_string@DU?$char_traits@D@std@@V?$allocator@D@2@@std@@QAE@PBD@Z 10007af0 f i IOCPS.obj
 0001:00006b60       ??0?$basic_string@DU?$char_traits@D@std@@V?$allocator@D@2@@std@@QAE@XZ 10007b60 f i IOCPS.obj
 0001:00006bb0       ??1?$_List_buy@PAUJobItem@@V?$allocator@PAUJobItem@@@std@@@std@@QAE@XZ 10007bb0 f i IOCPS.obj
 0001:00006bb0       ??1?$_List_buy@PAVCIOCPBuffer@@V?$allocator@PAVCIOCPBuffer@@@std@@@std@@QAE@XZ 10007bb0 f i IOCPS.obj
 0001:00006bb0       ??1?$_List_buy@PAXV?$allocator@PAX@std@@@std@@QAE@XZ 10007bb0 f i IOCPS.obj
 0001:00006bb0       ??1?$_List_buy@PAUClientContext@@V?$allocator@PAUClientContext@@@std@@@std@@QAE@XZ 10007bb0 f i IOCPS.obj
 0001:00006bd0       ?_Mynode@?$_List_unchecked_const_iterator@V?$_List_val@U?$_List_simple_types@PAX@std@@@std@@U_Iterator_base0@2@@std@@QBEPAU?$_List_node@PAXPAX@2@XZ 10007bd0 f i IOCPS.obj
 0001:00006bd0       ?_Mynode@?$_List_unchecked_const_iterator@V?$_List_val@U?$_List_simple_types@PAUClientContext@@@std@@@std@@U_Iterator_base0@2@@std@@QBEPAU?$_List_node@PAUClientContext@@PAX@2@XZ 10007bd0 f i IOCPS.obj
 0001:00006bd0       ?_Mynode@?$_Tree_unchecked_const_iterator@V?$_Tree_val@U?$_Tree_simple_types@U?$pair@$$CBIPAVCIOCPBuffer@@@std@@@std@@@std@@U_Iterator_base0@2@@std@@QBEPAU?$_Tree_node@U?$pair@$$CBIPAVCIOCPBuffer@@@std@@PAX@2@XZ 10007bd0 f i IOCPS.obj
 0001:00006bd0       ?_Mynode@?$_List_unchecked_const_iterator@V?$_List_val@U?$_List_simple_types@PAVCIOCPBuffer@@@std@@@std@@U_Iterator_base0@2@@std@@QBEPAU?$_List_node@PAVCIOCPBuffer@@PAX@2@XZ 10007bd0 f i IOCPS.obj
 0001:00006bd0       ?_Mynode@?$_Tree_unchecked_const_iterator@V?$_Tree_val@U?$_Tree_simple_types@U?$pair@$$CBGPAX@std@@@std@@@std@@U_Iterator_base0@2@@std@@QBEPAU?$_Tree_node@U?$pair@$$CBGPAX@std@@PAX@2@XZ 10007bd0 f i IOCPS.obj
 0001:00006bd0       ?_Mynode@?$_Tree_unchecked_const_iterator@V?$_Tree_val@U?$_Tree_simple_types@U?$pair@$$CBIPAUClientContext@@@std@@@std@@@std@@U_Iterator_base0@2@@std@@QBEPAU?$_Tree_node@U?$pair@$$CBIPAUClientContext@@@std@@PAX@2@XZ 10007bd0 f i IOCPS.obj
 0001:00006bd0       ?_Mynode@?$_List_unchecked_const_iterator@V?$_List_val@U?$_List_simple_types@PAUJobItem@@@std@@@std@@U_Iterator_base0@2@@std@@QBEPAU?$_List_node@PAUJobItem@@PAX@2@XZ 10007bd0 f i IOCPS.obj
 0001:00006be0       ??E?$_Tree_iterator@V?$_Tree_val@U?$_Tree_simple_types@U?$pair@$$CBIPAVCIOCPBuffer@@@std@@@std@@@std@@@std@@QAEAAV01@XZ 10007be0 f i IOCPS.obj
 0001:00006be0       ??E?$_Tree_iterator@V?$_Tree_val@U?$_Tree_simple_types@U?$pair@$$CBGPAX@std@@@std@@@std@@@std@@QAEAAV01@XZ 10007be0 f i IOCPS.obj
 0001:00006be0       ??E?$_Tree_iterator@V?$_Tree_val@U?$_Tree_simple_types@U?$pair@$$CBIPAUClientContext@@@std@@@std@@@std@@@std@@QAEAAV01@XZ 10007be0 f i IOCPS.obj
 0001:00006c00       ??C?$_Tree_iterator@V?$_Tree_val@U?$_Tree_simple_types@U?$pair@$$CBIPAUClientContext@@@std@@@std@@@std@@@std@@QBEPAU?$pair@$$CBIPAUClientContext@@@1@XZ 10007c00 f i IOCPS.obj
 0001:00006c00       ??C?$_Tree_iterator@V?$_Tree_val@U?$_Tree_simple_types@U?$pair@$$CBGPAX@std@@@std@@@std@@@std@@QBEPAU?$pair@$$CBGPAX@1@XZ 10007c00 f i IOCPS.obj
 0001:00006c00       ??C?$_Tree_iterator@V?$_Tree_val@U?$_Tree_simple_types@U?$pair@$$CBIPAVCIOCPBuffer@@@std@@@std@@@std@@@std@@QBEPAU?$pair@$$CBIPAVCIOCPBuffer@@@1@XZ 10007c00 f i IOCPS.obj
 0001:00006c20       ??0?$_Tree_iterator@V?$_Tree_val@U?$_Tree_simple_types@U?$pair@$$CBGPAX@std@@@std@@@std@@@std@@QAE@PAU?$_Tree_node@U?$pair@$$CBGPAX@std@@PAX@1@PBV?$_Tree_val@U?$_Tree_simple_types@U?$pair@$$CBGPAX@std@@@std@@@1@@Z 10007c20 f i IOCPS.obj
 0001:00006c20       ??0?$_Tree_iterator@V?$_Tree_val@U?$_Tree_simple_types@U?$pair@$$CBIPAUClientContext@@@std@@@std@@@std@@@std@@QAE@PAU?$_Tree_node@U?$pair@$$CBIPAUClientContext@@@std@@PAX@1@PBV?$_Tree_val@U?$_Tree_simple_types@U?$pair@$$CBIPAUClientContext@@@std@@@std@@@1@@Z 10007c20 f i IOCPS.obj
 0001:00006c20       ??0?$_Tree_iterator@V?$_Tree_val@U?$_Tree_simple_types@U?$pair@$$CBIPAVCIOCPBuffer@@@std@@@std@@@std@@@std@@QAE@PAU?$_Tree_node@U?$pair@$$CBIPAVCIOCPBuffer@@@std@@PAX@1@PBV?$_Tree_val@U?$_Tree_simple_types@U?$pair@$$CBIPAVCIOCPBuffer@@@std@@@std@@@1@@Z 10007c20 f i IOCPS.obj
 0001:00006c20       ??0?$_List_iterator@V?$_List_val@U?$_List_simple_types@PAUJobItem@@@std@@@std@@@std@@QAE@PAU?$_List_node@PAUJobItem@@PAX@1@PBV?$_List_val@U?$_List_simple_types@PAUJobItem@@@std@@@1@@Z 10007c20 f i IOCPS.obj
 0001:00006c20       ??0?$_List_iterator@V?$_List_val@U?$_List_simple_types@PAVCIOCPBuffer@@@std@@@std@@@std@@QAE@PAU?$_List_node@PAVCIOCPBuffer@@PAX@1@PBV?$_List_val@U?$_List_simple_types@PAVCIOCPBuffer@@@std@@@1@@Z 10007c20 f i IOCPS.obj
 0001:00006c20       ??0?$_List_iterator@V?$_List_val@U?$_List_simple_types@PAX@std@@@std@@@std@@QAE@PAU?$_List_node@PAXPAX@1@PBV?$_List_val@U?$_List_simple_types@PAX@std@@@1@@Z 10007c20 f i IOCPS.obj
 0001:00006c20       ??0?$_List_iterator@V?$_List_val@U?$_List_simple_types@PAUClientContext@@@std@@@std@@@std@@QAE@PAU?$_List_node@PAUClientContext@@PAX@1@PBV?$_List_val@U?$_List_simple_types@PAUClientContext@@@std@@@1@@Z 10007c20 f i IOCPS.obj
 0001:00006c40       ??8?$_List_const_iterator@V?$_List_val@U?$_List_simple_types@PAUJobItem@@@std@@@std@@@std@@QBE_NABV01@@Z 10007c40 f i IOCPS.obj
 0001:00006c40       ??8?$_Tree_const_iterator@V?$_Tree_val@U?$_Tree_simple_types@U?$pair@$$CBGPAX@std@@@std@@@std@@@std@@QBE_NABV01@@Z 10007c40 f i IOCPS.obj
 0001:00006c40       ??8?$_List_const_iterator@V?$_List_val@U?$_List_simple_types@PAVCIOCPBuffer@@@std@@@std@@@std@@QBE_NABV01@@Z 10007c40 f i IOCPS.obj
 0001:00006c40       ??8?$_List_const_iterator@V?$_List_val@U?$_List_simple_types@PAUClientContext@@@std@@@std@@@std@@QBE_NABV01@@Z 10007c40 f i IOCPS.obj
 0001:00006c40       ??8?$_Tree_const_iterator@V?$_Tree_val@U?$_Tree_simple_types@U?$pair@$$CBIPAVCIOCPBuffer@@@std@@@std@@@std@@@std@@QBE_NABV01@@Z 10007c40 f i IOCPS.obj
 0001:00006c40       ??8?$_List_const_iterator@V?$_List_val@U?$_List_simple_types@PAX@std@@@std@@@std@@QBE_NABV01@@Z 10007c40 f i IOCPS.obj
 0001:00006c40       ??8?$_Tree_const_iterator@V?$_Tree_val@U?$_Tree_simple_types@U?$pair@$$CBIPAUClientContext@@@std@@@std@@@std@@@std@@QBE_NABV01@@Z 10007c40 f i IOCPS.obj
 0001:00006c70       ??E?$_Tree_const_iterator@V?$_Tree_val@U?$_Tree_simple_types@U?$pair@$$CBIPAVCIOCPBuffer@@@std@@@std@@@std@@@std@@QAEAAV01@XZ 10007c70 f i IOCPS.obj
 0001:00006c70       ??E?$_Tree_const_iterator@V?$_Tree_val@U?$_Tree_simple_types@U?$pair@$$CBGPAX@std@@@std@@@std@@@std@@QAEAAV01@XZ 10007c70 f i IOCPS.obj
 0001:00006c70       ??E?$_Tree_const_iterator@V?$_Tree_val@U?$_Tree_simple_types@U?$pair@$$CBIPAUClientContext@@@std@@@std@@@std@@@std@@QAEAAV01@XZ 10007c70 f i IOCPS.obj
 0001:00006c90       ??D?$_Tree_const_iterator@V?$_Tree_val@U?$_Tree_simple_types@U?$pair@$$CBIPAVCIOCPBuffer@@@std@@@std@@@std@@@std@@QBEABU?$pair@$$CBIPAVCIOCPBuffer@@@1@XZ 10007c90 f i IOCPS.obj
 0001:00006c90       ??D?$_Tree_const_iterator@V?$_Tree_val@U?$_Tree_simple_types@U?$pair@$$CBGPAX@std@@@std@@@std@@@std@@QBEABU?$pair@$$CBGPAX@1@XZ 10007c90 f i IOCPS.obj
 0001:00006c90       ??D?$_Tree_const_iterator@V?$_Tree_val@U?$_Tree_simple_types@U?$pair@$$CBIPAUClientContext@@@std@@@std@@@std@@@std@@QBEABU?$pair@$$CBIPAUClientContext@@@1@XZ 10007c90 f i IOCPS.obj
 0001:00006cb0       ?deallocate@?$_Wrap_alloc@V?$allocator@U?$_Tree_node@U?$pair@$$CBIPAVCIOCPBuffer@@@std@@PAX@std@@@std@@@std@@QAEXPAU?$_Tree_node@U?$pair@$$CBIPAVCIOCPBuffer@@@std@@PAX@2@I@Z 10007cb0 f i IOCPS.obj
 0001:00006cb0       ?deallocate@?$_Wrap_alloc@V?$allocator@U?$_Tree_node@U?$pair@$$CBIPAUClientContext@@@std@@PAX@std@@@std@@@std@@QAEXPAU?$_Tree_node@U?$pair@$$CBIPAUClientContext@@@std@@PAX@2@I@Z 10007cb0 f i IOCPS.obj
 0001:00006cb0       ?deallocate@?$_Wrap_alloc@V?$allocator@U?$_Tree_node@U?$pair@$$CBGPAX@std@@PAX@std@@@std@@@std@@QAEXPAU?$_Tree_node@U?$pair@$$CBGPAX@std@@PAX@2@I@Z 10007cb0 f i IOCPS.obj
 0001:00006cd0       ?_Mysize@?$_Tree_comp_alloc@V?$_Tmap_traits@GPAXU?$less@G@std@@V?$allocator@U?$pair@$$CBGPAX@std@@@2@$0A@@std@@@std@@QBEABIXZ 10007cd0 f i IOCPS.obj
 0001:00006cd0       ?_Mysize@?$_Tree_comp_alloc@V?$_Tmap_traits@IPAUClientContext@@U?$less@I@std@@V?$allocator@U?$pair@$$CBIPAUClientContext@@@std@@@3@$0A@@std@@@std@@QAEAAIXZ 10007cd0 f i IOCPS.obj
 0001:00006cd0       ?_Mysize@?$_Tree_comp_alloc@V?$_Tmap_traits@IPAVCIOCPBuffer@@U?$less@I@std@@V?$allocator@U?$pair@$$CBIPAVCIOCPBuffer@@@std@@@3@$0A@@std@@@std@@QAEAAIXZ 10007cd0 f i IOCPS.obj
 0001:00006cd0       ?_Mysize@?$_Tree_comp_alloc@V?$_Tmap_traits@IPAVCIOCPBuffer@@U?$less@I@std@@V?$allocator@U?$pair@$$CBIPAVCIOCPBuffer@@@std@@@3@$0A@@std@@@std@@QBEABIXZ 10007cd0 f i IOCPS.obj
 0001:00006cd0       ?_Mysize@?$_Tree_comp_alloc@V?$_Tmap_traits@GPAXU?$less@G@std@@V?$allocator@U?$pair@$$CBGPAX@std@@@2@$0A@@std@@@std@@QAEAAIXZ 10007cd0 f i IOCPS.obj
 0001:00006cd0       ?_Mysize@?$_Tree_comp_alloc@V?$_Tmap_traits@IPAUClientContext@@U?$less@I@std@@V?$allocator@U?$pair@$$CBIPAUClientContext@@@std@@@3@$0A@@std@@@std@@QBEABIXZ 10007cd0 f i IOCPS.obj
 0001:00006cf0       ?_Myhead@?$_Tree_comp_alloc@V?$_Tmap_traits@IPAUClientContext@@U?$less@I@std@@V?$allocator@U?$pair@$$CBIPAUClientContext@@@std@@@3@$0A@@std@@@std@@QBEABQAU?$_Tree_node@U?$pair@$$CBIPAUClientContext@@@std@@PAX@2@XZ 10007cf0 f i IOCPS.obj
 0001:00006cf0       ?_Myhead@?$_Tree_comp_alloc@V?$_Tmap_traits@GPAXU?$less@G@std@@V?$allocator@U?$pair@$$CBGPAX@std@@@2@$0A@@std@@@std@@QAEAAPAU?$_Tree_node@U?$pair@$$CBGPAX@std@@PAX@2@XZ 10007cf0 f i IOCPS.obj
 0001:00006cf0       ?_Myhead@?$_Tree_comp_alloc@V?$_Tmap_traits@IPAVCIOCPBuffer@@U?$less@I@std@@V?$allocator@U?$pair@$$CBIPAVCIOCPBuffer@@@std@@@3@$0A@@std@@@std@@QAEAAPAU?$_Tree_node@U?$pair@$$CBIPAVCIOCPBuffer@@@std@@PAX@2@XZ 10007cf0 f i IOCPS.obj
 0001:00006cf0       ?_Myhead@?$_Tree_comp_alloc@V?$_Tmap_traits@IPAVCIOCPBuffer@@U?$less@I@std@@V?$allocator@U?$pair@$$CBIPAVCIOCPBuffer@@@std@@@3@$0A@@std@@@std@@QBEABQAU?$_Tree_node@U?$pair@$$CBIPAVCIOCPBuffer@@@std@@PAX@2@XZ 10007cf0 f i IOCPS.obj
 0001:00006cf0       ?_Myhead@?$_Tree_comp_alloc@V?$_Tmap_traits@GPAXU?$less@G@std@@V?$allocator@U?$pair@$$CBGPAX@std@@@2@$0A@@std@@@std@@QBEABQAU?$_Tree_node@U?$pair@$$CBGPAX@std@@PAX@2@XZ 10007cf0 f i IOCPS.obj
 0001:00006cf0       ?_Myhead@?$_Tree_comp_alloc@V?$_Tmap_traits@IPAUClientContext@@U?$less@I@std@@V?$allocator@U?$pair@$$CBIPAUClientContext@@@std@@@3@$0A@@std@@@std@@QAEAAPAU?$_Tree_node@U?$pair@$$CBIPAUClientContext@@@std@@PAX@2@XZ 10007cf0 f i IOCPS.obj
 0001:00006d10       ?_Get_data@?$_Tree_comp_alloc@V?$_Tmap_traits@IPAUClientContext@@U?$less@I@std@@V?$allocator@U?$pair@$$CBIPAUClientContext@@@std@@@3@$0A@@std@@@std@@QBEABV?$_Tree_val@U?$_Tree_simple_types@U?$pair@$$CBIPAUClientContext@@@std@@@std@@@2@XZ 10007d10 f i IOCPS.obj
 0001:00006d10       ?_Getal@?$_Tree_comp_alloc@V?$_Tmap_traits@IPAUClientContext@@U?$less@I@std@@V?$allocator@U?$pair@$$CBIPAUClientContext@@@std@@@3@$0A@@std@@@std@@QBEABU?$_Wrap_alloc@V?$allocator@U?$_Tree_node@U?$pair@$$CBIPAUClientContext@@@std@@PAX@std@@@std@@@2@XZ 10007d10 f i IOCPS.obj
 0001:00006d10       ?_Get_data@?$_Tree_comp_alloc@V?$_Tmap_traits@GPAXU?$less@G@std@@V?$allocator@U?$pair@$$CBGPAX@std@@@2@$0A@@std@@@std@@QBEABV?$_Tree_val@U?$_Tree_simple_types@U?$pair@$$CBGPAX@std@@@std@@@2@XZ 10007d10 f i IOCPS.obj
 0001:00006d10       ?_Get_data@?$_Tree_comp_alloc@V?$_Tmap_traits@IPAVCIOCPBuffer@@U?$less@I@std@@V?$allocator@U?$pair@$$CBIPAVCIOCPBuffer@@@std@@@3@$0A@@std@@@std@@QBEABV?$_Tree_val@U?$_Tree_simple_types@U?$pair@$$CBIPAVCIOCPBuffer@@@std@@@std@@@2@XZ 10007d10 f i IOCPS.obj
 0001:00006d10       ?_Getal@?$_Tree_comp_alloc@V?$_Tmap_traits@GPAXU?$less@G@std@@V?$allocator@U?$pair@$$CBGPAX@std@@@2@$0A@@std@@@std@@QBEABU?$_Wrap_alloc@V?$allocator@U?$_Tree_node@U?$pair@$$CBGPAX@std@@PAX@std@@@std@@@2@XZ 10007d10 f i IOCPS.obj
 0001:00006d10       ?_Get_data@?$_Tree_comp_alloc@V?$_Tmap_traits@GPAXU?$less@G@std@@V?$allocator@U?$pair@$$CBGPAX@std@@@2@$0A@@std@@@std@@QAEAAV?$_Tree_val@U?$_Tree_simple_types@U?$pair@$$CBGPAX@std@@@std@@@2@XZ 10007d10 f i IOCPS.obj
 0001:00006d10       ?_Get_data@?$_Tree_comp_alloc@V?$_Tmap_traits@IPAUClientContext@@U?$less@I@std@@V?$allocator@U?$pair@$$CBIPAUClientContext@@@std@@@3@$0A@@std@@@std@@QAEAAV?$_Tree_val@U?$_Tree_simple_types@U?$pair@$$CBIPAUClientContext@@@std@@@std@@@2@XZ 10007d10 f i IOCPS.obj
 0001:00006d10       ?_Getal@?$_Tree_comp_alloc@V?$_Tmap_traits@GPAXU?$less@G@std@@V?$allocator@U?$pair@$$CBGPAX@std@@@2@$0A@@std@@@std@@QAEAAU?$_Wrap_alloc@V?$allocator@U?$_Tree_node@U?$pair@$$CBGPAX@std@@PAX@std@@@std@@@2@XZ 10007d10 f i IOCPS.obj
 0001:00006d10       ?_Getal@?$_Tree_comp_alloc@V?$_Tmap_traits@IPAUClientContext@@U?$less@I@std@@V?$allocator@U?$pair@$$CBIPAUClientContext@@@std@@@3@$0A@@std@@@std@@QAEAAU?$_Wrap_alloc@V?$allocator@U?$_Tree_node@U?$pair@$$CBIPAUClientContext@@@std@@PAX@std@@@std@@@2@XZ 10007d10 f i IOCPS.obj
 0001:00006d10       ?_Getal@?$_Tree_comp_alloc@V?$_Tmap_traits@IPAVCIOCPBuffer@@U?$less@I@std@@V?$allocator@U?$pair@$$CBIPAVCIOCPBuffer@@@std@@@3@$0A@@std@@@std@@QBEABU?$_Wrap_alloc@V?$allocator@U?$_Tree_node@U?$pair@$$CBIPAVCIOCPBuffer@@@std@@PAX@std@@@std@@@2@XZ 10007d10 f i IOCPS.obj
 0001:00006d10       ?_Get_data@?$_Tree_comp_alloc@V?$_Tmap_traits@IPAVCIOCPBuffer@@U?$less@I@std@@V?$allocator@U?$pair@$$CBIPAVCIOCPBuffer@@@std@@@3@$0A@@std@@@std@@QAEAAV?$_Tree_val@U?$_Tree_simple_types@U?$pair@$$CBIPAVCIOCPBuffer@@@std@@@std@@@2@XZ 10007d10 f i IOCPS.obj
 0001:00006d10       ?_Getal@?$_Tree_comp_alloc@V?$_Tmap_traits@IPAVCIOCPBuffer@@U?$less@I@std@@V?$allocator@U?$pair@$$CBIPAVCIOCPBuffer@@@std@@@3@$0A@@std@@@std@@QAEAAU?$_Wrap_alloc@V?$allocator@U?$_Tree_node@U?$pair@$$CBIPAVCIOCPBuffer@@@std@@PAX@std@@@std@@@2@XZ 10007d10 f i IOCPS.obj
 0001:00006d30       ??1?$_Tree_comp_alloc@V?$_Tmap_traits@IPAVCIOCPBuffer@@U?$less@I@std@@V?$allocator@U?$pair@$$CBIPAVCIOCPBuffer@@@std@@@3@$0A@@std@@@std@@QAE@XZ 10007d30 f i IOCPS.obj
 0001:00006d30       ??1?$_Tree_comp_alloc@V?$_Tmap_traits@GPAXU?$less@G@std@@V?$allocator@U?$pair@$$CBGPAX@std@@@2@$0A@@std@@@std@@QAE@XZ 10007d30 f i IOCPS.obj
 0001:00006d30       ??1?$_Tree_comp_alloc@V?$_Tmap_traits@IPAUClientContext@@U?$less@I@std@@V?$allocator@U?$pair@$$CBIPAUClientContext@@@std@@@3@$0A@@std@@@std@@QAE@XZ 10007d30 f i IOCPS.obj
 0001:00006d80       ?_Min@?$_Tree_comp_alloc@V?$_Tmap_traits@IPAUClientContext@@U?$less@I@std@@V?$allocator@U?$pair@$$CBIPAUClientContext@@@std@@@3@$0A@@std@@@std@@SAPAU?$_Tree_node@U?$pair@$$CBIPAUClientContext@@@std@@PAX@2@PAU32@@Z 10007d80 f i IOCPS.obj
 0001:00006d80       ?_Min@?$_Tree_comp_alloc@V?$_Tmap_traits@GPAXU?$less@G@std@@V?$allocator@U?$pair@$$CBGPAX@std@@@2@$0A@@std@@@std@@SAPAU?$_Tree_node@U?$pair@$$CBGPAX@std@@PAX@2@PAU32@@Z 10007d80 f i IOCPS.obj
 0001:00006d80       ?_Min@?$_Tree_comp_alloc@V?$_Tmap_traits@IPAVCIOCPBuffer@@U?$less@I@std@@V?$allocator@U?$pair@$$CBIPAVCIOCPBuffer@@@std@@@3@$0A@@std@@@std@@SAPAU?$_Tree_node@U?$pair@$$CBIPAVCIOCPBuffer@@@std@@PAX@2@PAU32@@Z 10007d80 f i IOCPS.obj
 0001:00006da0       ?_Max@?$_Tree_comp_alloc@V?$_Tmap_traits@IPAUClientContext@@U?$less@I@std@@V?$allocator@U?$pair@$$CBIPAUClientContext@@@std@@@3@$0A@@std@@@std@@SAPAU?$_Tree_node@U?$pair@$$CBIPAUClientContext@@@std@@PAX@2@PAU32@@Z 10007da0 f i IOCPS.obj
 0001:00006da0       ?_Max@?$_Tree_comp_alloc@V?$_Tmap_traits@IPAVCIOCPBuffer@@U?$less@I@std@@V?$allocator@U?$pair@$$CBIPAVCIOCPBuffer@@@std@@@3@$0A@@std@@@std@@SAPAU?$_Tree_node@U?$pair@$$CBIPAVCIOCPBuffer@@@std@@PAX@2@PAU32@@Z 10007da0 f i IOCPS.obj
 0001:00006da0       ?_Max@?$_Tree_comp_alloc@V?$_Tmap_traits@GPAXU?$less@G@std@@V?$allocator@U?$pair@$$CBGPAX@std@@@2@$0A@@std@@@std@@SAPAU?$_Tree_node@U?$pair@$$CBGPAX@std@@PAX@2@PAU32@@Z 10007da0 f i IOCPS.obj
 0001:00006dc0       ?_Myval@?$_Tree_comp_alloc@V?$_Tmap_traits@GPAXU?$less@G@std@@V?$allocator@U?$pair@$$CBGPAX@std@@@2@$0A@@std@@@std@@SAAAU?$pair@$$CBGPAX@2@PAU?$_Tree_node@U?$pair@$$CBGPAX@std@@PAX@2@@Z 10007dc0 f i IOCPS.obj
 0001:00006dc0       ?_Myval@?$_Tree_comp_alloc@V?$_Tmap_traits@IPAVCIOCPBuffer@@U?$less@I@std@@V?$allocator@U?$pair@$$CBIPAVCIOCPBuffer@@@std@@@3@$0A@@std@@@std@@SAAAU?$pair@$$CBIPAVCIOCPBuffer@@@2@PAU?$_Tree_node@U?$pair@$$CBIPAVCIOCPBuffer@@@std@@PAX@2@@Z 10007dc0 f i IOCPS.obj
 0001:00006dc0       ?_Myval@?$_Tree_comp_alloc@V?$_Tmap_traits@IPAUClientContext@@U?$less@I@std@@V?$allocator@U?$pair@$$CBIPAUClientContext@@@std@@@3@$0A@@std@@@std@@SAAAU?$pair@$$CBIPAUClientContext@@@2@PAU?$_Tree_node@U?$pair@$$CBIPAUClientContext@@@std@@PAX@2@@Z 10007dc0 f i IOCPS.obj
 0001:00006de0       ?_Myval@?$_List_alloc@U?$_List_base_types@PAXV?$allocator@PAX@std@@@std@@@std@@SAAAPAXPAU?$_List_node@PAXPAX@2@@Z 10007de0 f i IOCPS.obj
 0001:00006de0       ?_Myval@?$_List_alloc@U?$_List_base_types@PAUJobItem@@V?$allocator@PAUJobItem@@@std@@@std@@@std@@SAAAPAUJobItem@@PAU?$_List_node@PAUJobItem@@PAX@2@@Z 10007de0 f i IOCPS.obj
 0001:00006de0       ?_Myval@?$_List_alloc@U?$_List_base_types@PAUClientContext@@V?$allocator@PAUClientContext@@@std@@@std@@@std@@SAAAPAUClientContext@@PAU?$_List_node@PAUClientContext@@PAX@2@@Z 10007de0 f i IOCPS.obj
 0001:00006de0       ?_Myval@?$_List_alloc@U?$_List_base_types@PAVCIOCPBuffer@@V?$allocator@PAVCIOCPBuffer@@@std@@@std@@@std@@SAAAPAVCIOCPBuffer@@PAU?$_List_node@PAVCIOCPBuffer@@PAX@2@@Z 10007de0 f i IOCPS.obj
 0001:00006de0       ?_Right@?$_Tree_comp_alloc@V?$_Tmap_traits@IPAVCIOCPBuffer@@U?$less@I@std@@V?$allocator@U?$pair@$$CBIPAVCIOCPBuffer@@@std@@@3@$0A@@std@@@std@@SAAAPAU?$_Tree_node@U?$pair@$$CBIPAVCIOCPBuffer@@@std@@PAX@2@PAU32@@Z 10007de0 f i IOCPS.obj
 0001:00006de0       ?_Right@?$_Tree_comp_alloc@V?$_Tmap_traits@GPAXU?$less@G@std@@V?$allocator@U?$pair@$$CBGPAX@std@@@2@$0A@@std@@@std@@SAAAPAU?$_Tree_node@U?$pair@$$CBGPAX@std@@PAX@2@PAU32@@Z 10007de0 f i IOCPS.obj
 0001:00006de0       ?_Right@?$_Tree_comp_alloc@V?$_Tmap_traits@IPAUClientContext@@U?$less@I@std@@V?$allocator@U?$pair@$$CBIPAUClientContext@@@std@@@3@$0A@@std@@@std@@SAAAPAU?$_Tree_node@U?$pair@$$CBIPAUClientContext@@@std@@PAX@2@PAU32@@Z 10007de0 f i IOCPS.obj
 0001:00006e00       ?_Prevnode@?$_List_alloc@U?$_List_base_types@PAXV?$allocator@PAX@std@@@std@@@std@@SAAAPAU?$_List_node@PAXPAX@2@PAU32@@Z 10007e00 f i IOCPS.obj
 0001:00006e00       ?_Parent@?$_Tree_comp_alloc@V?$_Tmap_traits@IPAUClientContext@@U?$less@I@std@@V?$allocator@U?$pair@$$CBIPAUClientContext@@@std@@@3@$0A@@std@@@std@@SAAAPAU?$_Tree_node@U?$pair@$$CBIPAUClientContext@@@std@@PAX@2@PAU32@@Z 10007e00 f i IOCPS.obj
 0001:00006e00       ?_Prevnode@?$_List_alloc@U?$_List_base_types@PAUClientContext@@V?$allocator@PAUClientContext@@@std@@@std@@@std@@SAAAPAU?$_List_node@PAUClientContext@@PAX@2@PAU32@@Z 10007e00 f i IOCPS.obj
 0001:00006e00       ?_Parent@?$_Tree_comp_alloc@V?$_Tmap_traits@GPAXU?$less@G@std@@V?$allocator@U?$pair@$$CBGPAX@std@@@2@$0A@@std@@@std@@SAAAPAU?$_Tree_node@U?$pair@$$CBGPAX@std@@PAX@2@PAU32@@Z 10007e00 f i IOCPS.obj
 0001:00006e00       ?_Prevnode@?$_List_alloc@U?$_List_base_types@PAVCIOCPBuffer@@V?$allocator@PAVCIOCPBuffer@@@std@@@std@@@std@@SAAAPAU?$_List_node@PAVCIOCPBuffer@@PAX@2@PAU32@@Z 10007e00 f i IOCPS.obj
 0001:00006e00       ?_Parent@?$_Tree_comp_alloc@V?$_Tmap_traits@IPAVCIOCPBuffer@@U?$less@I@std@@V?$allocator@U?$pair@$$CBIPAVCIOCPBuffer@@@std@@@3@$0A@@std@@@std@@SAAAPAU?$_Tree_node@U?$pair@$$CBIPAVCIOCPBuffer@@@std@@PAX@2@PAU32@@Z 10007e00 f i IOCPS.obj
 0001:00006e00       ?_Prevnode@?$_List_alloc@U?$_List_base_types@PAUJobItem@@V?$allocator@PAUJobItem@@@std@@@std@@@std@@SAAAPAU?$_List_node@PAUJobItem@@PAX@2@PAU32@@Z 10007e00 f i IOCPS.obj
 0001:00006e20       ?_Left@?$_Tree_comp_alloc@V?$_Tmap_traits@GPAXU?$less@G@std@@V?$allocator@U?$pair@$$CBGPAX@std@@@2@$0A@@std@@@std@@SAAAPAU?$_Tree_node@U?$pair@$$CBGPAX@std@@PAX@2@PAU32@@Z 10007e20 f i IOCPS.obj
 0001:00006e20       ?pointer_to@?$pointer_traits@PAU?$pair@$$CBGPAX@std@@@std@@SAPAU?$pair@$$CBGPAX@2@AAU32@@Z 10007e20 f i IOCPS.obj
 0001:00006e20       ?_Nextnode@?$_List_alloc@U?$_List_base_types@PAXV?$allocator@PAX@std@@@std@@@std@@SAAAPAU?$_List_node@PAXPAX@2@PAU32@@Z 10007e20 f i IOCPS.obj
 0001:00006e20       ?pointer_to@?$pointer_traits@PAU?$pair@$$CBIPAUClientContext@@@std@@@std@@SAPAU?$pair@$$CBIPAUClientContext@@@2@AAU32@@Z 10007e20 f i IOCPS.obj
 0001:00006e20       ?_Nextnode@?$_List_alloc@U?$_List_base_types@PAVCIOCPBuffer@@V?$allocator@PAVCIOCPBuffer@@@std@@@std@@@std@@SAAAPAU?$_List_node@PAVCIOCPBuffer@@PAX@2@PAU32@@Z 10007e20 f i IOCPS.obj
 0001:00006e20       ?_Nextnode@?$_List_alloc@U?$_List_base_types@PAUJobItem@@V?$allocator@PAUJobItem@@@std@@@std@@@std@@SAAAPAU?$_List_node@PAUJobItem@@PAX@2@PAU32@@Z 10007e20 f i IOCPS.obj
 0001:00006e20       ?_Left@?$_Tree_comp_alloc@V?$_Tmap_traits@IPAUClientContext@@U?$less@I@std@@V?$allocator@U?$pair@$$CBIPAUClientContext@@@std@@@3@$0A@@std@@@std@@SAAAPAU?$_Tree_node@U?$pair@$$CBIPAUClientContext@@@std@@PAX@2@PAU32@@Z 10007e20 f i IOCPS.obj
 0001:00006e20       ?pointer_to@?$pointer_traits@PAU?$pair@$$CBIPAVCIOCPBuffer@@@std@@@std@@SAPAU?$pair@$$CBIPAVCIOCPBuffer@@@2@AAU32@@Z 10007e20 f i IOCPS.obj
 0001:00006e20       ?_Nextnode@?$_List_alloc@U?$_List_base_types@PAUClientContext@@V?$allocator@PAUClientContext@@@std@@@std@@@std@@SAAAPAU?$_List_node@PAUClientContext@@PAX@2@PAU32@@Z 10007e20 f i IOCPS.obj
 0001:00006e20       ?_Left@?$_Tree_comp_alloc@V?$_Tmap_traits@IPAVCIOCPBuffer@@U?$less@I@std@@V?$allocator@U?$pair@$$CBIPAVCIOCPBuffer@@@std@@@3@$0A@@std@@@std@@SAAAPAU?$_Tree_node@U?$pair@$$CBIPAVCIOCPBuffer@@@std@@PAX@2@PAU32@@Z 10007e20 f i IOCPS.obj
 0001:00006e40       ?_Isnil@?$_Tree_comp_alloc@V?$_Tmap_traits@IPAVCIOCPBuffer@@U?$less@I@std@@V?$allocator@U?$pair@$$CBIPAVCIOCPBuffer@@@std@@@3@$0A@@std@@@std@@SAAADPAU?$_Tree_node@U?$pair@$$CBIPAVCIOCPBuffer@@@std@@PAX@2@@Z 10007e40 f i IOCPS.obj
 0001:00006e40       ?_Isnil@?$_Tree_comp_alloc@V?$_Tmap_traits@GPAXU?$less@G@std@@V?$allocator@U?$pair@$$CBGPAX@std@@@2@$0A@@std@@@std@@SAAADPAU?$_Tree_node@U?$pair@$$CBGPAX@std@@PAX@2@@Z 10007e40 f i IOCPS.obj
 0001:00006e40       ?_Isnil@?$_Tree_comp_alloc@V?$_Tmap_traits@IPAUClientContext@@U?$less@I@std@@V?$allocator@U?$pair@$$CBIPAUClientContext@@@std@@@3@$0A@@std@@@std@@SAAADPAU?$_Tree_node@U?$pair@$$CBIPAUClientContext@@@std@@PAX@2@@Z 10007e40 f i IOCPS.obj
 0001:00006e60       ?_Color@?$_Tree_comp_alloc@V?$_Tmap_traits@GPAXU?$less@G@std@@V?$allocator@U?$pair@$$CBGPAX@std@@@2@$0A@@std@@@std@@SAAADPAU?$_Tree_node@U?$pair@$$CBGPAX@std@@PAX@2@@Z 10007e60 f i IOCPS.obj
 0001:00006e60       ?_Color@?$_Tree_comp_alloc@V?$_Tmap_traits@IPAUClientContext@@U?$less@I@std@@V?$allocator@U?$pair@$$CBIPAUClientContext@@@std@@@3@$0A@@std@@@std@@SAAADPAU?$_Tree_node@U?$pair@$$CBIPAUClientContext@@@std@@PAX@2@@Z 10007e60 f i IOCPS.obj
 0001:00006e60       ?_Color@?$_Tree_comp_alloc@V?$_Tmap_traits@IPAVCIOCPBuffer@@U?$less@I@std@@V?$allocator@U?$pair@$$CBIPAVCIOCPBuffer@@@std@@@3@$0A@@std@@@std@@SAAADPAU?$_Tree_node@U?$pair@$$CBIPAVCIOCPBuffer@@@std@@PAX@2@@Z 10007e60 f i IOCPS.obj
 0001:00006e80       ?_Key@?$_Tree@V?$_Tmap_traits@IPAVCIOCPBuffer@@U?$less@I@std@@V?$allocator@U?$pair@$$CBIPAVCIOCPBuffer@@@std@@@3@$0A@@std@@@std@@IBEABIPAU?$_Tree_node@U?$pair@$$CBIPAVCIOCPBuffer@@@std@@PAX@2@@Z 10007e80 f i IOCPS.obj
 0001:00006e80       ?_Key@?$_Tree@V?$_Tmap_traits@IPAUClientContext@@U?$less@I@std@@V?$allocator@U?$pair@$$CBIPAUClientContext@@@std@@@3@$0A@@std@@@std@@IBEABIPAU?$_Tree_node@U?$pair@$$CBIPAUClientContext@@@std@@PAX@2@@Z 10007e80 f i IOCPS.obj
 0001:00006e80       ?_Key@?$_Tree@V?$_Tmap_traits@GPAXU?$less@G@std@@V?$allocator@U?$pair@$$CBGPAX@std@@@2@$0A@@std@@@std@@IBEABGPAU?$_Tree_node@U?$pair@$$CBGPAX@std@@PAX@2@@Z 10007e80 f i IOCPS.obj
 0001:00006eb0       ?_Tidy@?$_Tree@V?$_Tmap_traits@GPAXU?$less@G@std@@V?$allocator@U?$pair@$$CBGPAX@std@@@2@$0A@@std@@@std@@IAEXXZ 10007eb0 f i IOCPS.obj
 0001:00006eb0       ?_Tidy@?$_Tree@V?$_Tmap_traits@IPAUClientContext@@U?$less@I@std@@V?$allocator@U?$pair@$$CBIPAUClientContext@@@std@@@3@$0A@@std@@@std@@IAEXXZ 10007eb0 f i IOCPS.obj
 0001:00006eb0       ?_Tidy@?$_Tree@V?$_Tmap_traits@IPAVCIOCPBuffer@@U?$less@I@std@@V?$allocator@U?$pair@$$CBIPAVCIOCPBuffer@@@std@@@3@$0A@@std@@@std@@IAEXXZ 10007eb0 f i IOCPS.obj
 0001:00006f00       ?_Rrotate@?$_Tree@V?$_Tmap_traits@IPAVCIOCPBuffer@@U?$less@I@std@@V?$allocator@U?$pair@$$CBIPAVCIOCPBuffer@@@std@@@3@$0A@@std@@@std@@IAEXPAU?$_Tree_node@U?$pair@$$CBIPAVCIOCPBuffer@@@std@@PAX@2@@Z 10007f00 f i IOCPS.obj
 0001:00006f00       ?_Rrotate@?$_Tree@V?$_Tmap_traits@IPAUClientContext@@U?$less@I@std@@V?$allocator@U?$pair@$$CBIPAUClientContext@@@std@@@3@$0A@@std@@@std@@IAEXPAU?$_Tree_node@U?$pair@$$CBIPAUClientContext@@@std@@PAX@2@@Z 10007f00 f i IOCPS.obj
 0001:00006f00       ?_Rrotate@?$_Tree@V?$_Tmap_traits@GPAXU?$less@G@std@@V?$allocator@U?$pair@$$CBGPAX@std@@@2@$0A@@std@@@std@@IAEXPAU?$_Tree_node@U?$pair@$$CBGPAX@std@@PAX@2@@Z 10007f00 f i IOCPS.obj
 0001:00007030       ?_Root@?$_Tree@V?$_Tmap_traits@IPAVCIOCPBuffer@@U?$less@I@std@@V?$allocator@U?$pair@$$CBIPAVCIOCPBuffer@@@std@@@3@$0A@@std@@@std@@IBEAAPAU?$_Tree_node@U?$pair@$$CBIPAVCIOCPBuffer@@@std@@PAX@2@XZ 10008030 f i IOCPS.obj
 0001:00007030       ?_Root@?$_Tree@V?$_Tmap_traits@GPAXU?$less@G@std@@V?$allocator@U?$pair@$$CBGPAX@std@@@2@$0A@@std@@@std@@IBEAAPAU?$_Tree_node@U?$pair@$$CBGPAX@std@@PAX@2@XZ 10008030 f i IOCPS.obj
 0001:00007030       ?_Root@?$_Tree@V?$_Tmap_traits@IPAUClientContext@@U?$less@I@std@@V?$allocator@U?$pair@$$CBIPAUClientContext@@@std@@@3@$0A@@std@@@std@@IBEAAPAU?$_Tree_node@U?$pair@$$CBIPAUClientContext@@@std@@PAX@2@XZ 10008030 f i IOCPS.obj
 0001:00007050       ?_Rmost@?$_Tree@V?$_Tmap_traits@IPAUClientContext@@U?$less@I@std@@V?$allocator@U?$pair@$$CBIPAUClientContext@@@std@@@3@$0A@@std@@@std@@IBEAAPAU?$_Tree_node@U?$pair@$$CBIPAUClientContext@@@std@@PAX@2@XZ 10008050 f i IOCPS.obj
 0001:00007050       ?_Rmost@?$_Tree@V?$_Tmap_traits@IPAVCIOCPBuffer@@U?$less@I@std@@V?$allocator@U?$pair@$$CBIPAVCIOCPBuffer@@@std@@@3@$0A@@std@@@std@@IBEAAPAU?$_Tree_node@U?$pair@$$CBIPAVCIOCPBuffer@@@std@@PAX@2@XZ 10008050 f i IOCPS.obj
 0001:00007050       ?_Rmost@?$_Tree@V?$_Tmap_traits@GPAXU?$less@G@std@@V?$allocator@U?$pair@$$CBGPAX@std@@@2@$0A@@std@@@std@@IBEAAPAU?$_Tree_node@U?$pair@$$CBGPAX@std@@PAX@2@XZ 10008050 f i IOCPS.obj
 0001:00007070       ?_Lrotate@?$_Tree@V?$_Tmap_traits@IPAUClientContext@@U?$less@I@std@@V?$allocator@U?$pair@$$CBIPAUClientContext@@@std@@@3@$0A@@std@@@std@@IAEXPAU?$_Tree_node@U?$pair@$$CBIPAUClientContext@@@std@@PAX@2@@Z 10008070 f i IOCPS.obj
 0001:00007070       ?_Lrotate@?$_Tree@V?$_Tmap_traits@GPAXU?$less@G@std@@V?$allocator@U?$pair@$$CBGPAX@std@@@2@$0A@@std@@@std@@IAEXPAU?$_Tree_node@U?$pair@$$CBGPAX@std@@PAX@2@@Z 10008070 f i IOCPS.obj
 0001:00007070       ?_Lrotate@?$_Tree@V?$_Tmap_traits@IPAVCIOCPBuffer@@U?$less@I@std@@V?$allocator@U?$pair@$$CBIPAVCIOCPBuffer@@@std@@@3@$0A@@std@@@std@@IAEXPAU?$_Tree_node@U?$pair@$$CBIPAVCIOCPBuffer@@@std@@PAX@2@@Z 10008070 f i IOCPS.obj
 0001:000071a0       ?_Lmost@?$_Tree@V?$_Tmap_traits@IPAVCIOCPBuffer@@U?$less@I@std@@V?$allocator@U?$pair@$$CBIPAVCIOCPBuffer@@@std@@@3@$0A@@std@@@std@@IBEAAPAU?$_Tree_node@U?$pair@$$CBIPAVCIOCPBuffer@@@std@@PAX@2@XZ 100081a0 f i IOCPS.obj
 0001:000071a0       ?_Lmost@?$_Tree@V?$_Tmap_traits@GPAXU?$less@G@std@@V?$allocator@U?$pair@$$CBGPAX@std@@@2@$0A@@std@@@std@@IBEAAPAU?$_Tree_node@U?$pair@$$CBGPAX@std@@PAX@2@XZ 100081a0 f i IOCPS.obj
 0001:000071a0       ?_Lmost@?$_Tree@V?$_Tmap_traits@IPAUClientContext@@U?$less@I@std@@V?$allocator@U?$pair@$$CBIPAUClientContext@@@std@@@3@$0A@@std@@@std@@IBEAAPAU?$_Tree_node@U?$pair@$$CBIPAUClientContext@@@std@@PAX@2@XZ 100081a0 f i IOCPS.obj
 0001:000071c0       ?_Erase@?$_Tree@V?$_Tmap_traits@GPAXU?$less@G@std@@V?$allocator@U?$pair@$$CBGPAX@std@@@2@$0A@@std@@@std@@IAEXPAU?$_Tree_node@U?$pair@$$CBGPAX@std@@PAX@2@@Z 100081c0 f i IOCPS.obj
 0001:000071c0       ?_Erase@?$_Tree@V?$_Tmap_traits@IPAVCIOCPBuffer@@U?$less@I@std@@V?$allocator@U?$pair@$$CBIPAVCIOCPBuffer@@@std@@@3@$0A@@std@@@std@@IAEXPAU?$_Tree_node@U?$pair@$$CBIPAVCIOCPBuffer@@@std@@PAX@2@@Z 100081c0 f i IOCPS.obj
 0001:000071c0       ?_Erase@?$_Tree@V?$_Tmap_traits@IPAUClientContext@@U?$less@I@std@@V?$allocator@U?$pair@$$CBIPAUClientContext@@@std@@@3@$0A@@std@@@std@@IAEXPAU?$_Tree_node@U?$pair@$$CBIPAUClientContext@@@std@@PAX@2@@Z 100081c0 f i IOCPS.obj
 0001:00007260       ?lower_bound@?$_Tree@V?$_Tmap_traits@IPAVCIOCPBuffer@@U?$less@I@std@@V?$allocator@U?$pair@$$CBIPAVCIOCPBuffer@@@std@@@3@$0A@@std@@@std@@QAE?AV?$_Tree_iterator@V?$_Tree_val@U?$_Tree_simple_types@U?$pair@$$CBIPAVCIOCPBuffer@@@std@@@std@@@std@@@2@ABI@Z 10008260 f i IOCPS.obj
 0001:00007260       ?lower_bound@?$_Tree@V?$_Tmap_traits@IPAUClientContext@@U?$less@I@std@@V?$allocator@U?$pair@$$CBIPAUClientContext@@@std@@@3@$0A@@std@@@std@@QAE?AV?$_Tree_iterator@V?$_Tree_val@U?$_Tree_simple_types@U?$pair@$$CBIPAUClientContext@@@std@@@std@@@std@@@2@ABI@Z 10008260 f i IOCPS.obj
 0001:00007290       ??0?$_Tree@V?$_Tmap_traits@GPAXU?$less@G@std@@V?$allocator@U?$pair@$$CBGPAX@std@@@2@$0A@@std@@@std@@QAE@ABU?$less@G@1@@Z 10008290 f i IOCPS.obj
 0001:00007290       ??0?$_Tree@V?$_Tmap_traits@IPAVCIOCPBuffer@@U?$less@I@std@@V?$allocator@U?$pair@$$CBIPAVCIOCPBuffer@@@std@@@3@$0A@@std@@@std@@QAE@ABU?$less@I@1@@Z 10008290 f i IOCPS.obj
 0001:00007290       ??0?$_Tree@V?$_Tmap_traits@IPAUClientContext@@U?$less@I@std@@V?$allocator@U?$pair@$$CBIPAUClientContext@@@std@@@3@$0A@@std@@@std@@QAE@ABU?$less@I@1@@Z 10008290 f i IOCPS.obj
 0001:000072b0       ??F?$_List_iterator@V?$_List_val@U?$_List_simple_types@PAUJobItem@@@std@@@std@@@std@@QAEAAV01@XZ 100082b0 f i IOCPS.obj
 0001:000072d0       ??E?$_List_iterator@V?$_List_val@U?$_List_simple_types@PAVCIOCPBuffer@@@std@@@std@@@std@@QAEAAV01@XZ 100082d0 f i IOCPS.obj
 0001:000072d0       ??E?$_List_iterator@V?$_List_val@U?$_List_simple_types@PAUClientContext@@@std@@@std@@@std@@QAEAAV01@XZ 100082d0 f i IOCPS.obj
 0001:000072d0       ??E?$_List_iterator@V?$_List_val@U?$_List_simple_types@PAUJobItem@@@std@@@std@@@std@@QAEAAV01@XZ 100082d0 f i IOCPS.obj
 0001:000072d0       ??E?$_List_iterator@V?$_List_val@U?$_List_simple_types@PAX@std@@@std@@@std@@QAEAAV01@XZ 100082d0 f i IOCPS.obj
 0001:000072f0       ??D?$_List_const_iterator@V?$_List_val@U?$_List_simple_types@PAUJobItem@@@std@@@std@@@std@@QBEABQAUJobItem@@XZ 100082f0 f i IOCPS.obj
 0001:000072f0       ??D?$_List_const_iterator@V?$_List_val@U?$_List_simple_types@PAX@std@@@std@@@std@@QBEABQAXXZ 100082f0 f i IOCPS.obj
 0001:000072f0       ??D?$_List_const_iterator@V?$_List_val@U?$_List_simple_types@PAUClientContext@@@std@@@std@@@std@@QBEABQAUClientContext@@XZ 100082f0 f i IOCPS.obj
 0001:000072f0       ??D?$_List_const_iterator@V?$_List_val@U?$_List_simple_types@PAVCIOCPBuffer@@@std@@@std@@@std@@QBEABQAVCIOCPBuffer@@XZ 100082f0 f i IOCPS.obj
 0001:00007310       ?_Mysize@?$_List_alloc@U?$_List_base_types@PAVCIOCPBuffer@@V?$allocator@PAVCIOCPBuffer@@@std@@@std@@@std@@QAEAAIXZ 10008310 f i IOCPS.obj
 0001:00007310       ?_Mysize@?$_List_alloc@U?$_List_base_types@PAVCIOCPBuffer@@V?$allocator@PAVCIOCPBuffer@@@std@@@std@@@std@@QBEABIXZ 10008310 f i IOCPS.obj
 0001:00007310       ?_Mysize@?$_List_alloc@U?$_List_base_types@PAUJobItem@@V?$allocator@PAUJobItem@@@std@@@std@@@std@@QBEABIXZ 10008310 f i IOCPS.obj
 0001:00007310       ?_Mysize@?$_List_alloc@U?$_List_base_types@PAUJobItem@@V?$allocator@PAUJobItem@@@std@@@std@@@std@@QAEAAIXZ 10008310 f i IOCPS.obj
 0001:00007310       ?_Mysize@?$_List_alloc@U?$_List_base_types@PAXV?$allocator@PAX@std@@@std@@@std@@QBEABIXZ 10008310 f i IOCPS.obj
 0001:00007310       ?_Mysize@?$_List_alloc@U?$_List_base_types@PAXV?$allocator@PAX@std@@@std@@@std@@QAEAAIXZ 10008310 f i IOCPS.obj
 0001:00007310       ?_Mysize@?$_List_alloc@U?$_List_base_types@PAUClientContext@@V?$allocator@PAUClientContext@@@std@@@std@@@std@@QBEABIXZ 10008310 f i IOCPS.obj
 0001:00007310       ?_Mysize@?$_List_alloc@U?$_List_base_types@PAUClientContext@@V?$allocator@PAUClientContext@@@std@@@std@@@std@@QAEAAIXZ 10008310 f i IOCPS.obj
 0001:00007330       ??1?$_List_alloc@U?$_List_base_types@PAVCIOCPBuffer@@V?$allocator@PAVCIOCPBuffer@@@std@@@std@@@std@@QAE@XZ 10008330 f i IOCPS.obj
 0001:00007330       ??1?$_List_alloc@U?$_List_base_types@PAXV?$allocator@PAX@std@@@std@@@std@@QAE@XZ 10008330 f i IOCPS.obj
 0001:00007330       ??1?$_List_alloc@U?$_List_base_types@PAUClientContext@@V?$allocator@PAUClientContext@@@std@@@std@@@std@@QAE@XZ 10008330 f i IOCPS.obj
 0001:00007330       ??1?$_List_alloc@U?$_List_base_types@PAUJobItem@@V?$allocator@PAUJobItem@@@std@@@std@@@std@@QAE@XZ 10008330 f i IOCPS.obj
 0001:00007380       ?_Freenode@?$_List_buy@PAVCIOCPBuffer@@V?$allocator@PAVCIOCPBuffer@@@std@@@std@@QAEXPAU?$_List_node@PAVCIOCPBuffer@@PAX@2@@Z 10008380 f i IOCPS.obj
 0001:00007380       ?_Freenode@?$_List_buy@PAXV?$allocator@PAX@std@@@std@@QAEXPAU?$_List_node@PAXPAX@2@@Z 10008380 f i IOCPS.obj
 0001:00007380       ?_Freenode@?$_List_buy@PAUClientContext@@V?$allocator@PAUClientContext@@@std@@@std@@QAEXPAU?$_List_node@PAUClientContext@@PAX@2@@Z 10008380 f i IOCPS.obj
 0001:00007380       ?_Freenode@?$_List_buy@PAUJobItem@@V?$allocator@PAUJobItem@@@std@@@std@@QAEXPAU?$_List_node@PAUJobItem@@PAX@2@@Z 10008380 f i IOCPS.obj
 0001:00007420       ??0?$_List_buy@PAVCIOCPBuffer@@V?$allocator@PAVCIOCPBuffer@@@std@@@std@@QAE@XZ 10008420 f i IOCPS.obj
 0001:00007420       ??0?$_List_buy@PAUJobItem@@V?$allocator@PAUJobItem@@@std@@@std@@QAE@XZ 10008420 f i IOCPS.obj
 0001:00007420       ??0?$_List_buy@PAUClientContext@@V?$allocator@PAUClientContext@@@std@@@std@@QAE@XZ 10008420 f i IOCPS.obj
 0001:00007420       ??0?$_List_buy@PAXV?$allocator@PAX@std@@@std@@QAE@XZ 10008420 f i IOCPS.obj
 0001:00007440       ?_Tidy@?$list@PAXV?$allocator@PAX@std@@@std@@QAEXXZ 10008440 f i IOCPS.obj
 0001:00007440       ?_Tidy@?$list@PAUClientContext@@V?$allocator@PAUClientContext@@@std@@@std@@QAEXXZ 10008440 f i IOCPS.obj
 0001:00007440       ?_Tidy@?$list@PAVCIOCPBuffer@@V?$allocator@PAVCIOCPBuffer@@@std@@@std@@QAEXXZ 10008440 f i IOCPS.obj
 0001:00007440       ?_Tidy@?$list@PAUJobItem@@V?$allocator@PAUJobItem@@@std@@@std@@QAEXXZ 10008440 f i IOCPS.obj
 0001:00007460       ?erase@?$list@PAVCIOCPBuffer@@V?$allocator@PAVCIOCPBuffer@@@std@@@std@@QAE?AV?$_List_iterator@V?$_List_val@U?$_List_simple_types@PAVCIOCPBuffer@@@std@@@std@@@2@V?$_List_const_iterator@V?$_List_val@U?$_List_simple_types@PAVCIOCPBuffer@@@std@@@std@@@2@@Z 10008460 f i IOCPS.obj
 0001:00007460       ?erase@?$list@PAUJobItem@@V?$allocator@PAUJobItem@@@std@@@std@@QAE?AV?$_List_iterator@V?$_List_val@U?$_List_simple_types@PAUJobItem@@@std@@@std@@@2@V?$_List_const_iterator@V?$_List_val@U?$_List_simple_types@PAUJobItem@@@std@@@std@@@2@@Z 10008460 f i IOCPS.obj
 0001:00007460       ?erase@?$list@PAUClientContext@@V?$allocator@PAUClientContext@@@std@@@std@@QAE?AV?$_List_iterator@V?$_List_val@U?$_List_simple_types@PAUClientContext@@@std@@@std@@@2@V?$_List_const_iterator@V?$_List_val@U?$_List_simple_types@PAUClientContext@@@std@@@std@@@2@@Z 10008460 f i IOCPS.obj
 0001:000074b0       ?_Unchecked_begin@?$list@PAUClientContext@@V?$allocator@PAUClientContext@@@std@@@std@@QAE?AV?$_List_unchecked_iterator@V?$_List_val@U?$_List_simple_types@PAUClientContext@@@std@@@std@@@2@XZ 100084b0 f i IOCPS.obj
 0001:000074b0       ?_Unchecked_begin@?$list@PAVCIOCPBuffer@@V?$allocator@PAVCIOCPBuffer@@@std@@@std@@QAE?AV?$_List_unchecked_iterator@V?$_List_val@U?$_List_simple_types@PAVCIOCPBuffer@@@std@@@std@@@2@XZ 100084b0 f i IOCPS.obj
 0001:000074b0       ?_Unchecked_begin@?$list@PAXV?$allocator@PAX@std@@@std@@QAE?AV?$_List_unchecked_iterator@V?$_List_val@U?$_List_simple_types@PAX@std@@@std@@@2@XZ 100084b0 f i IOCPS.obj
 0001:000074f0       ??R?$less@I@std@@QBE_NABI0@Z 100084f0 f i IOCPS.obj
 0001:00007520       ??0?$_String_alloc@U?$_String_base_types@DV?$allocator@D@std@@@std@@@std@@QAE@XZ 10008520 f i IOCPS.obj
 0001:00007540       ?_Assign_rv@?$basic_string@DU?$char_traits@D@std@@V?$allocator@D@2@@std@@QAEX$$QAV12@@Z 10008540 f i IOCPS.obj
 0001:00007600       ??E?$_Tree_unchecked_const_iterator@V?$_Tree_val@U?$_Tree_simple_types@U?$pair@$$CBIPAVCIOCPBuffer@@@std@@@std@@@std@@U_Iterator_base0@2@@std@@QAEAAV01@XZ 10008600 f i IOCPS.obj
 0001:00007600       ??E?$_Tree_unchecked_const_iterator@V?$_Tree_val@U?$_Tree_simple_types@U?$pair@$$CBGPAX@std@@@std@@@std@@U_Iterator_base0@2@@std@@QAEAAV01@XZ 10008600 f i IOCPS.obj
 0001:00007600       ??E?$_Tree_unchecked_const_iterator@V?$_Tree_val@U?$_Tree_simple_types@U?$pair@$$CBIPAUClientContext@@@std@@@std@@@std@@U_Iterator_base0@2@@std@@QAEAAV01@XZ 10008600 f i IOCPS.obj
 0001:000076c0       ??0?$_List_const_iterator@V?$_List_val@U?$_List_simple_types@PAX@std@@@std@@@std@@QAE@PAU?$_List_node@PAXPAX@1@PBV?$_List_val@U?$_List_simple_types@PAX@std@@@1@@Z 100086c0 f i IOCPS.obj
 0001:000076c0       ??0?$_List_const_iterator@V?$_List_val@U?$_List_simple_types@PAVCIOCPBuffer@@@std@@@std@@@std@@QAE@PAU?$_List_node@PAVCIOCPBuffer@@PAX@1@PBV?$_List_val@U?$_List_simple_types@PAVCIOCPBuffer@@@std@@@1@@Z 100086c0 f i IOCPS.obj
 0001:000076c0       ??0?$_List_const_iterator@V?$_List_val@U?$_List_simple_types@PAUClientContext@@@std@@@std@@@std@@QAE@PAU?$_List_node@PAUClientContext@@PAX@1@PBV?$_List_val@U?$_List_simple_types@PAUClientContext@@@std@@@1@@Z 100086c0 f i IOCPS.obj
 0001:000076c0       ??0?$_List_const_iterator@V?$_List_val@U?$_List_simple_types@PAUJobItem@@@std@@@std@@@std@@QAE@PAU?$_List_node@PAUJobItem@@PAX@1@PBV?$_List_val@U?$_List_simple_types@PAUJobItem@@@std@@@1@@Z 100086c0 f i IOCPS.obj
 0001:000076c0       ??0?$_List_unchecked_iterator@V?$_List_val@U?$_List_simple_types@PAVCIOCPBuffer@@@std@@@std@@@std@@QAE@PAU?$_List_node@PAVCIOCPBuffer@@PAX@1@PBV?$_List_val@U?$_List_simple_types@PAVCIOCPBuffer@@@std@@@1@@Z 100086c0 f i IOCPS.obj
 0001:000076c0       ??0?$_List_unchecked_iterator@V?$_List_val@U?$_List_simple_types@PAX@std@@@std@@@std@@QAE@PAU?$_List_node@PAXPAX@1@PBV?$_List_val@U?$_List_simple_types@PAX@std@@@1@@Z 100086c0 f i IOCPS.obj
 0001:000076c0       ??0?$_Tree_const_iterator@V?$_Tree_val@U?$_Tree_simple_types@U?$pair@$$CBIPAUClientContext@@@std@@@std@@@std@@@std@@QAE@PAU?$_Tree_node@U?$pair@$$CBIPAUClientContext@@@std@@PAX@1@PBV?$_Tree_val@U?$_Tree_simple_types@U?$pair@$$CBIPAUClientContext@@@std@@@std@@@1@@Z 100086c0 f i IOCPS.obj
 0001:000076c0       ??0?$_Tree_const_iterator@V?$_Tree_val@U?$_Tree_simple_types@U?$pair@$$CBIPAVCIOCPBuffer@@@std@@@std@@@std@@@std@@QAE@PAU?$_Tree_node@U?$pair@$$CBIPAVCIOCPBuffer@@@std@@PAX@1@PBV?$_Tree_val@U?$_Tree_simple_types@U?$pair@$$CBIPAVCIOCPBuffer@@@std@@@std@@@1@@Z 100086c0 f i IOCPS.obj
 0001:000076c0       ??0?$_Tree_const_iterator@V?$_Tree_val@U?$_Tree_simple_types@U?$pair@$$CBGPAX@std@@@std@@@std@@@std@@QAE@PAU?$_Tree_node@U?$pair@$$CBGPAX@std@@PAX@1@PBV?$_Tree_val@U?$_Tree_simple_types@U?$pair@$$CBGPAX@std@@@std@@@1@@Z 100086c0 f i IOCPS.obj
 0001:000076c0       ??0?$_List_unchecked_iterator@V?$_List_val@U?$_List_simple_types@PAUClientContext@@@std@@@std@@@std@@QAE@PAU?$_List_node@PAUClientContext@@PAX@1@PBV?$_List_val@U?$_List_simple_types@PAUClientContext@@@std@@@1@@Z 100086c0 f i IOCPS.obj
 0001:000076e0       ?_Min@?$_Tree_val@U?$_Tree_simple_types@U?$pair@$$CBIPAVCIOCPBuffer@@@std@@@std@@@std@@SAPAU?$_Tree_node@U?$pair@$$CBIPAVCIOCPBuffer@@@std@@PAX@2@PAU32@@Z 100086e0 f i IOCPS.obj
 0001:000076e0       ?_Min@?$_Tree_val@U?$_Tree_simple_types@U?$pair@$$CBIPAUClientContext@@@std@@@std@@@std@@SAPAU?$_Tree_node@U?$pair@$$CBIPAUClientContext@@@std@@PAX@2@PAU32@@Z 100086e0 f i IOCPS.obj
 0001:000076e0       ?_Min@?$_Tree_val@U?$_Tree_simple_types@U?$pair@$$CBGPAX@std@@@std@@@std@@SAPAU?$_Tree_node@U?$pair@$$CBGPAX@std@@PAX@2@PAU32@@Z 100086e0 f i IOCPS.obj
 0001:00007720       ?_Max@?$_Tree_val@U?$_Tree_simple_types@U?$pair@$$CBIPAVCIOCPBuffer@@@std@@@std@@@std@@SAPAU?$_Tree_node@U?$pair@$$CBIPAVCIOCPBuffer@@@std@@PAX@2@PAU32@@Z 10008720 f i IOCPS.obj
 0001:00007720       ?_Max@?$_Tree_val@U?$_Tree_simple_types@U?$pair@$$CBIPAUClientContext@@@std@@@std@@@std@@SAPAU?$_Tree_node@U?$pair@$$CBIPAUClientContext@@@std@@PAX@2@PAU32@@Z 10008720 f i IOCPS.obj
 0001:00007720       ?_Max@?$_Tree_val@U?$_Tree_simple_types@U?$pair@$$CBGPAX@std@@@std@@@std@@SAPAU?$_Tree_node@U?$pair@$$CBGPAX@std@@PAX@2@PAU32@@Z 10008720 f i IOCPS.obj
 0001:00007760       ?_Myval@?$_Tree_val@U?$_Tree_simple_types@U?$pair@$$CBIPAUClientContext@@@std@@@std@@@std@@SAAAU?$pair@$$CBIPAUClientContext@@@2@PAU?$_Tree_node@U?$pair@$$CBIPAUClientContext@@@std@@PAX@2@@Z 10008760 f i IOCPS.obj
 0001:00007760       ?_Myval@?$_Tree_val@U?$_Tree_simple_types@U?$pair@$$CBGPAX@std@@@std@@@std@@SAAAU?$pair@$$CBGPAX@2@PAU?$_Tree_node@U?$pair@$$CBGPAX@std@@PAX@2@@Z 10008760 f i IOCPS.obj
 0001:00007760       ?_Myval@?$_Tree_val@U?$_Tree_simple_types@U?$pair@$$CBIPAVCIOCPBuffer@@@std@@@std@@@std@@SAAAU?$pair@$$CBIPAVCIOCPBuffer@@@2@PAU?$_Tree_node@U?$pair@$$CBIPAVCIOCPBuffer@@@std@@PAX@2@@Z 10008760 f i IOCPS.obj
 0001:00007770       ?_Right@?$_Tree_val@U?$_Tree_simple_types@U?$pair@$$CBIPAVCIOCPBuffer@@@std@@@std@@@std@@SAAAPAU?$_Tree_node@U?$pair@$$CBIPAVCIOCPBuffer@@@std@@PAX@2@PAU32@@Z 10008770 f i IOCPS.obj
 0001:00007770       ?_Right@?$_Tree_val@U?$_Tree_simple_types@U?$pair@$$CBGPAX@std@@@std@@@std@@SAAAPAU?$_Tree_node@U?$pair@$$CBGPAX@std@@PAX@2@PAU32@@Z 10008770 f i IOCPS.obj
 0001:00007770       ?_Myval@?$_List_val@U?$_List_simple_types@PAUJobItem@@@std@@@std@@SAAAPAUJobItem@@PAU?$_List_node@PAUJobItem@@PAX@2@@Z 10008770 f i IOCPS.obj
 0001:00007770       ?_Right@?$_Tree_val@U?$_Tree_simple_types@U?$pair@$$CBIPAUClientContext@@@std@@@std@@@std@@SAAAPAU?$_Tree_node@U?$pair@$$CBIPAUClientContext@@@std@@PAX@2@PAU32@@Z 10008770 f i IOCPS.obj
 0001:00007770       ?_Myval@?$_List_val@U?$_List_simple_types@PAUClientContext@@@std@@@std@@SAAAPAUClientContext@@PAU?$_List_node@PAUClientContext@@PAX@2@@Z 10008770 f i IOCPS.obj
 0001:00007770       ?_Myval@?$_List_val@U?$_List_simple_types@PAVCIOCPBuffer@@@std@@@std@@SAAAPAVCIOCPBuffer@@PAU?$_List_node@PAVCIOCPBuffer@@PAX@2@@Z 10008770 f i IOCPS.obj
 0001:00007770       ?_Myval@?$_List_val@U?$_List_simple_types@PAX@std@@@std@@SAAAPAXPAU?$_List_node@PAXPAX@2@@Z 10008770 f i IOCPS.obj
 0001:00007780       ?_Parent@?$_Tree_val@U?$_Tree_simple_types@U?$pair@$$CBIPAVCIOCPBuffer@@@std@@@std@@@std@@SAAAPAU?$_Tree_node@U?$pair@$$CBIPAVCIOCPBuffer@@@std@@PAX@2@PAU32@@Z 10008780 f i IOCPS.obj
 0001:00007780       ?_Prevnode@?$_List_val@U?$_List_simple_types@PAUClientContext@@@std@@@std@@SAAAPAU?$_List_node@PAUClientContext@@PAX@2@PAU32@@Z 10008780 f i IOCPS.obj
 0001:00007780       ?_Prevnode@?$_List_val@U?$_List_simple_types@PAUJobItem@@@std@@@std@@SAAAPAU?$_List_node@PAUJobItem@@PAX@2@PAU32@@Z 10008780 f i IOCPS.obj
 0001:00007780       ?_Parent@?$_Tree_val@U?$_Tree_simple_types@U?$pair@$$CBIPAUClientContext@@@std@@@std@@@std@@SAAAPAU?$_Tree_node@U?$pair@$$CBIPAUClientContext@@@std@@PAX@2@PAU32@@Z 10008780 f i IOCPS.obj
 0001:00007780       ?_Parent@?$_Tree_val@U?$_Tree_simple_types@U?$pair@$$CBGPAX@std@@@std@@@std@@SAAAPAU?$_Tree_node@U?$pair@$$CBGPAX@std@@PAX@2@PAU32@@Z 10008780 f i IOCPS.obj
 0001:00007780       ?_Prevnode@?$_List_val@U?$_List_simple_types@PAVCIOCPBuffer@@@std@@@std@@SAAAPAU?$_List_node@PAVCIOCPBuffer@@PAX@2@PAU32@@Z 10008780 f i IOCPS.obj
 0001:00007780       ?_Prevnode@?$_List_val@U?$_List_simple_types@PAX@std@@@std@@SAAAPAU?$_List_node@PAXPAX@2@PAU32@@Z 10008780 f i IOCPS.obj
 0001:00007790       ?_Isnil@?$_Tree_val@U?$_Tree_simple_types@U?$pair@$$CBIPAUClientContext@@@std@@@std@@@std@@SAAADPAU?$_Tree_node@U?$pair@$$CBIPAUClientContext@@@std@@PAX@2@@Z 10008790 f i IOCPS.obj
 0001:00007790       ?_Isnil@?$_Tree_val@U?$_Tree_simple_types@U?$pair@$$CBGPAX@std@@@std@@@std@@SAAADPAU?$_Tree_node@U?$pair@$$CBGPAX@std@@PAX@2@@Z 10008790 f i IOCPS.obj
 0001:00007790       ?_Isnil@?$_Tree_val@U?$_Tree_simple_types@U?$pair@$$CBIPAVCIOCPBuffer@@@std@@@std@@@std@@SAAADPAU?$_Tree_node@U?$pair@$$CBIPAVCIOCPBuffer@@@std@@PAX@2@@Z 10008790 f i IOCPS.obj
 0001:000077a0       ?_Color@?$_Tree_val@U?$_Tree_simple_types@U?$pair@$$CBIPAUClientContext@@@std@@@std@@@std@@SAAADPAU?$_Tree_node@U?$pair@$$CBIPAUClientContext@@@std@@PAX@2@@Z 100087a0 f i IOCPS.obj
 0001:000077a0       ?_Color@?$_Tree_val@U?$_Tree_simple_types@U?$pair@$$CBIPAVCIOCPBuffer@@@std@@@std@@@std@@SAAADPAU?$_Tree_node@U?$pair@$$CBIPAVCIOCPBuffer@@@std@@PAX@2@@Z 100087a0 f i IOCPS.obj
 0001:000077a0       ?_Color@?$_Tree_val@U?$_Tree_simple_types@U?$pair@$$CBGPAX@std@@@std@@@std@@SAAADPAU?$_Tree_node@U?$pair@$$CBGPAX@std@@PAX@2@@Z 100087a0 f i IOCPS.obj
 0001:000077b0       ?deallocate@?$allocator@U?$_Tree_node@U?$pair@$$CBIPAUClientContext@@@std@@PAX@std@@@std@@QAEXPAU?$_Tree_node@U?$pair@$$CBIPAUClientContext@@@std@@PAX@2@I@Z 100087b0 f i IOCPS.obj
 0001:000077b0       ?deallocate@?$allocator@U?$_Tree_node@U?$pair@$$CBGPAX@std@@PAX@std@@@std@@QAEXPAU?$_Tree_node@U?$pair@$$CBGPAX@std@@PAX@2@I@Z 100087b0 f i IOCPS.obj
 0001:000077b0       ?deallocate@?$allocator@U?$_Tree_node@U?$pair@$$CBIPAVCIOCPBuffer@@@std@@PAX@std@@@std@@QAEXPAU?$_Tree_node@U?$pair@$$CBIPAVCIOCPBuffer@@@std@@PAX@2@I@Z 100087b0 f i IOCPS.obj
 0001:000077d0       ?_Freeheadnode@?$_Tree_comp_alloc@V?$_Tmap_traits@IPAVCIOCPBuffer@@U?$less@I@std@@V?$allocator@U?$pair@$$CBIPAVCIOCPBuffer@@@std@@@3@$0A@@std@@@std@@QAEXPAU?$_Tree_node@U?$pair@$$CBIPAVCIOCPBuffer@@@std@@PAX@2@@Z 100087d0 f i IOCPS.obj
 0001:000077d0       ?_Freeheadnode@?$_Tree_comp_alloc@V?$_Tmap_traits@GPAXU?$less@G@std@@V?$allocator@U?$pair@$$CBGPAX@std@@@2@$0A@@std@@@std@@QAEXPAU?$_Tree_node@U?$pair@$$CBGPAX@std@@PAX@2@@Z 100087d0 f i IOCPS.obj
 0001:000077d0       ?_Freenode0@?$_Tree_comp_alloc@V?$_Tmap_traits@IPAVCIOCPBuffer@@U?$less@I@std@@V?$allocator@U?$pair@$$CBIPAVCIOCPBuffer@@@std@@@3@$0A@@std@@@std@@QAEXPAU?$_Tree_node@U?$pair@$$CBIPAVCIOCPBuffer@@@std@@PAX@2@@Z 100087d0 f i IOCPS.obj
 0001:000077d0       ?_Freeheadnode@?$_Tree_comp_alloc@V?$_Tmap_traits@IPAUClientContext@@U?$less@I@std@@V?$allocator@U?$pair@$$CBIPAUClientContext@@@std@@@3@$0A@@std@@@std@@QAEXPAU?$_Tree_node@U?$pair@$$CBIPAUClientContext@@@std@@PAX@2@@Z 100087d0 f i IOCPS.obj
 0001:000077d0       ?_Freenode0@?$_Tree_comp_alloc@V?$_Tmap_traits@IPAUClientContext@@U?$less@I@std@@V?$allocator@U?$pair@$$CBIPAUClientContext@@@std@@@3@$0A@@std@@@std@@QAEXPAU?$_Tree_node@U?$pair@$$CBIPAUClientContext@@@std@@PAX@2@@Z 100087d0 f i IOCPS.obj
 0001:000077d0       ?_Freenode0@?$_Tree_comp_alloc@V?$_Tmap_traits@GPAXU?$less@G@std@@V?$allocator@U?$pair@$$CBGPAX@std@@@2@$0A@@std@@@std@@QAEXPAU?$_Tree_node@U?$pair@$$CBGPAX@std@@PAX@2@@Z 100087d0 f i IOCPS.obj
 0001:00007870       ??0?$_Tree_comp_alloc@V?$_Tmap_traits@IPAVCIOCPBuffer@@U?$less@I@std@@V?$allocator@U?$pair@$$CBIPAVCIOCPBuffer@@@std@@@3@$0A@@std@@@std@@QAE@ABU?$less@I@1@@Z 10008870 f i IOCPS.obj
 0001:00007870       ??0?$_Tree_comp_alloc@V?$_Tmap_traits@GPAXU?$less@G@std@@V?$allocator@U?$pair@$$CBGPAX@std@@@2@$0A@@std@@@std@@QAE@ABU?$less@G@1@@Z 10008870 f i IOCPS.obj
 0001:00007870       ??0?$_Tree_comp_alloc@V?$_Tmap_traits@IPAUClientContext@@U?$less@I@std@@V?$allocator@U?$pair@$$CBIPAUClientContext@@@std@@@3@$0A@@std@@@std@@QAE@ABU?$less@I@1@@Z 10008870 f i IOCPS.obj
 0001:000078a0       ?_Kfn@?$_Tree@V?$_Tmap_traits@IPAUClientContext@@U?$less@I@std@@V?$allocator@U?$pair@$$CBIPAUClientContext@@@std@@@3@$0A@@std@@@std@@IBEABIABU?$pair@$$CBIPAUClientContext@@@2@@Z 100088a0 f i IOCPS.obj
 0001:000078a0       ?_Kfn@?$_Tree@V?$_Tmap_traits@GPAXU?$less@G@std@@V?$allocator@U?$pair@$$CBGPAX@std@@@2@$0A@@std@@@std@@IBEABGABU?$pair@$$CBGPAX@2@@Z 100088a0 f i IOCPS.obj
 0001:000078a0       ?_Kfn@?$_Tree@V?$_Tmap_traits@IPAVCIOCPBuffer@@U?$less@I@std@@V?$allocator@U?$pair@$$CBIPAVCIOCPBuffer@@@std@@@3@$0A@@std@@@std@@IBEABIABU?$pair@$$CBIPAVCIOCPBuffer@@@2@@Z 100088a0 f i IOCPS.obj
 0001:000078c0       ?erase@?$_Tree@V?$_Tmap_traits@IPAUClientContext@@U?$less@I@std@@V?$allocator@U?$pair@$$CBIPAUClientContext@@@std@@@3@$0A@@std@@@std@@QAE?AV?$_Tree_iterator@V?$_Tree_val@U?$_Tree_simple_types@U?$pair@$$CBIPAUClientContext@@@std@@@std@@@std@@@2@V?$_Tree_const_iterator@V?$_Tree_val@U?$_Tree_simple_types@U?$pair@$$CBIPAUClientContext@@@std@@@std@@@std@@@2@0@Z 100088c0 f i IOCPS.obj
 0001:000078c0       ?erase@?$_Tree@V?$_Tmap_traits@GPAXU?$less@G@std@@V?$allocator@U?$pair@$$CBGPAX@std@@@2@$0A@@std@@@std@@QAE?AV?$_Tree_iterator@V?$_Tree_val@U?$_Tree_simple_types@U?$pair@$$CBGPAX@std@@@std@@@std@@@2@V?$_Tree_const_iterator@V?$_Tree_val@U?$_Tree_simple_types@U?$pair@$$CBGPAX@std@@@std@@@std@@@2@0@Z 100088c0 f i IOCPS.obj
 0001:000078c0       ?erase@?$_Tree@V?$_Tmap_traits@IPAVCIOCPBuffer@@U?$less@I@std@@V?$allocator@U?$pair@$$CBIPAVCIOCPBuffer@@@std@@@3@$0A@@std@@@std@@QAE?AV?$_Tree_iterator@V?$_Tree_val@U?$_Tree_simple_types@U?$pair@$$CBIPAVCIOCPBuffer@@@std@@@std@@@std@@@2@V?$_Tree_const_iterator@V?$_Tree_val@U?$_Tree_simple_types@U?$pair@$$CBIPAVCIOCPBuffer@@@std@@@std@@@std@@@2@0@Z 100088c0 f i IOCPS.obj
 0001:00007970       ??F?$_List_const_iterator@V?$_List_val@U?$_List_simple_types@PAUJobItem@@@std@@@std@@@std@@QAEAAV01@XZ 10008970 f i IOCPS.obj
 0001:000079a0       ??E?$_List_const_iterator@V?$_List_val@U?$_List_simple_types@PAUClientContext@@@std@@@std@@@std@@QAE?AV01@H@Z 100089a0 f i IOCPS.obj
 0001:000079a0       ??E?$_List_const_iterator@V?$_List_val@U?$_List_simple_types@PAVCIOCPBuffer@@@std@@@std@@@std@@QAE?AV01@H@Z 100089a0 f i IOCPS.obj
 0001:000079a0       ??E?$_List_const_iterator@V?$_List_val@U?$_List_simple_types@PAUJobItem@@@std@@@std@@@std@@QAE?AV01@H@Z 100089a0 f i IOCPS.obj
 0001:000079d0       ??E?$_List_const_iterator@V?$_List_val@U?$_List_simple_types@PAUJobItem@@@std@@@std@@@std@@QAEAAV01@XZ 100089d0 f i IOCPS.obj
 0001:000079d0       ??E?$_List_const_iterator@V?$_List_val@U?$_List_simple_types@PAUClientContext@@@std@@@std@@@std@@QAEAAV01@XZ 100089d0 f i IOCPS.obj
 0001:000079d0       ??E?$_List_const_iterator@V?$_List_val@U?$_List_simple_types@PAVCIOCPBuffer@@@std@@@std@@@std@@QAEAAV01@XZ 100089d0 f i IOCPS.obj
 0001:000079d0       ??E?$_List_const_iterator@V?$_List_val@U?$_List_simple_types@PAX@std@@@std@@@std@@QAEAAV01@XZ 100089d0 f i IOCPS.obj
 0001:00007a00       ?deallocate@?$_Wrap_alloc@V?$allocator@U?$_List_node@PAUClientContext@@PAX@std@@@std@@@std@@QAEXPAU?$_List_node@PAUClientContext@@PAX@2@I@Z 10008a00 f i IOCPS.obj
 0001:00007a00       ?deallocate@?$_Wrap_alloc@V?$allocator@U?$_List_node@PAUJobItem@@PAX@std@@@std@@@std@@QAEXPAU?$_List_node@PAUJobItem@@PAX@2@I@Z 10008a00 f i IOCPS.obj
 0001:00007a00       ?deallocate@?$_Wrap_alloc@V?$allocator@U?$_List_node@PAVCIOCPBuffer@@PAX@std@@@std@@@std@@QAEXPAU?$_List_node@PAVCIOCPBuffer@@PAX@2@I@Z 10008a00 f i IOCPS.obj
 0001:00007a00       ?deallocate@?$_Wrap_alloc@V?$allocator@U?$_List_node@PAXPAX@std@@@std@@@std@@QAEXPAU?$_List_node@PAXPAX@2@I@Z 10008a00 f i IOCPS.obj
 0001:00007a20       ?_Freeheadnode@?$_List_alloc@U?$_List_base_types@PAUJobItem@@V?$allocator@PAUJobItem@@@std@@@std@@@std@@QAEXPAU?$_List_node@PAUJobItem@@PAX@2@@Z 10008a20 f i IOCPS.obj
 0001:00007a20       ?_Freeheadnode@?$_List_alloc@U?$_List_base_types@PAUClientContext@@V?$allocator@PAUClientContext@@@std@@@std@@@std@@QAEXPAU?$_List_node@PAUClientContext@@PAX@2@@Z 10008a20 f i IOCPS.obj
 0001:00007a20       ?_Freeheadnode@?$_List_alloc@U?$_List_base_types@PAVCIOCPBuffer@@V?$allocator@PAVCIOCPBuffer@@@std@@@std@@@std@@QAEXPAU?$_List_node@PAVCIOCPBuffer@@PAX@2@@Z 10008a20 f i IOCPS.obj
 0001:00007a20       ?_Freeheadnode@?$_List_alloc@U?$_List_base_types@PAXV?$allocator@PAX@std@@@std@@@std@@QAEXPAU?$_List_node@PAXPAX@2@@Z 10008a20 f i IOCPS.obj
 0001:00007a90       ??0?$_List_alloc@U?$_List_base_types@PAUJobItem@@V?$allocator@PAUJobItem@@@std@@@std@@@std@@QAE@XZ 10008a90 f i IOCPS.obj
 0001:00007a90       ??0?$_List_alloc@U?$_List_base_types@PAVCIOCPBuffer@@V?$allocator@PAVCIOCPBuffer@@@std@@@std@@@std@@QAE@XZ 10008a90 f i IOCPS.obj
 0001:00007a90       ??0?$_List_alloc@U?$_List_base_types@PAUClientContext@@V?$allocator@PAUClientContext@@@std@@@std@@@std@@QAE@XZ 10008a90 f i IOCPS.obj
 0001:00007a90       ??0?$_List_alloc@U?$_List_base_types@PAXV?$allocator@PAX@std@@@std@@@std@@QAE@XZ 10008a90 f i IOCPS.obj
 0001:00007ad0       ?_Unlinknode@?$list@PAUClientContext@@V?$allocator@PAUClientContext@@@std@@@std@@QAEPAU?$_List_node@PAUClientContext@@PAX@2@V?$_List_const_iterator@V?$_List_val@U?$_List_simple_types@PAUClientContext@@@std@@@std@@@2@@Z 10008ad0 f i IOCPS.obj
 0001:00007ad0       ?_Unlinknode@?$list@PAUJobItem@@V?$allocator@PAUJobItem@@@std@@@std@@QAEPAU?$_List_node@PAUJobItem@@PAX@2@V?$_List_const_iterator@V?$_List_val@U?$_List_simple_types@PAUJobItem@@@std@@@std@@@2@@Z 10008ad0 f i IOCPS.obj
 0001:00007ad0       ?_Unlinknode@?$list@PAVCIOCPBuffer@@V?$allocator@PAVCIOCPBuffer@@@std@@@std@@QAEPAU?$_List_node@PAVCIOCPBuffer@@PAX@2@V?$_List_const_iterator@V?$_List_val@U?$_List_simple_types@PAVCIOCPBuffer@@@std@@@std@@@2@@Z 10008ad0 f i IOCPS.obj
 0001:00007b60       ?_Make_iter@?$list@PAUJobItem@@V?$allocator@PAUJobItem@@@std@@@std@@QBE?AV?$_List_iterator@V?$_List_val@U?$_List_simple_types@PAUJobItem@@@std@@@std@@@2@V?$_List_const_iterator@V?$_List_val@U?$_List_simple_types@PAUJobItem@@@std@@@std@@@2@@Z 10008b60 f i IOCPS.obj
 0001:00007b60       ?_Make_iter@?$list@PAUClientContext@@V?$allocator@PAUClientContext@@@std@@@std@@QBE?AV?$_List_iterator@V?$_List_val@U?$_List_simple_types@PAUClientContext@@@std@@@std@@@2@V?$_List_const_iterator@V?$_List_val@U?$_List_simple_types@PAUClientContext@@@std@@@std@@@2@@Z 10008b60 f i IOCPS.obj
 0001:00007b60       ?_Make_iter@?$list@PAVCIOCPBuffer@@V?$allocator@PAVCIOCPBuffer@@@std@@@std@@QBE?AV?$_List_iterator@V?$_List_val@U?$_List_simple_types@PAVCIOCPBuffer@@@std@@@std@@@2@V?$_List_const_iterator@V?$_List_val@U?$_List_simple_types@PAVCIOCPBuffer@@@std@@@std@@@2@@Z 10008b60 f i IOCPS.obj
 0001:00007bb0       ??0?$_List_unchecked_const_iterator@V?$_List_val@U?$_List_simple_types@PAUClientContext@@@std@@@std@@U_Iterator_base0@2@@std@@QAE@PAU?$_List_node@PAUClientContext@@PAX@1@PBV?$_List_val@U?$_List_simple_types@PAUClientContext@@@std@@@1@@Z 10008bb0 f i IOCPS.obj
 0001:00007bb0       ??0?$_List_unchecked_const_iterator@V?$_List_val@U?$_List_simple_types@PAVCIOCPBuffer@@@std@@@std@@U_Iterator_base0@2@@std@@QAE@PAU?$_List_node@PAVCIOCPBuffer@@PAX@1@PBV?$_List_val@U?$_List_simple_types@PAVCIOCPBuffer@@@std@@@1@@Z 10008bb0 f i IOCPS.obj
 0001:00007bb0       ??0?$_Tree_unchecked_const_iterator@V?$_Tree_val@U?$_Tree_simple_types@U?$pair@$$CBIPAVCIOCPBuffer@@@std@@@std@@@std@@U_Iterator_base0@2@@std@@QAE@PAU?$_Tree_node@U?$pair@$$CBIPAVCIOCPBuffer@@@std@@PAX@1@PBV?$_Tree_val@U?$_Tree_simple_types@U?$pair@$$CBIPAVCIOCPBuffer@@@std@@@std@@@1@@Z 10008bb0 f i IOCPS.obj
 0001:00007bb0       ??0?$_List_unchecked_const_iterator@V?$_List_val@U?$_List_simple_types@PAX@std@@@std@@U_Iterator_base0@2@@std@@QAE@PAU?$_List_node@PAXPAX@1@PBV?$_List_val@U?$_List_simple_types@PAX@std@@@1@@Z 10008bb0 f i IOCPS.obj
 0001:00007bb0       ??0?$_List_unchecked_const_iterator@V?$_List_val@U?$_List_simple_types@PAUJobItem@@@std@@@std@@U_Iterator_base0@2@@std@@QAE@PAU?$_List_node@PAUJobItem@@PAX@1@PBV?$_List_val@U?$_List_simple_types@PAUJobItem@@@std@@@1@@Z 10008bb0 f i IOCPS.obj
 0001:00007bb0       ??0?$_Tree_unchecked_const_iterator@V?$_Tree_val@U?$_Tree_simple_types@U?$pair@$$CBGPAX@std@@@std@@@std@@U_Iterator_base0@2@@std@@QAE@PAU?$_Tree_node@U?$pair@$$CBGPAX@std@@PAX@1@PBV?$_Tree_val@U?$_Tree_simple_types@U?$pair@$$CBGPAX@std@@@std@@@1@@Z 10008bb0 f i IOCPS.obj
 0001:00007bb0       ??0?$_Tree_unchecked_const_iterator@V?$_Tree_val@U?$_Tree_simple_types@U?$pair@$$CBIPAUClientContext@@@std@@@std@@@std@@U_Iterator_base0@2@@std@@QAE@PAU?$_Tree_node@U?$pair@$$CBIPAUClientContext@@@std@@PAX@1@PBV?$_Tree_val@U?$_Tree_simple_types@U?$pair@$$CBIPAUClientContext@@@std@@@std@@@1@@Z 10008bb0 f i IOCPS.obj
 0001:00007be0       ??E?$_Tree_const_iterator@V?$_Tree_val@U?$_Tree_simple_types@U?$pair@$$CBGPAX@std@@@std@@@std@@@std@@QAE?AV01@H@Z 10008be0 f i IOCPS.obj
 0001:00007be0       ??E?$_Tree_const_iterator@V?$_Tree_val@U?$_Tree_simple_types@U?$pair@$$CBIPAVCIOCPBuffer@@@std@@@std@@@std@@@std@@QAE?AV01@H@Z 10008be0 f i IOCPS.obj
 0001:00007be0       ??E?$_Tree_const_iterator@V?$_Tree_val@U?$_Tree_simple_types@U?$pair@$$CBIPAUClientContext@@@std@@@std@@@std@@@std@@QAE?AV01@H@Z 10008be0 f i IOCPS.obj
 0001:00007c10       ?_Construct@?$_Tree_comp_alloc@V?$_Tmap_traits@GPAXU?$less@G@std@@V?$allocator@U?$pair@$$CBGPAX@std@@@2@$0A@@std@@@std@@QAEXXZ 10008c10 f i IOCPS.obj
 0001:00007c10       ?_Construct@?$_Tree_comp_alloc@V?$_Tmap_traits@IPAUClientContext@@U?$less@I@std@@V?$allocator@U?$pair@$$CBIPAUClientContext@@@std@@@3@$0A@@std@@@std@@QAEXXZ 10008c10 f i IOCPS.obj
 0001:00007c10       ?_Construct@?$_Tree_comp_alloc@V?$_Tmap_traits@IPAVCIOCPBuffer@@U?$less@I@std@@V?$allocator@U?$pair@$$CBIPAVCIOCPBuffer@@@std@@@3@$0A@@std@@@std@@QAEXXZ 10008c10 f i IOCPS.obj
 0001:00007c40       ?deallocate@?$allocator@U?$_List_node@PAUClientContext@@PAX@std@@@std@@QAEXPAU?$_List_node@PAUClientContext@@PAX@2@I@Z 10008c40 f i IOCPS.obj
 0001:00007c40       ?deallocate@?$allocator@U?$_List_node@PAXPAX@std@@@std@@QAEXPAU?$_List_node@PAXPAX@2@I@Z 10008c40 f i IOCPS.obj
 0001:00007c40       ?deallocate@?$allocator@U?$_List_node@PAVCIOCPBuffer@@PAX@std@@@std@@QAEXPAU?$_List_node@PAVCIOCPBuffer@@PAX@2@I@Z 10008c40 f i IOCPS.obj
 0001:00007c40       ?deallocate@?$allocator@U?$_List_node@PAUJobItem@@PAX@std@@@std@@QAEXPAU?$_List_node@PAUJobItem@@PAX@2@I@Z 10008c40 f i IOCPS.obj
 0001:00007c60       ?_Buyheadnode@?$_List_alloc@U?$_List_base_types@PAXV?$allocator@PAX@std@@@std@@@std@@QAEPAU?$_List_node@PAXPAX@2@XZ 10008c60 f i IOCPS.obj
 0001:00007c60       ?_Buyheadnode@?$_List_alloc@U?$_List_base_types@PAUJobItem@@V?$allocator@PAUJobItem@@@std@@@std@@@std@@QAEPAU?$_List_node@PAUJobItem@@PAX@2@XZ 10008c60 f i IOCPS.obj
 0001:00007c60       ?_Buyheadnode@?$_List_alloc@U?$_List_base_types@PAVCIOCPBuffer@@V?$allocator@PAVCIOCPBuffer@@@std@@@std@@@std@@QAEPAU?$_List_node@PAVCIOCPBuffer@@PAX@2@XZ 10008c60 f i IOCPS.obj
 0001:00007c60       ?_Buyheadnode@?$_List_alloc@U?$_List_base_types@PAUClientContext@@V?$allocator@PAUClientContext@@@std@@@std@@@std@@QAEPAU?$_List_node@PAUClientContext@@PAX@2@XZ 10008c60 f i IOCPS.obj
 0001:00007c80       ??$?0U_Exact_args_t@std@@$0A@@?$tuple@$$V@std@@QAE@U_Exact_args_t@1@@Z 10008c80 f i IOCPS.obj
 0001:00007c80       ??0?$tuple@$$V@std@@QAE@ABV01@@Z 10008c80 f i IOCPS.obj
 0001:00007c80       ??0?$allocator@D@std@@QAE@ABV01@@Z 10008c80 f i IOCPS.obj
 0001:00007c90       ?_Buyheadnode@?$_Tree_comp_alloc@V?$_Tmap_traits@IPAVCIOCPBuffer@@U?$less@I@std@@V?$allocator@U?$pair@$$CBIPAVCIOCPBuffer@@@std@@@3@$0A@@std@@@std@@QAEPAU?$_Tree_node@U?$pair@$$CBIPAVCIOCPBuffer@@@std@@PAX@2@XZ 10008c90 f i IOCPS.obj
 0001:00007c90       ?_Buyheadnode@?$_Tree_comp_alloc@V?$_Tmap_traits@IPAUClientContext@@U?$less@I@std@@V?$allocator@U?$pair@$$CBIPAUClientContext@@@std@@@3@$0A@@std@@@std@@QAEPAU?$_Tree_node@U?$pair@$$CBIPAUClientContext@@@std@@PAX@2@XZ 10008c90 f i IOCPS.obj
 0001:00007c90       ?_Buyheadnode@?$_Tree_comp_alloc@V?$_Tmap_traits@GPAXU?$less@G@std@@V?$allocator@U?$pair@$$CBGPAX@std@@@2@$0A@@std@@@std@@QAEPAU?$_Tree_node@U?$pair@$$CBGPAX@std@@PAX@2@XZ 10008c90 f i IOCPS.obj
 0001:00007dd0       ?_Buynode0@?$_List_alloc@U?$_List_base_types@PAXV?$allocator@PAX@std@@@std@@@std@@QAEPAU?$_List_node@PAXPAX@2@PAU32@0@Z 10008dd0 f i IOCPS.obj
 0001:00007dd0       ?_Buynode0@?$_List_alloc@U?$_List_base_types@PAUClientContext@@V?$allocator@PAUClientContext@@@std@@@std@@@std@@QAEPAU?$_List_node@PAUClientContext@@PAX@2@PAU32@0@Z 10008dd0 f i IOCPS.obj
 0001:00007dd0       ?_Buynode0@?$_List_alloc@U?$_List_base_types@PAUJobItem@@V?$allocator@PAUJobItem@@@std@@@std@@@std@@QAEPAU?$_List_node@PAUJobItem@@PAX@2@PAU32@0@Z 10008dd0 f i IOCPS.obj
 0001:00007dd0       ?_Buynode0@?$_List_alloc@U?$_List_base_types@PAVCIOCPBuffer@@V?$allocator@PAVCIOCPBuffer@@@std@@@std@@@std@@QAEPAU?$_List_node@PAVCIOCPBuffer@@PAX@2@PAU32@0@Z 10008dd0 f i IOCPS.obj
 0001:00007ee0       ?allocate@?$_Wrap_alloc@V?$allocator@U?$_Tree_node@U?$pair@$$CBIPAUClientContext@@@std@@PAX@std@@@std@@@std@@QAEPAU?$_Tree_node@U?$pair@$$CBIPAUClientContext@@@std@@PAX@2@I@Z 10008ee0 f i IOCPS.obj
 0001:00007ee0       ?allocate@?$_Wrap_alloc@V?$allocator@U?$_Tree_node@U?$pair@$$CBGPAX@std@@PAX@std@@@std@@@std@@QAEPAU?$_Tree_node@U?$pair@$$CBGPAX@std@@PAX@2@I@Z 10008ee0 f i IOCPS.obj
 0001:00007ee0       ?allocate@?$_Wrap_alloc@V?$allocator@U?$_Tree_node@U?$pair@$$CBIPAVCIOCPBuffer@@@std@@PAX@std@@@std@@@std@@QAEPAU?$_Tree_node@U?$pair@$$CBIPAVCIOCPBuffer@@@std@@PAX@2@I@Z 10008ee0 f i IOCPS.obj
 0001:00007f00       ?allocate@?$_Wrap_alloc@V?$allocator@U?$_List_node@PAVCIOCPBuffer@@PAX@std@@@std@@@std@@QAEPAU?$_List_node@PAVCIOCPBuffer@@PAX@2@I@Z 10008f00 f i IOCPS.obj
 0001:00007f00       ?allocate@?$_Wrap_alloc@V?$allocator@U?$_List_node@PAUJobItem@@PAX@std@@@std@@@std@@QAEPAU?$_List_node@PAUJobItem@@PAX@2@I@Z 10008f00 f i IOCPS.obj
 0001:00007f00       ?allocate@?$_Wrap_alloc@V?$allocator@U?$_List_node@PAUClientContext@@PAX@std@@@std@@@std@@QAEPAU?$_List_node@PAUClientContext@@PAX@2@I@Z 10008f00 f i IOCPS.obj
 0001:00007f00       ?allocate@?$_Wrap_alloc@V?$allocator@U?$_List_node@PAXPAX@std@@@std@@@std@@QAEPAU?$_List_node@PAXPAX@2@I@Z 10008f00 f i IOCPS.obj
 0001:00007f20       ?allocate@?$allocator@U?$_Tree_node@U?$pair@$$CBIPAUClientContext@@@std@@PAX@std@@@std@@QAEPAU?$_Tree_node@U?$pair@$$CBIPAUClientContext@@@std@@PAX@2@I@Z 10008f20 f i IOCPS.obj
 0001:00007f20       ?allocate@?$allocator@U?$_Tree_node@U?$pair@$$CBGPAX@std@@PAX@std@@@std@@QAEPAU?$_Tree_node@U?$pair@$$CBGPAX@std@@PAX@2@I@Z 10008f20 f i IOCPS.obj
 0001:00007f20       ?allocate@?$allocator@U?$_Tree_node@U?$pair@$$CBIPAVCIOCPBuffer@@@std@@PAX@std@@@std@@QAEPAU?$_Tree_node@U?$pair@$$CBIPAVCIOCPBuffer@@@std@@PAX@2@I@Z 10008f20 f i IOCPS.obj
 0001:00007f40       ?allocate@?$allocator@U?$_List_node@PAVCIOCPBuffer@@PAX@std@@@std@@QAEPAU?$_List_node@PAVCIOCPBuffer@@PAX@2@I@Z 10008f40 f i IOCPS.obj
 0001:00007f40       ?allocate@?$allocator@U?$_List_node@PAXPAX@std@@@std@@QAEPAU?$_List_node@PAXPAX@2@I@Z 10008f40 f i IOCPS.obj
 0001:00007f40       ?allocate@?$allocator@U?$_List_node@PAUJobItem@@PAX@std@@@std@@QAEPAU?$_List_node@PAUJobItem@@PAX@2@I@Z 10008f40 f i IOCPS.obj
 0001:00007f40       ?allocate@?$allocator@U?$_List_node@PAUClientContext@@PAX@std@@@std@@QAEPAU?$_List_node@PAUClientContext@@PAX@2@I@Z 10008f40 f i IOCPS.obj
 0001:00007f60       ??$?0GAAPAXX$0A@@?$pair@GPAX@std@@QAE@$$QAGAAPAX@Z 10008f60 f i IOCPS.obj
 0001:00007fa0       ??$insert@U?$pair@GPAX@std@@X@?$map@GPAXU?$less@G@std@@V?$allocator@U?$pair@$$CBGPAX@std@@@2@@std@@QAE?AU?$pair@V?$_Tree_iterator@V?$_Tree_val@U?$_Tree_simple_types@U?$pair@$$CBGPAX@std@@@std@@@std@@@std@@_N@1@$$QAU?$pair@GPAX@1@@Z 10008fa0 f i IOCPS.obj
 0001:00007fd0       ??$?0AAIAAPAVCIOCPBuffer@@X$0A@@?$pair@IPAVCIOCPBuffer@@@std@@QAE@AAIAAPAVCIOCPBuffer@@@Z 10008fd0 f i IOCPS.obj
 0001:00008010       ??$insert@U?$pair@IPAVCIOCPBuffer@@@std@@X@?$map@IPAVCIOCPBuffer@@U?$less@I@std@@V?$allocator@U?$pair@$$CBIPAVCIOCPBuffer@@@std@@@3@@std@@QAE?AU?$pair@V?$_Tree_iterator@V?$_Tree_val@U?$_Tree_simple_types@U?$pair@$$CBIPAVCIOCPBuffer@@@std@@@std@@@std@@@std@@_N@1@$$QAU?$pair@IPAVCIOCPBuffer@@@1@@Z 10009010 f i IOCPS.obj
 0001:00008040       ??$swap@DX@std@@YAXAAD0@Z  10009040 f i IOCPS.obj
 0001:00008080       ??$try_emplace@$$V@?$map@GPAXU?$less@G@std@@V?$allocator@U?$pair@$$CBGPAX@std@@@2@@std@@QAE?AU?$pair@V?$_Tree_iterator@V?$_Tree_val@U?$_Tree_simple_types@U?$pair@$$CBGPAX@std@@@std@@@std@@@std@@_N@1@ABG@Z 10009080 f i IOCPS.obj
 0001:000080a0       ??$_Insert@ABQAUClientContext@@@?$list@PAUClientContext@@V?$allocator@PAUClientContext@@@std@@@std@@QAEXV?$_List_unchecked_const_iterator@V?$_List_val@U?$_List_simple_types@PAUClientContext@@@std@@@std@@U_Iterator_base0@2@@1@ABQAUClientContext@@@Z 100090a0 f i IOCPS.obj
 0001:000080a0       ??$_Insert@ABQAVCIOCPBuffer@@@?$list@PAVCIOCPBuffer@@V?$allocator@PAVCIOCPBuffer@@@std@@@std@@QAEXV?$_List_unchecked_const_iterator@V?$_List_val@U?$_List_simple_types@PAVCIOCPBuffer@@@std@@@std@@U_Iterator_base0@2@@1@ABQAVCIOCPBuffer@@@Z 100090a0 f i IOCPS.obj
 0001:000080a0       ??$_Insert@ABQAX@?$list@PAXV?$allocator@PAX@std@@@std@@QAEXV?$_List_unchecked_const_iterator@V?$_List_val@U?$_List_simple_types@PAX@std@@@std@@U_Iterator_base0@2@@1@ABQAX@Z 100090a0 f i IOCPS.obj
 0001:00008120       ??$try_emplace@$$V@?$map@IPAVCIOCPBuffer@@U?$less@I@std@@V?$allocator@U?$pair@$$CBIPAVCIOCPBuffer@@@std@@@3@@std@@QAE?AU?$pair@V?$_Tree_iterator@V?$_Tree_val@U?$_Tree_simple_types@U?$pair@$$CBIPAVCIOCPBuffer@@@std@@@std@@@std@@@std@@_N@1@ABI@Z 10009120 f i IOCPS.obj
 0001:00008120       ??$try_emplace@$$V@?$map@IPAUClientContext@@U?$less@I@std@@V?$allocator@U?$pair@$$CBIPAUClientContext@@@std@@@3@@std@@QAE?AU?$pair@V?$_Tree_iterator@V?$_Tree_val@U?$_Tree_simple_types@U?$pair@$$CBIPAUClientContext@@@std@@@std@@@std@@@std@@_N@1@ABI@Z 10009120 f i IOCPS.obj
 0001:00008140       ??$?0U?$_Wrap_alloc@V?$allocator@D@std@@@std@@X@?$_String_alloc@U?$_String_base_types@DV?$allocator@D@std@@@std@@@std@@QAE@$$QAU?$_Wrap_alloc@V?$allocator@D@std@@@1@@Z 10009140 f i IOCPS.obj
 0001:00008170       ??$_Lbound@I@?$_Tree@V?$_Tmap_traits@IPAUClientContext@@U?$less@I@std@@V?$allocator@U?$pair@$$CBIPAUClientContext@@@std@@@3@$0A@@std@@@std@@IBEPAU?$_Tree_node@U?$pair@$$CBIPAUClientContext@@@std@@PAX@1@ABI@Z 10009170 f i IOCPS.obj
 0001:00008170       ??$_Lbound@I@?$_Tree@V?$_Tmap_traits@IPAVCIOCPBuffer@@U?$less@I@std@@V?$allocator@U?$pair@$$CBIPAVCIOCPBuffer@@@std@@@3@$0A@@std@@@std@@IBEPAU?$_Tree_node@U?$pair@$$CBIPAVCIOCPBuffer@@@std@@PAX@1@ABI@Z 10009170 f i IOCPS.obj
 0001:00008200       ??$?0$$V@?$_Compressed_pair@U?$_Wrap_alloc@V?$allocator@D@std@@@std@@V?$_String_val@U?$_Simple_types@D@std@@@2@$00@std@@QAE@U_Zero_then_variadic_args_t@1@@Z 10009200 f i IOCPS.obj
 0001:00008220       ??$?0ABU?$less@G@std@@U_Zero_then_variadic_args_t@1@@?$_Compressed_pair@U?$less@G@std@@V?$_Compressed_pair@U?$_Wrap_alloc@V?$allocator@U?$_Tree_node@U?$pair@$$CBGPAX@std@@PAX@std@@@std@@@std@@V?$_Tree_val@U?$_Tree_simple_types@U?$pair@$$CBGPAX@std@@@std@@@2@$00@2@$00@std@@QAE@U_One_then_variadic_args_t@1@ABU?$less@G@1@$$QAU_Zero_then_variadic_args_t@1@@Z 10009220 f i IOCPS.obj
 0001:00008220       ??$?0ABU?$less@I@std@@U_Zero_then_variadic_args_t@1@@?$_Compressed_pair@U?$less@I@std@@V?$_Compressed_pair@U?$_Wrap_alloc@V?$allocator@U?$_Tree_node@U?$pair@$$CBIPAUClientContext@@@std@@PAX@std@@@std@@@std@@V?$_Tree_val@U?$_Tree_simple_types@U?$pair@$$CBIPAUClientContext@@@std@@@std@@@2@$00@2@$00@std@@QAE@U_One_then_variadic_args_t@1@ABU?$less@I@1@$$QAU_Zero_then_variadic_args_t@1@@Z 10009220 f i IOCPS.obj
 0001:00008220       ??$?0ABU?$less@I@std@@U_Zero_then_variadic_args_t@1@@?$_Compressed_pair@U?$less@I@std@@V?$_Compressed_pair@U?$_Wrap_alloc@V?$allocator@U?$_Tree_node@U?$pair@$$CBIPAVCIOCPBuffer@@@std@@PAX@std@@@std@@@std@@V?$_Tree_val@U?$_Tree_simple_types@U?$pair@$$CBIPAVCIOCPBuffer@@@std@@@std@@@2@$00@2@$00@std@@QAE@U_One_then_variadic_args_t@1@ABU?$less@I@1@$$QAU_Zero_then_variadic_args_t@1@@Z 10009220 f i IOCPS.obj
 0001:00008260       ??$?0$$V@?$_Compressed_pair@U?$_Wrap_alloc@V?$allocator@U?$_Tree_node@U?$pair@$$CBIPAVCIOCPBuffer@@@std@@PAX@std@@@std@@@std@@V?$_Tree_val@U?$_Tree_simple_types@U?$pair@$$CBIPAVCIOCPBuffer@@@std@@@std@@@2@$00@std@@QAE@U_Zero_then_variadic_args_t@1@@Z 10009260 f i IOCPS.obj
 0001:00008260       ??$?0$$V@?$_Compressed_pair@U?$_Wrap_alloc@V?$allocator@U?$_List_node@PAVCIOCPBuffer@@PAX@std@@@std@@@std@@V?$_List_val@U?$_List_simple_types@PAVCIOCPBuffer@@@std@@@2@$00@std@@QAE@U_Zero_then_variadic_args_t@1@@Z 10009260 f i IOCPS.obj
 0001:00008260       ??$?0$$V@?$_Compressed_pair@U?$_Wrap_alloc@V?$allocator@U?$_Tree_node@U?$pair@$$CBGPAX@std@@PAX@std@@@std@@@std@@V?$_Tree_val@U?$_Tree_simple_types@U?$pair@$$CBGPAX@std@@@std@@@2@$00@std@@QAE@U_Zero_then_variadic_args_t@1@@Z 10009260 f i IOCPS.obj
 0001:00008260       ??$?0$$V@?$_Compressed_pair@U?$_Wrap_alloc@V?$allocator@U?$_Tree_node@U?$pair@$$CBIPAUClientContext@@@std@@PAX@std@@@std@@@std@@V?$_Tree_val@U?$_Tree_simple_types@U?$pair@$$CBIPAUClientContext@@@std@@@std@@@2@$00@std@@QAE@U_Zero_then_variadic_args_t@1@@Z 10009260 f i IOCPS.obj
 0001:00008260       ??$?0$$V@?$_Compressed_pair@U?$_Wrap_alloc@V?$allocator@U?$_List_node@PAXPAX@std@@@std@@@std@@V?$_List_val@U?$_List_simple_types@PAX@std@@@2@$00@std@@QAE@U_Zero_then_variadic_args_t@1@@Z 10009260 f i IOCPS.obj
 0001:00008260       ??$?0$$V@?$_Compressed_pair@U?$_Wrap_alloc@V?$allocator@U?$_List_node@PAUJobItem@@PAX@std@@@std@@@std@@V?$_List_val@U?$_List_simple_types@PAUJobItem@@@std@@@2@$00@std@@QAE@U_Zero_then_variadic_args_t@1@@Z 10009260 f i IOCPS.obj
 0001:00008260       ??$?0$$V@?$_Compressed_pair@U?$_Wrap_alloc@V?$allocator@U?$_List_node@PAUClientContext@@PAX@std@@@std@@@std@@V?$_List_val@U?$_List_simple_types@PAUClientContext@@@std@@@2@$00@std@@QAE@U_Zero_then_variadic_args_t@1@@Z 10009260 f i IOCPS.obj
 0001:00008280       ?_Compare@?$_Tree@V?$_Tmap_traits@IPAUClientContext@@U?$less@I@std@@V?$allocator@U?$pair@$$CBIPAUClientContext@@@std@@@3@$0A@@std@@@std@@IBE_NABI0@Z 10009280 f i IOCPS.obj
 0001:00008280       ?_Compare@?$_Tree@V?$_Tmap_traits@IPAVCIOCPBuffer@@U?$less@I@std@@V?$allocator@U?$pair@$$CBIPAVCIOCPBuffer@@@std@@@3@$0A@@std@@@std@@IBE_NABI0@Z 10009280 f i IOCPS.obj
 0001:000082b0       ??0?$_Tree_val@U?$_Tree_simple_types@U?$pair@$$CBGPAX@std@@@std@@@std@@QAE@XZ 100092b0 f i IOCPS.obj
 0001:000082b0       ??0?$_Tree_val@U?$_Tree_simple_types@U?$pair@$$CBIPAVCIOCPBuffer@@@std@@@std@@@std@@QAE@XZ 100092b0 f i IOCPS.obj
 0001:000082b0       ??0?$_List_val@U?$_List_simple_types@PAX@std@@@std@@QAE@XZ 100092b0 f i IOCPS.obj
 0001:000082b0       ??0?$_Tree_val@U?$_Tree_simple_types@U?$pair@$$CBIPAUClientContext@@@std@@@std@@@std@@QAE@XZ 100092b0 f i IOCPS.obj
 0001:000082b0       ??0?$_List_val@U?$_List_simple_types@PAUJobItem@@@std@@@std@@QAE@XZ 100092b0 f i IOCPS.obj
 0001:000082b0       ??0?$_List_val@U?$_List_simple_types@PAVCIOCPBuffer@@@std@@@std@@QAE@XZ 100092b0 f i IOCPS.obj
 0001:000082b0       ??0?$_List_val@U?$_List_simple_types@PAUClientContext@@@std@@@std@@QAE@XZ 100092b0 f i IOCPS.obj
 0001:000082e0       ??0?$_Wrap_alloc@V?$allocator@U?$_List_node@PAUClientContext@@PAX@std@@@std@@@std@@QAE@XZ 100092e0 f i IOCPS.obj
 0001:000082e0       ??0?$_Wrap_alloc@V?$allocator@D@std@@@std@@QAE@XZ 100092e0 f i IOCPS.obj
 0001:000082e0       ??0?$_Wrap_alloc@V?$allocator@U?$_List_node@PAVCIOCPBuffer@@PAX@std@@@std@@@std@@QAE@XZ 100092e0 f i IOCPS.obj
 0001:000082e0       ??0?$_Wrap_alloc@V?$allocator@U?$_Tree_node@U?$pair@$$CBIPAUClientContext@@@std@@PAX@std@@@std@@@std@@QAE@XZ 100092e0 f i IOCPS.obj
 0001:000082e0       ??0?$_Wrap_alloc@V?$allocator@U?$_List_node@PAUJobItem@@PAX@std@@@std@@@std@@QAE@XZ 100092e0 f i IOCPS.obj
 0001:000082e0       ??0?$_Wrap_alloc@V?$allocator@U?$_Tree_node@U?$pair@$$CBIPAVCIOCPBuffer@@@std@@PAX@std@@@std@@@std@@QAE@XZ 100092e0 f i IOCPS.obj
 0001:000082e0       ??0?$_Wrap_alloc@V?$allocator@U?$_List_node@PAXPAX@std@@@std@@@std@@QAE@XZ 100092e0 f i IOCPS.obj
 0001:000082e0       ??0?$_Wrap_alloc@V?$allocator@U?$_Tree_node@U?$pair@$$CBGPAX@std@@PAX@std@@@std@@@std@@QAE@XZ 100092e0 f i IOCPS.obj
 0001:00008300       ?_Incsize@?$list@PAXV?$allocator@PAX@std@@@std@@QAEXI@Z 10009300 f i IOCPS.obj
 0001:00008300       ?_Incsize@?$list@PAVCIOCPBuffer@@V?$allocator@PAVCIOCPBuffer@@@std@@@std@@QAEXI@Z 10009300 f i IOCPS.obj
 0001:00008300       ?_Incsize@?$list@PAUClientContext@@V?$allocator@PAUClientContext@@@std@@@std@@QAEXI@Z 10009300 f i IOCPS.obj
 0001:00008350       ??0?$_String_val@U?$_Simple_types@D@std@@@std@@QAE@XZ 10009350 f i IOCPS.obj
 0001:00008380       ?max_size@?$list@PAXV?$allocator@PAX@std@@@std@@QBEIXZ 10009380 f i IOCPS.obj
 0001:00008380       ?max_size@?$list@PAVCIOCPBuffer@@V?$allocator@PAVCIOCPBuffer@@@std@@@std@@QBEIXZ 10009380 f i IOCPS.obj
 0001:00008380       ?max_size@?$list@PAUClientContext@@V?$allocator@PAUClientContext@@@std@@@std@@QBEIXZ 10009380 f i IOCPS.obj
 0001:000083b0       ?max_size@?$_Wrap_alloc@V?$allocator@U?$_List_node@PAVCIOCPBuffer@@PAX@std@@@std@@@std@@QBEIU_Nil@2@@Z 100093b0 f i IOCPS.obj
 0001:000083b0       ?max_size@?$_Wrap_alloc@V?$allocator@U?$_List_node@PAUClientContext@@PAX@std@@@std@@@std@@QBEIU_Nil@2@@Z 100093b0 f i IOCPS.obj
 0001:000083b0       ?max_size@?$_Wrap_alloc@V?$allocator@U?$_List_node@PAXPAX@std@@@std@@@std@@QBEIU_Nil@2@@Z 100093b0 f i IOCPS.obj
 0001:000083d0       ?max_size@?$allocator_traits@V?$allocator@U?$_List_node@PAUClientContext@@PAX@std@@@std@@@std@@SAIABV?$allocator@U?$_List_node@PAUClientContext@@PAX@std@@@2@@Z 100093d0 f i IOCPS.obj
 0001:000083d0       ?max_size@?$allocator_traits@V?$allocator@U?$_List_node@PAVCIOCPBuffer@@PAX@std@@@std@@@std@@SAIABV?$allocator@U?$_List_node@PAVCIOCPBuffer@@PAX@std@@@2@@Z 100093d0 f i IOCPS.obj
 0001:000083d0       ?max_size@?$allocator_traits@V?$allocator@U?$_List_node@PAXPAX@std@@@std@@@std@@SAIABV?$allocator@U?$_List_node@PAXPAX@std@@@2@@Z 100093d0 f i IOCPS.obj
 0001:000083e0       ?max_size@?$allocator@U?$_List_node@PAXPAX@std@@@std@@QBEIXZ 100093e0 f i IOCPS.obj
 0001:000083e0       ?max_size@?$allocator@U?$_List_node@PAUClientContext@@PAX@std@@@std@@QBEIXZ 100093e0 f i IOCPS.obj
 0001:000083e0       ?max_size@?$allocator@U?$_List_node@PAVCIOCPBuffer@@PAX@std@@@std@@QBEIXZ 100093e0 f i IOCPS.obj
 0001:000083f0       ??$emplace@U?$pair@GPAX@std@@@?$_Tree@V?$_Tmap_traits@GPAXU?$less@G@std@@V?$allocator@U?$pair@$$CBGPAX@std@@@2@$0A@@std@@@std@@QAE?AU?$pair@V?$_Tree_iterator@V?$_Tree_val@U?$_Tree_simple_types@U?$pair@$$CBGPAX@std@@@std@@@std@@@std@@_N@1@$$QAU?$pair@GPAX@1@@Z 100093f0 f i IOCPS.obj
 0001:00008440       ??$emplace@U?$pair@IPAVCIOCPBuffer@@@std@@@?$_Tree@V?$_Tmap_traits@IPAVCIOCPBuffer@@U?$less@I@std@@V?$allocator@U?$pair@$$CBIPAVCIOCPBuffer@@@std@@@3@$0A@@std@@@std@@QAE?AU?$pair@V?$_Tree_iterator@V?$_Tree_val@U?$_Tree_simple_types@U?$pair@$$CBIPAVCIOCPBuffer@@@std@@@std@@@std@@@std@@_N@1@$$QAU?$pair@IPAVCIOCPBuffer@@@1@@Z 10009440 f i IOCPS.obj
 0001:00008490       ??$_Try_emplace@ABG$$V@?$map@GPAXU?$less@G@std@@V?$allocator@U?$pair@$$CBGPAX@std@@@2@@std@@QAE?AU?$pair@V?$_Tree_iterator@V?$_Tree_val@U?$_Tree_simple_types@U?$pair@$$CBGPAX@std@@@std@@@std@@@std@@_N@1@ABG@Z 10009490 f i IOCPS.obj
 0001:00008570       ??$_Buynode@ABQAX@?$_List_buy@PAXV?$allocator@PAX@std@@@std@@QAEPAU?$_List_node@PAXPAX@1@PAU21@0ABQAX@Z 10009570 f i IOCPS.obj
 0001:00008570       ??$_Buynode@ABQAUClientContext@@@?$_List_buy@PAUClientContext@@V?$allocator@PAUClientContext@@@std@@@std@@QAEPAU?$_List_node@PAUClientContext@@PAX@1@PAU21@0ABQAUClientContext@@@Z 10009570 f i IOCPS.obj
 0001:00008570       ??$_Buynode@ABQAVCIOCPBuffer@@@?$_List_buy@PAVCIOCPBuffer@@V?$allocator@PAVCIOCPBuffer@@@std@@@std@@QAEPAU?$_List_node@PAVCIOCPBuffer@@PAX@1@PAU21@0ABQAVCIOCPBuffer@@@Z 10009570 f i IOCPS.obj
 0001:00008640       ??$_Try_emplace@ABI$$V@?$map@IPAUClientContext@@U?$less@I@std@@V?$allocator@U?$pair@$$CBIPAUClientContext@@@std@@@3@@std@@QAE?AU?$pair@V?$_Tree_iterator@V?$_Tree_val@U?$_Tree_simple_types@U?$pair@$$CBIPAUClientContext@@@std@@@std@@@std@@@std@@_N@1@ABI@Z 10009640 f i IOCPS.obj
 0001:00008640       ??$_Try_emplace@ABI$$V@?$map@IPAVCIOCPBuffer@@U?$less@I@std@@V?$allocator@U?$pair@$$CBIPAVCIOCPBuffer@@@std@@@3@@std@@QAE?AU?$pair@V?$_Tree_iterator@V?$_Tree_val@U?$_Tree_simple_types@U?$pair@$$CBIPAVCIOCPBuffer@@@std@@@std@@@std@@@std@@_N@1@ABI@Z 10009640 f i IOCPS.obj
 0001:00008720       ??$?0U?$_Wrap_alloc@V?$allocator@D@std@@@std@@$$V@?$_Compressed_pair@U?$_Wrap_alloc@V?$allocator@D@std@@@std@@V?$_String_val@U?$_Simple_types@D@std@@@2@$00@std@@QAE@U_One_then_variadic_args_t@1@$$QAU?$_Wrap_alloc@V?$allocator@D@std@@@1@@Z 10009720 f i IOCPS.obj
 0001:00008750       ?lower_bound@?$_Tree@V?$_Tmap_traits@GPAXU?$less@G@std@@V?$allocator@U?$pair@$$CBGPAX@std@@@2@$0A@@std@@@std@@QAE?AV?$_Tree_iterator@V?$_Tree_val@U?$_Tree_simple_types@U?$pair@$$CBGPAX@std@@@std@@@std@@@2@ABG@Z 10009750 f i IOCPS.obj
 0001:00008780       ??R?$less@G@std@@QBE_NABG0@Z 10009780 f i IOCPS.obj
 0001:000087c0       ??0?$_Wrap_alloc@V?$allocator@D@std@@@std@@QAE@$$QAU01@@Z 100097c0 f i IOCPS.obj
 0001:000087f0       ??$_Buynode@U?$pair@GPAX@std@@@?$_Tree_comp_alloc@V?$_Tmap_traits@GPAXU?$less@G@std@@V?$allocator@U?$pair@$$CBGPAX@std@@@2@$0A@@std@@@std@@QAEPAU?$_Tree_node@U?$pair@$$CBGPAX@std@@PAX@1@$$QAU?$pair@GPAX@1@@Z 100097f0 f i IOCPS.obj
 0001:000088d0       ??$_Insert_nohint@AAU?$pair@$$CBGPAX@std@@PAU?$_Tree_node@U?$pair@$$CBGPAX@std@@PAX@2@@?$_Tree@V?$_Tmap_traits@GPAXU?$less@G@std@@V?$allocator@U?$pair@$$CBGPAX@std@@@2@$0A@@std@@@std@@IAE?AU?$pair@V?$_Tree_iterator@V?$_Tree_val@U?$_Tree_simple_types@U?$pair@$$CBGPAX@std@@@std@@@std@@@std@@_N@1@_NAAU?$pair@$$CBGPAX@1@PAU?$_Tree_node@U?$pair@$$CBGPAX@std@@PAX@1@@Z 100098d0 f i IOCPS.obj
 0001:00008c00       ??$_Buynode@U?$pair@IPAVCIOCPBuffer@@@std@@@?$_Tree_comp_alloc@V?$_Tmap_traits@IPAVCIOCPBuffer@@U?$less@I@std@@V?$allocator@U?$pair@$$CBIPAVCIOCPBuffer@@@std@@@3@$0A@@std@@@std@@QAEPAU?$_Tree_node@U?$pair@$$CBIPAVCIOCPBuffer@@@std@@PAX@1@$$QAU?$pair@IPAVCIOCPBuffer@@@1@@Z 10009c00 f i IOCPS.obj
 0001:00008ce0       ??$_Insert_nohint@AAU?$pair@$$CBIPAUClientContext@@@std@@PAU?$_Tree_node@U?$pair@$$CBIPAUClientContext@@@std@@PAX@2@@?$_Tree@V?$_Tmap_traits@IPAUClientContext@@U?$less@I@std@@V?$allocator@U?$pair@$$CBIPAUClientContext@@@std@@@3@$0A@@std@@@std@@IAE?AU?$pair@V?$_Tree_iterator@V?$_Tree_val@U?$_Tree_simple_types@U?$pair@$$CBIPAUClientContext@@@std@@@std@@@std@@@std@@_N@1@_NAAU?$pair@$$CBIPAUClientContext@@@1@PAU?$_Tree_node@U?$pair@$$CBIPAUClientContext@@@std@@PAX@1@@Z 10009ce0 f i IOCPS.obj
 0001:00008ce0       ??$_Insert_nohint@AAU?$pair@$$CBIPAVCIOCPBuffer@@@std@@PAU?$_Tree_node@U?$pair@$$CBIPAVCIOCPBuffer@@@std@@PAX@2@@?$_Tree@V?$_Tmap_traits@IPAVCIOCPBuffer@@U?$less@I@std@@V?$allocator@U?$pair@$$CBIPAVCIOCPBuffer@@@std@@@3@$0A@@std@@@std@@IAE?AU?$pair@V?$_Tree_iterator@V?$_Tree_val@U?$_Tree_simple_types@U?$pair@$$CBIPAVCIOCPBuffer@@@std@@@std@@@std@@@std@@_N@1@_NAAU?$pair@$$CBIPAVCIOCPBuffer@@@1@PAU?$_Tree_node@U?$pair@$$CBIPAVCIOCPBuffer@@@std@@PAX@1@@Z 10009ce0 f i IOCPS.obj
 0001:00009010       ??$forward_as_tuple@ABG@std@@YA?AV?$tuple@ABG@0@ABG@Z 1000a010 f i IOCPS.obj
 0001:00009010       ??$forward_as_tuple@ABI@std@@YA?AV?$tuple@ABI@0@ABI@Z 1000a010 f i IOCPS.obj
 0001:00009060       ??$forward_as_tuple@$$V@std@@YA?AV?$tuple@$$V@0@XZ 1000a060 f i IOCPS.obj
 0001:00009070       ??$emplace_hint@ABUpiecewise_construct_t@std@@V?$tuple@ABG@2@V?$tuple@$$V@2@@?$_Tree@V?$_Tmap_traits@GPAXU?$less@G@std@@V?$allocator@U?$pair@$$CBGPAX@std@@@2@$0A@@std@@@std@@QAE?AV?$_Tree_iterator@V?$_Tree_val@U?$_Tree_simple_types@U?$pair@$$CBGPAX@std@@@std@@@std@@@1@V?$_Tree_const_iterator@V?$_Tree_val@U?$_Tree_simple_types@U?$pair@$$CBGPAX@std@@@std@@@std@@@1@ABUpiecewise_construct_t@1@$$QAV?$tuple@ABG@1@$$QAV?$tuple@$$V@1@@Z 1000a070 f i IOCPS.obj
 0001:000090e0       ??$?0V?$_Tree_iterator@V?$_Tree_val@U?$_Tree_simple_types@U?$pair@$$CBIPAVCIOCPBuffer@@@std@@@std@@@std@@@std@@_NX$0A@@?$pair@V?$_Tree_iterator@V?$_Tree_val@U?$_Tree_simple_types@U?$pair@$$CBIPAVCIOCPBuffer@@@std@@@std@@@std@@@std@@_N@std@@QAE@$$QAV?$_Tree_iterator@V?$_Tree_val@U?$_Tree_simple_types@U?$pair@$$CBIPAVCIOCPBuffer@@@std@@@std@@@std@@@1@$$QA_N@Z 1000a0e0 f i IOCPS.obj
 0001:000090e0       ??$?0V?$_Tree_iterator@V?$_Tree_val@U?$_Tree_simple_types@U?$pair@$$CBGPAX@std@@@std@@@std@@@std@@_NX$0A@@?$pair@V?$_Tree_iterator@V?$_Tree_val@U?$_Tree_simple_types@U?$pair@$$CBGPAX@std@@@std@@@std@@@std@@_N@std@@QAE@$$QAV?$_Tree_iterator@V?$_Tree_val@U?$_Tree_simple_types@U?$pair@$$CBGPAX@std@@@std@@@std@@@1@$$QA_N@Z 1000a0e0 f i IOCPS.obj
 0001:000090e0       ??$?0AAV?$_Tree_iterator@V?$_Tree_val@U?$_Tree_simple_types@U?$pair@$$CBIPAVCIOCPBuffer@@@std@@@std@@@std@@@std@@_NX$0A@@?$pair@V?$_Tree_iterator@V?$_Tree_val@U?$_Tree_simple_types@U?$pair@$$CBIPAVCIOCPBuffer@@@std@@@std@@@std@@@std@@_N@std@@QAE@AAV?$_Tree_iterator@V?$_Tree_val@U?$_Tree_simple_types@U?$pair@$$CBIPAVCIOCPBuffer@@@std@@@std@@@std@@@1@$$QA_N@Z 1000a0e0 f i IOCPS.obj
 0001:000090e0       ??$?0V?$_Tree_iterator@V?$_Tree_val@U?$_Tree_simple_types@U?$pair@$$CBIPAUClientContext@@@std@@@std@@@std@@@std@@_NX$0A@@?$pair@V?$_Tree_iterator@V?$_Tree_val@U?$_Tree_simple_types@U?$pair@$$CBIPAUClientContext@@@std@@@std@@@std@@@std@@_N@std@@QAE@$$QAV?$_Tree_iterator@V?$_Tree_val@U?$_Tree_simple_types@U?$pair@$$CBIPAUClientContext@@@std@@@std@@@std@@@1@$$QA_N@Z 1000a0e0 f i IOCPS.obj
 0001:000090e0       ??$?0AAV?$_Tree_iterator@V?$_Tree_val@U?$_Tree_simple_types@U?$pair@$$CBGPAX@std@@@std@@@std@@@std@@_NX$0A@@?$pair@V?$_Tree_iterator@V?$_Tree_val@U?$_Tree_simple_types@U?$pair@$$CBGPAX@std@@@std@@@std@@@std@@_N@std@@QAE@AAV?$_Tree_iterator@V?$_Tree_val@U?$_Tree_simple_types@U?$pair@$$CBGPAX@std@@@std@@@std@@@1@$$QA_N@Z 1000a0e0 f i IOCPS.obj
 0001:000090e0       ??$?0AAV?$_Tree_iterator@V?$_Tree_val@U?$_Tree_simple_types@U?$pair@$$CBIPAUClientContext@@@std@@@std@@@std@@@std@@_NX$0A@@?$pair@V?$_Tree_iterator@V?$_Tree_val@U?$_Tree_simple_types@U?$pair@$$CBIPAUClientContext@@@std@@@std@@@std@@@std@@_N@std@@QAE@AAV?$_Tree_iterator@V?$_Tree_val@U?$_Tree_simple_types@U?$pair@$$CBIPAUClientContext@@@std@@@std@@@std@@@1@$$QA_N@Z 1000a0e0 f i IOCPS.obj
 0001:00009120       ??$emplace_hint@ABUpiecewise_construct_t@std@@V?$tuple@ABI@2@V?$tuple@$$V@2@@?$_Tree@V?$_Tmap_traits@IPAUClientContext@@U?$less@I@std@@V?$allocator@U?$pair@$$CBIPAUClientContext@@@std@@@3@$0A@@std@@@std@@QAE?AV?$_Tree_iterator@V?$_Tree_val@U?$_Tree_simple_types@U?$pair@$$CBIPAUClientContext@@@std@@@std@@@std@@@1@V?$_Tree_const_iterator@V?$_Tree_val@U?$_Tree_simple_types@U?$pair@$$CBIPAUClientContext@@@std@@@std@@@std@@@1@ABUpiecewise_construct_t@1@$$QAV?$tuple@ABI@1@$$QAV?$tuple@$$V@1@@Z 1000a120 f i IOCPS.obj
 0001:00009120       ??$emplace_hint@ABUpiecewise_construct_t@std@@V?$tuple@ABI@2@V?$tuple@$$V@2@@?$_Tree@V?$_Tmap_traits@IPAVCIOCPBuffer@@U?$less@I@std@@V?$allocator@U?$pair@$$CBIPAVCIOCPBuffer@@@std@@@3@$0A@@std@@@std@@QAE?AV?$_Tree_iterator@V?$_Tree_val@U?$_Tree_simple_types@U?$pair@$$CBIPAVCIOCPBuffer@@@std@@@std@@@std@@@1@V?$_Tree_const_iterator@V?$_Tree_val@U?$_Tree_simple_types@U?$pair@$$CBIPAVCIOCPBuffer@@@std@@@std@@@std@@@1@ABUpiecewise_construct_t@1@$$QAV?$tuple@ABI@1@$$QAV?$tuple@$$V@1@@Z 1000a120 f i IOCPS.obj
 0001:00009190       ??$_Lbound@G@?$_Tree@V?$_Tmap_traits@GPAXU?$less@G@std@@V?$allocator@U?$pair@$$CBGPAX@std@@@2@$0A@@std@@@std@@IBEPAU?$_Tree_node@U?$pair@$$CBGPAX@std@@PAX@1@ABG@Z 1000a190 f i IOCPS.obj
 0001:00009220       ??F?$_Tree_iterator@V?$_Tree_val@U?$_Tree_simple_types@U?$pair@$$CBGPAX@std@@@std@@@std@@@std@@QAEAAV01@XZ 1000a220 f i IOCPS.obj
 0001:00009220       ??F?$_Tree_iterator@V?$_Tree_val@U?$_Tree_simple_types@U?$pair@$$CBIPAVCIOCPBuffer@@@std@@@std@@@std@@@std@@QAEAAV01@XZ 1000a220 f i IOCPS.obj
 0001:00009220       ??F?$_Tree_iterator@V?$_Tree_val@U?$_Tree_simple_types@U?$pair@$$CBIPAUClientContext@@@std@@@std@@@std@@@std@@QAEAAV01@XZ 1000a220 f i IOCPS.obj
 0001:00009240       ?_Buynode0@?$_Tree_comp_alloc@V?$_Tmap_traits@IPAVCIOCPBuffer@@U?$less@I@std@@V?$allocator@U?$pair@$$CBIPAVCIOCPBuffer@@@std@@@3@$0A@@std@@@std@@QAEPAU?$_Tree_node@U?$pair@$$CBIPAVCIOCPBuffer@@@std@@PAX@2@XZ 1000a240 f i IOCPS.obj
 0001:00009240       ?_Buynode0@?$_Tree_comp_alloc@V?$_Tmap_traits@GPAXU?$less@G@std@@V?$allocator@U?$pair@$$CBGPAX@std@@@2@$0A@@std@@@std@@QAEPAU?$_Tree_node@U?$pair@$$CBGPAX@std@@PAX@2@XZ 1000a240 f i IOCPS.obj
 0001:00009240       ?_Buynode0@?$_Tree_comp_alloc@V?$_Tmap_traits@IPAUClientContext@@U?$less@I@std@@V?$allocator@U?$pair@$$CBIPAUClientContext@@@std@@@3@$0A@@std@@@std@@QAEPAU?$_Tree_node@U?$pair@$$CBIPAUClientContext@@@std@@PAX@2@XZ 1000a240 f i IOCPS.obj
 0001:00009380       ?_Compare@?$_Tree@V?$_Tmap_traits@GPAXU?$less@G@std@@V?$allocator@U?$pair@$$CBGPAX@std@@@2@$0A@@std@@@std@@IBE_NABG0@Z 1000a380 f i IOCPS.obj
 0001:000093b0       ?_Destroy_if_not_nil@?$_Tree@V?$_Tmap_traits@GPAXU?$less@G@std@@V?$allocator@U?$pair@$$CBGPAX@std@@@2@$0A@@std@@@std@@IAEXPAU?$_Tree_node@U?$pair@$$CBGPAX@std@@PAX@2@@Z 1000a3b0 f i IOCPS.obj
 0001:000093b0       ?_Destroy_if_not_nil@?$_Tree@V?$_Tmap_traits@IPAUClientContext@@U?$less@I@std@@V?$allocator@U?$pair@$$CBIPAUClientContext@@@std@@@3@$0A@@std@@@std@@IAEXPAU?$_Tree_node@U?$pair@$$CBIPAUClientContext@@@std@@PAX@2@@Z 1000a3b0 f i IOCPS.obj
 0001:000093b0       ?_Destroy_if_not_nil@?$_Tree@V?$_Tmap_traits@IPAVCIOCPBuffer@@U?$less@I@std@@V?$allocator@U?$pair@$$CBIPAVCIOCPBuffer@@@std@@@3@$0A@@std@@@std@@IAEXPAU?$_Tree_node@U?$pair@$$CBIPAVCIOCPBuffer@@@std@@PAX@2@@Z 1000a3b0 f i IOCPS.obj
 0001:00009400       ??F?$_Tree_const_iterator@V?$_Tree_val@U?$_Tree_simple_types@U?$pair@$$CBIPAUClientContext@@@std@@@std@@@std@@@std@@QAEAAV01@XZ 1000a400 f i IOCPS.obj
 0001:00009400       ??F?$_Tree_const_iterator@V?$_Tree_val@U?$_Tree_simple_types@U?$pair@$$CBIPAVCIOCPBuffer@@@std@@@std@@@std@@@std@@QAEAAV01@XZ 1000a400 f i IOCPS.obj
 0001:00009400       ??F?$_Tree_const_iterator@V?$_Tree_val@U?$_Tree_simple_types@U?$pair@$$CBGPAX@std@@@std@@@std@@@std@@QAEAAV01@XZ 1000a400 f i IOCPS.obj
 0001:00009420       ??F?$_Tree_unchecked_const_iterator@V?$_Tree_val@U?$_Tree_simple_types@U?$pair@$$CBIPAVCIOCPBuffer@@@std@@@std@@@std@@U_Iterator_base0@2@@std@@QAEAAV01@XZ 1000a420 f i IOCPS.obj
 0001:00009420       ??F?$_Tree_unchecked_const_iterator@V?$_Tree_val@U?$_Tree_simple_types@U?$pair@$$CBIPAUClientContext@@@std@@@std@@@std@@U_Iterator_base0@2@@std@@QAEAAV01@XZ 1000a420 f i IOCPS.obj
 0001:00009420       ??F?$_Tree_unchecked_const_iterator@V?$_Tree_val@U?$_Tree_simple_types@U?$pair@$$CBGPAX@std@@@std@@@std@@U_Iterator_base0@2@@std@@QAEAAV01@XZ 1000a420 f i IOCPS.obj
 0001:00009510       ??$construct@U?$pair@$$CBGPAX@std@@U?$pair@GPAX@2@@?$_Wrap_alloc@V?$allocator@U?$_Tree_node@U?$pair@$$CBGPAX@std@@PAX@std@@@std@@@std@@QAEXPAU?$pair@$$CBGPAX@1@$$QAU?$pair@GPAX@1@@Z 1000a510 f i IOCPS.obj
 0001:00009540       ??$_Insert_at@AAU?$pair@$$CBIPAVCIOCPBuffer@@@std@@PAU?$_Tree_node@U?$pair@$$CBIPAVCIOCPBuffer@@@std@@PAX@2@@?$_Tree@V?$_Tmap_traits@IPAVCIOCPBuffer@@U?$less@I@std@@V?$allocator@U?$pair@$$CBIPAVCIOCPBuffer@@@std@@@3@$0A@@std@@@std@@IAE?AV?$_Tree_iterator@V?$_Tree_val@U?$_Tree_simple_types@U?$pair@$$CBIPAVCIOCPBuffer@@@std@@@std@@@std@@@1@_NPAU?$_Tree_node@U?$pair@$$CBIPAVCIOCPBuffer@@@std@@PAX@1@AAU?$pair@$$CBIPAVCIOCPBuffer@@@1@1@Z 1000a540 f i IOCPS.obj
 0001:00009540       ??$_Insert_at@AAU?$pair@$$CBIPAUClientContext@@@std@@PAU?$_Tree_node@U?$pair@$$CBIPAUClientContext@@@std@@PAX@2@@?$_Tree@V?$_Tmap_traits@IPAUClientContext@@U?$less@I@std@@V?$allocator@U?$pair@$$CBIPAUClientContext@@@std@@@3@$0A@@std@@@std@@IAE?AV?$_Tree_iterator@V?$_Tree_val@U?$_Tree_simple_types@U?$pair@$$CBIPAUClientContext@@@std@@@std@@@std@@@1@_NPAU?$_Tree_node@U?$pair@$$CBIPAUClientContext@@@std@@PAX@1@AAU?$pair@$$CBIPAUClientContext@@@1@1@Z 1000a540 f i IOCPS.obj
 0001:00009540       ??$_Insert_at@AAU?$pair@$$CBGPAX@std@@PAU?$_Tree_node@U?$pair@$$CBGPAX@std@@PAX@2@@?$_Tree@V?$_Tmap_traits@GPAXU?$less@G@std@@V?$allocator@U?$pair@$$CBGPAX@std@@@2@$0A@@std@@@std@@IAE?AV?$_Tree_iterator@V?$_Tree_val@U?$_Tree_simple_types@U?$pair@$$CBGPAX@std@@@std@@@std@@@1@_NPAU?$_Tree_node@U?$pair@$$CBGPAX@std@@PAX@1@AAU?$pair@$$CBGPAX@1@1@Z 1000a540 f i IOCPS.obj
 0001:00009980       ??$construct@U?$pair@$$CBIPAVCIOCPBuffer@@@std@@U?$pair@IPAVCIOCPBuffer@@@2@@?$_Wrap_alloc@V?$allocator@U?$_Tree_node@U?$pair@$$CBIPAVCIOCPBuffer@@@std@@PAX@std@@@std@@@std@@QAEXPAU?$pair@$$CBIPAVCIOCPBuffer@@@1@$$QAU?$pair@IPAVCIOCPBuffer@@@1@@Z 1000a980 f i IOCPS.obj
 0001:000099b0       ??$?0ABG$0A@@?$tuple@ABG@std@@QAE@ABG@Z 1000a9b0 f i IOCPS.obj
 0001:000099b0       ??$?0ABI$0A@@?$tuple@ABI@std@@QAE@ABI@Z 1000a9b0 f i IOCPS.obj
 0001:000099e0       ??$_Buynode@ABUpiecewise_construct_t@std@@V?$tuple@ABG@2@V?$tuple@$$V@2@@?$_Tree_comp_alloc@V?$_Tmap_traits@GPAXU?$less@G@std@@V?$allocator@U?$pair@$$CBGPAX@std@@@2@$0A@@std@@@std@@QAEPAU?$_Tree_node@U?$pair@$$CBGPAX@std@@PAX@1@ABUpiecewise_construct_t@1@$$QAV?$tuple@ABG@1@$$QAV?$tuple@$$V@1@@Z 1000a9e0 f i IOCPS.obj
 0001:00009ae0       ??$_Insert_hint@AAU?$pair@$$CBGPAX@std@@PAU?$_Tree_node@U?$pair@$$CBGPAX@std@@PAX@2@@?$_Tree@V?$_Tmap_traits@GPAXU?$less@G@std@@V?$allocator@U?$pair@$$CBGPAX@std@@@2@$0A@@std@@@std@@IAE?AV?$_Tree_iterator@V?$_Tree_val@U?$_Tree_simple_types@U?$pair@$$CBGPAX@std@@@std@@@std@@@1@V?$_Tree_const_iterator@V?$_Tree_val@U?$_Tree_simple_types@U?$pair@$$CBGPAX@std@@@std@@@std@@@1@AAU?$pair@$$CBGPAX@1@PAU?$_Tree_node@U?$pair@$$CBGPAX@std@@PAX@1@@Z 1000aae0 f i IOCPS.obj
 0001:0000a550       ??$_Buynode@ABUpiecewise_construct_t@std@@V?$tuple@ABI@2@V?$tuple@$$V@2@@?$_Tree_comp_alloc@V?$_Tmap_traits@IPAVCIOCPBuffer@@U?$less@I@std@@V?$allocator@U?$pair@$$CBIPAVCIOCPBuffer@@@std@@@3@$0A@@std@@@std@@QAEPAU?$_Tree_node@U?$pair@$$CBIPAVCIOCPBuffer@@@std@@PAX@1@ABUpiecewise_construct_t@1@$$QAV?$tuple@ABI@1@$$QAV?$tuple@$$V@1@@Z 1000b550 f i IOCPS.obj
 0001:0000a550       ??$_Buynode@ABUpiecewise_construct_t@std@@V?$tuple@ABI@2@V?$tuple@$$V@2@@?$_Tree_comp_alloc@V?$_Tmap_traits@IPAUClientContext@@U?$less@I@std@@V?$allocator@U?$pair@$$CBIPAUClientContext@@@std@@@3@$0A@@std@@@std@@QAEPAU?$_Tree_node@U?$pair@$$CBIPAUClientContext@@@std@@PAX@1@ABUpiecewise_construct_t@1@$$QAV?$tuple@ABI@1@$$QAV?$tuple@$$V@1@@Z 1000b550 f i IOCPS.obj
 0001:0000a650       ??$_Insert_hint@AAU?$pair@$$CBIPAUClientContext@@@std@@PAU?$_Tree_node@U?$pair@$$CBIPAUClientContext@@@std@@PAX@2@@?$_Tree@V?$_Tmap_traits@IPAUClientContext@@U?$less@I@std@@V?$allocator@U?$pair@$$CBIPAUClientContext@@@std@@@3@$0A@@std@@@std@@IAE?AV?$_Tree_iterator@V?$_Tree_val@U?$_Tree_simple_types@U?$pair@$$CBIPAUClientContext@@@std@@@std@@@std@@@1@V?$_Tree_const_iterator@V?$_Tree_val@U?$_Tree_simple_types@U?$pair@$$CBIPAUClientContext@@@std@@@std@@@std@@@1@AAU?$pair@$$CBIPAUClientContext@@@1@PAU?$_Tree_node@U?$pair@$$CBIPAUClientContext@@@std@@PAX@1@@Z 1000b650 f i IOCPS.obj
 0001:0000a650       ??$_Insert_hint@AAU?$pair@$$CBIPAVCIOCPBuffer@@@std@@PAU?$_Tree_node@U?$pair@$$CBIPAVCIOCPBuffer@@@std@@PAX@2@@?$_Tree@V?$_Tmap_traits@IPAVCIOCPBuffer@@U?$less@I@std@@V?$allocator@U?$pair@$$CBIPAVCIOCPBuffer@@@std@@@3@$0A@@std@@@std@@IAE?AV?$_Tree_iterator@V?$_Tree_val@U?$_Tree_simple_types@U?$pair@$$CBIPAVCIOCPBuffer@@@std@@@std@@@std@@@1@V?$_Tree_const_iterator@V?$_Tree_val@U?$_Tree_simple_types@U?$pair@$$CBIPAVCIOCPBuffer@@@std@@@std@@@std@@@1@AAU?$pair@$$CBIPAVCIOCPBuffer@@@1@PAU?$_Tree_node@U?$pair@$$CBIPAVCIOCPBuffer@@@std@@PAX@1@@Z 1000b650 f i IOCPS.obj
 0001:0000b0c0       ?max_size@?$_Tree@V?$_Tmap_traits@GPAXU?$less@G@std@@V?$allocator@U?$pair@$$CBGPAX@std@@@2@$0A@@std@@@std@@QBEIXZ 1000c0c0 f i IOCPS.obj
 0001:0000b0c0       ?max_size@?$_Tree@V?$_Tmap_traits@IPAUClientContext@@U?$less@I@std@@V?$allocator@U?$pair@$$CBIPAUClientContext@@@std@@@3@$0A@@std@@@std@@QBEIXZ 1000c0c0 f i IOCPS.obj
 0001:0000b0c0       ?max_size@?$_Tree@V?$_Tmap_traits@IPAVCIOCPBuffer@@U?$less@I@std@@V?$allocator@U?$pair@$$CBIPAVCIOCPBuffer@@@std@@@3@$0A@@std@@@std@@QBEIXZ 1000c0c0 f i IOCPS.obj
 0001:0000b0f0       ?max_size@?$_Wrap_alloc@V?$allocator@U?$_Tree_node@U?$pair@$$CBGPAX@std@@PAX@std@@@std@@@std@@QBEIU_Nil@2@@Z 1000c0f0 f i IOCPS.obj
 0001:0000b0f0       ?max_size@?$_Wrap_alloc@V?$allocator@U?$_Tree_node@U?$pair@$$CBIPAVCIOCPBuffer@@@std@@PAX@std@@@std@@@std@@QBEIU_Nil@2@@Z 1000c0f0 f i IOCPS.obj
 0001:0000b0f0       ?max_size@?$_Wrap_alloc@V?$allocator@U?$_Tree_node@U?$pair@$$CBIPAUClientContext@@@std@@PAX@std@@@std@@@std@@QBEIU_Nil@2@@Z 1000c0f0 f i IOCPS.obj
 0001:0000b110       ?max_size@?$allocator_traits@V?$allocator@U?$_Tree_node@U?$pair@$$CBGPAX@std@@PAX@std@@@std@@@std@@SAIABV?$allocator@U?$_Tree_node@U?$pair@$$CBGPAX@std@@PAX@std@@@2@@Z 1000c110 f i IOCPS.obj
 0001:0000b110       ?max_size@?$allocator_traits@V?$allocator@U?$_Tree_node@U?$pair@$$CBIPAVCIOCPBuffer@@@std@@PAX@std@@@std@@@std@@SAIABV?$allocator@U?$_Tree_node@U?$pair@$$CBIPAVCIOCPBuffer@@@std@@PAX@std@@@2@@Z 1000c110 f i IOCPS.obj
 0001:0000b110       ?max_size@?$allocator_traits@V?$allocator@U?$_Tree_node@U?$pair@$$CBIPAUClientContext@@@std@@PAX@std@@@std@@@std@@SAIABV?$allocator@U?$_Tree_node@U?$pair@$$CBIPAUClientContext@@@std@@PAX@std@@@2@@Z 1000c110 f i IOCPS.obj
 0001:0000b120       ?max_size@?$allocator@U?$_Tree_node@U?$pair@$$CBGPAX@std@@PAX@std@@@std@@QBEIXZ 1000c120 f i IOCPS.obj
 0001:0000b120       ?max_size@?$allocator@U?$_Tree_node@U?$pair@$$CBIPAUClientContext@@@std@@PAX@std@@@std@@QBEIXZ 1000c120 f i IOCPS.obj
 0001:0000b120       ?max_size@?$allocator@U?$_Tree_node@U?$pair@$$CBIPAVCIOCPBuffer@@@std@@PAX@std@@@std@@QBEIXZ 1000c120 f i IOCPS.obj
 0001:0000b130       ??$construct@U?$pair@$$CBGPAX@std@@U?$pair@GPAX@2@@?$allocator_traits@V?$allocator@U?$_Tree_node@U?$pair@$$CBGPAX@std@@PAX@std@@@std@@@std@@SAXAAV?$allocator@U?$_Tree_node@U?$pair@$$CBGPAX@std@@PAX@std@@@1@PAU?$pair@$$CBGPAX@1@$$QAU?$pair@GPAX@1@@Z 1000c130 f i IOCPS.obj
 0001:0000b150       ??$_Buynode_if_nil@AAU?$pair@$$CBIPAVCIOCPBuffer@@@std@@@?$_Tree@V?$_Tmap_traits@IPAVCIOCPBuffer@@U?$less@I@std@@V?$allocator@U?$pair@$$CBIPAVCIOCPBuffer@@@std@@@3@$0A@@std@@@std@@IAEPAU?$_Tree_node@U?$pair@$$CBIPAVCIOCPBuffer@@@std@@PAX@1@PAU21@AAU?$pair@$$CBIPAVCIOCPBuffer@@@1@@Z 1000c150 f i IOCPS.obj
 0001:0000b150       ??$_Buynode_if_nil@AAU?$pair@$$CBGPAX@std@@@?$_Tree@V?$_Tmap_traits@GPAXU?$less@G@std@@V?$allocator@U?$pair@$$CBGPAX@std@@@2@$0A@@std@@@std@@IAEPAU?$_Tree_node@U?$pair@$$CBGPAX@std@@PAX@1@PAU21@AAU?$pair@$$CBGPAX@1@@Z 1000c150 f i IOCPS.obj
 0001:0000b150       ??$_Buynode_if_nil@AAU?$pair@$$CBIPAUClientContext@@@std@@@?$_Tree@V?$_Tmap_traits@IPAUClientContext@@U?$less@I@std@@V?$allocator@U?$pair@$$CBIPAUClientContext@@@std@@@3@$0A@@std@@@std@@IAEPAU?$_Tree_node@U?$pair@$$CBIPAUClientContext@@@std@@PAX@1@PAU21@AAU?$pair@$$CBIPAUClientContext@@@1@@Z 1000c150 f i IOCPS.obj
 0001:0000b160       ??$construct@U?$pair@$$CBIPAVCIOCPBuffer@@@std@@U?$pair@IPAVCIOCPBuffer@@@2@@?$allocator_traits@V?$allocator@U?$_Tree_node@U?$pair@$$CBIPAVCIOCPBuffer@@@std@@PAX@std@@@std@@@std@@SAXAAV?$allocator@U?$_Tree_node@U?$pair@$$CBIPAVCIOCPBuffer@@@std@@PAX@std@@@1@PAU?$pair@$$CBIPAVCIOCPBuffer@@@1@$$QAU?$pair@IPAVCIOCPBuffer@@@1@@Z 1000c160 f i IOCPS.obj
 0001:0000b180       ??$?0ABG@?$_Tuple_val@ABG@std@@QAE@ABG@Z 1000c180 f i IOCPS.obj
 0001:0000b180       ??$?0ABI@?$_Tuple_val@ABI@std@@QAE@ABI@Z 1000c180 f i IOCPS.obj
 0001:0000b1b0       ??$construct@U?$pair@$$CBGPAX@std@@ABUpiecewise_construct_t@2@V?$tuple@ABG@2@V?$tuple@$$V@2@@?$_Wrap_alloc@V?$allocator@U?$_Tree_node@U?$pair@$$CBGPAX@std@@PAX@std@@@std@@@std@@QAEXPAU?$pair@$$CBGPAX@1@ABUpiecewise_construct_t@1@$$QAV?$tuple@ABG@1@$$QAV?$tuple@$$V@1@@Z 1000c1b0 f i IOCPS.obj
 0001:0000b200       ??$construct@U?$pair@$$CBIPAVCIOCPBuffer@@@std@@ABUpiecewise_construct_t@2@V?$tuple@ABI@2@V?$tuple@$$V@2@@?$_Wrap_alloc@V?$allocator@U?$_Tree_node@U?$pair@$$CBIPAVCIOCPBuffer@@@std@@PAX@std@@@std@@@std@@QAEXPAU?$pair@$$CBIPAVCIOCPBuffer@@@1@ABUpiecewise_construct_t@1@$$QAV?$tuple@ABI@1@$$QAV?$tuple@$$V@1@@Z 1000c200 f i IOCPS.obj
 0001:0000b200       ??$construct@U?$pair@$$CBIPAUClientContext@@@std@@ABUpiecewise_construct_t@2@V?$tuple@ABI@2@V?$tuple@$$V@2@@?$_Wrap_alloc@V?$allocator@U?$_Tree_node@U?$pair@$$CBIPAUClientContext@@@std@@PAX@std@@@std@@@std@@QAEXPAU?$pair@$$CBIPAUClientContext@@@1@ABUpiecewise_construct_t@1@$$QAV?$tuple@ABI@1@$$QAV?$tuple@$$V@1@@Z 1000c200 f i IOCPS.obj
 0001:0000b250       ??$construct@U?$pair@$$CBGPAX@std@@U?$pair@GPAX@2@@?$allocator@U?$_Tree_node@U?$pair@$$CBGPAX@std@@PAX@std@@@std@@QAEXPAU?$pair@$$CBGPAX@1@$$QAU?$pair@GPAX@1@@Z 1000c250 f i IOCPS.obj
 0001:0000b2a0       ??$construct@U?$pair@$$CBIPAVCIOCPBuffer@@@std@@U?$pair@IPAVCIOCPBuffer@@@2@@?$allocator@U?$_Tree_node@U?$pair@$$CBIPAVCIOCPBuffer@@@std@@PAX@std@@@std@@QAEXPAU?$pair@$$CBIPAVCIOCPBuffer@@@1@$$QAU?$pair@IPAVCIOCPBuffer@@@1@@Z 1000c2a0 f i IOCPS.obj
 0001:0000b2f0       ??$construct@U?$pair@$$CBGPAX@std@@ABUpiecewise_construct_t@2@V?$tuple@ABG@2@V?$tuple@$$V@2@@?$allocator_traits@V?$allocator@U?$_Tree_node@U?$pair@$$CBGPAX@std@@PAX@std@@@std@@@std@@SAXAAV?$allocator@U?$_Tree_node@U?$pair@$$CBGPAX@std@@PAX@std@@@1@PAU?$pair@$$CBGPAX@1@ABUpiecewise_construct_t@1@$$QAV?$tuple@ABG@1@$$QAV?$tuple@$$V@1@@Z 1000c2f0 f i IOCPS.obj
 0001:0000b330       ??$construct@U?$pair@$$CBIPAVCIOCPBuffer@@@std@@ABUpiecewise_construct_t@2@V?$tuple@ABI@2@V?$tuple@$$V@2@@?$allocator_traits@V?$allocator@U?$_Tree_node@U?$pair@$$CBIPAVCIOCPBuffer@@@std@@PAX@std@@@std@@@std@@SAXAAV?$allocator@U?$_Tree_node@U?$pair@$$CBIPAVCIOCPBuffer@@@std@@PAX@std@@@1@PAU?$pair@$$CBIPAVCIOCPBuffer@@@1@ABUpiecewise_construct_t@1@$$QAV?$tuple@ABI@1@$$QAV?$tuple@$$V@1@@Z 1000c330 f i IOCPS.obj
 0001:0000b330       ??$construct@U?$pair@$$CBIPAUClientContext@@@std@@ABUpiecewise_construct_t@2@V?$tuple@ABI@2@V?$tuple@$$V@2@@?$allocator_traits@V?$allocator@U?$_Tree_node@U?$pair@$$CBIPAUClientContext@@@std@@PAX@std@@@std@@@std@@SAXAAV?$allocator@U?$_Tree_node@U?$pair@$$CBIPAUClientContext@@@std@@PAX@std@@@1@PAU?$pair@$$CBIPAUClientContext@@@1@ABUpiecewise_construct_t@1@$$QAV?$tuple@ABI@1@$$QAV?$tuple@$$V@1@@Z 1000c330 f i IOCPS.obj
 0001:0000b370       ??$?0GPAXX$0A@@?$pair@$$CBGPAX@std@@QAE@$$QAU?$pair@GPAX@1@@Z 1000c370 f i IOCPS.obj
 0001:0000b3b0       ??$?0IPAVCIOCPBuffer@@X$0A@@?$pair@$$CBIPAVCIOCPBuffer@@@std@@QAE@$$QAU?$pair@IPAVCIOCPBuffer@@@1@@Z 1000c3b0 f i IOCPS.obj
 0001:0000b3f0       ??$construct@U?$pair@$$CBGPAX@std@@ABUpiecewise_construct_t@2@V?$tuple@ABG@2@V?$tuple@$$V@2@@?$allocator@U?$_Tree_node@U?$pair@$$CBGPAX@std@@PAX@std@@@std@@QAEXPAU?$pair@$$CBGPAX@1@ABUpiecewise_construct_t@1@$$QAV?$tuple@ABG@1@$$QAV?$tuple@$$V@1@@Z 1000c3f0 f i IOCPS.obj
 0001:0000b4b0       ??$construct@U?$pair@$$CBIPAVCIOCPBuffer@@@std@@ABUpiecewise_construct_t@2@V?$tuple@ABI@2@V?$tuple@$$V@2@@?$allocator@U?$_Tree_node@U?$pair@$$CBIPAVCIOCPBuffer@@@std@@PAX@std@@@std@@QAEXPAU?$pair@$$CBIPAVCIOCPBuffer@@@1@ABUpiecewise_construct_t@1@$$QAV?$tuple@ABI@1@$$QAV?$tuple@$$V@1@@Z 1000c4b0 f i IOCPS.obj
 0001:0000b4b0       ??$construct@U?$pair@$$CBIPAUClientContext@@@std@@ABUpiecewise_construct_t@2@V?$tuple@ABI@2@V?$tuple@$$V@2@@?$allocator@U?$_Tree_node@U?$pair@$$CBIPAUClientContext@@@std@@PAX@std@@@std@@QAEXPAU?$pair@$$CBIPAUClientContext@@@1@ABUpiecewise_construct_t@1@$$QAV?$tuple@ABI@1@$$QAV?$tuple@$$V@1@@Z 1000c4b0 f i IOCPS.obj
 0001:0000b570       ??0?$tuple@ABI@std@@QAE@$$QAV01@@Z 1000c570 f i IOCPS.obj
 0001:0000b570       ??0?$tuple@ABG@std@@QAE@$$QAV01@@Z 1000c570 f i IOCPS.obj
 0001:0000b5a0       ??$?0ABG$$Z$$V@?$pair@$$CBGPAX@std@@QAE@Upiecewise_construct_t@1@V?$tuple@ABG@1@V?$tuple@$$V@1@@Z 1000c5a0 f i IOCPS.obj
 0001:0000b5d0       ??$?0ABI$$Z$$V@?$pair@$$CBIPAUClientContext@@@std@@QAE@Upiecewise_construct_t@1@V?$tuple@ABI@1@V?$tuple@$$V@1@@Z 1000c5d0 f i IOCPS.obj
 0001:0000b5d0       ??$?0ABI$$Z$$V@?$pair@$$CBIPAVCIOCPBuffer@@@std@@QAE@Upiecewise_construct_t@1@V?$tuple@ABI@1@V?$tuple@$$V@1@@Z 1000c5d0 f i IOCPS.obj
 0001:0000b600       ??$?0V?$tuple@ABG@std@@V?$tuple@$$V@1@$0A@$$Z$S@?$pair@$$CBGPAX@std@@QAE@AAV?$tuple@ABG@1@AAV?$tuple@$$V@1@U?$integer_sequence@I$0A@@1@U?$integer_sequence@I$S@1@@Z 1000c600 f i IOCPS.obj
 0001:0000b640       ??$?0V?$tuple@ABI@std@@V?$tuple@$$V@1@$0A@$$Z$S@?$pair@$$CBIPAVCIOCPBuffer@@@std@@QAE@AAV?$tuple@ABI@1@AAV?$tuple@$$V@1@U?$integer_sequence@I$0A@@1@U?$integer_sequence@I$S@1@@Z 1000c640 f i IOCPS.obj
 0001:0000b640       ??$?0V?$tuple@ABI@std@@V?$tuple@$$V@1@$0A@$$Z$S@?$pair@$$CBIPAUClientContext@@@std@@QAE@AAV?$tuple@ABI@1@AAV?$tuple@$$V@1@U?$integer_sequence@I$0A@@1@U?$integer_sequence@I$S@1@@Z 1000c640 f i IOCPS.obj
 0001:0000b680       ??$get@$0A@ABG@std@@YAABG$$QAV?$tuple@ABG@0@@Z 1000c680 f i IOCPS.obj
 0001:0000b680       ??$get@$0A@ABI@std@@YAABI$$QAV?$tuple@ABI@0@@Z 1000c680 f i IOCPS.obj
 0001:0000b6a0       ??3@YAXPAX0@Z              1000c6a0 f i IOCPS.obj
 0001:0000b6b0       ??0ITIOCP@@QAE@XZ          1000c6b0 f   MyIOCP.obj
 0001:0000b7a0       ??_GITIOCP@@UAEPAXI@Z      1000c7a0 f i MyIOCP.obj
 0001:0000b7a0       ??_EITIOCP@@UAEPAXI@Z      1000c7a0 f i * CIL library *:* CIL module *
 0001:0000b7e0       ??1ITIOCP@@UAE@XZ          1000c7e0 f   MyIOCP.obj
 0001:0000b820       ?NotifyReceivedPackage@ITIOCP@@UAEXPAVCIOCPBuffer@@HPAUClientContext@@@Z 1000c820 f   MyIOCP.obj
 0001:0000b850       ?ProcessJob@ITIOCP@@UAEXPAUJobItem@@PAVIOCPS@@@Z 1000c850 f i MyIOCP.obj
 0001:0000b870       ?NotifyNewConnection@ITIOCP@@UAEXPAUClientContext@@@Z 1000c870 f   MyIOCP.obj
 0001:0000b920       ?NotifyDisconnectedClient@ITIOCP@@UAEXPAUClientContext@@@Z 1000c920 f   MyIOCP.obj
 0001:0000ba20       ?NotifyNewClientContext@ITIOCP@@UAEXPAUClientContext@@@Z 1000ca20 f   MyIOCP.obj
 0001:0000ba50       ?Packagetext@ITIOCP@@QAEXPAVCIOCPBuffer@@HPAUClientContext@@@Z 1000ca50 f   MyIOCP.obj
 0001:0000bbd0       ?Send@ITIOCP@@UAE_NIPADI@Z 1000cbd0 f   MyIOCP.obj
 0001:0000bc40       ?CreateServerSocket@@YGPAVSocket@@XZ 1000cc40 f   MyIOCP.obj
 0001:0000bcb0       ?ReleaseServerSocket@@YGXPAVSocket@@@Z 1000ccb0 f   MyIOCP.obj
 0001:0000bcb0       ?ReleaseClientSocket@@YGXPAVSocket@@@Z 1000ccb0 f   MyIOCP.obj
 0001:0000bcf0       ?CreateClientSocket@@YGPAVSocket@@XZ 1000ccf0 f   MyIOCP.obj
 0001:0000bd65       @__security_check_cookie@4 1000cd65 f   MSVCRT:_secchk_.obj
 0001:0000bd76       ??3@YAXPAXI@Z              1000cd76 f   MSVCRT:delete_scalar_size.obj
 0001:0000bd84       ??_Etype_info@@UAEPAXI@Z   1000cd84 f i MSVCRT:std_type_info_static.obj
 0001:0000bd84       ??_Gtype_info@@UAEPAXI@Z   1000cd84 f i MSVCRT:std_type_info_static.obj
 0001:0000bda7       ??2@YAPAXI@Z               1000cda7 f   MSVCRT:new_scalar.obj
 0001:0000bdda       ??3@YAXPAX@Z               1000cdda f   MSVCRT:delete_scalar.obj
 0001:0000bddf       ??_V@YAXPAX@Z              1000cddf f   MSVCRT:delete_array.obj
 0001:0000bde4       ___raise_securityfailure   1000cde4 f   MSVCRT:gs_report.obj
 0001:0000be0c       ___report_gsfailure        1000ce0c f   MSVCRT:gs_report.obj
 0001:0000bf07       ___report_rangecheckfailure 1000cf07 f   MSVCRT:gs_report.obj
 0001:0000bf13       ___report_securityfailure  1000cf13 f   MSVCRT:gs_report.obj
 0001:0000c2eb       __DllMainCRTStartup@12     1000d2eb f   MSVCRT:dll_dllmain.obj
 0001:0000c30e       ??0bad_alloc@std@@QAE@ABV01@@Z 1000d30e f i MSVCRT:throw_bad_alloc.obj
 0001:0000c329       ??0bad_alloc@std@@QAE@XZ   1000d329 f i MSVCRT:throw_bad_alloc.obj
 0001:0000c341       ??0bad_array_new_length@std@@QAE@ABV01@@Z 1000d341 f i MSVCRT:throw_bad_alloc.obj
 0001:0000c35c       ??0bad_array_new_length@std@@QAE@XZ 1000d35c f i MSVCRT:throw_bad_alloc.obj
 0001:0000c374       ??0exception@std@@QAE@ABV01@@Z 1000d374 f i MSVCRT:throw_bad_alloc.obj
 0001:0000c3a0       ??1bad_alloc@std@@UAE@XZ   1000d3a0 f i MSVCRT:throw_bad_alloc.obj
 0001:0000c3a0       ??1bad_array_new_length@std@@UAE@XZ 1000d3a0 f i MSVCRT:throw_bad_alloc.obj
 0001:0000c3b1       ??_Ebad_array_new_length@std@@UAEPAXI@Z 1000d3b1 f i MSVCRT:throw_bad_alloc.obj
 0001:0000c3b1       ??_Ebad_alloc@std@@UAEPAXI@Z 1000d3b1 f i MSVCRT:throw_bad_alloc.obj
 0001:0000c3b1       ??_Gexception@std@@UAEPAXI@Z 1000d3b1 f i MSVCRT:throw_bad_alloc.obj
 0001:0000c3b1       ??_Eexception@std@@UAEPAXI@Z 1000d3b1 f i MSVCRT:throw_bad_alloc.obj
 0001:0000c3b1       ??_Gbad_array_new_length@std@@UAEPAXI@Z 1000d3b1 f i MSVCRT:throw_bad_alloc.obj
 0001:0000c3b1       ??_Gbad_alloc@std@@UAEPAXI@Z 1000d3b1 f i MSVCRT:throw_bad_alloc.obj
 0001:0000c3de       ?__scrt_throw_std_bad_alloc@@YAXXZ 1000d3de f   MSVCRT:throw_bad_alloc.obj
 0001:0000c3fb       ?__scrt_throw_std_bad_array_new_length@@YAXXZ 1000d3fb f   MSVCRT:throw_bad_alloc.obj
 0001:0000c418       ?what@exception@std@@UBEPBDXZ 1000d418 f i MSVCRT:throw_bad_alloc.obj
 0001:0000c469       ___scrt_acquire_startup_lock 1000d469 f   MSVCRT:utility.obj
 0001:0000c49e       ___scrt_dllmain_after_initialize_c 1000d49e f   MSVCRT:utility.obj
 0001:0000c4c9       ___scrt_dllmain_before_initialize_c 1000d4c9 f   MSVCRT:utility.obj
 0001:0000c4d7       ___scrt_dllmain_crt_thread_attach 1000d4d7 f   MSVCRT:utility.obj
 0001:0000c4f6       ___scrt_dllmain_crt_thread_detach 1000d4f6 f   MSVCRT:utility.obj
 0001:0000c503       ___scrt_dllmain_exception_filter 1000d503 f   MSVCRT:utility.obj
 0001:0000c536       ___scrt_dllmain_uninitialize_c 1000d536 f   MSVCRT:utility.obj
 0001:0000c559       ___scrt_dllmain_uninitialize_critical 1000d559 f   MSVCRT:utility.obj
 0001:0000c566       ___scrt_initialize_crt     1000d566 f   MSVCRT:utility.obj
 0001:0000c59f       ___scrt_initialize_onexit_tables 1000d59f f   MSVCRT:utility.obj
 0001:0000c636       ___scrt_is_nonwritable_in_current_image 1000d636 f   MSVCRT:utility.obj
 0001:0000c6c0       ___scrt_release_startup_lock 1000d6c0 f   MSVCRT:utility.obj
 0001:0000c6dd       ___scrt_uninitialize_crt   1000d6dd f   MSVCRT:utility.obj
 0001:0000c705       __onexit                   1000d705 f   MSVCRT:utility.obj
 0001:0000c740       _atexit                    1000d740 f   MSVCRT:utility.obj
 0001:0000c755       ___security_init_cookie    1000d755 f   MSVCRT:gs_support.obj
 0001:0000c7f1       ?__scrt_initialize_type_info@@YAXXZ 1000d7f1 f   MSVCRT:tncleanup.obj
 0001:0000c7fd       ?__scrt_uninitialize_type_info@@YAXXZ 1000d7fd f   MSVCRT:tncleanup.obj
 0001:0000c809       ___local_stdio_printf_options 1000d809 f i MSVCRT:default_local_stdio_options.obj
 0001:0000c80f       ___local_stdio_scanf_options 1000d80f f i MSVCRT:default_local_stdio_options.obj
 0001:0000c815       ___scrt_initialize_default_local_stdio_options 1000d815 f   MSVCRT:default_local_stdio_options.obj
 0001:0000c832       ___scrt_get_dyn_tls_init_callback 1000d832 f   MSVCRT:dyn_tls_init.obj
 0001:0000c838       ___scrt_fastfail           1000d838 f   MSVCRT:utility_desktop.obj
 0001:0000c953       __RTC_Initialize           1000d953 f   MSVCRT:_initsect_.obj
 0001:0000c97e       __RTC_Terminate            1000d97e f   MSVCRT:_initsect_.obj
 0001:0000c9a9       @_guard_check_icall@4      1000d9a9 f i MSVCRT:checkcfg.obj
 0001:0000c9b0       __SEH_prolog4              1000d9b0 f   MSVCRT:_sehprolg4_.obj
 0001:0000c9f6       __SEH_epilog4              1000d9f6 f   MSVCRT:_sehprolg4_.obj
 0001:0000ca0b       __except_handler4          1000da0b f   MSVCRT:_chandler4gs_.obj
 0001:0000ca2e       ___isa_available_init      1000da2e f   MSVCRT:_cpu_disp_.obj
 0001:0000cbc8       __get_startup_argv_mode    1000dbc8 f   MSVCRT:argv_mode.obj
 0001:0000cbcc       ___scrt_is_ucrt_dll_in_use 1000dbcc f   MSVCRT:ucrt_detection.obj
 0001:0000cbd8       @_guard_check_icall_nop@4  1000dbd8 f i MSVCRT:guard_support.obj
 0001:0000cbda       __purecall                 1000dbda f   vcruntime:VCRUNTIME140.dll
 0001:0000cbe0       ___std_exception_copy      1000dbe0 f   vcruntime:VCRUNTIME140.dll
 0001:0000cbe6       ___std_exception_destroy   1000dbe6 f   vcruntime:VCRUNTIME140.dll
 0001:0000cbec       __CxxThrowException@8      1000dbec f   vcruntime:VCRUNTIME140.dll
 0001:0000cbf2       ___std_type_info_destroy_list 1000dbf2 f   vcruntime:VCRUNTIME140.dll
 0001:0000cbf8       _memset                    1000dbf8 f   vcruntime:VCRUNTIME140.dll
 0001:0000cbfe       __except_handler4_common   1000dbfe f   vcruntime:VCRUNTIME140.dll
 0001:0000cc04       __callnewh                 1000dc04 f   ucrt:api-ms-win-crt-heap-l1-1-0.dll
 0001:0000cc0a       _malloc                    1000dc0a f   ucrt:api-ms-win-crt-heap-l1-1-0.dll
 0001:0000cc10       _free                      1000dc10 f   ucrt:api-ms-win-crt-heap-l1-1-0.dll
 0001:0000cc16       __initterm                 1000dc16 f   ucrt:api-ms-win-crt-runtime-l1-1-0.dll
 0001:0000cc1c       __initterm_e               1000dc1c f   ucrt:api-ms-win-crt-runtime-l1-1-0.dll
 0001:0000cc22       __seh_filter_dll           1000dc22 f   ucrt:api-ms-win-crt-runtime-l1-1-0.dll
 0001:0000cc28       __configure_narrow_argv    1000dc28 f   ucrt:api-ms-win-crt-runtime-l1-1-0.dll
 0001:0000cc2e       __initialize_narrow_environment 1000dc2e f   ucrt:api-ms-win-crt-runtime-l1-1-0.dll
 0001:0000cc34       __initialize_onexit_table  1000dc34 f   ucrt:api-ms-win-crt-runtime-l1-1-0.dll
 0001:0000cc3a       __register_onexit_function 1000dc3a f   ucrt:api-ms-win-crt-runtime-l1-1-0.dll
 0001:0000cc40       __execute_onexit_table     1000dc40 f   ucrt:api-ms-win-crt-runtime-l1-1-0.dll
 0001:0000cc46       __crt_atexit               1000dc46 f   ucrt:api-ms-win-crt-runtime-l1-1-0.dll
 0001:0000cc4c       __cexit                    1000dc4c f   ucrt:api-ms-win-crt-runtime-l1-1-0.dll
 0001:0000cc52       _IsProcessorFeaturePresent@4 1000dc52 f   kernel32:KERNEL32.dll
 0001:0000cc58       ___acrt_thread_attach      1000dc58 f   MSVCRT:ucrt_stubs.obj
 0001:0000cc58       ___scrt_stub_for_acrt_uninitialize_critical 1000dc58 f   MSVCRT:ucrt_stubs.obj
 0001:0000cc58       ___vcrt_initialize         1000dc58 f   MSVCRT:ucrt_stubs.obj
 0001:0000cc58       ___vcrt_uninitialize_critical 1000dc58 f   MSVCRT:ucrt_stubs.obj
 0001:0000cc58       ___acrt_uninitialize_critical 1000dc58 f   MSVCRT:ucrt_stubs.obj
 0001:0000cc58       ___scrt_stub_for_acrt_thread_attach 1000dc58 f   MSVCRT:ucrt_stubs.obj
 0001:0000cc58       ___vcrt_uninitialize       1000dc58 f   MSVCRT:ucrt_stubs.obj
 0001:0000cc58       ___acrt_uninitialize       1000dc58 f   MSVCRT:ucrt_stubs.obj
 0001:0000cc58       ___scrt_stub_for_acrt_initialize 1000dc58 f   MSVCRT:ucrt_stubs.obj
 0001:0000cc58       ___vcrt_thread_detach      1000dc58 f   MSVCRT:ucrt_stubs.obj
 0001:0000cc58       ___scrt_stub_for_acrt_uninitialize 1000dc58 f   MSVCRT:ucrt_stubs.obj
 0001:0000cc58       ___vcrt_thread_attach      1000dc58 f   MSVCRT:ucrt_stubs.obj
 0001:0000cc58       ___acrt_initialize         1000dc58 f   MSVCRT:ucrt_stubs.obj
 0001:0000cc58       ___scrt_stub_for_acrt_thread_detach 1000dc58 f   MSVCRT:ucrt_stubs.obj
 0001:0000cc58       ___acrt_thread_detach      1000dc58 f   MSVCRT:ucrt_stubs.obj
 0001:0000cc5b       ___scrt_stub_for_is_c_termination_complete 1000dc5b f   MSVCRT:ucrt_stubs.obj
 0001:0000cc5b       __is_c_termination_complete 1000dc5b f   MSVCRT:ucrt_stubs.obj
 0001:0000cc60       __chkstk                   1000dc60 f   MSVCRT:chkstk.obj
 0001:0000cc60       __alloca_probe             1000dc60 f   MSVCRT:chkstk.obj
 0001:0000cc8e       ___CxxFrameHandler3        1000dc8e f   vcruntime:VCRUNTIME140.dll
 0001:0000cc94       _memcpy                    1000dc94 f   vcruntime:VCRUNTIME140.dll
 0002:00000000       __imp__Sleep@4             1000f000     kernel32:KERNEL32.dll
 0002:00000004       __imp__IsDebuggerPresent@0 1000f004     kernel32:KERNEL32.dll
 0002:00000008       __imp__InitializeSListHead@4 1000f008     kernel32:KERNEL32.dll
 0002:0000000c       __imp__GetSystemTimeAsFileTime@4 1000f00c     kernel32:KERNEL32.dll
 0002:00000010       __imp__GetCurrentProcessId@0 1000f010     kernel32:KERNEL32.dll
 0002:00000014       __imp__QueryPerformanceCounter@4 1000f014     kernel32:KERNEL32.dll
 0002:00000018       __imp__IsProcessorFeaturePresent@4 1000f018     kernel32:KERNEL32.dll
 0002:0000001c       __imp__TerminateProcess@8  1000f01c     kernel32:KERNEL32.dll
 0002:00000020       __imp__GetCurrentProcess@0 1000f020     kernel32:KERNEL32.dll
 0002:00000024       __imp__SetUnhandledExceptionFilter@4 1000f024     kernel32:KERNEL32.dll
 0002:00000028       __imp__UnhandledExceptionFilter@4 1000f028     kernel32:KERNEL32.dll
 0002:0000002c       __imp__GetCurrentThread@0  1000f02c     kernel32:KERNEL32.dll
 0002:00000030       __imp__SuspendThread@4     1000f030     kernel32:KERNEL32.dll
 0002:00000034       __imp__GetCurrentThreadId@0 1000f034     kernel32:KERNEL32.dll
 0002:00000038       __imp__PostQueuedCompletionStatus@16 1000f038     kernel32:KERNEL32.dll
 0002:0000003c       __imp__ResumeThread@4      1000f03c     kernel32:KERNEL32.dll
 0002:00000040       __imp__GetExitCodeThread@8 1000f040     kernel32:KERNEL32.dll
 0002:00000044       __imp__LocalFree@4         1000f044     kernel32:KERNEL32.dll
 0002:00000048       __imp__FormatMessageA@28   1000f048     kernel32:KERNEL32.dll
 0002:0000004c       __imp__CloseHandle@4       1000f04c     kernel32:KERNEL32.dll
 0002:00000050       __imp__LeaveCriticalSection@4 1000f050     kernel32:KERNEL32.dll
 0002:00000054       __imp__CancelIo@4          1000f054     kernel32:KERNEL32.dll
 0002:00000058       __imp__EnterCriticalSection@4 1000f058     kernel32:KERNEL32.dll
 0002:0000005c       __imp__CreateIoCompletionPort@16 1000f05c     kernel32:KERNEL32.dll
 0002:00000060       __imp__InitializeCriticalSection@4 1000f060     kernel32:KERNEL32.dll
 0002:00000064       __imp__GetQueuedCompletionStatus@20 1000f064     kernel32:KERNEL32.dll
 0002:00000068       __imp__GetLastError@0      1000f068     kernel32:KERNEL32.dll
 0002:0000006c       \177KERNEL32_NULL_THUNK_DATA 1000f06c     kernel32:KERNEL32.dll
 0002:00000070       __imp_?_Xbad_alloc@std@@YAXXZ 1000f070     msvcprt:MSVCP140.dll
 0002:00000074       __imp_?_Xout_of_range@std@@YAXPBD@Z 1000f074     msvcprt:MSVCP140.dll
 0002:00000078       __imp_?_Xlength_error@std@@YAXPBD@Z 1000f078     msvcprt:MSVCP140.dll
 0002:0000007c       \177MSVCP140_NULL_THUNK_DATA 1000f07c     msvcprt:MSVCP140.dll
 0002:00000080       __imp__memcpy              1000f080     vcruntime:VCRUNTIME140.dll
 0002:00000084       __imp__memmove             1000f084     vcruntime:VCRUNTIME140.dll
 0002:00000088       __imp___purecall           1000f088     vcruntime:VCRUNTIME140.dll
 0002:0000008c       __imp____std_exception_copy 1000f08c     vcruntime:VCRUNTIME140.dll
 0002:00000090       __imp____std_exception_destroy 1000f090     vcruntime:VCRUNTIME140.dll
 0002:00000094       __imp___CxxThrowException@8 1000f094     vcruntime:VCRUNTIME140.dll
 0002:00000098       __imp____std_type_info_destroy_list 1000f098     vcruntime:VCRUNTIME140.dll
 0002:0000009c       __imp__memset              1000f09c     vcruntime:VCRUNTIME140.dll
 0002:000000a0       __imp___except_handler4_common 1000f0a0     vcruntime:VCRUNTIME140.dll
 0002:000000a4       __imp____CxxFrameHandler3  1000f0a4     vcruntime:VCRUNTIME140.dll
 0002:000000a8       \177VCRUNTIME140_NULL_THUNK_DATA 1000f0a8     vcruntime:VCRUNTIME140.dll
 0002:000000ac       __imp__WSAStartup@8        1000f0ac     ws2_32:WS2_32.dll
 0002:000000b0       __imp__WSACleanup@0        1000f0b0     ws2_32:WS2_32.dll
 0002:000000b4       __imp__connect@12          1000f0b4     ws2_32:WS2_32.dll
 0002:000000b8       __imp__WSAIoctl@36         1000f0b8     ws2_32:WS2_32.dll
 0002:000000bc       __imp__inet_addr@4         1000f0bc     ws2_32:WS2_32.dll
 0002:000000c0       __imp__socket@12           1000f0c0     ws2_32:WS2_32.dll
 0002:000000c4       __imp__listen@8            1000f0c4     ws2_32:WS2_32.dll
 0002:000000c8       __imp__bind@12             1000f0c8     ws2_32:WS2_32.dll
 0002:000000cc       __imp__htons@4             1000f0cc     ws2_32:WS2_32.dll
 0002:000000d0       __imp__WSAEventSelect@12   1000f0d0     ws2_32:WS2_32.dll
 0002:000000d4       __imp__WSACreateEvent@0    1000f0d4     ws2_32:WS2_32.dll
 0002:000000d8       __imp__WSAEnumNetworkEvents@12 1000f0d8     ws2_32:WS2_32.dll
 0002:000000dc       __imp__WSAGetLastError@0   1000f0dc     ws2_32:WS2_32.dll
 0002:000000e0       __imp__WSAAccept@20        1000f0e0     ws2_32:WS2_32.dll
 0002:000000e4       __imp__closesocket@4       1000f0e4     ws2_32:WS2_32.dll
 0002:000000e8       __imp__setsockopt@20       1000f0e8     ws2_32:WS2_32.dll
 0002:000000ec       __imp__WSARecv@28          1000f0ec     ws2_32:WS2_32.dll
 0002:000000f0       __imp__WSASend@28          1000f0f0     ws2_32:WS2_32.dll
 0002:000000f4       __imp__getpeername@12      1000f0f4     ws2_32:WS2_32.dll
 0002:000000f8       __imp__inet_ntoa@4         1000f0f8     ws2_32:WS2_32.dll
 0002:000000fc       __imp__WSAWaitForMultipleEvents@20 1000f0fc     ws2_32:WS2_32.dll
 0002:00000100       __imp__WSACloseEvent@4     1000f100     ws2_32:WS2_32.dll
 0002:00000104       __imp__WSASocketA@24       1000f104     ws2_32:WS2_32.dll
 0002:00000108       \177WS2_32_NULL_THUNK_DATA 1000f108     ws2_32:WS2_32.dll
 0002:0000010c       __imp___callnewh           1000f10c     ucrt:api-ms-win-crt-heap-l1-1-0.dll
 0002:00000110       __imp__free                1000f110     ucrt:api-ms-win-crt-heap-l1-1-0.dll
 0002:00000114       __imp__malloc              1000f114     ucrt:api-ms-win-crt-heap-l1-1-0.dll
 0002:00000118       \177api-ms-win-crt-heap-l1-1-0_NULL_THUNK_DATA 1000f118     ucrt:api-ms-win-crt-heap-l1-1-0.dll
 0002:0000011c       __imp___cexit              1000f11c     ucrt:api-ms-win-crt-runtime-l1-1-0.dll
 0002:00000120       __imp___initialize_onexit_table 1000f120     ucrt:api-ms-win-crt-runtime-l1-1-0.dll
 0002:00000124       __imp___configure_narrow_argv 1000f124     ucrt:api-ms-win-crt-runtime-l1-1-0.dll
 0002:00000128       __imp___seh_filter_dll     1000f128     ucrt:api-ms-win-crt-runtime-l1-1-0.dll
 0002:0000012c       __imp___initterm_e         1000f12c     ucrt:api-ms-win-crt-runtime-l1-1-0.dll
 0002:00000130       __imp___initterm           1000f130     ucrt:api-ms-win-crt-runtime-l1-1-0.dll
 0002:00000134       __imp___crt_atexit         1000f134     ucrt:api-ms-win-crt-runtime-l1-1-0.dll
 0002:00000138       __imp___register_onexit_function 1000f138     ucrt:api-ms-win-crt-runtime-l1-1-0.dll
 0002:0000013c       __imp___execute_onexit_table 1000f13c     ucrt:api-ms-win-crt-runtime-l1-1-0.dll
 0002:00000140       __imp___beginthreadex      1000f140     ucrt:api-ms-win-crt-runtime-l1-1-0.dll
 0002:00000144       __imp___invalid_parameter_noinfo_noreturn 1000f144     ucrt:api-ms-win-crt-runtime-l1-1-0.dll
 0002:00000148       __imp___initialize_narrow_environment 1000f148     ucrt:api-ms-win-crt-runtime-l1-1-0.dll
 0002:0000014c       \177api-ms-win-crt-runtime-l1-1-0_NULL_THUNK_DATA 1000f14c     ucrt:api-ms-win-crt-runtime-l1-1-0.dll
 0002:00000150       __imp_?trace@log@stl@@YA_NIIPBDZZ 1000f150     xlogger:xLogger.dll
 0002:00000154       \177xLogger_NULL_THUNK_DATA 1000f154     xlogger:xLogger.dll
 0002:00000158       ___guard_check_icall_fptr  1000f158     MSVCRT:guard_support.obj
 0002:0000015c       ___xc_a                    1000f15c     MSVCRT:initializers.obj
 0002:00000160       ___xc_z                    1000f160     MSVCRT:initializers.obj
 0002:00000164       ___xi_a                    1000f164     MSVCRT:initializers.obj
 0002:00000168       ___xi_z                    1000f168     MSVCRT:initializers.obj
 0002:0000016c       ___xp_a                    1000f16c     MSVCRT:initializers.obj
 0002:00000170       ___xp_z                    1000f170     MSVCRT:initializers.obj
 0002:00000174       ___xt_a                    1000f174     MSVCRT:initializers.obj
 0002:00000178       ___xt_z                    1000f178     MSVCRT:initializers.obj
 0002:00000184       ??_7type_info@@6B@         1000f184     MSVCRT:std_type_info_static.obj
 0002:00000190       __pRawDllMain              1000f190     MSVCRT:dll_dllmain.obj
 0002:00000190       __pDefaultRawDllMain       1000f190     MSVCRT:dll_dllmain.obj
 0002:00000198       ??_7exception@std@@6B@     1000f198     MSVCRT:throw_bad_alloc.obj
 0002:000001a0       ??_C@_0BC@EOODALEL@Unknown?5exception?$AA@ 1000f1a0     MSVCRT:throw_bad_alloc.obj
 0002:000001b8       ??_7bad_alloc@std@@6B@     1000f1b8     MSVCRT:throw_bad_alloc.obj
 0002:000001c0       ??_C@_0P@GHFPNOJB@bad?5allocation?$AA@ 1000f1c0     MSVCRT:throw_bad_alloc.obj
 0002:000001d4       ??_7bad_array_new_length@std@@6B@ 1000f1d4     MSVCRT:throw_bad_alloc.obj
 0002:000001dc       ??_C@_0BF@KINCDENJ@bad?5array?5new?5length?$AA@ 1000f1dc     MSVCRT:throw_bad_alloc.obj
 0002:00000e00       ??_C@_0BA@JFNIOLAK@string?5too?5long?$AA@ 1000fe00     IOCPBuffer.obj
 0002:00000e10       ??_C@_0BI@CFPLBAOH@invalid?5string?5position?$AA@ 1000fe10     IOCPBuffer.obj
 0002:00000e2c       ??_7CIOCPBuffer@@6B@       1000fe2c     IOCPBuffer.obj
 0002:00000e30       ??_C@_0DK@JKLDGEEE@IOCPS?3?3AssociateIncomingClientWi@ 1000fe30     IOCPS.obj
 0002:00000e70       ??_C@_0EC@IBBCBBBC@IOCPS?3?3AssociateIncomingClientWi@ 1000fe70     IOCPS.obj
 0002:00000eb4       ??_C@_0DG@IICBDPN@IOCPS?3?3AssociateIncomingClientWi@ 1000feb4     IOCPS.obj
 0002:00000ef0       ??_C@_0EN@KGMPOPED@IOCPS?3?3AssociateIncomingClientWi@ 1000fef0     IOCPS.obj
 0002:00000f40       ??_C@_0EF@PIEIDDNN@IOCPS?3?3AssociateIncomingClientWi@ 1000ff40     IOCPS.obj
 0002:00000f88       ??_C@_0FG@FCDBBCAK@IOCPS?3?3AssociateIncomingClientWi@ 1000ff88     IOCPS.obj
 0002:00000fe0       ??_C@_0GP@DCLBJJC@IOCPS?3?3AssociateIncomingClientWi@ 1000ffe0     IOCPS.obj
 0002:00001050       ??_C@_0EG@MKGJMCHD@IOCPS?3?3AddClientContext?0?5Dublica@ 10010050     IOCPS.obj
 0002:00001098       ??_C@_0CM@DLCDIFH@IOCPS?3?3FreeClientContext?0?5Remove@ 10010098     IOCPS.obj
 0002:000010c4       ??_C@_0DN@HMFHOJGG@IOCPS?3?3OnRead?0?5FAILED?5TO?5Allocat@ 100100c4     IOCPS.obj
 0002:00001104       ??_C@_0DO@CEONKNBF@IOCPS?3?3OnRead?0?5Disconnect?5in?5Onr@ 10010104     IOCPS.obj
 0002:00001148       ??_C@_0EC@OJKNMBGO@IOCPS?3?3OnPostedPackage?0?5FATAL?5ER@ 10010148     IOCPS.obj
 0002:00001190       ??_C@_0GJ@KCMICFDJ@IOCPS?3?3OnReadCompleted?0?5Disconne@ 10010190     IOCPS.obj
 0002:000011fc       ??_C@_0CH@JMDALFJJ@IOCPS?3?3OnWrite?0?5Error?5in?5OnWrite@ 100101fc     IOCPS.obj
 0002:00001228       ??_C@_0EO@FOEKPNJI@IOCPS?3?3OnZeroByteRead?0?5FAILED?5TO@ 10010228     IOCPS.obj
 0002:00001278       ??_C@_0EM@BMIEJJAC@IOCPS?3?3OnZeroByteRead?0?5Disconnec@ 10010278     IOCPS.obj
 0002:000012c8       ??_C@_0EM@JOBADMDG@IOCPS?3?3AZeroByteRead?0?5Disconnect@ 100102c8     IOCPS.obj
 0002:00001318       ??_C@_0FN@DFIBHBPE@IOCPS?3?3CreateCompletionPort?0?5Err@ 10010318     IOCPS.obj
 0002:00001378       ??_C@_0DP@CCLDJPFK@IOCPS?3?3CreateCompletionPort?0?5Cre@ 10010378     IOCPS.obj
 0002:000013b8       ??_C@_0DM@NOOPPKFE@IOCPS?3?3GetNextReadBuffer?0?5ERROR?5@ 100103b8     IOCPS.obj
 0002:000013f8       ??_C@_0EG@HFGHIHDK@IOCPS?3?3MakeOrderdRead?0?5Disconnec@ 100103f8     IOCPS.obj
 0002:00001440       ??_C@_0BB@MOGOBHAF@list?$DMT?$DO?5too?5long?$AA@ 10010440     IOCPS.obj
 0002:00001454       ??_C@_0BE@JONHPENG@map?1set?$DMT?$DO?5too?5long?$AA@ 10010454     IOCPS.obj
 0002:0000146c       ??_7IOCPS@@6B@             1001046c     IOCPS.obj
 0002:000014b4       ??_7Socket@@6B@            100104b4     IOCPS.obj
 0002:000014d8       ??_7ITIOCP@@6B@            100104d8     MyIOCP.obj
 0002:00001590       __load_config_used         10010590     MSVCRT:loadcfg.obj
 0002:000015ec       ??_R4type_info@@6B@        100105ec     MSVCRT:std_type_info_static.obj
 0002:00001600       ??_R3type_info@@8          10010600     MSVCRT:std_type_info_static.obj
 0002:00001610       ??_R2type_info@@8          10010610     MSVCRT:std_type_info_static.obj
 0002:00001618       ??_R1A@?0A@EA@type_info@@8 10010618     MSVCRT:std_type_info_static.obj
 0002:00001634       ??_R4exception@std@@6B@    10010634     MSVCRT:throw_bad_alloc.obj
 0002:00001648       ??_R3exception@std@@8      10010648     MSVCRT:throw_bad_alloc.obj
 0002:00001658       ??_R2exception@std@@8      10010658     MSVCRT:throw_bad_alloc.obj
 0002:00001660       ??_R1A@?0A@EA@exception@std@@8 10010660     MSVCRT:throw_bad_alloc.obj
 0002:0000167c       ??_R4bad_alloc@std@@6B@    1001067c     MSVCRT:throw_bad_alloc.obj
 0002:00001690       ??_R3bad_alloc@std@@8      10010690     MSVCRT:throw_bad_alloc.obj
 0002:000016a0       ??_R2bad_alloc@std@@8      100106a0     MSVCRT:throw_bad_alloc.obj
 0002:000016ac       ??_R1A@?0A@EA@bad_alloc@std@@8 100106ac     MSVCRT:throw_bad_alloc.obj
 0002:000016c8       ??_R4bad_array_new_length@std@@6B@ 100106c8     MSVCRT:throw_bad_alloc.obj
 0002:000016dc       ??_R3bad_array_new_length@std@@8 100106dc     MSVCRT:throw_bad_alloc.obj
 0002:000016ec       ??_R2bad_array_new_length@std@@8 100106ec     MSVCRT:throw_bad_alloc.obj
 0002:000016fc       ??_R1A@?0A@EA@bad_array_new_length@std@@8 100106fc     MSVCRT:throw_bad_alloc.obj
 0002:00001718       ??_R2CIOCPBuffer@@8        10010718     IOCPBuffer.obj
 0002:00001720       ??_R1A@?0A@EA@CIOCPBuffer@@8 10010720     IOCPBuffer.obj
 0002:0000173c       ??_R3CIOCPBuffer@@8        1001073c     IOCPBuffer.obj
 0002:0000174c       ??_R4CIOCPBuffer@@6B@      1001074c     IOCPBuffer.obj
 0002:00001760       ??_R2IOCPS@@8              10010760     IOCPS.obj
 0002:0000176c       ??_R2Socket@@8             1001076c     IOCPS.obj
 0002:00001774       ??_R1A@?0A@EA@IOCPS@@8     10010774     IOCPS.obj
 0002:00001790       ??_R1A@?0A@EA@Socket@@8    10010790     IOCPS.obj
 0002:000017ac       ??_R3IOCPS@@8              100107ac     IOCPS.obj
 0002:000017bc       ??_R3Socket@@8             100107bc     IOCPS.obj
 0002:000017cc       ??_R4IOCPS@@6B@            100107cc     IOCPS.obj
 0002:000017e0       ??_R4Socket@@6B@           100107e0     IOCPS.obj
 0002:000017f4       ??_R2ITIOCP@@8             100107f4     MyIOCP.obj
 0002:00001804       ??_R1A@?0A@EA@ITIOCP@@8    10010804     MyIOCP.obj
 0002:00001820       ??_R3ITIOCP@@8             10010820     MyIOCP.obj
 0002:00001830       ??_R4ITIOCP@@6B@           10010830     MyIOCP.obj
 0002:00001850       ___safe_se_handler_table   10010850     <linker-defined>
 0002:00001bb8       ___rtc_iaa                 10010bb8     MSVCRT:_initsect_.obj
 0002:00001bbc       ___rtc_izz                 10010bbc     MSVCRT:_initsect_.obj
 0002:00001bc0       ___rtc_taa                 10010bc0     MSVCRT:_initsect_.obj
 0002:00001bc4       ___rtc_tzz                 10010bc4     MSVCRT:_initsect_.obj
 0002:0000256c       __TI2?AVbad_alloc@std@@    1001156c     MSVCRT:throw_bad_alloc.obj
 0002:0000257c       __CTA2?AVbad_alloc@std@@   1001157c     MSVCRT:throw_bad_alloc.obj
 0002:00002588       __CT??_R0?AVbad_alloc@std@@@8??0bad_alloc@std@@QAE@ABV01@@Z12 10011588     MSVCRT:throw_bad_alloc.obj
 0002:000025a4       __CT??_R0?AVexception@std@@@8??0exception@std@@QAE@ABV01@@Z12 100115a4     MSVCRT:throw_bad_alloc.obj
 0002:000025c0       __TI3?AVbad_array_new_length@std@@ 100115c0     MSVCRT:throw_bad_alloc.obj
 0002:000025d0       __CTA3?AVbad_array_new_length@std@@ 100115d0     MSVCRT:throw_bad_alloc.obj
 0002:000025e0       __CT??_R0?AVbad_array_new_length@std@@@8??0bad_array_new_length@std@@QAE@ABV01@@Z12 100115e0     MSVCRT:throw_bad_alloc.obj
 0002:00002714       __IMPORT_DESCRIPTOR_WS2_32 10011714     ws2_32:WS2_32.dll
 0002:00002728       __IMPORT_DESCRIPTOR_xLogger 10011728     xlogger:xLogger.dll
 0002:0000273c       __IMPORT_DESCRIPTOR_KERNEL32 1001173c     kernel32:KERNEL32.dll
 0002:00002750       __IMPORT_DESCRIPTOR_MSVCP140 10011750     msvcprt:MSVCP140.dll
 0002:00002764       __IMPORT_DESCRIPTOR_VCRUNTIME140 10011764     vcruntime:VCRUNTIME140.dll
 0002:00002778       __IMPORT_DESCRIPTOR_api-ms-win-crt-runtime-l1-1-0 10011778     ucrt:api-ms-win-crt-runtime-l1-1-0.dll
 0002:0000278c       __IMPORT_DESCRIPTOR_api-ms-win-crt-heap-l1-1-0 1001178c     ucrt:api-ms-win-crt-heap-l1-1-0.dll
 0002:000027a0       __NULL_IMPORT_DESCRIPTOR   100117a0     ws2_32:WS2_32.dll
 0003:00000000       ___security_cookie_complement 10012000     MSVCRT:gs_cookie.obj
 0003:00000004       ___security_cookie         10012004     MSVCRT:gs_cookie.obj
 0003:00000008       ___scrt_native_dllmain_reason 10012008     MSVCRT:utility.obj
 0003:00000010       ___isa_enabled             10012010     MSVCRT:_cpu_disp_.obj
 0003:00000014       ___scrt_ucrt_dll_is_in_use 10012014     MSVCRT:ucrt_stubs.obj
 0003:00000020       ??_R0?AVtype_info@@@8      10012020     MSVCRT:std_type_info_static.obj
 0003:00000038       ??_R0?AVbad_alloc@std@@@8  10012038     MSVCRT:throw_bad_alloc.obj
 0003:00000054       ??_R0?AVexception@std@@@8  10012054     MSVCRT:throw_bad_alloc.obj
 0003:00000070       ??_R0?AVbad_array_new_length@std@@@8 10012070     MSVCRT:throw_bad_alloc.obj
 0003:00000098       ??_R0?AVCIOCPBuffer@@@8    10012098     IOCPBuffer.obj
 0003:000000b4       ??_R0?AVIOCPS@@@8          100120b4     IOCPS.obj
 0003:000000c8       ??_R0?AVSocket@@@8         100120c8     IOCPS.obj
 0003:000000e0       ??_R0?AVITIOCP@@@8         100120e0     MyIOCP.obj
 0003:00000418       ___scrt_current_native_startup_state 10012418     MSVCRT:utility.obj
 0003:0000041c       ___scrt_native_startup_lock 1001241c     MSVCRT:utility.obj
 0003:00000440       ?__type_info_root_node@@3U__type_info_node@@A 10012440     MSVCRT:tncleanup.obj
 0003:00000448       ?_OptionsStorage@?1??__local_stdio_printf_options@@9@4_KA 10012448     MSVCRT:default_local_stdio_options.obj
 0003:00000450       ?_OptionsStorage@?1??__local_stdio_scanf_options@@9@4_KA 10012450     MSVCRT:default_local_stdio_options.obj
 0003:00000458       ___scrt_debugger_hook_flag 10012458     MSVCRT:utility_desktop.obj
 0003:0000045c       ___isa_available           1001245c     MSVCRT:_cpu_disp_.obj
 0003:00000460       ___favor                   10012460     MSVCRT:_cpu_disp_.obj
 0003:00000464       ___@@_PchSym_@00@UwvevolknvmgUvcxszmtvUlnhUhixUhlxpvgUyrmUivovzhvUhgwzucOlyq@8982D83CC83ABDEE 10012464     stdafx.obj
 0003:00000468       ___dyn_tls_init_callback   10012468     <common>

 entry point at        0001:0000c2eb

 Static symbols

 0000:fffea000       .debug$S                   10000000     ucrt:api-ms-win-crt-runtime-l1-1-0.dll
 0000:fffea000       .debug$S                   10000000     ws2_32:WS2_32.dll
 0000:fffea000       .debug$S                   10000000     ws2_32:WS2_32.dll
 0000:fffea000       .debug$S                   10000000     ws2_32:WS2_32.dll
 0000:fffea000       .debug$S                   10000000     ws2_32:WS2_32.dll
 0000:fffea000       .debug$S                   10000000     ws2_32:WS2_32.dll
 0000:fffea000       .debug$S                   10000000     ws2_32:WS2_32.dll
 0000:fffea000       .debug$S                   10000000     ws2_32:WS2_32.dll
 0000:fffea000       .debug$S                   10000000     ws2_32:WS2_32.dll
 0000:fffea000       .debug$S                   10000000     ws2_32:WS2_32.dll
 0000:fffea000       .debug$S                   10000000     ws2_32:WS2_32.dll
 0000:fffea000       .debug$S                   10000000     ws2_32:WS2_32.dll
 0000:fffea000       .debug$S                   10000000     ws2_32:WS2_32.dll
 0000:fffea000       .debug$S                   10000000     ws2_32:WS2_32.dll
 0000:fffea000       .debug$S                   10000000     ws2_32:WS2_32.dll
 0000:fffea000       .debug$S                   10000000     ws2_32:WS2_32.dll
 0000:fffea000       .debug$S                   10000000     ws2_32:WS2_32.dll
 0000:fffea000       .debug$S                   10000000     ws2_32:WS2_32.dll
 0000:fffea000       .debug$S                   10000000     ws2_32:WS2_32.dll
 0000:fffea000       .debug$S                   10000000     ws2_32:WS2_32.dll
 0000:fffea000       .debug$S                   10000000     ws2_32:WS2_32.dll
 0000:fffea000       .debug$S                   10000000     ws2_32:WS2_32.dll
 0000:fffea000       .debug$S                   10000000     ws2_32:WS2_32.dll
 0000:fffea000       .debug$S                   10000000     ws2_32:WS2_32.dll
 0000:fffea000       .debug$S                   10000000     xlogger:xLogger.dll
 0000:fffea000       .debug$S                   10000000     Socket.exp
 0000:fffea000       .debug$S                   10000000     kernel32:KERNEL32.dll
 0000:fffea000       .debug$S                   10000000     kernel32:KERNEL32.dll
 0000:fffea000       .debug$S                   10000000     kernel32:KERNEL32.dll
 0000:fffea000       .debug$S                   10000000     kernel32:KERNEL32.dll
 0000:fffea000       .debug$S                   10000000     kernel32:KERNEL32.dll
 0000:fffea000       .debug$S                   10000000     kernel32:KERNEL32.dll
 0000:fffea000       .debug$S                   10000000     kernel32:KERNEL32.dll
 0000:fffea000       .debug$S                   10000000     kernel32:KERNEL32.dll
 0000:fffea000       .debug$S                   10000000     kernel32:KERNEL32.dll
 0000:fffea000       .debug$S                   10000000     kernel32:KERNEL32.dll
 0000:fffea000       .debug$S                   10000000     kernel32:KERNEL32.dll
 0000:fffea000       .debug$S                   10000000     kernel32:KERNEL32.dll
 0000:fffea000       .debug$S                   10000000     kernel32:KERNEL32.dll
 0000:fffea000       .debug$S                   10000000     kernel32:KERNEL32.dll
 0000:fffea000       .debug$S                   10000000     kernel32:KERNEL32.dll
 0000:fffea000       .debug$S                   10000000     kernel32:KERNEL32.dll
 0000:fffea000       .debug$S                   10000000     kernel32:KERNEL32.dll
 0000:fffea000       .debug$S                   10000000     kernel32:KERNEL32.dll
 0000:fffea000       .debug$S                   10000000     kernel32:KERNEL32.dll
 0000:fffea000       .debug$S                   10000000     kernel32:KERNEL32.dll
 0000:fffea000       .debug$S                   10000000     kernel32:KERNEL32.dll
 0000:fffea000       .debug$S                   10000000     kernel32:KERNEL32.dll
 0000:fffea000       .debug$S                   10000000     kernel32:KERNEL32.dll
 0000:fffea000       .debug$S                   10000000     kernel32:KERNEL32.dll
 0000:fffea000       .debug$S                   10000000     kernel32:KERNEL32.dll
 0000:fffea000       .debug$S                   10000000     kernel32:KERNEL32.dll
 0000:fffea000       .debug$S                   10000000     kernel32:KERNEL32.dll
 0000:fffea000       .debug$S                   10000000     kernel32:KERNEL32.dll
 0000:fffea000       .debug$S                   10000000     kernel32:KERNEL32.dll
 0000:fffea000       .debug$S                   10000000     msvcprt:MSVCP140.dll
 0000:fffea000       .debug$S                   10000000     msvcprt:MSVCP140.dll
 0000:fffea000       .debug$S                   10000000     msvcprt:MSVCP140.dll
 0000:fffea000       .debug$S                   10000000     vcruntime:VCRUNTIME140.dll
 0000:fffea000       .debug$S                   10000000     vcruntime:VCRUNTIME140.dll
 0000:fffea000       .debug$S                   10000000     vcruntime:VCRUNTIME140.dll
 0000:fffea000       .debug$S                   10000000     vcruntime:VCRUNTIME140.dll
 0000:fffea000       .debug$S                   10000000     vcruntime:VCRUNTIME140.dll
 0000:fffea000       .debug$S                   10000000     vcruntime:VCRUNTIME140.dll
 0000:fffea000       .debug$S                   10000000     vcruntime:VCRUNTIME140.dll
 0000:fffea000       .debug$S                   10000000     vcruntime:VCRUNTIME140.dll
 0000:fffea000       .debug$S                   10000000     vcruntime:VCRUNTIME140.dll
 0000:fffea000       .debug$S                   10000000     vcruntime:VCRUNTIME140.dll
 0000:fffea000       .debug$S                   10000000     vcruntime:VCRUNTIME140.dll
 0000:fffea000       .debug$S                   10000000     ucrt:api-ms-win-crt-runtime-l1-1-0.dll
 0000:fffea000       .debug$S                   10000000     ucrt:api-ms-win-crt-runtime-l1-1-0.dll
 0000:fffea000       .debug$S                   10000000     ucrt:api-ms-win-crt-runtime-l1-1-0.dll
 0000:fffea000       .debug$S                   10000000     ucrt:api-ms-win-crt-runtime-l1-1-0.dll
 0000:fffea000       .debug$S                   10000000     ucrt:api-ms-win-crt-runtime-l1-1-0.dll
 0000:fffea000       .debug$S                   10000000     ucrt:api-ms-win-crt-runtime-l1-1-0.dll
 0000:fffea000       .debug$S                   10000000     ucrt:api-ms-win-crt-runtime-l1-1-0.dll
 0000:fffea000       .debug$S                   10000000     ucrt:api-ms-win-crt-runtime-l1-1-0.dll
 0000:fffea000       .debug$S                   10000000     ws2_32:WS2_32.dll
 0000:fffea000       .debug$S                   10000000     ucrt:api-ms-win-crt-runtime-l1-1-0.dll
 0000:fffea000       .debug$S                   10000000     ucrt:api-ms-win-crt-runtime-l1-1-0.dll
 0000:fffea000       .debug$S                   10000000     ucrt:api-ms-win-crt-runtime-l1-1-0.dll
 0000:fffea000       .debug$S                   10000000     ucrt:api-ms-win-crt-runtime-l1-1-0.dll
 0000:fffea000       .debug$S                   10000000     ucrt:api-ms-win-crt-runtime-l1-1-0.dll
 0000:fffea000       .debug$S                   10000000     ucrt:api-ms-win-crt-heap-l1-1-0.dll
 0000:fffea000       .debug$S                   10000000     ucrt:api-ms-win-crt-heap-l1-1-0.dll
 0000:fffea000       .debug$S                   10000000     ucrt:api-ms-win-crt-heap-l1-1-0.dll
 0001:00000c3f       __catch$?_Copy@?$basic_string@DU?$char_traits@D@std@@V?$allocator@D@2@@std@@QAEXII@Z$0 10001c3f f i IOCPBuffer.obj
 0001:00000c6d       __catch$?_Copy@?$basic_string@DU?$char_traits@D@std@@V?$allocator@D@2@@std@@QAEXII@Z$1 10001c6d f i IOCPBuffer.obj
 0001:00002560       $LN15                      10003560     IOCPS.obj
 0001:00003c1c       $LN28                      10004c1c     IOCPS.obj
 0001:00003c60       $LN26                      10004c60     IOCPS.obj
 0001:00007d69       __catch$?_Buyheadnode@?$_Tree_comp_alloc@V?$_Tmap_traits@GPAXU?$less@G@std@@V?$allocator@U?$pair@$$CBGPAX@std@@@2@$0A@@std@@@std@@QAEPAU?$_Tree_node@U?$pair@$$CBGPAX@std@@PAX@2@XZ$0 10008d69 f i IOCPS.obj
 0001:00007d69       __catch$?_Buyheadnode@?$_Tree_comp_alloc@V?$_Tmap_traits@IPAVCIOCPBuffer@@U?$less@I@std@@V?$allocator@U?$pair@$$CBIPAVCIOCPBuffer@@@std@@@3@$0A@@std@@@std@@QAEPAU?$_Tree_node@U?$pair@$$CBIPAVCIOCPBuffer@@@std@@PAX@2@XZ$0 10008d69 f i IOCPS.obj
 0001:00007d69       __catch$?_Buyheadnode@?$_Tree_comp_alloc@V?$_Tmap_traits@IPAUClientContext@@U?$less@I@std@@V?$allocator@U?$pair@$$CBIPAUClientContext@@@std@@@3@$0A@@std@@@std@@QAEPAU?$_Tree_node@U?$pair@$$CBIPAUClientContext@@@std@@PAX@2@XZ$0 10008d69 f i IOCPS.obj
 0001:00007e8c       __catch$?_Buynode0@?$_List_alloc@U?$_List_base_types@PAXV?$allocator@PAX@std@@@std@@@std@@QAEPAU?$_List_node@PAXPAX@2@PAU32@0@Z$0 10008e8c f i IOCPS.obj
 0001:00007e8c       __catch$?_Buynode0@?$_List_alloc@U?$_List_base_types@PAVCIOCPBuffer@@V?$allocator@PAVCIOCPBuffer@@@std@@@std@@@std@@QAEPAU?$_List_node@PAVCIOCPBuffer@@PAX@2@PAU32@0@Z$0 10008e8c f i IOCPS.obj
 0001:00007e8c       __catch$?_Buynode0@?$_List_alloc@U?$_List_base_types@PAUJobItem@@V?$allocator@PAUJobItem@@@std@@@std@@@std@@QAEPAU?$_List_node@PAUJobItem@@PAX@2@PAU32@0@Z$0 10008e8c f i IOCPS.obj
 0001:00007e8c       __catch$?_Buynode0@?$_List_alloc@U?$_List_base_types@PAUClientContext@@V?$allocator@PAUClientContext@@@std@@@std@@@std@@QAEPAU?$_List_node@PAUClientContext@@PAX@2@PAU32@0@Z$0 10008e8c f i IOCPS.obj
 0001:000085f3       __catch$??$_Buynode@ABQAX@?$_List_buy@PAXV?$allocator@PAX@std@@@std@@QAEPAU?$_List_node@PAXPAX@1@PAU21@0ABQAX@Z$0 100095f3 f i IOCPS.obj
 0001:000085f3       __catch$??$_Buynode@ABQAUClientContext@@@?$_List_buy@PAUClientContext@@V?$allocator@PAUClientContext@@@std@@@std@@QAEPAU?$_List_node@PAUClientContext@@PAX@1@PAU21@0ABQAUClientContext@@@Z$0 100095f3 f i IOCPS.obj
 0001:000085f3       __catch$??$_Buynode@ABQAVCIOCPBuffer@@@?$_List_buy@PAVCIOCPBuffer@@V?$allocator@PAVCIOCPBuffer@@@std@@@std@@QAEPAU?$_List_node@PAVCIOCPBuffer@@PAX@1@PAU21@0ABQAVCIOCPBuffer@@@Z$0 100095f3 f i IOCPS.obj
 0001:00008889       __catch$??$_Buynode@U?$pair@GPAX@std@@@?$_Tree_comp_alloc@V?$_Tmap_traits@GPAXU?$less@G@std@@V?$allocator@U?$pair@$$CBGPAX@std@@@2@$0A@@std@@@std@@QAEPAU?$_Tree_node@U?$pair@$$CBGPAX@std@@PAX@1@$$QAU?$pair@GPAX@1@@Z$0 10009889 f i IOCPS.obj
 0001:00008bbd       __catch$??$_Insert_nohint@AAU?$pair@$$CBGPAX@std@@PAU?$_Tree_node@U?$pair@$$CBGPAX@std@@PAX@2@@?$_Tree@V?$_Tmap_traits@GPAXU?$less@G@std@@V?$allocator@U?$pair@$$CBGPAX@std@@@2@$0A@@std@@@std@@IAE?AU?$pair@V?$_Tree_iterator@V?$_Tree_val@U?$_Tree_simple_types@U?$pair@$$CBGPAX@std@@@std@@@std@@@std@@_N@1@_NAAU?$pair@$$CBGPAX@1@PAU?$_Tree_node@U?$pair@$$CBGPAX@std@@PAX@1@@Z$0 10009bbd f i IOCPS.obj
 0001:00008c99       __catch$??$_Buynode@U?$pair@IPAVCIOCPBuffer@@@std@@@?$_Tree_comp_alloc@V?$_Tmap_traits@IPAVCIOCPBuffer@@U?$less@I@std@@V?$allocator@U?$pair@$$CBIPAVCIOCPBuffer@@@std@@@3@$0A@@std@@@std@@QAEPAU?$_Tree_node@U?$pair@$$CBIPAVCIOCPBuffer@@@std@@PAX@1@$$QAU?$pair@IPAVCIOCPBuffer@@@1@@Z$0 10009c99 f i IOCPS.obj
 0001:00008fcd       __catch$??$_Insert_nohint@AAU?$pair@$$CBIPAVCIOCPBuffer@@@std@@PAU?$_Tree_node@U?$pair@$$CBIPAVCIOCPBuffer@@@std@@PAX@2@@?$_Tree@V?$_Tmap_traits@IPAVCIOCPBuffer@@U?$less@I@std@@V?$allocator@U?$pair@$$CBIPAVCIOCPBuffer@@@std@@@3@$0A@@std@@@std@@IAE?AU?$pair@V?$_Tree_iterator@V?$_Tree_val@U?$_Tree_simple_types@U?$pair@$$CBIPAVCIOCPBuffer@@@std@@@std@@@std@@@std@@_N@1@_NAAU?$pair@$$CBIPAVCIOCPBuffer@@@1@PAU?$_Tree_node@U?$pair@$$CBIPAVCIOCPBuffer@@@std@@PAX@1@@Z$0 10009fcd f i IOCPS.obj
 0001:00008fcd       __catch$??$_Insert_nohint@AAU?$pair@$$CBIPAUClientContext@@@std@@PAU?$_Tree_node@U?$pair@$$CBIPAUClientContext@@@std@@PAX@2@@?$_Tree@V?$_Tmap_traits@IPAUClientContext@@U?$less@I@std@@V?$allocator@U?$pair@$$CBIPAUClientContext@@@std@@@3@$0A@@std@@@std@@IAE?AU?$pair@V?$_Tree_iterator@V?$_Tree_val@U?$_Tree_simple_types@U?$pair@$$CBIPAUClientContext@@@std@@@std@@@std@@@std@@_N@1@_NAAU?$pair@$$CBIPAUClientContext@@@1@PAU?$_Tree_node@U?$pair@$$CBIPAUClientContext@@@std@@PAX@1@@Z$0 10009fcd f i IOCPS.obj
 0001:00009328       __catch$?_Buynode0@?$_Tree_comp_alloc@V?$_Tmap_traits@IPAVCIOCPBuffer@@U?$less@I@std@@V?$allocator@U?$pair@$$CBIPAVCIOCPBuffer@@@std@@@3@$0A@@std@@@std@@QAEPAU?$_Tree_node@U?$pair@$$CBIPAVCIOCPBuffer@@@std@@PAX@2@XZ$0 1000a328 f i IOCPS.obj
 0001:00009328       __catch$?_Buynode0@?$_Tree_comp_alloc@V?$_Tmap_traits@IPAUClientContext@@U?$less@I@std@@V?$allocator@U?$pair@$$CBIPAUClientContext@@@std@@@3@$0A@@std@@@std@@QAEPAU?$_Tree_node@U?$pair@$$CBIPAUClientContext@@@std@@PAX@2@XZ$0 1000a328 f i IOCPS.obj
 0001:00009328       __catch$?_Buynode0@?$_Tree_comp_alloc@V?$_Tmap_traits@GPAXU?$less@G@std@@V?$allocator@U?$pair@$$CBGPAX@std@@@2@$0A@@std@@@std@@QAEPAU?$_Tree_node@U?$pair@$$CBGPAX@std@@PAX@2@XZ$0 1000a328 f i IOCPS.obj
 0001:00009a93       __catch$??$_Buynode@ABUpiecewise_construct_t@std@@V?$tuple@ABG@2@V?$tuple@$$V@2@@?$_Tree_comp_alloc@V?$_Tmap_traits@GPAXU?$less@G@std@@V?$allocator@U?$pair@$$CBGPAX@std@@@2@$0A@@std@@@std@@QAEPAU?$_Tree_node@U?$pair@$$CBGPAX@std@@PAX@1@ABUpiecewise_construct_t@1@$$QAV?$tuple@ABG@1@$$QAV?$tuple@$$V@1@@Z$0 1000aa93 f i IOCPS.obj
 0001:0000a4d4       __catch$??$_Insert_hint@AAU?$pair@$$CBGPAX@std@@PAU?$_Tree_node@U?$pair@$$CBGPAX@std@@PAX@2@@?$_Tree@V?$_Tmap_traits@GPAXU?$less@G@std@@V?$allocator@U?$pair@$$CBGPAX@std@@@2@$0A@@std@@@std@@IAE?AV?$_Tree_iterator@V?$_Tree_val@U?$_Tree_simple_types@U?$pair@$$CBGPAX@std@@@std@@@std@@@1@V?$_Tree_const_iterator@V?$_Tree_val@U?$_Tree_simple_types@U?$pair@$$CBGPAX@std@@@std@@@std@@@1@AAU?$pair@$$CBGPAX@1@PAU?$_Tree_node@U?$pair@$$CBGPAX@std@@PAX@1@@Z$0 1000b4d4 f i IOCPS.obj
 0001:0000a603       __catch$??$_Buynode@ABUpiecewise_construct_t@std@@V?$tuple@ABI@2@V?$tuple@$$V@2@@?$_Tree_comp_alloc@V?$_Tmap_traits@IPAUClientContext@@U?$less@I@std@@V?$allocator@U?$pair@$$CBIPAUClientContext@@@std@@@3@$0A@@std@@@std@@QAEPAU?$_Tree_node@U?$pair@$$CBIPAUClientContext@@@std@@PAX@1@ABUpiecewise_construct_t@1@$$QAV?$tuple@ABI@1@$$QAV?$tuple@$$V@1@@Z$0 1000b603 f i IOCPS.obj
 0001:0000a603       __catch$??$_Buynode@ABUpiecewise_construct_t@std@@V?$tuple@ABI@2@V?$tuple@$$V@2@@?$_Tree_comp_alloc@V?$_Tmap_traits@IPAVCIOCPBuffer@@U?$less@I@std@@V?$allocator@U?$pair@$$CBIPAVCIOCPBuffer@@@std@@@3@$0A@@std@@@std@@QAEPAU?$_Tree_node@U?$pair@$$CBIPAVCIOCPBuffer@@@std@@PAX@1@ABUpiecewise_construct_t@1@$$QAV?$tuple@ABI@1@$$QAV?$tuple@$$V@1@@Z$0 1000b603 f i IOCPS.obj
 0001:0000b044       __catch$??$_Insert_hint@AAU?$pair@$$CBIPAUClientContext@@@std@@PAU?$_Tree_node@U?$pair@$$CBIPAUClientContext@@@std@@PAX@2@@?$_Tree@V?$_Tmap_traits@IPAUClientContext@@U?$less@I@std@@V?$allocator@U?$pair@$$CBIPAUClientContext@@@std@@@3@$0A@@std@@@std@@IAE?AV?$_Tree_iterator@V?$_Tree_val@U?$_Tree_simple_types@U?$pair@$$CBIPAUClientContext@@@std@@@std@@@std@@@1@V?$_Tree_const_iterator@V?$_Tree_val@U?$_Tree_simple_types@U?$pair@$$CBIPAUClientContext@@@std@@@std@@@std@@@1@AAU?$pair@$$CBIPAUClientContext@@@1@PAU?$_Tree_node@U?$pair@$$CBIPAUClientContext@@@std@@PAX@1@@Z$0 1000c044 f i IOCPS.obj
 0001:0000b044       __catch$??$_Insert_hint@AAU?$pair@$$CBIPAVCIOCPBuffer@@@std@@PAU?$_Tree_node@U?$pair@$$CBIPAVCIOCPBuffer@@@std@@PAX@2@@?$_Tree@V?$_Tmap_traits@IPAVCIOCPBuffer@@U?$less@I@std@@V?$allocator@U?$pair@$$CBIPAVCIOCPBuffer@@@std@@@3@$0A@@std@@@std@@IAE?AV?$_Tree_iterator@V?$_Tree_val@U?$_Tree_simple_types@U?$pair@$$CBIPAVCIOCPBuffer@@@std@@@std@@@std@@@1@V?$_Tree_const_iterator@V?$_Tree_val@U?$_Tree_simple_types@U?$pair@$$CBIPAVCIOCPBuffer@@@std@@@std@@@std@@@1@AAU?$pair@$$CBIPAVCIOCPBuffer@@@1@PAU?$_Tree_node@U?$pair@$$CBIPAVCIOCPBuffer@@@std@@PAX@1@@Z$0 1000c044 f i IOCPS.obj
 0001:0000bfe3       ?dllmain_crt_dispatch@@YGHQAUHINSTANCE__@@KQAX@Z 1000cfe3 f   MSVCRT:dll_dllmain.obj
 0001:0000c036       ?dllmain_crt_process_attach@@YAHQAUHINSTANCE__@@QAX@Z 1000d036 f   MSVCRT:dll_dllmain.obj
 0001:0000c148       ?dllmain_crt_process_detach@@YAH_N@Z 1000d148 f   MSVCRT:dll_dllmain.obj
 0001:0000c1c5       ?dllmain_dispatch@@YAHQAUHINSTANCE__@@KQAX@Z 1000d1c5 f   MSVCRT:dll_dllmain.obj
 0001:0000c2c1       ?dllmain_raw@@YGHQAUHINSTANCE__@@KQAX@Z 1000d2c1 f   MSVCRT:dll_dllmain.obj
 0001:0000c425       ?find_pe_section@@YAPAU_IMAGE_SECTION_HEADER@@QAEI@Z 1000d425 f   MSVCRT:utility.obj
 0001:0000c9b0       $$000000                   1000d9b0     MSVCRT:_sehprolg4_.obj
 0001:0000cc60       $$000000                   1000dc60     MSVCRT:chkstk.obj
 0001:0000cca0       __ehhandler$??1?$_List_alloc@U?$_List_base_types@PAUJobItem@@V?$allocator@PAUJobItem@@@std@@@std@@@std@@QAE@XZ 1000dca0 f   IOCPS.obj
 0001:0000cca0       __ehhandler$??1?$_Tree_comp_alloc@V?$_Tmap_traits@GPAXU?$less@G@std@@V?$allocator@U?$pair@$$CBGPAX@std@@@2@$0A@@std@@@std@@QAE@XZ 1000dca0 f   IOCPS.obj
 0001:0000cca0       __ehhandler$??1?$_Tree_comp_alloc@V?$_Tmap_traits@IPAUClientContext@@U?$less@I@std@@V?$allocator@U?$pair@$$CBIPAUClientContext@@@std@@@3@$0A@@std@@@std@@QAE@XZ 1000dca0 f   IOCPS.obj
 0001:0000cca0       __ehhandler$??0?$basic_string@DU?$char_traits@D@std@@V?$allocator@D@2@@std@@QAE@XZ 1000dca0 f   IOCPS.obj
 0001:0000cca0       __ehhandler$??1?$_List_alloc@U?$_List_base_types@PAVCIOCPBuffer@@V?$allocator@PAVCIOCPBuffer@@@std@@@std@@@std@@QAE@XZ 1000dca0 f   IOCPS.obj
 0001:0000cca0       __ehhandler$?_Make_iter@?$list@PAUJobItem@@V?$allocator@PAUJobItem@@@std@@@std@@QBE?AV?$_List_iterator@V?$_List_val@U?$_List_simple_types@PAUJobItem@@@std@@@std@@@2@V?$_List_const_iterator@V?$_List_val@U?$_List_simple_types@PAUJobItem@@@std@@@std@@@2@@Z 1000dca0 f   IOCPS.obj
 0001:0000cca0       __ehhandler$??0?$basic_string@DU?$char_traits@D@std@@V?$allocator@D@2@@std@@QAE@$$QAV01@@Z 1000dca0 f   IOCPS.obj
 0001:0000cca0       __ehhandler$??1?$list@PAVCIOCPBuffer@@V?$allocator@PAVCIOCPBuffer@@@std@@@std@@QAE@XZ 1000dca0 f   IOCPS.obj
 0001:0000cca0       __ehhandler$?begin@?$list@PAVCIOCPBuffer@@V?$allocator@PAVCIOCPBuffer@@@std@@@std@@QAE?AV?$_List_iterator@V?$_List_val@U?$_List_simple_types@PAVCIOCPBuffer@@@std@@@std@@@2@XZ 1000dca0 f   IOCPS.obj
 0001:0000cca0       __ehhandler$?end@?$list@PAVCIOCPBuffer@@V?$allocator@PAVCIOCPBuffer@@@std@@@std@@QAE?AV?$_List_iterator@V?$_List_val@U?$_List_simple_types@PAVCIOCPBuffer@@@std@@@std@@@2@XZ 1000dca0 f   IOCPS.obj
 0001:0000cca0       __ehhandler$?_Make_iter@?$list@PAUClientContext@@V?$allocator@PAUClientContext@@@std@@@std@@QBE?AV?$_List_iterator@V?$_List_val@U?$_List_simple_types@PAUClientContext@@@std@@@std@@@2@V?$_List_const_iterator@V?$_List_val@U?$_List_simple_types@PAUClientContext@@@std@@@std@@@2@@Z 1000dca0 f   IOCPS.obj
 0001:0000cca0       __ehhandler$??1?$_Tree@V?$_Tmap_traits@IPAVCIOCPBuffer@@U?$less@I@std@@V?$allocator@U?$pair@$$CBIPAVCIOCPBuffer@@@std@@@3@$0A@@std@@@std@@QAE@XZ 1000dca0 f   IOCPS.obj
 0001:0000cca0       __ehhandler$??1?$_Tree_comp_alloc@V?$_Tmap_traits@IPAVCIOCPBuffer@@U?$less@I@std@@V?$allocator@U?$pair@$$CBIPAVCIOCPBuffer@@@std@@@3@$0A@@std@@@std@@QAE@XZ 1000dca0 f   IOCPS.obj
 0001:0000cca0       __ehhandler$?end@?$_Tree@V?$_Tmap_traits@IPAVCIOCPBuffer@@U?$less@I@std@@V?$allocator@U?$pair@$$CBIPAVCIOCPBuffer@@@std@@@3@$0A@@std@@@std@@QAE?AV?$_Tree_iterator@V?$_Tree_val@U?$_Tree_simple_types@U?$pair@$$CBIPAVCIOCPBuffer@@@std@@@std@@@std@@@2@XZ 1000dca0 f   IOCPS.obj
 0001:0000cca0       __ehhandler$?_Make_iter@?$list@PAVCIOCPBuffer@@V?$allocator@PAVCIOCPBuffer@@@std@@@std@@QBE?AV?$_List_iterator@V?$_List_val@U?$_List_simple_types@PAVCIOCPBuffer@@@std@@@std@@@2@V?$_List_const_iterator@V?$_List_val@U?$_List_simple_types@PAVCIOCPBuffer@@@std@@@std@@@2@@Z 1000dca0 f   IOCPS.obj
 0001:0000cca0       __ehhandler$??1?$list@PAXV?$allocator@PAX@std@@@std@@QAE@XZ 1000dca0 f   IOCPS.obj
 0001:0000cca0       __ehhandler$?begin@?$list@PAXV?$allocator@PAX@std@@@std@@QAE?AV?$_List_iterator@V?$_List_val@U?$_List_simple_types@PAX@std@@@std@@@2@XZ 1000dca0 f   IOCPS.obj
 0001:0000cca0       __ehhandler$?end@?$list@PAXV?$allocator@PAX@std@@@std@@QAE?AV?$_List_iterator@V?$_List_val@U?$_List_simple_types@PAX@std@@@std@@@2@XZ 1000dca0 f   IOCPS.obj
 0001:0000cca0       __ehhandler$??1?$basic_string@DU?$char_traits@D@std@@V?$allocator@D@2@@std@@QAE@XZ 1000dca0 f   IOCPBuffer.obj
 0001:0000cca0       __ehhandler$??1?$list@PAUClientContext@@V?$allocator@PAUClientContext@@@std@@@std@@QAE@XZ 1000dca0 f   IOCPS.obj
 0001:0000cca0       __ehhandler$?begin@?$list@PAUClientContext@@V?$allocator@PAUClientContext@@@std@@@std@@QAE?AV?$_List_iterator@V?$_List_val@U?$_List_simple_types@PAUClientContext@@@std@@@std@@@2@XZ 1000dca0 f   IOCPS.obj
 0001:0000cca0       __ehhandler$?end@?$list@PAUClientContext@@V?$allocator@PAUClientContext@@@std@@@std@@QAE?AV?$_List_iterator@V?$_List_val@U?$_List_simple_types@PAUClientContext@@@std@@@std@@@2@XZ 1000dca0 f   IOCPS.obj
 0001:0000cca0       __ehhandler$??1IOCPS@@UAE@XZ 1000dca0 f   IOCPS.obj
 0001:0000cca0       __ehhandler$??1?$list@PAUJobItem@@V?$allocator@PAUJobItem@@@std@@@std@@QAE@XZ 1000dca0 f   IOCPS.obj
 0001:0000cca0       __ehhandler$?begin@?$list@PAUJobItem@@V?$allocator@PAUJobItem@@@std@@@std@@QAE?AV?$_List_iterator@V?$_List_val@U?$_List_simple_types@PAUJobItem@@@std@@@std@@@2@XZ 1000dca0 f   IOCPS.obj
 0001:0000cca0       __ehhandler$?end@?$list@PAUJobItem@@V?$allocator@PAUJobItem@@@std@@@std@@QAE?AV?$_List_iterator@V?$_List_val@U?$_List_simple_types@PAUJobItem@@@std@@@std@@@2@XZ 1000dca0 f   IOCPS.obj
 0001:0000cca0       __ehhandler$?begin@?$_Tree@V?$_Tmap_traits@IPAVCIOCPBuffer@@U?$less@I@std@@V?$allocator@U?$pair@$$CBIPAVCIOCPBuffer@@@std@@@3@$0A@@std@@@std@@QAE?AV?$_Tree_iterator@V?$_Tree_val@U?$_Tree_simple_types@U?$pair@$$CBIPAVCIOCPBuffer@@@std@@@std@@@std@@@2@XZ 1000dca0 f   IOCPS.obj
 0001:0000cca0       __ehhandler$??1?$_Tree@V?$_Tmap_traits@GPAXU?$less@G@std@@V?$allocator@U?$pair@$$CBGPAX@std@@@2@$0A@@std@@@std@@QAE@XZ 1000dca0 f   IOCPS.obj
 0001:0000cca0       __ehhandler$?begin@?$_Tree@V?$_Tmap_traits@GPAXU?$less@G@std@@V?$allocator@U?$pair@$$CBGPAX@std@@@2@$0A@@std@@@std@@QAE?AV?$_Tree_iterator@V?$_Tree_val@U?$_Tree_simple_types@U?$pair@$$CBGPAX@std@@@std@@@std@@@2@XZ 1000dca0 f   IOCPS.obj
 0001:0000cca0       __ehhandler$?end@?$_Tree@V?$_Tmap_traits@GPAXU?$less@G@std@@V?$allocator@U?$pair@$$CBGPAX@std@@@2@$0A@@std@@@std@@QAE?AV?$_Tree_iterator@V?$_Tree_val@U?$_Tree_simple_types@U?$pair@$$CBGPAX@std@@@std@@@std@@@2@XZ 1000dca0 f   IOCPS.obj
 0001:0000cca0       __ehhandler$??1?$_List_alloc@U?$_List_base_types@PAXV?$allocator@PAX@std@@@std@@@std@@QAE@XZ 1000dca0 f   IOCPS.obj
 0001:0000cca0       __ehhandler$??1?$_Tree@V?$_Tmap_traits@IPAUClientContext@@U?$less@I@std@@V?$allocator@U?$pair@$$CBIPAUClientContext@@@std@@@3@$0A@@std@@@std@@QAE@XZ 1000dca0 f   IOCPS.obj
 0001:0000cca0       __ehhandler$?begin@?$_Tree@V?$_Tmap_traits@IPAUClientContext@@U?$less@I@std@@V?$allocator@U?$pair@$$CBIPAUClientContext@@@std@@@3@$0A@@std@@@std@@QAE?AV?$_Tree_iterator@V?$_Tree_val@U?$_Tree_simple_types@U?$pair@$$CBIPAUClientContext@@@std@@@std@@@std@@@2@XZ 1000dca0 f   IOCPS.obj
 0001:0000cca0       __ehhandler$?end@?$_Tree@V?$_Tmap_traits@IPAUClientContext@@U?$less@I@std@@V?$allocator@U?$pair@$$CBIPAUClientContext@@@std@@@3@$0A@@std@@@std@@QAE?AV?$_Tree_iterator@V?$_Tree_val@U?$_Tree_simple_types@U?$pair@$$CBIPAUClientContext@@@std@@@std@@@std@@@2@XZ 1000dca0 f   IOCPS.obj
 0001:0000cca0       __ehhandler$??1?$_List_alloc@U?$_List_base_types@PAUClientContext@@V?$allocator@PAUClientContext@@@std@@@std@@@std@@QAE@XZ 1000dca0 f   IOCPS.obj
 0001:0000cca0       __ehhandler$?c_str@?$basic_string@DU?$char_traits@D@std@@V?$allocator@D@2@@std@@QBEPBDXZ 1000dca0 f   IOCPBuffer.obj
 0001:0000ccc0       __ehhandler$?_Copy@?$basic_string@DU?$char_traits@D@std@@V?$allocator@D@2@@std@@QAEXII@Z 1000dcc0 f   IOCPBuffer.obj
 0001:0000cce0       __unwindfunclet$??0IOCPS@@QAE@XZ$0 1000dce0 f   IOCPS.obj
 0001:0000cceb       __unwindfunclet$??0IOCPS@@QAE@XZ$1 1000dceb f   IOCPS.obj
 0001:0000ccf9       __unwindfunclet$??0IOCPS@@QAE@XZ$2 1000dcf9 f   IOCPS.obj
 0001:0000cd07       __unwindfunclet$??0IOCPS@@QAE@XZ$3 1000dd07 f   IOCPS.obj
 0001:0000cd15       __unwindfunclet$??0IOCPS@@QAE@XZ$4 1000dd15 f   IOCPS.obj
 0001:0000cd26       __unwindfunclet$??0IOCPS@@QAE@XZ$5 1000dd26 f   IOCPS.obj
 0001:0000cd37       __unwindfunclet$??0IOCPS@@QAE@XZ$6 1000dd37 f   IOCPS.obj
 0001:0000cd48       __unwindfunclet$??0IOCPS@@QAE@XZ$7 1000dd48 f   IOCPS.obj
 0001:0000cd59       __unwindfunclet$??0IOCPS@@QAE@XZ$8 1000dd59 f   IOCPS.obj
 0001:0000cd6a       __ehhandler$??0IOCPS@@QAE@XZ 1000dd6a f   IOCPS.obj
 0001:0000cda0       __unwindfunclet$?ListnerThreadProc@IOCPS@@CGIPAX@Z$0 1000dda0 f   IOCPS.obj
 0001:0000cda0       __unwindfunclet$?FreeClientContext@IOCPS@@AAEXXZ$0 1000dda0 f   IOCPS.obj
 0001:0000cda8       __ehhandler$?FreeClientContext@IOCPS@@AAEXXZ 1000dda8 f   IOCPS.obj
 0001:0000cda8       __ehhandler$?ListnerThreadProc@IOCPS@@CGIPAX@Z 1000dda8 f   IOCPS.obj
 0001:0000cdd0       __unwindfunclet$?AssociateIncomingClientWithContext@IOCPS@@AAEHI@Z$0 1000ddd0 f   IOCPS.obj
 0001:0000cdd8       __unwindfunclet$?AssociateIncomingClientWithContext@IOCPS@@AAEHI@Z$1 1000ddd8 f   IOCPS.obj
 0001:0000cde0       __unwindfunclet$?AssociateIncomingClientWithContext@IOCPS@@AAEHI@Z$2 1000dde0 f   IOCPS.obj
 0001:0000cde8       __unwindfunclet$?AssociateIncomingClientWithContext@IOCPS@@AAEHI@Z$3 1000dde8 f   IOCPS.obj
 0001:0000cdf0       __ehhandler$?AssociateIncomingClientWithContext@IOCPS@@AAEHI@Z 1000ddf0 f   IOCPS.obj
 0001:0000ce20       __unwindfunclet$?OnZeroByteRead@IOCPS@@AAEXPAUClientContext@@PAVCIOCPBuffer@@@Z$0 1000de20 f   IOCPS.obj
 0001:0000ce20       __unwindfunclet$?OnRead@IOCPS@@AAEXPAUClientContext@@PAVCIOCPBuffer@@@Z$0 1000de20 f   IOCPS.obj
 0001:0000ce28       __unwindfunclet$?OnRead@IOCPS@@AAEXPAUClientContext@@PAVCIOCPBuffer@@@Z$1 1000de28 f   IOCPS.obj
 0001:0000ce28       __unwindfunclet$?OnZeroByteRead@IOCPS@@AAEXPAUClientContext@@PAVCIOCPBuffer@@@Z$1 1000de28 f   IOCPS.obj
 0001:0000ce30       __ehhandler$?OnZeroByteRead@IOCPS@@AAEXPAUClientContext@@PAVCIOCPBuffer@@@Z 1000de30 f   IOCPS.obj
 0001:0000ce30       __ehhandler$?OnRead@IOCPS@@AAEXPAUClientContext@@PAVCIOCPBuffer@@@Z 1000de30 f   IOCPS.obj
 0001:0000ce60       __unwindfunclet$?OnReadCompleted@IOCPS@@AAEXPAUClientContext@@KPAVCIOCPBuffer@@@Z$0 1000de60 f   IOCPS.obj
 0001:0000ce60       __unwindfunclet$?NotifyNewConnection@ITIOCP@@UAEXPAUClientContext@@@Z$0 1000de60 f   MyIOCP.obj
 0001:0000ce60       __unwindfunclet$?NotifyDisconnectedClient@ITIOCP@@UAEXPAUClientContext@@@Z$0 1000de60 f   MyIOCP.obj
 0001:0000ce68       __ehhandler$?NotifyDisconnectedClient@ITIOCP@@UAEXPAUClientContext@@@Z 1000de68 f   MyIOCP.obj
 0001:0000ce68       __ehhandler$?OnReadCompleted@IOCPS@@AAEXPAUClientContext@@KPAVCIOCPBuffer@@@Z 1000de68 f   IOCPS.obj
 0001:0000ce68       __ehhandler$?NotifyNewConnection@ITIOCP@@UAEXPAUClientContext@@@Z 1000de68 f   MyIOCP.obj
 0001:0000ce90       __unwindfunclet$?OnWrite@IOCPS@@AAEXPAUClientContext@@KPAVCIOCPBuffer@@@Z$0 1000de90 f   IOCPS.obj
 0001:0000ce90       __unwindfunclet$?MakeOrderdRead@IOCPS@@AAEXPAUClientContext@@PAVCIOCPBuffer@@@Z$0 1000de90 f   IOCPS.obj
 0001:0000ce98       __ehhandler$?MakeOrderdRead@IOCPS@@AAEXPAUClientContext@@PAVCIOCPBuffer@@@Z 1000de98 f   IOCPS.obj
 0001:0000ce98       __ehhandler$?OnWrite@IOCPS@@AAEXPAUClientContext@@KPAVCIOCPBuffer@@@Z 1000de98 f   IOCPS.obj
 0001:0000cec0       __unwindfunclet$?GetHostKeyName@IOCPS@@QAE?AV?$basic_string@DU?$char_traits@D@std@@V?$allocator@D@2@@std@@I@Z$0 1000dec0 f   IOCPS.obj
 0001:0000cec8       __ehhandler$?GetHostKeyName@IOCPS@@QAE?AV?$basic_string@DU?$char_traits@D@std@@V?$allocator@D@2@@std@@I@Z 1000dec8 f   IOCPS.obj
 0001:0000cef0       __unwindfunclet$?GetHostAddress@IOCPS@@QAE?AV?$basic_string@DU?$char_traits@D@std@@V?$allocator@D@2@@std@@I@Z$0 1000def0 f   IOCPS.obj
 0001:0000cef8       __ehhandler$?GetHostAddress@IOCPS@@QAE?AV?$basic_string@DU?$char_traits@D@std@@V?$allocator@D@2@@std@@I@Z 1000def8 f   IOCPS.obj
 0001:0000cf20       __unwindfunclet$?ShutDown@IOCPS@@UAEXXZ$0 1000df20 f   IOCPS.obj
 0001:0000cf28       __ehhandler$?ShutDown@IOCPS@@UAEXXZ 1000df28 f   IOCPS.obj
 0001:0000cf50       __unwindfunclet$?AZeroByteRead@IOCPS@@AAEHPAUClientContext@@PAVCIOCPBuffer@@@Z$0 1000df50 f   IOCPS.obj
 0001:0000cf50       __unwindfunclet$?ErrorCode2Text@IOCPS@@IAE?AV?$basic_string@DU?$char_traits@D@std@@V?$allocator@D@2@@std@@K@Z$0 1000df50 f   IOCPS.obj
 0001:0000cf58       __ehhandler$?ErrorCode2Text@IOCPS@@IAE?AV?$basic_string@DU?$char_traits@D@std@@V?$allocator@D@2@@std@@K@Z 1000df58 f   IOCPS.obj
 0001:0000cf58       __ehhandler$?AZeroByteRead@IOCPS@@AAEHPAUClientContext@@PAVCIOCPBuffer@@@Z 1000df58 f   IOCPS.obj
 0001:0000cf80       __unwindfunclet$?AllocateContext@IOCPS@@AAEPAUClientContext@@XZ$0 1000df80 f   IOCPS.obj
 0001:0000cf8f       __ehhandler$?AllocateContext@IOCPS@@AAEPAUClientContext@@XZ 1000df8f f   IOCPS.obj
 0001:0000cfb0       __unwindfunclet$??0ClientContext@@QAE@XZ$0 1000dfb0 f   IOCPS.obj
 0001:0000cfbb       __ehhandler$??0ClientContext@@QAE@XZ 1000dfbb f   IOCPS.obj
 0001:0000cfe0       __unwindfunclet$?AllocateBuffer@IOCPS@@IAEPAVCIOCPBuffer@@H@Z$0 1000dfe0 f   IOCPS.obj
 0001:0000cff2       __unwindfunclet$?AllocateBuffer@IOCPS@@IAEPAVCIOCPBuffer@@H@Z$1 1000dff2 f   IOCPS.obj
 0001:0000cffa       __ehhandler$?AllocateBuffer@IOCPS@@IAEPAVCIOCPBuffer@@H@Z 1000dffa f   IOCPS.obj
 0001:0000d020       __unwindfunclet$?SetupListner@IOCPS@@AAEHXZ$0 1000e020 f   IOCPS.obj
 0001:0000d028       __unwindfunclet$?SetupListner@IOCPS@@AAEHXZ$1 1000e028 f   IOCPS.obj
 0001:0000d030       __unwindfunclet$?SetupListner@IOCPS@@AAEHXZ$2 1000e030 f   IOCPS.obj
 0001:0000d038       __unwindfunclet$?SetupListner@IOCPS@@AAEHXZ$3 1000e038 f   IOCPS.obj
 0001:0000d040       __unwindfunclet$?SetupListner@IOCPS@@AAEHXZ$4 1000e040 f   IOCPS.obj
 0001:0000d04b       __unwindfunclet$?SetupListner@IOCPS@@AAEHXZ$5 1000e04b f   IOCPS.obj
 0001:0000d056       __ehhandler$?SetupListner@IOCPS@@AAEHXZ 1000e056 f   IOCPS.obj
 0001:0000d080       __unwindfunclet$?CreateCompletionPort@IOCPS@@AAEHXZ$0 1000e080 f   IOCPS.obj
 0001:0000d088       __unwindfunclet$?CreateCompletionPort@IOCPS@@AAEHXZ$1 1000e088 f   IOCPS.obj
 0001:0000d090       __ehhandler$?CreateCompletionPort@IOCPS@@AAEHXZ 1000e090 f   IOCPS.obj
 0001:0000d0c0       __unwindfunclet$?SetupIOWorkers@IOCPS@@AAEHXZ$0 1000e0c0 f   IOCPS.obj
 0001:0000d0c8       __ehhandler$?SetupIOWorkers@IOCPS@@AAEHXZ 1000e0c8 f   IOCPS.obj
 0001:0000d0f0       __unwindfunclet$?Connect@IOCPS@@UAEHABV?$basic_string@DU?$char_traits@D@std@@V?$allocator@D@2@@std@@H@Z$0 1000e0f0 f   IOCPS.obj
 0001:0000d0f8       __ehhandler$?Connect@IOCPS@@UAEHABV?$basic_string@DU?$char_traits@D@std@@V?$allocator@D@2@@std@@H@Z 1000e0f8 f   IOCPS.obj
 0001:0000d120       __ehhandler$?clear@?$_Tree@V?$_Tmap_traits@IPAUClientContext@@U?$less@I@std@@V?$allocator@U?$pair@$$CBIPAUClientContext@@@std@@@3@$0A@@std@@@std@@QAEXXZ 1000e120 f   IOCPS.obj
 0001:0000d120       __ehhandler$?clear@?$_Tree@V?$_Tmap_traits@GPAXU?$less@G@std@@V?$allocator@U?$pair@$$CBGPAX@std@@@2@$0A@@std@@@std@@QAEXXZ 1000e120 f   IOCPS.obj
 0001:0000d120       __ehhandler$?clear@?$_Tree@V?$_Tmap_traits@IPAVCIOCPBuffer@@U?$less@I@std@@V?$allocator@U?$pair@$$CBIPAVCIOCPBuffer@@@std@@@3@$0A@@std@@@std@@QAEXXZ 1000e120 f   IOCPS.obj
 0001:0000d140       __ehhandler$?clear@?$list@PAXV?$allocator@PAX@std@@@std@@QAEXXZ 1000e140 f   IOCPS.obj
 0001:0000d140       __ehhandler$?clear@?$list@PAUJobItem@@V?$allocator@PAUJobItem@@@std@@@std@@QAEXXZ 1000e140 f   IOCPS.obj
 0001:0000d140       __ehhandler$?clear@?$list@PAVCIOCPBuffer@@V?$allocator@PAVCIOCPBuffer@@@std@@@std@@QAEXXZ 1000e140 f   IOCPS.obj
 0001:0000d140       __ehhandler$?clear@?$list@PAUClientContext@@V?$allocator@PAUClientContext@@@std@@@std@@QAEXXZ 1000e140 f   IOCPS.obj
 0001:0000d160       __unwindfunclet$??0?$basic_string@DU?$char_traits@D@std@@V?$allocator@D@2@@std@@QAE@PBD@Z$0 1000e160 f   IOCPS.obj
 0001:0000d168       __ehhandler$??0?$basic_string@DU?$char_traits@D@std@@V?$allocator@D@2@@std@@QAE@PBD@Z 1000e168 f   IOCPS.obj
 0001:0000d190       __ehhandler$?_Buyheadnode@?$_Tree_comp_alloc@V?$_Tmap_traits@IPAUClientContext@@U?$less@I@std@@V?$allocator@U?$pair@$$CBIPAUClientContext@@@std@@@3@$0A@@std@@@std@@QAEPAU?$_Tree_node@U?$pair@$$CBIPAUClientContext@@@std@@PAX@2@XZ 1000e190 f   IOCPS.obj
 0001:0000d190       __ehhandler$?_Buyheadnode@?$_Tree_comp_alloc@V?$_Tmap_traits@GPAXU?$less@G@std@@V?$allocator@U?$pair@$$CBGPAX@std@@@2@$0A@@std@@@std@@QAEPAU?$_Tree_node@U?$pair@$$CBGPAX@std@@PAX@2@XZ 1000e190 f   IOCPS.obj
 0001:0000d190       __ehhandler$?_Buyheadnode@?$_Tree_comp_alloc@V?$_Tmap_traits@IPAVCIOCPBuffer@@U?$less@I@std@@V?$allocator@U?$pair@$$CBIPAVCIOCPBuffer@@@std@@@3@$0A@@std@@@std@@QAEPAU?$_Tree_node@U?$pair@$$CBIPAVCIOCPBuffer@@@std@@PAX@2@XZ 1000e190 f   IOCPS.obj
 0001:0000d1b0       __ehhandler$?_Buynode0@?$_List_alloc@U?$_List_base_types@PAXV?$allocator@PAX@std@@@std@@@std@@QAEPAU?$_List_node@PAXPAX@2@PAU32@0@Z 1000e1b0 f   IOCPS.obj
 0001:0000d1b0       __ehhandler$?_Buynode0@?$_List_alloc@U?$_List_base_types@PAUJobItem@@V?$allocator@PAUJobItem@@@std@@@std@@@std@@QAEPAU?$_List_node@PAUJobItem@@PAX@2@PAU32@0@Z 1000e1b0 f   IOCPS.obj
 0001:0000d1b0       __ehhandler$?_Buynode0@?$_List_alloc@U?$_List_base_types@PAVCIOCPBuffer@@V?$allocator@PAVCIOCPBuffer@@@std@@@std@@@std@@QAEPAU?$_List_node@PAVCIOCPBuffer@@PAX@2@PAU32@0@Z 1000e1b0 f   IOCPS.obj
 0001:0000d1b0       __ehhandler$?_Buynode0@?$_List_alloc@U?$_List_base_types@PAUClientContext@@V?$allocator@PAUClientContext@@@std@@@std@@@std@@QAEPAU?$_List_node@PAUClientContext@@PAX@2@PAU32@0@Z 1000e1b0 f   IOCPS.obj
 0001:0000d1d0       __ehhandler$??$_Buynode@ABQAUClientContext@@@?$_List_buy@PAUClientContext@@V?$allocator@PAUClientContext@@@std@@@std@@QAEPAU?$_List_node@PAUClientContext@@PAX@1@PAU21@0ABQAUClientContext@@@Z 1000e1d0 f   IOCPS.obj
 0001:0000d1d0       __ehhandler$??$_Buynode@ABQAVCIOCPBuffer@@@?$_List_buy@PAVCIOCPBuffer@@V?$allocator@PAVCIOCPBuffer@@@std@@@std@@QAEPAU?$_List_node@PAVCIOCPBuffer@@PAX@1@PAU21@0ABQAVCIOCPBuffer@@@Z 1000e1d0 f   IOCPS.obj
 0001:0000d1d0       __ehhandler$??$_Buynode@ABQAX@?$_List_buy@PAXV?$allocator@PAX@std@@@std@@QAEPAU?$_List_node@PAXPAX@1@PAU21@0ABQAX@Z 1000e1d0 f   IOCPS.obj
 0001:0000d1f0       __ehhandler$??$_Buynode@U?$pair@GPAX@std@@@?$_Tree_comp_alloc@V?$_Tmap_traits@GPAXU?$less@G@std@@V?$allocator@U?$pair@$$CBGPAX@std@@@2@$0A@@std@@@std@@QAEPAU?$_Tree_node@U?$pair@$$CBGPAX@std@@PAX@1@$$QAU?$pair@GPAX@1@@Z 1000e1f0 f   IOCPS.obj
 0001:0000d210       __ehhandler$??$_Insert_nohint@AAU?$pair@$$CBGPAX@std@@PAU?$_Tree_node@U?$pair@$$CBGPAX@std@@PAX@2@@?$_Tree@V?$_Tmap_traits@GPAXU?$less@G@std@@V?$allocator@U?$pair@$$CBGPAX@std@@@2@$0A@@std@@@std@@IAE?AU?$pair@V?$_Tree_iterator@V?$_Tree_val@U?$_Tree_simple_types@U?$pair@$$CBGPAX@std@@@std@@@std@@@std@@_N@1@_NAAU?$pair@$$CBGPAX@1@PAU?$_Tree_node@U?$pair@$$CBGPAX@std@@PAX@1@@Z 1000e210 f   IOCPS.obj
 0001:0000d230       __ehhandler$??$_Buynode@U?$pair@IPAVCIOCPBuffer@@@std@@@?$_Tree_comp_alloc@V?$_Tmap_traits@IPAVCIOCPBuffer@@U?$less@I@std@@V?$allocator@U?$pair@$$CBIPAVCIOCPBuffer@@@std@@@3@$0A@@std@@@std@@QAEPAU?$_Tree_node@U?$pair@$$CBIPAVCIOCPBuffer@@@std@@PAX@1@$$QAU?$pair@IPAVCIOCPBuffer@@@1@@Z 1000e230 f   IOCPS.obj
 0001:0000d250       __ehhandler$??$_Insert_nohint@AAU?$pair@$$CBIPAVCIOCPBuffer@@@std@@PAU?$_Tree_node@U?$pair@$$CBIPAVCIOCPBuffer@@@std@@PAX@2@@?$_Tree@V?$_Tmap_traits@IPAVCIOCPBuffer@@U?$less@I@std@@V?$allocator@U?$pair@$$CBIPAVCIOCPBuffer@@@std@@@3@$0A@@std@@@std@@IAE?AU?$pair@V?$_Tree_iterator@V?$_Tree_val@U?$_Tree_simple_types@U?$pair@$$CBIPAVCIOCPBuffer@@@std@@@std@@@std@@@std@@_N@1@_NAAU?$pair@$$CBIPAVCIOCPBuffer@@@1@PAU?$_Tree_node@U?$pair@$$CBIPAVCIOCPBuffer@@@std@@PAX@1@@Z 1000e250 f   IOCPS.obj
 0001:0000d250       __ehhandler$??$_Insert_nohint@AAU?$pair@$$CBIPAUClientContext@@@std@@PAU?$_Tree_node@U?$pair@$$CBIPAUClientContext@@@std@@PAX@2@@?$_Tree@V?$_Tmap_traits@IPAUClientContext@@U?$less@I@std@@V?$allocator@U?$pair@$$CBIPAUClientContext@@@std@@@3@$0A@@std@@@std@@IAE?AU?$pair@V?$_Tree_iterator@V?$_Tree_val@U?$_Tree_simple_types@U?$pair@$$CBIPAUClientContext@@@std@@@std@@@std@@@std@@_N@1@_NAAU?$pair@$$CBIPAUClientContext@@@1@PAU?$_Tree_node@U?$pair@$$CBIPAUClientContext@@@std@@PAX@1@@Z 1000e250 f   IOCPS.obj
 0001:0000d270       __ehhandler$??$forward_as_tuple@ABG@std@@YA?AV?$tuple@ABG@0@ABG@Z 1000e270 f   IOCPS.obj
 0001:0000d270       __ehhandler$??$forward_as_tuple@ABI@std@@YA?AV?$tuple@ABI@0@ABI@Z 1000e270 f   IOCPS.obj
 0001:0000d290       __ehhandler$?_Buynode0@?$_Tree_comp_alloc@V?$_Tmap_traits@GPAXU?$less@G@std@@V?$allocator@U?$pair@$$CBGPAX@std@@@2@$0A@@std@@@std@@QAEPAU?$_Tree_node@U?$pair@$$CBGPAX@std@@PAX@2@XZ 1000e290 f   IOCPS.obj
 0001:0000d290       __ehhandler$?_Buynode0@?$_Tree_comp_alloc@V?$_Tmap_traits@IPAUClientContext@@U?$less@I@std@@V?$allocator@U?$pair@$$CBIPAUClientContext@@@std@@@3@$0A@@std@@@std@@QAEPAU?$_Tree_node@U?$pair@$$CBIPAUClientContext@@@std@@PAX@2@XZ 1000e290 f   IOCPS.obj
 0001:0000d290       __ehhandler$?_Buynode0@?$_Tree_comp_alloc@V?$_Tmap_traits@IPAVCIOCPBuffer@@U?$less@I@std@@V?$allocator@U?$pair@$$CBIPAVCIOCPBuffer@@@std@@@3@$0A@@std@@@std@@QAEPAU?$_Tree_node@U?$pair@$$CBIPAVCIOCPBuffer@@@std@@PAX@2@XZ 1000e290 f   IOCPS.obj
 0001:0000d2b0       __ehhandler$??$_Buynode@ABUpiecewise_construct_t@std@@V?$tuple@ABG@2@V?$tuple@$$V@2@@?$_Tree_comp_alloc@V?$_Tmap_traits@GPAXU?$less@G@std@@V?$allocator@U?$pair@$$CBGPAX@std@@@2@$0A@@std@@@std@@QAEPAU?$_Tree_node@U?$pair@$$CBGPAX@std@@PAX@1@ABUpiecewise_construct_t@1@$$QAV?$tuple@ABG@1@$$QAV?$tuple@$$V@1@@Z 1000e2b0 f   IOCPS.obj
 0001:0000d2d0       __ehhandler$??$_Insert_hint@AAU?$pair@$$CBGPAX@std@@PAU?$_Tree_node@U?$pair@$$CBGPAX@std@@PAX@2@@?$_Tree@V?$_Tmap_traits@GPAXU?$less@G@std@@V?$allocator@U?$pair@$$CBGPAX@std@@@2@$0A@@std@@@std@@IAE?AV?$_Tree_iterator@V?$_Tree_val@U?$_Tree_simple_types@U?$pair@$$CBGPAX@std@@@std@@@std@@@1@V?$_Tree_const_iterator@V?$_Tree_val@U?$_Tree_simple_types@U?$pair@$$CBGPAX@std@@@std@@@std@@@1@AAU?$pair@$$CBGPAX@1@PAU?$_Tree_node@U?$pair@$$CBGPAX@std@@PAX@1@@Z 1000e2d0 f   IOCPS.obj
 0001:0000d2f0       __ehhandler$??$_Buynode@ABUpiecewise_construct_t@std@@V?$tuple@ABI@2@V?$tuple@$$V@2@@?$_Tree_comp_alloc@V?$_Tmap_traits@IPAUClientContext@@U?$less@I@std@@V?$allocator@U?$pair@$$CBIPAUClientContext@@@std@@@3@$0A@@std@@@std@@QAEPAU?$_Tree_node@U?$pair@$$CBIPAUClientContext@@@std@@PAX@1@ABUpiecewise_construct_t@1@$$QAV?$tuple@ABI@1@$$QAV?$tuple@$$V@1@@Z 1000e2f0 f   IOCPS.obj
 0001:0000d2f0       __ehhandler$??$_Buynode@ABUpiecewise_construct_t@std@@V?$tuple@ABI@2@V?$tuple@$$V@2@@?$_Tree_comp_alloc@V?$_Tmap_traits@IPAVCIOCPBuffer@@U?$less@I@std@@V?$allocator@U?$pair@$$CBIPAVCIOCPBuffer@@@std@@@3@$0A@@std@@@std@@QAEPAU?$_Tree_node@U?$pair@$$CBIPAVCIOCPBuffer@@@std@@PAX@1@ABUpiecewise_construct_t@1@$$QAV?$tuple@ABI@1@$$QAV?$tuple@$$V@1@@Z 1000e2f0 f   IOCPS.obj
 0001:0000d310       __ehhandler$??$_Insert_hint@AAU?$pair@$$CBIPAVCIOCPBuffer@@@std@@PAU?$_Tree_node@U?$pair@$$CBIPAVCIOCPBuffer@@@std@@PAX@2@@?$_Tree@V?$_Tmap_traits@IPAVCIOCPBuffer@@U?$less@I@std@@V?$allocator@U?$pair@$$CBIPAVCIOCPBuffer@@@std@@@3@$0A@@std@@@std@@IAE?AV?$_Tree_iterator@V?$_Tree_val@U?$_Tree_simple_types@U?$pair@$$CBIPAVCIOCPBuffer@@@std@@@std@@@std@@@1@V?$_Tree_const_iterator@V?$_Tree_val@U?$_Tree_simple_types@U?$pair@$$CBIPAVCIOCPBuffer@@@std@@@std@@@std@@@1@AAU?$pair@$$CBIPAVCIOCPBuffer@@@1@PAU?$_Tree_node@U?$pair@$$CBIPAVCIOCPBuffer@@@std@@PAX@1@@Z 1000e310 f   IOCPS.obj
 0001:0000d310       __ehhandler$??$_Insert_hint@AAU?$pair@$$CBIPAUClientContext@@@std@@PAU?$_Tree_node@U?$pair@$$CBIPAUClientContext@@@std@@PAX@2@@?$_Tree@V?$_Tmap_traits@IPAUClientContext@@U?$less@I@std@@V?$allocator@U?$pair@$$CBIPAUClientContext@@@std@@@3@$0A@@std@@@std@@IAE?AV?$_Tree_iterator@V?$_Tree_val@U?$_Tree_simple_types@U?$pair@$$CBIPAUClientContext@@@std@@@std@@@std@@@1@V?$_Tree_const_iterator@V?$_Tree_val@U?$_Tree_simple_types@U?$pair@$$CBIPAUClientContext@@@std@@@std@@@std@@@1@AAU?$pair@$$CBIPAUClientContext@@@1@PAU?$_Tree_node@U?$pair@$$CBIPAUClientContext@@@std@@PAX@1@@Z 1000e310 f   IOCPS.obj
 0001:0000d330       __unwindfunclet$??$construct@U?$pair@$$CBIPAUClientContext@@@std@@ABUpiecewise_construct_t@2@V?$tuple@ABI@2@V?$tuple@$$V@2@@?$allocator@U?$_Tree_node@U?$pair@$$CBIPAUClientContext@@@std@@PAX@std@@@std@@QAEXPAU?$pair@$$CBIPAUClientContext@@@1@ABUpiecewise_construct_t@1@$$QAV?$tuple@ABI@1@$$QAV?$tuple@$$V@1@@Z$0 1000e330 f   IOCPS.obj
 0001:0000d330       __unwindfunclet$??$construct@U?$pair@$$CBGPAX@std@@ABUpiecewise_construct_t@2@V?$tuple@ABG@2@V?$tuple@$$V@2@@?$allocator@U?$_Tree_node@U?$pair@$$CBGPAX@std@@PAX@std@@@std@@QAEXPAU?$pair@$$CBGPAX@1@ABUpiecewise_construct_t@1@$$QAV?$tuple@ABG@1@$$QAV?$tuple@$$V@1@@Z$0 1000e330 f   IOCPS.obj
 0001:0000d330       __unwindfunclet$??$construct@U?$pair@$$CBIPAVCIOCPBuffer@@@std@@ABUpiecewise_construct_t@2@V?$tuple@ABI@2@V?$tuple@$$V@2@@?$allocator@U?$_Tree_node@U?$pair@$$CBIPAVCIOCPBuffer@@@std@@PAX@std@@@std@@QAEXPAU?$pair@$$CBIPAVCIOCPBuffer@@@1@ABUpiecewise_construct_t@1@$$QAV?$tuple@ABI@1@$$QAV?$tuple@$$V@1@@Z$0 1000e330 f   IOCPS.obj
 0001:0000d341       __ehhandler$??$construct@U?$pair@$$CBIPAVCIOCPBuffer@@@std@@ABUpiecewise_construct_t@2@V?$tuple@ABI@2@V?$tuple@$$V@2@@?$allocator@U?$_Tree_node@U?$pair@$$CBIPAVCIOCPBuffer@@@std@@PAX@std@@@std@@QAEXPAU?$pair@$$CBIPAVCIOCPBuffer@@@1@ABUpiecewise_construct_t@1@$$QAV?$tuple@ABI@1@$$QAV?$tuple@$$V@1@@Z 1000e341 f   IOCPS.obj
 0001:0000d341       __ehhandler$??$construct@U?$pair@$$CBIPAUClientContext@@@std@@ABUpiecewise_construct_t@2@V?$tuple@ABI@2@V?$tuple@$$V@2@@?$allocator@U?$_Tree_node@U?$pair@$$CBIPAUClientContext@@@std@@PAX@std@@@std@@QAEXPAU?$pair@$$CBIPAUClientContext@@@1@ABUpiecewise_construct_t@1@$$QAV?$tuple@ABI@1@$$QAV?$tuple@$$V@1@@Z 1000e341 f   IOCPS.obj
 0001:0000d341       __ehhandler$??$construct@U?$pair@$$CBGPAX@std@@ABUpiecewise_construct_t@2@V?$tuple@ABG@2@V?$tuple@$$V@2@@?$allocator@U?$_Tree_node@U?$pair@$$CBGPAX@std@@PAX@std@@@std@@QAEXPAU?$pair@$$CBGPAX@1@ABUpiecewise_construct_t@1@$$QAV?$tuple@ABG@1@$$QAV?$tuple@$$V@1@@Z 1000e341 f   IOCPS.obj
 0001:0000d360       __unwindfunclet$??0ITIOCP@@QAE@XZ$0 1000e360 f   MyIOCP.obj
 0001:0000d368       __unwindfunclet$??0ITIOCP@@QAE@XZ$1 1000e368 f   MyIOCP.obj
 0001:0000d376       __unwindfunclet$??0ITIOCP@@QAE@XZ$2 1000e376 f   MyIOCP.obj
 0001:0000d384       __ehhandler$??0ITIOCP@@QAE@XZ 1000e384 f   MyIOCP.obj
 0001:0000d3a0       __unwindfunclet$?CreateServerSocket@@YGPAVSocket@@XZ$0 1000e3a0 f   MyIOCP.obj
 0001:0000d3b2       __ehhandler$?CreateServerSocket@@YGPAVSocket@@XZ 1000e3b2 f   MyIOCP.obj
 0001:0000d3d0       __unwindfunclet$?CreateClientSocket@@YGPAVSocket@@XZ$0 1000e3d0 f   MyIOCP.obj
 0001:0000d3e2       __ehhandler$?CreateClientSocket@@YGPAVSocket@@XZ 1000e3e2 f   MyIOCP.obj
 0002:00000188       _GS_ExceptionPointers      1000f188     MSVCRT:gs_report.obj
 0002:000001f8       $SG4294966117              1000f1f8     IOCPBuffer.obj
 0002:00000237       $SG4294963153              1000f237     IOCPS.obj
 0002:00000238       $SG4294963188              1000f238     IOCPS.obj
 0002:0000027e       $SG4294963152              1000f27e     IOCPS.obj
 0002:0000027f       $SG4294963145              1000f27f     IOCPS.obj
 0002:00000280       $SG4294963187              1000f280     IOCPS.obj
 0002:000002b9       $SG4294963128              1000f2b9     IOCPS.obj
 0002:000002ba       $SG4294963127              1000f2ba     IOCPS.obj
 0002:000002bb       $SG4294963114              1000f2bb     IOCPS.obj
 0002:000002bc       $SG4294963186              1000f2bc     IOCPS.obj
 0002:000002ed       $SG4294963113              1000f2ed     IOCPS.obj
 0002:000002ee       ?piecewise_construct@std@@3Upiecewise_construct_t@1@B 1000f2ee     IOCPS.obj
 0002:000002ef       $SG4294958639              1000f2ef     MyIOCP.obj
 0002:000002f0       $SG4294963185              1000f2f0     IOCPS.obj
 0002:0000032a       $SG4294958638              1000f32a     MyIOCP.obj
 0002:0000032c       $SG4294963184              1000f32c     IOCPS.obj
 0002:00000360       $SG4294963155              1000f360     IOCPS.obj
 0002:000003a4       $SG4294963154              1000f3a4     IOCPS.obj
 0002:000003e0       $SG4294963144              1000f3e0     IOCPS.obj
 0002:00000444       $SG4294963143              1000f444     IOCPS.obj
 0002:00000470       $SG4294963142              1000f470     IOCPS.obj
 0002:000004bc       $SG4294963141              1000f4bc     IOCPS.obj
 0002:000004f0       $SG4294963140              1000f4f0     IOCPS.obj
 0002:00000548       $SG4294963139              1000f548     IOCPS.obj
 0002:00000578       $SG4294963138              1000f578     IOCPS.obj
 0002:00000600       $SG4294963137              1000f600     IOCPS.obj
 0002:00000688       $SG4294963136              1000f688     IOCPS.obj
 0002:00000788       $SG4294963135              1000f788     IOCPS.obj
 0002:00000828       $SG4294963134              1000f828     IOCPS.obj
 0002:00000888       $SG4294963133              1000f888     IOCPS.obj
 0002:000008e8       $SG4294963132              1000f8e8     IOCPS.obj
 0002:000009c0       $SG4294963131              1000f9c0     IOCPS.obj
 0002:00000a60       $SG4294963130              1000fa60     IOCPS.obj
 0002:00000adc       $SG4294963129              1000fadc     IOCPS.obj
 0002:00000b00       $SG4294963126              1000fb00     IOCPS.obj
 0002:00000b4c       $SG4294963125              1000fb4c     IOCPS.obj
 0002:00000b84       $SG4294963124              1000fb84     IOCPS.obj
 0002:00000bb8       $SG4294963123              1000fbb8     IOCPS.obj
 0002:00000be8       $SG4294963122              1000fbe8     IOCPS.obj
 0002:00000c10       $SG4294963121              1000fc10     IOCPS.obj
 0002:00000c38       $SG4294963120              1000fc38     IOCPS.obj
 0002:00000c80       $SG4294963115              1000fc80     IOCPS.obj
 0002:00000cb8       $SG4294963112              1000fcb8     IOCPS.obj
 0002:00000cfc       $SG4294963111              1000fcfc     IOCPS.obj
 0002:00000d20       $SG4294958637              1000fd20     MyIOCP.obj
 0002:00000d54       $SG4294958636              1000fd54     MyIOCP.obj
 0002:00000d8c       $SG4294958635              1000fd8c     MyIOCP.obj
 0002:00000dc4       $SG4294958634              1000fdc4     MyIOCP.obj
 0002:00001bc8       __ehfuncinfo$??1IOCPS@@UAE@XZ 10010bc8     IOCPS.obj
 0002:00001bc8       __ehfuncinfo$??1?$_Tree@V?$_Tmap_traits@GPAXU?$less@G@std@@V?$allocator@U?$pair@$$CBGPAX@std@@@2@$0A@@std@@@std@@QAE@XZ 10010bc8     IOCPS.obj
 0002:00001bc8       __ehfuncinfo$??$forward_as_tuple@ABG@std@@YA?AV?$tuple@ABG@0@ABG@Z 10010bc8     IOCPS.obj
 0002:00001bc8       __ehfuncinfo$??1?$basic_string@DU?$char_traits@D@std@@V?$allocator@D@2@@std@@QAE@XZ 10010bc8     IOCPBuffer.obj
 0002:00001bc8       __ehfuncinfo$?_Make_iter@?$list@PAVCIOCPBuffer@@V?$allocator@PAVCIOCPBuffer@@@std@@@std@@QBE?AV?$_List_iterator@V?$_List_val@U?$_List_simple_types@PAVCIOCPBuffer@@@std@@@std@@@2@V?$_List_const_iterator@V?$_List_val@U?$_List_simple_types@PAVCIOCPBuffer@@@std@@@std@@@2@@Z 10010bc8     IOCPS.obj
 0002:00001bc8       __ehfuncinfo$?_Make_iter@?$list@PAUClientContext@@V?$allocator@PAUClientContext@@@std@@@std@@QBE?AV?$_List_iterator@V?$_List_val@U?$_List_simple_types@PAUClientContext@@@std@@@std@@@2@V?$_List_const_iterator@V?$_List_val@U?$_List_simple_types@PAUClientContext@@@std@@@std@@@2@@Z 10010bc8     IOCPS.obj
 0002:00001bc8       __ehfuncinfo$?_Make_iter@?$list@PAUJobItem@@V?$allocator@PAUJobItem@@@std@@@std@@QBE?AV?$_List_iterator@V?$_List_val@U?$_List_simple_types@PAUJobItem@@@std@@@std@@@2@V?$_List_const_iterator@V?$_List_val@U?$_List_simple_types@PAUJobItem@@@std@@@std@@@2@@Z 10010bc8     IOCPS.obj
 0002:00001bc8       __ehfuncinfo$??1?$_List_alloc@U?$_List_base_types@PAVCIOCPBuffer@@V?$allocator@PAVCIOCPBuffer@@@std@@@std@@@std@@QAE@XZ 10010bc8     IOCPS.obj
 0002:00001bc8       __ehfuncinfo$??1?$_Tree_comp_alloc@V?$_Tmap_traits@IPAVCIOCPBuffer@@U?$less@I@std@@V?$allocator@U?$pair@$$CBIPAVCIOCPBuffer@@@std@@@3@$0A@@std@@@std@@QAE@XZ 10010bc8     IOCPS.obj
 0002:00001bc8       __ehfuncinfo$??1?$_List_alloc@U?$_List_base_types@PAXV?$allocator@PAX@std@@@std@@@std@@QAE@XZ 10010bc8     IOCPS.obj
 0002:00001bc8       __ehfuncinfo$??1?$_List_alloc@U?$_List_base_types@PAUClientContext@@V?$allocator@PAUClientContext@@@std@@@std@@@std@@QAE@XZ 10010bc8     IOCPS.obj
 0002:00001bc8       __ehfuncinfo$??1?$_List_alloc@U?$_List_base_types@PAUJobItem@@V?$allocator@PAUJobItem@@@std@@@std@@@std@@QAE@XZ 10010bc8     IOCPS.obj
 0002:00001bc8       __ehfuncinfo$??1?$_Tree_comp_alloc@V?$_Tmap_traits@GPAXU?$less@G@std@@V?$allocator@U?$pair@$$CBGPAX@std@@@2@$0A@@std@@@std@@QAE@XZ 10010bc8     IOCPS.obj
 0002:00001bc8       __ehfuncinfo$??1?$_Tree_comp_alloc@V?$_Tmap_traits@IPAUClientContext@@U?$less@I@std@@V?$allocator@U?$pair@$$CBIPAUClientContext@@@std@@@3@$0A@@std@@@std@@QAE@XZ 10010bc8     IOCPS.obj
 0002:00001bc8       __ehfuncinfo$??0?$basic_string@DU?$char_traits@D@std@@V?$allocator@D@2@@std@@QAE@XZ 10010bc8     IOCPS.obj
 0002:00001bc8       __ehfuncinfo$??$forward_as_tuple@ABI@std@@YA?AV?$tuple@ABI@0@ABI@Z 10010bc8     IOCPS.obj
 0002:00001bc8       __ehfuncinfo$?c_str@?$basic_string@DU?$char_traits@D@std@@V?$allocator@D@2@@std@@QBEPBDXZ 10010bc8     IOCPBuffer.obj
 0002:00001bc8       __ehfuncinfo$??0?$basic_string@DU?$char_traits@D@std@@V?$allocator@D@2@@std@@QAE@$$QAV01@@Z 10010bc8     IOCPS.obj
 0002:00001bc8       __ehfuncinfo$??1?$list@PAVCIOCPBuffer@@V?$allocator@PAVCIOCPBuffer@@@std@@@std@@QAE@XZ 10010bc8     IOCPS.obj
 0002:00001bc8       __ehfuncinfo$?begin@?$list@PAVCIOCPBuffer@@V?$allocator@PAVCIOCPBuffer@@@std@@@std@@QAE?AV?$_List_iterator@V?$_List_val@U?$_List_simple_types@PAVCIOCPBuffer@@@std@@@std@@@2@XZ 10010bc8     IOCPS.obj
 0002:00001bc8       __ehfuncinfo$?end@?$list@PAVCIOCPBuffer@@V?$allocator@PAVCIOCPBuffer@@@std@@@std@@QAE?AV?$_List_iterator@V?$_List_val@U?$_List_simple_types@PAVCIOCPBuffer@@@std@@@std@@@2@XZ 10010bc8     IOCPS.obj
 0002:00001bc8       __ehfuncinfo$?clear@?$list@PAVCIOCPBuffer@@V?$allocator@PAVCIOCPBuffer@@@std@@@std@@QAEXXZ 10010bc8     IOCPS.obj
 0002:00001bc8       __ehfuncinfo$??1?$_Tree@V?$_Tmap_traits@IPAVCIOCPBuffer@@U?$less@I@std@@V?$allocator@U?$pair@$$CBIPAVCIOCPBuffer@@@std@@@3@$0A@@std@@@std@@QAE@XZ 10010bc8     IOCPS.obj
 0002:00001bc8       __ehfuncinfo$?begin@?$_Tree@V?$_Tmap_traits@IPAVCIOCPBuffer@@U?$less@I@std@@V?$allocator@U?$pair@$$CBIPAVCIOCPBuffer@@@std@@@3@$0A@@std@@@std@@QAE?AV?$_Tree_iterator@V?$_Tree_val@U?$_Tree_simple_types@U?$pair@$$CBIPAVCIOCPBuffer@@@std@@@std@@@std@@@2@XZ 10010bc8     IOCPS.obj
 0002:00001bc8       __ehfuncinfo$?end@?$_Tree@V?$_Tmap_traits@IPAVCIOCPBuffer@@U?$less@I@std@@V?$allocator@U?$pair@$$CBIPAVCIOCPBuffer@@@std@@@3@$0A@@std@@@std@@QAE?AV?$_Tree_iterator@V?$_Tree_val@U?$_Tree_simple_types@U?$pair@$$CBIPAVCIOCPBuffer@@@std@@@std@@@std@@@2@XZ 10010bc8     IOCPS.obj
 0002:00001bc8       __ehfuncinfo$?clear@?$_Tree@V?$_Tmap_traits@IPAVCIOCPBuffer@@U?$less@I@std@@V?$allocator@U?$pair@$$CBIPAVCIOCPBuffer@@@std@@@3@$0A@@std@@@std@@QAEXXZ 10010bc8     IOCPS.obj
 0002:00001bc8       __ehfuncinfo$??1?$list@PAXV?$allocator@PAX@std@@@std@@QAE@XZ 10010bc8     IOCPS.obj
 0002:00001bc8       __ehfuncinfo$?begin@?$list@PAXV?$allocator@PAX@std@@@std@@QAE?AV?$_List_iterator@V?$_List_val@U?$_List_simple_types@PAX@std@@@std@@@2@XZ 10010bc8     IOCPS.obj
 0002:00001bc8       __ehfuncinfo$?end@?$list@PAXV?$allocator@PAX@std@@@std@@QAE?AV?$_List_iterator@V?$_List_val@U?$_List_simple_types@PAX@std@@@std@@@2@XZ 10010bc8     IOCPS.obj
 0002:00001bc8       __ehfuncinfo$?clear@?$list@PAXV?$allocator@PAX@std@@@std@@QAEXXZ 10010bc8     IOCPS.obj
 0002:00001bc8       __ehfuncinfo$??1?$list@PAUClientContext@@V?$allocator@PAUClientContext@@@std@@@std@@QAE@XZ 10010bc8     IOCPS.obj
 0002:00001bc8       __ehfuncinfo$?begin@?$list@PAUClientContext@@V?$allocator@PAUClientContext@@@std@@@std@@QAE?AV?$_List_iterator@V?$_List_val@U?$_List_simple_types@PAUClientContext@@@std@@@std@@@2@XZ 10010bc8     IOCPS.obj
 0002:00001bc8       __ehfuncinfo$?end@?$list@PAUClientContext@@V?$allocator@PAUClientContext@@@std@@@std@@QAE?AV?$_List_iterator@V?$_List_val@U?$_List_simple_types@PAUClientContext@@@std@@@std@@@2@XZ 10010bc8     IOCPS.obj
 0002:00001bc8       __ehfuncinfo$?clear@?$list@PAUClientContext@@V?$allocator@PAUClientContext@@@std@@@std@@QAEXXZ 10010bc8     IOCPS.obj
 0002:00001bc8       __ehfuncinfo$??1?$list@PAUJobItem@@V?$allocator@PAUJobItem@@@std@@@std@@QAE@XZ 10010bc8     IOCPS.obj
 0002:00001bc8       __ehfuncinfo$?begin@?$list@PAUJobItem@@V?$allocator@PAUJobItem@@@std@@@std@@QAE?AV?$_List_iterator@V?$_List_val@U?$_List_simple_types@PAUJobItem@@@std@@@std@@@2@XZ 10010bc8     IOCPS.obj
 0002:00001bc8       __ehfuncinfo$?end@?$list@PAUJobItem@@V?$allocator@PAUJobItem@@@std@@@std@@QAE?AV?$_List_iterator@V?$_List_val@U?$_List_simple_types@PAUJobItem@@@std@@@std@@@2@XZ 10010bc8     IOCPS.obj
 0002:00001bc8       __ehfuncinfo$?clear@?$list@PAUJobItem@@V?$allocator@PAUJobItem@@@std@@@std@@QAEXXZ 10010bc8     IOCPS.obj
 0002:00001bc8       __ehfuncinfo$?clear@?$_Tree@V?$_Tmap_traits@IPAUClientContext@@U?$less@I@std@@V?$allocator@U?$pair@$$CBIPAUClientContext@@@std@@@3@$0A@@std@@@std@@QAEXXZ 10010bc8     IOCPS.obj
 0002:00001bc8       __ehfuncinfo$?begin@?$_Tree@V?$_Tmap_traits@GPAXU?$less@G@std@@V?$allocator@U?$pair@$$CBGPAX@std@@@2@$0A@@std@@@std@@QAE?AV?$_Tree_iterator@V?$_Tree_val@U?$_Tree_simple_types@U?$pair@$$CBGPAX@std@@@std@@@std@@@2@XZ 10010bc8     IOCPS.obj
 0002:00001bc8       __ehfuncinfo$?end@?$_Tree@V?$_Tmap_traits@GPAXU?$less@G@std@@V?$allocator@U?$pair@$$CBGPAX@std@@@2@$0A@@std@@@std@@QAE?AV?$_Tree_iterator@V?$_Tree_val@U?$_Tree_simple_types@U?$pair@$$CBGPAX@std@@@std@@@std@@@2@XZ 10010bc8     IOCPS.obj
 0002:00001bc8       __ehfuncinfo$?clear@?$_Tree@V?$_Tmap_traits@GPAXU?$less@G@std@@V?$allocator@U?$pair@$$CBGPAX@std@@@2@$0A@@std@@@std@@QAEXXZ 10010bc8     IOCPS.obj
 0002:00001bc8       __ehfuncinfo$??1?$_Tree@V?$_Tmap_traits@IPAUClientContext@@U?$less@I@std@@V?$allocator@U?$pair@$$CBIPAUClientContext@@@std@@@3@$0A@@std@@@std@@QAE@XZ 10010bc8     IOCPS.obj
 0002:00001bc8       __ehfuncinfo$?begin@?$_Tree@V?$_Tmap_traits@IPAUClientContext@@U?$less@I@std@@V?$allocator@U?$pair@$$CBIPAUClientContext@@@std@@@3@$0A@@std@@@std@@QAE?AV?$_Tree_iterator@V?$_Tree_val@U?$_Tree_simple_types@U?$pair@$$CBIPAUClientContext@@@std@@@std@@@std@@@2@XZ 10010bc8     IOCPS.obj
 0002:00001bc8       __ehfuncinfo$?end@?$_Tree@V?$_Tmap_traits@IPAUClientContext@@U?$less@I@std@@V?$allocator@U?$pair@$$CBIPAUClientContext@@@std@@@3@$0A@@std@@@std@@QAE?AV?$_Tree_iterator@V?$_Tree_val@U?$_Tree_simple_types@U?$pair@$$CBIPAUClientContext@@@std@@@std@@@std@@@2@XZ 10010bc8     IOCPS.obj
 0002:00001bec       __ehfuncinfo$?_Copy@?$basic_string@DU?$char_traits@D@std@@V?$allocator@D@2@@std@@QAEXII@Z 10010bec     IOCPBuffer.obj
 0002:00001c10       __unwindtable$?_Copy@?$basic_string@DU?$char_traits@D@std@@V?$allocator@D@2@@std@@QAEXII@Z 10010c10     IOCPBuffer.obj
 0002:00001c30       __tryblocktable$?_Copy@?$basic_string@DU?$char_traits@D@std@@V?$allocator@D@2@@std@@QAEXII@Z 10010c30     IOCPBuffer.obj
 0002:00001c58       __catchsym$?_Copy@?$basic_string@DU?$char_traits@D@std@@V?$allocator@D@2@@std@@QAEXII@Z$4 10010c58     IOCPBuffer.obj
 0002:00001c68       __catchsym$?_Copy@?$basic_string@DU?$char_traits@D@std@@V?$allocator@D@2@@std@@QAEXII@Z$5 10010c68     IOCPBuffer.obj
 0002:00001c78       __ehfuncinfo$??0IOCPS@@QAE@XZ 10010c78     IOCPS.obj
 0002:00001ca0       __unwindtable$??0IOCPS@@QAE@XZ 10010ca0     IOCPS.obj
 0002:00001ce8       __ehfuncinfo$?FreeClientContext@IOCPS@@AAEXXZ 10010ce8     IOCPS.obj
 0002:00001ce8       __ehfuncinfo$?ListnerThreadProc@IOCPS@@CGIPAX@Z 10010ce8     IOCPS.obj
 0002:00001d0c       __unwindtable$?FreeClientContext@IOCPS@@AAEXXZ 10010d0c     IOCPS.obj
 0002:00001d0c       __unwindtable$?ListnerThreadProc@IOCPS@@CGIPAX@Z 10010d0c     IOCPS.obj
 0002:00001d14       __ehfuncinfo$?AssociateIncomingClientWithContext@IOCPS@@AAEHI@Z 10010d14     IOCPS.obj
 0002:00001d38       __unwindtable$?AssociateIncomingClientWithContext@IOCPS@@AAEHI@Z 10010d38     IOCPS.obj
 0002:00001d58       __ehfuncinfo$?OnZeroByteRead@IOCPS@@AAEXPAUClientContext@@PAVCIOCPBuffer@@@Z 10010d58     IOCPS.obj
 0002:00001d58       __ehfuncinfo$?OnRead@IOCPS@@AAEXPAUClientContext@@PAVCIOCPBuffer@@@Z 10010d58     IOCPS.obj
 0002:00001d7c       __unwindtable$?OnRead@IOCPS@@AAEXPAUClientContext@@PAVCIOCPBuffer@@@Z 10010d7c     IOCPS.obj
 0002:00001d7c       __unwindtable$?OnZeroByteRead@IOCPS@@AAEXPAUClientContext@@PAVCIOCPBuffer@@@Z 10010d7c     IOCPS.obj
 0002:00001d8c       __ehfuncinfo$?NotifyNewConnection@ITIOCP@@UAEXPAUClientContext@@@Z 10010d8c     MyIOCP.obj
 0002:00001d8c       __ehfuncinfo$?NotifyDisconnectedClient@ITIOCP@@UAEXPAUClientContext@@@Z 10010d8c     MyIOCP.obj
 0002:00001d8c       __ehfuncinfo$?OnReadCompleted@IOCPS@@AAEXPAUClientContext@@KPAVCIOCPBuffer@@@Z 10010d8c     IOCPS.obj
 0002:00001db0       __unwindtable$?NotifyDisconnectedClient@ITIOCP@@UAEXPAUClientContext@@@Z 10010db0     MyIOCP.obj
 0002:00001db0       __unwindtable$?OnReadCompleted@IOCPS@@AAEXPAUClientContext@@KPAVCIOCPBuffer@@@Z 10010db0     IOCPS.obj
 0002:00001db0       __unwindtable$?NotifyNewConnection@ITIOCP@@UAEXPAUClientContext@@@Z 10010db0     MyIOCP.obj
 0002:00001db8       __ehfuncinfo$?OnWrite@IOCPS@@AAEXPAUClientContext@@KPAVCIOCPBuffer@@@Z 10010db8     IOCPS.obj
 0002:00001db8       __ehfuncinfo$?MakeOrderdRead@IOCPS@@AAEXPAUClientContext@@PAVCIOCPBuffer@@@Z 10010db8     IOCPS.obj
 0002:00001ddc       __unwindtable$?OnWrite@IOCPS@@AAEXPAUClientContext@@KPAVCIOCPBuffer@@@Z 10010ddc     IOCPS.obj
 0002:00001ddc       __unwindtable$?MakeOrderdRead@IOCPS@@AAEXPAUClientContext@@PAVCIOCPBuffer@@@Z 10010ddc     IOCPS.obj
 0002:00001de4       __ehfuncinfo$?GetHostKeyName@IOCPS@@QAE?AV?$basic_string@DU?$char_traits@D@std@@V?$allocator@D@2@@std@@I@Z 10010de4     IOCPS.obj
 0002:00001e08       __unwindtable$?GetHostKeyName@IOCPS@@QAE?AV?$basic_string@DU?$char_traits@D@std@@V?$allocator@D@2@@std@@I@Z 10010e08     IOCPS.obj
 0002:00001e10       __ehfuncinfo$?GetHostAddress@IOCPS@@QAE?AV?$basic_string@DU?$char_traits@D@std@@V?$allocator@D@2@@std@@I@Z 10010e10     IOCPS.obj
 0002:00001e34       __unwindtable$?GetHostAddress@IOCPS@@QAE?AV?$basic_string@DU?$char_traits@D@std@@V?$allocator@D@2@@std@@I@Z 10010e34     IOCPS.obj
 0002:00001e3c       __ehfuncinfo$?ShutDown@IOCPS@@UAEXXZ 10010e3c     IOCPS.obj
 0002:00001e60       __unwindtable$?ShutDown@IOCPS@@UAEXXZ 10010e60     IOCPS.obj
 0002:00001e68       __ehfuncinfo$?AZeroByteRead@IOCPS@@AAEHPAUClientContext@@PAVCIOCPBuffer@@@Z 10010e68     IOCPS.obj
 0002:00001e68       __ehfuncinfo$?ErrorCode2Text@IOCPS@@IAE?AV?$basic_string@DU?$char_traits@D@std@@V?$allocator@D@2@@std@@K@Z 10010e68     IOCPS.obj
 0002:00001e8c       __unwindtable$?ErrorCode2Text@IOCPS@@IAE?AV?$basic_string@DU?$char_traits@D@std@@V?$allocator@D@2@@std@@K@Z 10010e8c     IOCPS.obj
 0002:00001e8c       __unwindtable$?AZeroByteRead@IOCPS@@AAEHPAUClientContext@@PAVCIOCPBuffer@@@Z 10010e8c     IOCPS.obj
 0002:00001e94       __ehfuncinfo$?AllocateContext@IOCPS@@AAEPAUClientContext@@XZ 10010e94     IOCPS.obj
 0002:00001eb8       __unwindtable$?AllocateContext@IOCPS@@AAEPAUClientContext@@XZ 10010eb8     IOCPS.obj
 0002:00001ec0       __ehfuncinfo$??0ClientContext@@QAE@XZ 10010ec0     IOCPS.obj
 0002:00001ee4       __unwindtable$??0ClientContext@@QAE@XZ 10010ee4     IOCPS.obj
 0002:00001eec       __ehfuncinfo$?AllocateBuffer@IOCPS@@IAEPAVCIOCPBuffer@@H@Z 10010eec     IOCPS.obj
 0002:00001f10       __unwindtable$?AllocateBuffer@IOCPS@@IAEPAVCIOCPBuffer@@H@Z 10010f10     IOCPS.obj
 0002:00001f20       __ehfuncinfo$?SetupListner@IOCPS@@AAEHXZ 10010f20     IOCPS.obj
 0002:00001f44       __unwindtable$?SetupListner@IOCPS@@AAEHXZ 10010f44     IOCPS.obj
 0002:00001f74       __ehfuncinfo$?CreateCompletionPort@IOCPS@@AAEHXZ 10010f74     IOCPS.obj
 0002:00001f98       __unwindtable$?CreateCompletionPort@IOCPS@@AAEHXZ 10010f98     IOCPS.obj
 0002:00001fa8       __ehfuncinfo$?SetupIOWorkers@IOCPS@@AAEHXZ 10010fa8     IOCPS.obj
 0002:00001fcc       __unwindtable$?SetupIOWorkers@IOCPS@@AAEHXZ 10010fcc     IOCPS.obj
 0002:00001fd4       __ehfuncinfo$?Connect@IOCPS@@UAEHABV?$basic_string@DU?$char_traits@D@std@@V?$allocator@D@2@@std@@H@Z 10010fd4     IOCPS.obj
 0002:00001ff8       __unwindtable$?Connect@IOCPS@@UAEHABV?$basic_string@DU?$char_traits@D@std@@V?$allocator@D@2@@std@@H@Z 10010ff8     IOCPS.obj
 0002:00002000       __ehfuncinfo$??0?$basic_string@DU?$char_traits@D@std@@V?$allocator@D@2@@std@@QAE@PBD@Z 10011000     IOCPS.obj
 0002:00002024       __unwindtable$??0?$basic_string@DU?$char_traits@D@std@@V?$allocator@D@2@@std@@QAE@PBD@Z 10011024     IOCPS.obj
 0002:0000202c       __ehfuncinfo$?_Buyheadnode@?$_Tree_comp_alloc@V?$_Tmap_traits@GPAXU?$less@G@std@@V?$allocator@U?$pair@$$CBGPAX@std@@@2@$0A@@std@@@std@@QAEPAU?$_Tree_node@U?$pair@$$CBGPAX@std@@PAX@2@XZ 1001102c     IOCPS.obj
 0002:0000202c       __ehfuncinfo$?_Buyheadnode@?$_Tree_comp_alloc@V?$_Tmap_traits@IPAVCIOCPBuffer@@U?$less@I@std@@V?$allocator@U?$pair@$$CBIPAVCIOCPBuffer@@@std@@@3@$0A@@std@@@std@@QAEPAU?$_Tree_node@U?$pair@$$CBIPAVCIOCPBuffer@@@std@@PAX@2@XZ 1001102c     IOCPS.obj
 0002:0000202c       __ehfuncinfo$?_Buyheadnode@?$_Tree_comp_alloc@V?$_Tmap_traits@IPAUClientContext@@U?$less@I@std@@V?$allocator@U?$pair@$$CBIPAUClientContext@@@std@@@3@$0A@@std@@@std@@QAEPAU?$_Tree_node@U?$pair@$$CBIPAUClientContext@@@std@@PAX@2@XZ 1001102c     IOCPS.obj
 0002:00002050       __unwindtable$?_Buyheadnode@?$_Tree_comp_alloc@V?$_Tmap_traits@IPAUClientContext@@U?$less@I@std@@V?$allocator@U?$pair@$$CBIPAUClientContext@@@std@@@3@$0A@@std@@@std@@QAEPAU?$_Tree_node@U?$pair@$$CBIPAUClientContext@@@std@@PAX@2@XZ 10011050     IOCPS.obj
 0002:00002050       __unwindtable$?_Buyheadnode@?$_Tree_comp_alloc@V?$_Tmap_traits@IPAVCIOCPBuffer@@U?$less@I@std@@V?$allocator@U?$pair@$$CBIPAVCIOCPBuffer@@@std@@@3@$0A@@std@@@std@@QAEPAU?$_Tree_node@U?$pair@$$CBIPAVCIOCPBuffer@@@std@@PAX@2@XZ 10011050     IOCPS.obj
 0002:00002050       __unwindtable$?_Buyheadnode@?$_Tree_comp_alloc@V?$_Tmap_traits@GPAXU?$less@G@std@@V?$allocator@U?$pair@$$CBGPAX@std@@@2@$0A@@std@@@std@@QAEPAU?$_Tree_node@U?$pair@$$CBGPAX@std@@PAX@2@XZ 10011050     IOCPS.obj
 0002:00002060       __tryblocktable$?_Buyheadnode@?$_Tree_comp_alloc@V?$_Tmap_traits@IPAUClientContext@@U?$less@I@std@@V?$allocator@U?$pair@$$CBIPAUClientContext@@@std@@@3@$0A@@std@@@std@@QAEPAU?$_Tree_node@U?$pair@$$CBIPAUClientContext@@@std@@PAX@2@XZ 10011060     IOCPS.obj
 0002:00002060       __tryblocktable$?_Buyheadnode@?$_Tree_comp_alloc@V?$_Tmap_traits@IPAVCIOCPBuffer@@U?$less@I@std@@V?$allocator@U?$pair@$$CBIPAVCIOCPBuffer@@@std@@@3@$0A@@std@@@std@@QAEPAU?$_Tree_node@U?$pair@$$CBIPAVCIOCPBuffer@@@std@@PAX@2@XZ 10011060     IOCPS.obj
 0002:00002060       __tryblocktable$?_Buyheadnode@?$_Tree_comp_alloc@V?$_Tmap_traits@GPAXU?$less@G@std@@V?$allocator@U?$pair@$$CBGPAX@std@@@2@$0A@@std@@@std@@QAEPAU?$_Tree_node@U?$pair@$$CBGPAX@std@@PAX@2@XZ 10011060     IOCPS.obj
 0002:00002074       __catchsym$?_Buyheadnode@?$_Tree_comp_alloc@V?$_Tmap_traits@GPAXU?$less@G@std@@V?$allocator@U?$pair@$$CBGPAX@std@@@2@$0A@@std@@@std@@QAEPAU?$_Tree_node@U?$pair@$$CBGPAX@std@@PAX@2@XZ$2 10011074     IOCPS.obj
 0002:00002074       __catchsym$?_Buyheadnode@?$_Tree_comp_alloc@V?$_Tmap_traits@IPAUClientContext@@U?$less@I@std@@V?$allocator@U?$pair@$$CBIPAUClientContext@@@std@@@3@$0A@@std@@@std@@QAEPAU?$_Tree_node@U?$pair@$$CBIPAUClientContext@@@std@@PAX@2@XZ$2 10011074     IOCPS.obj
 0002:00002074       __catchsym$?_Buyheadnode@?$_Tree_comp_alloc@V?$_Tmap_traits@IPAVCIOCPBuffer@@U?$less@I@std@@V?$allocator@U?$pair@$$CBIPAVCIOCPBuffer@@@std@@@3@$0A@@std@@@std@@QAEPAU?$_Tree_node@U?$pair@$$CBIPAVCIOCPBuffer@@@std@@PAX@2@XZ$2 10011074     IOCPS.obj
 0002:00002084       __ehfuncinfo$?_Buynode0@?$_List_alloc@U?$_List_base_types@PAVCIOCPBuffer@@V?$allocator@PAVCIOCPBuffer@@@std@@@std@@@std@@QAEPAU?$_List_node@PAVCIOCPBuffer@@PAX@2@PAU32@0@Z 10011084     IOCPS.obj
 0002:00002084       __ehfuncinfo$?_Buynode0@?$_List_alloc@U?$_List_base_types@PAXV?$allocator@PAX@std@@@std@@@std@@QAEPAU?$_List_node@PAXPAX@2@PAU32@0@Z 10011084     IOCPS.obj
 0002:00002084       __ehfuncinfo$?_Buynode0@?$_List_alloc@U?$_List_base_types@PAUClientContext@@V?$allocator@PAUClientContext@@@std@@@std@@@std@@QAEPAU?$_List_node@PAUClientContext@@PAX@2@PAU32@0@Z 10011084     IOCPS.obj
 0002:00002084       __ehfuncinfo$?_Buynode0@?$_List_alloc@U?$_List_base_types@PAUJobItem@@V?$allocator@PAUJobItem@@@std@@@std@@@std@@QAEPAU?$_List_node@PAUJobItem@@PAX@2@PAU32@0@Z 10011084     IOCPS.obj
 0002:000020a8       __unwindtable$?_Buynode0@?$_List_alloc@U?$_List_base_types@PAXV?$allocator@PAX@std@@@std@@@std@@QAEPAU?$_List_node@PAXPAX@2@PAU32@0@Z 100110a8     IOCPS.obj
 0002:000020a8       __unwindtable$?_Buynode0@?$_List_alloc@U?$_List_base_types@PAUJobItem@@V?$allocator@PAUJobItem@@@std@@@std@@@std@@QAEPAU?$_List_node@PAUJobItem@@PAX@2@PAU32@0@Z 100110a8     IOCPS.obj
 0002:000020a8       __unwindtable$?_Buynode0@?$_List_alloc@U?$_List_base_types@PAUClientContext@@V?$allocator@PAUClientContext@@@std@@@std@@@std@@QAEPAU?$_List_node@PAUClientContext@@PAX@2@PAU32@0@Z 100110a8     IOCPS.obj
 0002:000020a8       __unwindtable$?_Buynode0@?$_List_alloc@U?$_List_base_types@PAVCIOCPBuffer@@V?$allocator@PAVCIOCPBuffer@@@std@@@std@@@std@@QAEPAU?$_List_node@PAVCIOCPBuffer@@PAX@2@PAU32@0@Z 100110a8     IOCPS.obj
 0002:000020b8       __tryblocktable$?_Buynode0@?$_List_alloc@U?$_List_base_types@PAUClientContext@@V?$allocator@PAUClientContext@@@std@@@std@@@std@@QAEPAU?$_List_node@PAUClientContext@@PAX@2@PAU32@0@Z 100110b8     IOCPS.obj
 0002:000020b8       __tryblocktable$?_Buynode0@?$_List_alloc@U?$_List_base_types@PAXV?$allocator@PAX@std@@@std@@@std@@QAEPAU?$_List_node@PAXPAX@2@PAU32@0@Z 100110b8     IOCPS.obj
 0002:000020b8       __tryblocktable$?_Buynode0@?$_List_alloc@U?$_List_base_types@PAVCIOCPBuffer@@V?$allocator@PAVCIOCPBuffer@@@std@@@std@@@std@@QAEPAU?$_List_node@PAVCIOCPBuffer@@PAX@2@PAU32@0@Z 100110b8     IOCPS.obj
 0002:000020b8       __tryblocktable$?_Buynode0@?$_List_alloc@U?$_List_base_types@PAUJobItem@@V?$allocator@PAUJobItem@@@std@@@std@@@std@@QAEPAU?$_List_node@PAUJobItem@@PAX@2@PAU32@0@Z 100110b8     IOCPS.obj
 0002:000020cc       __catchsym$?_Buynode0@?$_List_alloc@U?$_List_base_types@PAXV?$allocator@PAX@std@@@std@@@std@@QAEPAU?$_List_node@PAXPAX@2@PAU32@0@Z$2 100110cc     IOCPS.obj
 0002:000020cc       __catchsym$?_Buynode0@?$_List_alloc@U?$_List_base_types@PAVCIOCPBuffer@@V?$allocator@PAVCIOCPBuffer@@@std@@@std@@@std@@QAEPAU?$_List_node@PAVCIOCPBuffer@@PAX@2@PAU32@0@Z$2 100110cc     IOCPS.obj
 0002:000020cc       __catchsym$?_Buynode0@?$_List_alloc@U?$_List_base_types@PAUJobItem@@V?$allocator@PAUJobItem@@@std@@@std@@@std@@QAEPAU?$_List_node@PAUJobItem@@PAX@2@PAU32@0@Z$2 100110cc     IOCPS.obj
 0002:000020cc       __catchsym$?_Buynode0@?$_List_alloc@U?$_List_base_types@PAUClientContext@@V?$allocator@PAUClientContext@@@std@@@std@@@std@@QAEPAU?$_List_node@PAUClientContext@@PAX@2@PAU32@0@Z$2 100110cc     IOCPS.obj
 0002:000020dc       __ehfuncinfo$??$_Buynode@ABQAX@?$_List_buy@PAXV?$allocator@PAX@std@@@std@@QAEPAU?$_List_node@PAXPAX@1@PAU21@0ABQAX@Z 100110dc     IOCPS.obj
 0002:000020dc       __ehfuncinfo$??$_Buynode@ABQAUClientContext@@@?$_List_buy@PAUClientContext@@V?$allocator@PAUClientContext@@@std@@@std@@QAEPAU?$_List_node@PAUClientContext@@PAX@1@PAU21@0ABQAUClientContext@@@Z 100110dc     IOCPS.obj
 0002:000020dc       __ehfuncinfo$??$_Buynode@ABQAVCIOCPBuffer@@@?$_List_buy@PAVCIOCPBuffer@@V?$allocator@PAVCIOCPBuffer@@@std@@@std@@QAEPAU?$_List_node@PAVCIOCPBuffer@@PAX@1@PAU21@0ABQAVCIOCPBuffer@@@Z 100110dc     IOCPS.obj
 0002:00002100       __unwindtable$??$_Buynode@ABQAVCIOCPBuffer@@@?$_List_buy@PAVCIOCPBuffer@@V?$allocator@PAVCIOCPBuffer@@@std@@@std@@QAEPAU?$_List_node@PAVCIOCPBuffer@@PAX@1@PAU21@0ABQAVCIOCPBuffer@@@Z 10011100     IOCPS.obj
 0002:00002100       __unwindtable$??$_Buynode@ABQAUClientContext@@@?$_List_buy@PAUClientContext@@V?$allocator@PAUClientContext@@@std@@@std@@QAEPAU?$_List_node@PAUClientContext@@PAX@1@PAU21@0ABQAUClientContext@@@Z 10011100     IOCPS.obj
 0002:00002100       __unwindtable$??$_Buynode@ABQAX@?$_List_buy@PAXV?$allocator@PAX@std@@@std@@QAEPAU?$_List_node@PAXPAX@1@PAU21@0ABQAX@Z 10011100     IOCPS.obj
 0002:00002110       __tryblocktable$??$_Buynode@ABQAUClientContext@@@?$_List_buy@PAUClientContext@@V?$allocator@PAUClientContext@@@std@@@std@@QAEPAU?$_List_node@PAUClientContext@@PAX@1@PAU21@0ABQAUClientContext@@@Z 10011110     IOCPS.obj
 0002:00002110       __tryblocktable$??$_Buynode@ABQAVCIOCPBuffer@@@?$_List_buy@PAVCIOCPBuffer@@V?$allocator@PAVCIOCPBuffer@@@std@@@std@@QAEPAU?$_List_node@PAVCIOCPBuffer@@PAX@1@PAU21@0ABQAVCIOCPBuffer@@@Z 10011110     IOCPS.obj
 0002:00002110       __tryblocktable$??$_Buynode@ABQAX@?$_List_buy@PAXV?$allocator@PAX@std@@@std@@QAEPAU?$_List_node@PAXPAX@1@PAU21@0ABQAX@Z 10011110     IOCPS.obj
 0002:00002124       __catchsym$??$_Buynode@ABQAUClientContext@@@?$_List_buy@PAUClientContext@@V?$allocator@PAUClientContext@@@std@@@std@@QAEPAU?$_List_node@PAUClientContext@@PAX@1@PAU21@0ABQAUClientContext@@@Z$2 10011124     IOCPS.obj
 0002:00002124       __catchsym$??$_Buynode@ABQAVCIOCPBuffer@@@?$_List_buy@PAVCIOCPBuffer@@V?$allocator@PAVCIOCPBuffer@@@std@@@std@@QAEPAU?$_List_node@PAVCIOCPBuffer@@PAX@1@PAU21@0ABQAVCIOCPBuffer@@@Z$2 10011124     IOCPS.obj
 0002:00002124       __catchsym$??$_Buynode@ABQAX@?$_List_buy@PAXV?$allocator@PAX@std@@@std@@QAEPAU?$_List_node@PAXPAX@1@PAU21@0ABQAX@Z$2 10011124     IOCPS.obj
 0002:00002134       __ehfuncinfo$??$_Buynode@U?$pair@GPAX@std@@@?$_Tree_comp_alloc@V?$_Tmap_traits@GPAXU?$less@G@std@@V?$allocator@U?$pair@$$CBGPAX@std@@@2@$0A@@std@@@std@@QAEPAU?$_Tree_node@U?$pair@$$CBGPAX@std@@PAX@1@$$QAU?$pair@GPAX@1@@Z 10011134     IOCPS.obj
 0002:00002158       __unwindtable$??$_Buynode@U?$pair@GPAX@std@@@?$_Tree_comp_alloc@V?$_Tmap_traits@GPAXU?$less@G@std@@V?$allocator@U?$pair@$$CBGPAX@std@@@2@$0A@@std@@@std@@QAEPAU?$_Tree_node@U?$pair@$$CBGPAX@std@@PAX@1@$$QAU?$pair@GPAX@1@@Z 10011158     IOCPS.obj
 0002:00002168       __tryblocktable$??$_Buynode@U?$pair@GPAX@std@@@?$_Tree_comp_alloc@V?$_Tmap_traits@GPAXU?$less@G@std@@V?$allocator@U?$pair@$$CBGPAX@std@@@2@$0A@@std@@@std@@QAEPAU?$_Tree_node@U?$pair@$$CBGPAX@std@@PAX@1@$$QAU?$pair@GPAX@1@@Z 10011168     IOCPS.obj
 0002:0000217c       __catchsym$??$_Buynode@U?$pair@GPAX@std@@@?$_Tree_comp_alloc@V?$_Tmap_traits@GPAXU?$less@G@std@@V?$allocator@U?$pair@$$CBGPAX@std@@@2@$0A@@std@@@std@@QAEPAU?$_Tree_node@U?$pair@$$CBGPAX@std@@PAX@1@$$QAU?$pair@GPAX@1@@Z$2 1001117c     IOCPS.obj
 0002:0000218c       __ehfuncinfo$??$_Insert_nohint@AAU?$pair@$$CBGPAX@std@@PAU?$_Tree_node@U?$pair@$$CBGPAX@std@@PAX@2@@?$_Tree@V?$_Tmap_traits@GPAXU?$less@G@std@@V?$allocator@U?$pair@$$CBGPAX@std@@@2@$0A@@std@@@std@@IAE?AU?$pair@V?$_Tree_iterator@V?$_Tree_val@U?$_Tree_simple_types@U?$pair@$$CBGPAX@std@@@std@@@std@@@std@@_N@1@_NAAU?$pair@$$CBGPAX@1@PAU?$_Tree_node@U?$pair@$$CBGPAX@std@@PAX@1@@Z 1001118c     IOCPS.obj
 0002:000021b0       __unwindtable$??$_Insert_nohint@AAU?$pair@$$CBGPAX@std@@PAU?$_Tree_node@U?$pair@$$CBGPAX@std@@PAX@2@@?$_Tree@V?$_Tmap_traits@GPAXU?$less@G@std@@V?$allocator@U?$pair@$$CBGPAX@std@@@2@$0A@@std@@@std@@IAE?AU?$pair@V?$_Tree_iterator@V?$_Tree_val@U?$_Tree_simple_types@U?$pair@$$CBGPAX@std@@@std@@@std@@@std@@_N@1@_NAAU?$pair@$$CBGPAX@1@PAU?$_Tree_node@U?$pair@$$CBGPAX@std@@PAX@1@@Z 100111b0     IOCPS.obj
 0002:000021c0       __tryblocktable$??$_Insert_nohint@AAU?$pair@$$CBGPAX@std@@PAU?$_Tree_node@U?$pair@$$CBGPAX@std@@PAX@2@@?$_Tree@V?$_Tmap_traits@GPAXU?$less@G@std@@V?$allocator@U?$pair@$$CBGPAX@std@@@2@$0A@@std@@@std@@IAE?AU?$pair@V?$_Tree_iterator@V?$_Tree_val@U?$_Tree_simple_types@U?$pair@$$CBGPAX@std@@@std@@@std@@@std@@_N@1@_NAAU?$pair@$$CBGPAX@1@PAU?$_Tree_node@U?$pair@$$CBGPAX@std@@PAX@1@@Z 100111c0     IOCPS.obj
 0002:000021d4       __catchsym$??$_Insert_nohint@AAU?$pair@$$CBGPAX@std@@PAU?$_Tree_node@U?$pair@$$CBGPAX@std@@PAX@2@@?$_Tree@V?$_Tmap_traits@GPAXU?$less@G@std@@V?$allocator@U?$pair@$$CBGPAX@std@@@2@$0A@@std@@@std@@IAE?AU?$pair@V?$_Tree_iterator@V?$_Tree_val@U?$_Tree_simple_types@U?$pair@$$CBGPAX@std@@@std@@@std@@@std@@_N@1@_NAAU?$pair@$$CBGPAX@1@PAU?$_Tree_node@U?$pair@$$CBGPAX@std@@PAX@1@@Z$2 100111d4     IOCPS.obj
 0002:000021e4       __ehfuncinfo$??$_Buynode@U?$pair@IPAVCIOCPBuffer@@@std@@@?$_Tree_comp_alloc@V?$_Tmap_traits@IPAVCIOCPBuffer@@U?$less@I@std@@V?$allocator@U?$pair@$$CBIPAVCIOCPBuffer@@@std@@@3@$0A@@std@@@std@@QAEPAU?$_Tree_node@U?$pair@$$CBIPAVCIOCPBuffer@@@std@@PAX@1@$$QAU?$pair@IPAVCIOCPBuffer@@@1@@Z 100111e4     IOCPS.obj
 0002:00002208       __unwindtable$??$_Buynode@U?$pair@IPAVCIOCPBuffer@@@std@@@?$_Tree_comp_alloc@V?$_Tmap_traits@IPAVCIOCPBuffer@@U?$less@I@std@@V?$allocator@U?$pair@$$CBIPAVCIOCPBuffer@@@std@@@3@$0A@@std@@@std@@QAEPAU?$_Tree_node@U?$pair@$$CBIPAVCIOCPBuffer@@@std@@PAX@1@$$QAU?$pair@IPAVCIOCPBuffer@@@1@@Z 10011208     IOCPS.obj
 0002:00002218       __tryblocktable$??$_Buynode@U?$pair@IPAVCIOCPBuffer@@@std@@@?$_Tree_comp_alloc@V?$_Tmap_traits@IPAVCIOCPBuffer@@U?$less@I@std@@V?$allocator@U?$pair@$$CBIPAVCIOCPBuffer@@@std@@@3@$0A@@std@@@std@@QAEPAU?$_Tree_node@U?$pair@$$CBIPAVCIOCPBuffer@@@std@@PAX@1@$$QAU?$pair@IPAVCIOCPBuffer@@@1@@Z 10011218     IOCPS.obj
 0002:0000222c       __catchsym$??$_Buynode@U?$pair@IPAVCIOCPBuffer@@@std@@@?$_Tree_comp_alloc@V?$_Tmap_traits@IPAVCIOCPBuffer@@U?$less@I@std@@V?$allocator@U?$pair@$$CBIPAVCIOCPBuffer@@@std@@@3@$0A@@std@@@std@@QAEPAU?$_Tree_node@U?$pair@$$CBIPAVCIOCPBuffer@@@std@@PAX@1@$$QAU?$pair@IPAVCIOCPBuffer@@@1@@Z$2 1001122c     IOCPS.obj
 0002:0000223c       __ehfuncinfo$??$_Insert_nohint@AAU?$pair@$$CBIPAUClientContext@@@std@@PAU?$_Tree_node@U?$pair@$$CBIPAUClientContext@@@std@@PAX@2@@?$_Tree@V?$_Tmap_traits@IPAUClientContext@@U?$less@I@std@@V?$allocator@U?$pair@$$CBIPAUClientContext@@@std@@@3@$0A@@std@@@std@@IAE?AU?$pair@V?$_Tree_iterator@V?$_Tree_val@U?$_Tree_simple_types@U?$pair@$$CBIPAUClientContext@@@std@@@std@@@std@@@std@@_N@1@_NAAU?$pair@$$CBIPAUClientContext@@@1@PAU?$_Tree_node@U?$pair@$$CBIPAUClientContext@@@std@@PAX@1@@Z 1001123c     IOCPS.obj
 0002:0000223c       __ehfuncinfo$??$_Insert_nohint@AAU?$pair@$$CBIPAVCIOCPBuffer@@@std@@PAU?$_Tree_node@U?$pair@$$CBIPAVCIOCPBuffer@@@std@@PAX@2@@?$_Tree@V?$_Tmap_traits@IPAVCIOCPBuffer@@U?$less@I@std@@V?$allocator@U?$pair@$$CBIPAVCIOCPBuffer@@@std@@@3@$0A@@std@@@std@@IAE?AU?$pair@V?$_Tree_iterator@V?$_Tree_val@U?$_Tree_simple_types@U?$pair@$$CBIPAVCIOCPBuffer@@@std@@@std@@@std@@@std@@_N@1@_NAAU?$pair@$$CBIPAVCIOCPBuffer@@@1@PAU?$_Tree_node@U?$pair@$$CBIPAVCIOCPBuffer@@@std@@PAX@1@@Z 1001123c     IOCPS.obj
 0002:00002260       __unwindtable$??$_Insert_nohint@AAU?$pair@$$CBIPAVCIOCPBuffer@@@std@@PAU?$_Tree_node@U?$pair@$$CBIPAVCIOCPBuffer@@@std@@PAX@2@@?$_Tree@V?$_Tmap_traits@IPAVCIOCPBuffer@@U?$less@I@std@@V?$allocator@U?$pair@$$CBIPAVCIOCPBuffer@@@std@@@3@$0A@@std@@@std@@IAE?AU?$pair@V?$_Tree_iterator@V?$_Tree_val@U?$_Tree_simple_types@U?$pair@$$CBIPAVCIOCPBuffer@@@std@@@std@@@std@@@std@@_N@1@_NAAU?$pair@$$CBIPAVCIOCPBuffer@@@1@PAU?$_Tree_node@U?$pair@$$CBIPAVCIOCPBuffer@@@std@@PAX@1@@Z 10011260     IOCPS.obj
 0002:00002260       __unwindtable$??$_Insert_nohint@AAU?$pair@$$CBIPAUClientContext@@@std@@PAU?$_Tree_node@U?$pair@$$CBIPAUClientContext@@@std@@PAX@2@@?$_Tree@V?$_Tmap_traits@IPAUClientContext@@U?$less@I@std@@V?$allocator@U?$pair@$$CBIPAUClientContext@@@std@@@3@$0A@@std@@@std@@IAE?AU?$pair@V?$_Tree_iterator@V?$_Tree_val@U?$_Tree_simple_types@U?$pair@$$CBIPAUClientContext@@@std@@@std@@@std@@@std@@_N@1@_NAAU?$pair@$$CBIPAUClientContext@@@1@PAU?$_Tree_node@U?$pair@$$CBIPAUClientContext@@@std@@PAX@1@@Z 10011260     IOCPS.obj
 0002:00002270       __tryblocktable$??$_Insert_nohint@AAU?$pair@$$CBIPAVCIOCPBuffer@@@std@@PAU?$_Tree_node@U?$pair@$$CBIPAVCIOCPBuffer@@@std@@PAX@2@@?$_Tree@V?$_Tmap_traits@IPAVCIOCPBuffer@@U?$less@I@std@@V?$allocator@U?$pair@$$CBIPAVCIOCPBuffer@@@std@@@3@$0A@@std@@@std@@IAE?AU?$pair@V?$_Tree_iterator@V?$_Tree_val@U?$_Tree_simple_types@U?$pair@$$CBIPAVCIOCPBuffer@@@std@@@std@@@std@@@std@@_N@1@_NAAU?$pair@$$CBIPAVCIOCPBuffer@@@1@PAU?$_Tree_node@U?$pair@$$CBIPAVCIOCPBuffer@@@std@@PAX@1@@Z 10011270     IOCPS.obj
 0002:00002270       __tryblocktable$??$_Insert_nohint@AAU?$pair@$$CBIPAUClientContext@@@std@@PAU?$_Tree_node@U?$pair@$$CBIPAUClientContext@@@std@@PAX@2@@?$_Tree@V?$_Tmap_traits@IPAUClientContext@@U?$less@I@std@@V?$allocator@U?$pair@$$CBIPAUClientContext@@@std@@@3@$0A@@std@@@std@@IAE?AU?$pair@V?$_Tree_iterator@V?$_Tree_val@U?$_Tree_simple_types@U?$pair@$$CBIPAUClientContext@@@std@@@std@@@std@@@std@@_N@1@_NAAU?$pair@$$CBIPAUClientContext@@@1@PAU?$_Tree_node@U?$pair@$$CBIPAUClientContext@@@std@@PAX@1@@Z 10011270     IOCPS.obj
 0002:00002284       __catchsym$??$_Insert_nohint@AAU?$pair@$$CBIPAUClientContext@@@std@@PAU?$_Tree_node@U?$pair@$$CBIPAUClientContext@@@std@@PAX@2@@?$_Tree@V?$_Tmap_traits@IPAUClientContext@@U?$less@I@std@@V?$allocator@U?$pair@$$CBIPAUClientContext@@@std@@@3@$0A@@std@@@std@@IAE?AU?$pair@V?$_Tree_iterator@V?$_Tree_val@U?$_Tree_simple_types@U?$pair@$$CBIPAUClientContext@@@std@@@std@@@std@@@std@@_N@1@_NAAU?$pair@$$CBIPAUClientContext@@@1@PAU?$_Tree_node@U?$pair@$$CBIPAUClientContext@@@std@@PAX@1@@Z$2 10011284     IOCPS.obj
 0002:00002284       __catchsym$??$_Insert_nohint@AAU?$pair@$$CBIPAVCIOCPBuffer@@@std@@PAU?$_Tree_node@U?$pair@$$CBIPAVCIOCPBuffer@@@std@@PAX@2@@?$_Tree@V?$_Tmap_traits@IPAVCIOCPBuffer@@U?$less@I@std@@V?$allocator@U?$pair@$$CBIPAVCIOCPBuffer@@@std@@@3@$0A@@std@@@std@@IAE?AU?$pair@V?$_Tree_iterator@V?$_Tree_val@U?$_Tree_simple_types@U?$pair@$$CBIPAVCIOCPBuffer@@@std@@@std@@@std@@@std@@_N@1@_NAAU?$pair@$$CBIPAVCIOCPBuffer@@@1@PAU?$_Tree_node@U?$pair@$$CBIPAVCIOCPBuffer@@@std@@PAX@1@@Z$2 10011284     IOCPS.obj
 0002:00002294       __ehfuncinfo$?_Buynode0@?$_Tree_comp_alloc@V?$_Tmap_traits@GPAXU?$less@G@std@@V?$allocator@U?$pair@$$CBGPAX@std@@@2@$0A@@std@@@std@@QAEPAU?$_Tree_node@U?$pair@$$CBGPAX@std@@PAX@2@XZ 10011294     IOCPS.obj
 0002:00002294       __ehfuncinfo$?_Buynode0@?$_Tree_comp_alloc@V?$_Tmap_traits@IPAUClientContext@@U?$less@I@std@@V?$allocator@U?$pair@$$CBIPAUClientContext@@@std@@@3@$0A@@std@@@std@@QAEPAU?$_Tree_node@U?$pair@$$CBIPAUClientContext@@@std@@PAX@2@XZ 10011294     IOCPS.obj
 0002:00002294       __ehfuncinfo$?_Buynode0@?$_Tree_comp_alloc@V?$_Tmap_traits@IPAVCIOCPBuffer@@U?$less@I@std@@V?$allocator@U?$pair@$$CBIPAVCIOCPBuffer@@@std@@@3@$0A@@std@@@std@@QAEPAU?$_Tree_node@U?$pair@$$CBIPAVCIOCPBuffer@@@std@@PAX@2@XZ 10011294     IOCPS.obj
 0002:000022b8       __unwindtable$?_Buynode0@?$_Tree_comp_alloc@V?$_Tmap_traits@IPAVCIOCPBuffer@@U?$less@I@std@@V?$allocator@U?$pair@$$CBIPAVCIOCPBuffer@@@std@@@3@$0A@@std@@@std@@QAEPAU?$_Tree_node@U?$pair@$$CBIPAVCIOCPBuffer@@@std@@PAX@2@XZ 100112b8     IOCPS.obj
 0002:000022b8       __unwindtable$?_Buynode0@?$_Tree_comp_alloc@V?$_Tmap_traits@GPAXU?$less@G@std@@V?$allocator@U?$pair@$$CBGPAX@std@@@2@$0A@@std@@@std@@QAEPAU?$_Tree_node@U?$pair@$$CBGPAX@std@@PAX@2@XZ 100112b8     IOCPS.obj
 0002:000022b8       __unwindtable$?_Buynode0@?$_Tree_comp_alloc@V?$_Tmap_traits@IPAUClientContext@@U?$less@I@std@@V?$allocator@U?$pair@$$CBIPAUClientContext@@@std@@@3@$0A@@std@@@std@@QAEPAU?$_Tree_node@U?$pair@$$CBIPAUClientContext@@@std@@PAX@2@XZ 100112b8     IOCPS.obj
 0002:000022c8       __tryblocktable$?_Buynode0@?$_Tree_comp_alloc@V?$_Tmap_traits@GPAXU?$less@G@std@@V?$allocator@U?$pair@$$CBGPAX@std@@@2@$0A@@std@@@std@@QAEPAU?$_Tree_node@U?$pair@$$CBGPAX@std@@PAX@2@XZ 100112c8     IOCPS.obj
 0002:000022c8       __tryblocktable$?_Buynode0@?$_Tree_comp_alloc@V?$_Tmap_traits@IPAUClientContext@@U?$less@I@std@@V?$allocator@U?$pair@$$CBIPAUClientContext@@@std@@@3@$0A@@std@@@std@@QAEPAU?$_Tree_node@U?$pair@$$CBIPAUClientContext@@@std@@PAX@2@XZ 100112c8     IOCPS.obj
 0002:000022c8       __tryblocktable$?_Buynode0@?$_Tree_comp_alloc@V?$_Tmap_traits@IPAVCIOCPBuffer@@U?$less@I@std@@V?$allocator@U?$pair@$$CBIPAVCIOCPBuffer@@@std@@@3@$0A@@std@@@std@@QAEPAU?$_Tree_node@U?$pair@$$CBIPAVCIOCPBuffer@@@std@@PAX@2@XZ 100112c8     IOCPS.obj
 0002:000022dc       __catchsym$?_Buynode0@?$_Tree_comp_alloc@V?$_Tmap_traits@IPAUClientContext@@U?$less@I@std@@V?$allocator@U?$pair@$$CBIPAUClientContext@@@std@@@3@$0A@@std@@@std@@QAEPAU?$_Tree_node@U?$pair@$$CBIPAUClientContext@@@std@@PAX@2@XZ$2 100112dc     IOCPS.obj
 0002:000022dc       __catchsym$?_Buynode0@?$_Tree_comp_alloc@V?$_Tmap_traits@IPAVCIOCPBuffer@@U?$less@I@std@@V?$allocator@U?$pair@$$CBIPAVCIOCPBuffer@@@std@@@3@$0A@@std@@@std@@QAEPAU?$_Tree_node@U?$pair@$$CBIPAVCIOCPBuffer@@@std@@PAX@2@XZ$2 100112dc     IOCPS.obj
 0002:000022dc       __catchsym$?_Buynode0@?$_Tree_comp_alloc@V?$_Tmap_traits@GPAXU?$less@G@std@@V?$allocator@U?$pair@$$CBGPAX@std@@@2@$0A@@std@@@std@@QAEPAU?$_Tree_node@U?$pair@$$CBGPAX@std@@PAX@2@XZ$2 100112dc     IOCPS.obj
 0002:000022ec       __ehfuncinfo$??$_Buynode@ABUpiecewise_construct_t@std@@V?$tuple@ABG@2@V?$tuple@$$V@2@@?$_Tree_comp_alloc@V?$_Tmap_traits@GPAXU?$less@G@std@@V?$allocator@U?$pair@$$CBGPAX@std@@@2@$0A@@std@@@std@@QAEPAU?$_Tree_node@U?$pair@$$CBGPAX@std@@PAX@1@ABUpiecewise_construct_t@1@$$QAV?$tuple@ABG@1@$$QAV?$tuple@$$V@1@@Z 100112ec     IOCPS.obj
 0002:00002310       __unwindtable$??$_Buynode@ABUpiecewise_construct_t@std@@V?$tuple@ABG@2@V?$tuple@$$V@2@@?$_Tree_comp_alloc@V?$_Tmap_traits@GPAXU?$less@G@std@@V?$allocator@U?$pair@$$CBGPAX@std@@@2@$0A@@std@@@std@@QAEPAU?$_Tree_node@U?$pair@$$CBGPAX@std@@PAX@1@ABUpiecewise_construct_t@1@$$QAV?$tuple@ABG@1@$$QAV?$tuple@$$V@1@@Z 10011310     IOCPS.obj
 0002:00002320       __tryblocktable$??$_Buynode@ABUpiecewise_construct_t@std@@V?$tuple@ABG@2@V?$tuple@$$V@2@@?$_Tree_comp_alloc@V?$_Tmap_traits@GPAXU?$less@G@std@@V?$allocator@U?$pair@$$CBGPAX@std@@@2@$0A@@std@@@std@@QAEPAU?$_Tree_node@U?$pair@$$CBGPAX@std@@PAX@1@ABUpiecewise_construct_t@1@$$QAV?$tuple@ABG@1@$$QAV?$tuple@$$V@1@@Z 10011320     IOCPS.obj
 0002:00002334       __catchsym$??$_Buynode@ABUpiecewise_construct_t@std@@V?$tuple@ABG@2@V?$tuple@$$V@2@@?$_Tree_comp_alloc@V?$_Tmap_traits@GPAXU?$less@G@std@@V?$allocator@U?$pair@$$CBGPAX@std@@@2@$0A@@std@@@std@@QAEPAU?$_Tree_node@U?$pair@$$CBGPAX@std@@PAX@1@ABUpiecewise_construct_t@1@$$QAV?$tuple@ABG@1@$$QAV?$tuple@$$V@1@@Z$2 10011334     IOCPS.obj
 0002:00002344       __ehfuncinfo$??$_Insert_hint@AAU?$pair@$$CBGPAX@std@@PAU?$_Tree_node@U?$pair@$$CBGPAX@std@@PAX@2@@?$_Tree@V?$_Tmap_traits@GPAXU?$less@G@std@@V?$allocator@U?$pair@$$CBGPAX@std@@@2@$0A@@std@@@std@@IAE?AV?$_Tree_iterator@V?$_Tree_val@U?$_Tree_simple_types@U?$pair@$$CBGPAX@std@@@std@@@std@@@1@V?$_Tree_const_iterator@V?$_Tree_val@U?$_Tree_simple_types@U?$pair@$$CBGPAX@std@@@std@@@std@@@1@AAU?$pair@$$CBGPAX@1@PAU?$_Tree_node@U?$pair@$$CBGPAX@std@@PAX@1@@Z 10011344     IOCPS.obj
 0002:00002368       __unwindtable$??$_Insert_hint@AAU?$pair@$$CBGPAX@std@@PAU?$_Tree_node@U?$pair@$$CBGPAX@std@@PAX@2@@?$_Tree@V?$_Tmap_traits@GPAXU?$less@G@std@@V?$allocator@U?$pair@$$CBGPAX@std@@@2@$0A@@std@@@std@@IAE?AV?$_Tree_iterator@V?$_Tree_val@U?$_Tree_simple_types@U?$pair@$$CBGPAX@std@@@std@@@std@@@1@V?$_Tree_const_iterator@V?$_Tree_val@U?$_Tree_simple_types@U?$pair@$$CBGPAX@std@@@std@@@std@@@1@AAU?$pair@$$CBGPAX@1@PAU?$_Tree_node@U?$pair@$$CBGPAX@std@@PAX@1@@Z 10011368     IOCPS.obj
 0002:00002378       __tryblocktable$??$_Insert_hint@AAU?$pair@$$CBGPAX@std@@PAU?$_Tree_node@U?$pair@$$CBGPAX@std@@PAX@2@@?$_Tree@V?$_Tmap_traits@GPAXU?$less@G@std@@V?$allocator@U?$pair@$$CBGPAX@std@@@2@$0A@@std@@@std@@IAE?AV?$_Tree_iterator@V?$_Tree_val@U?$_Tree_simple_types@U?$pair@$$CBGPAX@std@@@std@@@std@@@1@V?$_Tree_const_iterator@V?$_Tree_val@U?$_Tree_simple_types@U?$pair@$$CBGPAX@std@@@std@@@std@@@1@AAU?$pair@$$CBGPAX@1@PAU?$_Tree_node@U?$pair@$$CBGPAX@std@@PAX@1@@Z 10011378     IOCPS.obj
 0002:0000238c       __catchsym$??$_Insert_hint@AAU?$pair@$$CBGPAX@std@@PAU?$_Tree_node@U?$pair@$$CBGPAX@std@@PAX@2@@?$_Tree@V?$_Tmap_traits@GPAXU?$less@G@std@@V?$allocator@U?$pair@$$CBGPAX@std@@@2@$0A@@std@@@std@@IAE?AV?$_Tree_iterator@V?$_Tree_val@U?$_Tree_simple_types@U?$pair@$$CBGPAX@std@@@std@@@std@@@1@V?$_Tree_const_iterator@V?$_Tree_val@U?$_Tree_simple_types@U?$pair@$$CBGPAX@std@@@std@@@std@@@1@AAU?$pair@$$CBGPAX@1@PAU?$_Tree_node@U?$pair@$$CBGPAX@std@@PAX@1@@Z$2 1001138c     IOCPS.obj
 0002:0000239c       __ehfuncinfo$??$_Buynode@ABUpiecewise_construct_t@std@@V?$tuple@ABI@2@V?$tuple@$$V@2@@?$_Tree_comp_alloc@V?$_Tmap_traits@IPAUClientContext@@U?$less@I@std@@V?$allocator@U?$pair@$$CBIPAUClientContext@@@std@@@3@$0A@@std@@@std@@QAEPAU?$_Tree_node@U?$pair@$$CBIPAUClientContext@@@std@@PAX@1@ABUpiecewise_construct_t@1@$$QAV?$tuple@ABI@1@$$QAV?$tuple@$$V@1@@Z 1001139c     IOCPS.obj
 0002:0000239c       __ehfuncinfo$??$_Buynode@ABUpiecewise_construct_t@std@@V?$tuple@ABI@2@V?$tuple@$$V@2@@?$_Tree_comp_alloc@V?$_Tmap_traits@IPAVCIOCPBuffer@@U?$less@I@std@@V?$allocator@U?$pair@$$CBIPAVCIOCPBuffer@@@std@@@3@$0A@@std@@@std@@QAEPAU?$_Tree_node@U?$pair@$$CBIPAVCIOCPBuffer@@@std@@PAX@1@ABUpiecewise_construct_t@1@$$QAV?$tuple@ABI@1@$$QAV?$tuple@$$V@1@@Z 1001139c     IOCPS.obj
 0002:000023c0       __unwindtable$??$_Buynode@ABUpiecewise_construct_t@std@@V?$tuple@ABI@2@V?$tuple@$$V@2@@?$_Tree_comp_alloc@V?$_Tmap_traits@IPAUClientContext@@U?$less@I@std@@V?$allocator@U?$pair@$$CBIPAUClientContext@@@std@@@3@$0A@@std@@@std@@QAEPAU?$_Tree_node@U?$pair@$$CBIPAUClientContext@@@std@@PAX@1@ABUpiecewise_construct_t@1@$$QAV?$tuple@ABI@1@$$QAV?$tuple@$$V@1@@Z 100113c0     IOCPS.obj
 0002:000023c0       __unwindtable$??$_Buynode@ABUpiecewise_construct_t@std@@V?$tuple@ABI@2@V?$tuple@$$V@2@@?$_Tree_comp_alloc@V?$_Tmap_traits@IPAVCIOCPBuffer@@U?$less@I@std@@V?$allocator@U?$pair@$$CBIPAVCIOCPBuffer@@@std@@@3@$0A@@std@@@std@@QAEPAU?$_Tree_node@U?$pair@$$CBIPAVCIOCPBuffer@@@std@@PAX@1@ABUpiecewise_construct_t@1@$$QAV?$tuple@ABI@1@$$QAV?$tuple@$$V@1@@Z 100113c0     IOCPS.obj
 0002:000023d0       __tryblocktable$??$_Buynode@ABUpiecewise_construct_t@std@@V?$tuple@ABI@2@V?$tuple@$$V@2@@?$_Tree_comp_alloc@V?$_Tmap_traits@IPAVCIOCPBuffer@@U?$less@I@std@@V?$allocator@U?$pair@$$CBIPAVCIOCPBuffer@@@std@@@3@$0A@@std@@@std@@QAEPAU?$_Tree_node@U?$pair@$$CBIPAVCIOCPBuffer@@@std@@PAX@1@ABUpiecewise_construct_t@1@$$QAV?$tuple@ABI@1@$$QAV?$tuple@$$V@1@@Z 100113d0     IOCPS.obj
 0002:000023d0       __tryblocktable$??$_Buynode@ABUpiecewise_construct_t@std@@V?$tuple@ABI@2@V?$tuple@$$V@2@@?$_Tree_comp_alloc@V?$_Tmap_traits@IPAUClientContext@@U?$less@I@std@@V?$allocator@U?$pair@$$CBIPAUClientContext@@@std@@@3@$0A@@std@@@std@@QAEPAU?$_Tree_node@U?$pair@$$CBIPAUClientContext@@@std@@PAX@1@ABUpiecewise_construct_t@1@$$QAV?$tuple@ABI@1@$$QAV?$tuple@$$V@1@@Z 100113d0     IOCPS.obj
 0002:000023e4       __catchsym$??$_Buynode@ABUpiecewise_construct_t@std@@V?$tuple@ABI@2@V?$tuple@$$V@2@@?$_Tree_comp_alloc@V?$_Tmap_traits@IPAVCIOCPBuffer@@U?$less@I@std@@V?$allocator@U?$pair@$$CBIPAVCIOCPBuffer@@@std@@@3@$0A@@std@@@std@@QAEPAU?$_Tree_node@U?$pair@$$CBIPAVCIOCPBuffer@@@std@@PAX@1@ABUpiecewise_construct_t@1@$$QAV?$tuple@ABI@1@$$QAV?$tuple@$$V@1@@Z$2 100113e4     IOCPS.obj
 0002:000023e4       __catchsym$??$_Buynode@ABUpiecewise_construct_t@std@@V?$tuple@ABI@2@V?$tuple@$$V@2@@?$_Tree_comp_alloc@V?$_Tmap_traits@IPAUClientContext@@U?$less@I@std@@V?$allocator@U?$pair@$$CBIPAUClientContext@@@std@@@3@$0A@@std@@@std@@QAEPAU?$_Tree_node@U?$pair@$$CBIPAUClientContext@@@std@@PAX@1@ABUpiecewise_construct_t@1@$$QAV?$tuple@ABI@1@$$QAV?$tuple@$$V@1@@Z$2 100113e4     IOCPS.obj
 0002:000023f4       __ehfuncinfo$??$_Insert_hint@AAU?$pair@$$CBIPAUClientContext@@@std@@PAU?$_Tree_node@U?$pair@$$CBIPAUClientContext@@@std@@PAX@2@@?$_Tree@V?$_Tmap_traits@IPAUClientContext@@U?$less@I@std@@V?$allocator@U?$pair@$$CBIPAUClientContext@@@std@@@3@$0A@@std@@@std@@IAE?AV?$_Tree_iterator@V?$_Tree_val@U?$_Tree_simple_types@U?$pair@$$CBIPAUClientContext@@@std@@@std@@@std@@@1@V?$_Tree_const_iterator@V?$_Tree_val@U?$_Tree_simple_types@U?$pair@$$CBIPAUClientContext@@@std@@@std@@@std@@@1@AAU?$pair@$$CBIPAUClientContext@@@1@PAU?$_Tree_node@U?$pair@$$CBIPAUClientContext@@@std@@PAX@1@@Z 100113f4     IOCPS.obj
 0002:000023f4       __ehfuncinfo$??$_Insert_hint@AAU?$pair@$$CBIPAVCIOCPBuffer@@@std@@PAU?$_Tree_node@U?$pair@$$CBIPAVCIOCPBuffer@@@std@@PAX@2@@?$_Tree@V?$_Tmap_traits@IPAVCIOCPBuffer@@U?$less@I@std@@V?$allocator@U?$pair@$$CBIPAVCIOCPBuffer@@@std@@@3@$0A@@std@@@std@@IAE?AV?$_Tree_iterator@V?$_Tree_val@U?$_Tree_simple_types@U?$pair@$$CBIPAVCIOCPBuffer@@@std@@@std@@@std@@@1@V?$_Tree_const_iterator@V?$_Tree_val@U?$_Tree_simple_types@U?$pair@$$CBIPAVCIOCPBuffer@@@std@@@std@@@std@@@1@AAU?$pair@$$CBIPAVCIOCPBuffer@@@1@PAU?$_Tree_node@U?$pair@$$CBIPAVCIOCPBuffer@@@std@@PAX@1@@Z 100113f4     IOCPS.obj
 0002:00002418       __unwindtable$??$_Insert_hint@AAU?$pair@$$CBIPAUClientContext@@@std@@PAU?$_Tree_node@U?$pair@$$CBIPAUClientContext@@@std@@PAX@2@@?$_Tree@V?$_Tmap_traits@IPAUClientContext@@U?$less@I@std@@V?$allocator@U?$pair@$$CBIPAUClientContext@@@std@@@3@$0A@@std@@@std@@IAE?AV?$_Tree_iterator@V?$_Tree_val@U?$_Tree_simple_types@U?$pair@$$CBIPAUClientContext@@@std@@@std@@@std@@@1@V?$_Tree_const_iterator@V?$_Tree_val@U?$_Tree_simple_types@U?$pair@$$CBIPAUClientContext@@@std@@@std@@@std@@@1@AAU?$pair@$$CBIPAUClientContext@@@1@PAU?$_Tree_node@U?$pair@$$CBIPAUClientContext@@@std@@PAX@1@@Z 10011418     IOCPS.obj
 0002:00002418       __unwindtable$??$_Insert_hint@AAU?$pair@$$CBIPAVCIOCPBuffer@@@std@@PAU?$_Tree_node@U?$pair@$$CBIPAVCIOCPBuffer@@@std@@PAX@2@@?$_Tree@V?$_Tmap_traits@IPAVCIOCPBuffer@@U?$less@I@std@@V?$allocator@U?$pair@$$CBIPAVCIOCPBuffer@@@std@@@3@$0A@@std@@@std@@IAE?AV?$_Tree_iterator@V?$_Tree_val@U?$_Tree_simple_types@U?$pair@$$CBIPAVCIOCPBuffer@@@std@@@std@@@std@@@1@V?$_Tree_const_iterator@V?$_Tree_val@U?$_Tree_simple_types@U?$pair@$$CBIPAVCIOCPBuffer@@@std@@@std@@@std@@@1@AAU?$pair@$$CBIPAVCIOCPBuffer@@@1@PAU?$_Tree_node@U?$pair@$$CBIPAVCIOCPBuffer@@@std@@PAX@1@@Z 10011418     IOCPS.obj
 0002:00002428       __tryblocktable$??$_Insert_hint@AAU?$pair@$$CBIPAVCIOCPBuffer@@@std@@PAU?$_Tree_node@U?$pair@$$CBIPAVCIOCPBuffer@@@std@@PAX@2@@?$_Tree@V?$_Tmap_traits@IPAVCIOCPBuffer@@U?$less@I@std@@V?$allocator@U?$pair@$$CBIPAVCIOCPBuffer@@@std@@@3@$0A@@std@@@std@@IAE?AV?$_Tree_iterator@V?$_Tree_val@U?$_Tree_simple_types@U?$pair@$$CBIPAVCIOCPBuffer@@@std@@@std@@@std@@@1@V?$_Tree_const_iterator@V?$_Tree_val@U?$_Tree_simple_types@U?$pair@$$CBIPAVCIOCPBuffer@@@std@@@std@@@std@@@1@AAU?$pair@$$CBIPAVCIOCPBuffer@@@1@PAU?$_Tree_node@U?$pair@$$CBIPAVCIOCPBuffer@@@std@@PAX@1@@Z 10011428     IOCPS.obj
 0002:00002428       __tryblocktable$??$_Insert_hint@AAU?$pair@$$CBIPAUClientContext@@@std@@PAU?$_Tree_node@U?$pair@$$CBIPAUClientContext@@@std@@PAX@2@@?$_Tree@V?$_Tmap_traits@IPAUClientContext@@U?$less@I@std@@V?$allocator@U?$pair@$$CBIPAUClientContext@@@std@@@3@$0A@@std@@@std@@IAE?AV?$_Tree_iterator@V?$_Tree_val@U?$_Tree_simple_types@U?$pair@$$CBIPAUClientContext@@@std@@@std@@@std@@@1@V?$_Tree_const_iterator@V?$_Tree_val@U?$_Tree_simple_types@U?$pair@$$CBIPAUClientContext@@@std@@@std@@@std@@@1@AAU?$pair@$$CBIPAUClientContext@@@1@PAU?$_Tree_node@U?$pair@$$CBIPAUClientContext@@@std@@PAX@1@@Z 10011428     IOCPS.obj
 0002:0000243c       __catchsym$??$_Insert_hint@AAU?$pair@$$CBIPAVCIOCPBuffer@@@std@@PAU?$_Tree_node@U?$pair@$$CBIPAVCIOCPBuffer@@@std@@PAX@2@@?$_Tree@V?$_Tmap_traits@IPAVCIOCPBuffer@@U?$less@I@std@@V?$allocator@U?$pair@$$CBIPAVCIOCPBuffer@@@std@@@3@$0A@@std@@@std@@IAE?AV?$_Tree_iterator@V?$_Tree_val@U?$_Tree_simple_types@U?$pair@$$CBIPAVCIOCPBuffer@@@std@@@std@@@std@@@1@V?$_Tree_const_iterator@V?$_Tree_val@U?$_Tree_simple_types@U?$pair@$$CBIPAVCIOCPBuffer@@@std@@@std@@@std@@@1@AAU?$pair@$$CBIPAVCIOCPBuffer@@@1@PAU?$_Tree_node@U?$pair@$$CBIPAVCIOCPBuffer@@@std@@PAX@1@@Z$2 1001143c     IOCPS.obj
 0002:0000243c       __catchsym$??$_Insert_hint@AAU?$pair@$$CBIPAUClientContext@@@std@@PAU?$_Tree_node@U?$pair@$$CBIPAUClientContext@@@std@@PAX@2@@?$_Tree@V?$_Tmap_traits@IPAUClientContext@@U?$less@I@std@@V?$allocator@U?$pair@$$CBIPAUClientContext@@@std@@@3@$0A@@std@@@std@@IAE?AV?$_Tree_iterator@V?$_Tree_val@U?$_Tree_simple_types@U?$pair@$$CBIPAUClientContext@@@std@@@std@@@std@@@1@V?$_Tree_const_iterator@V?$_Tree_val@U?$_Tree_simple_types@U?$pair@$$CBIPAUClientContext@@@std@@@std@@@std@@@1@AAU?$pair@$$CBIPAUClientContext@@@1@PAU?$_Tree_node@U?$pair@$$CBIPAUClientContext@@@std@@PAX@1@@Z$2 1001143c     IOCPS.obj
 0002:0000244c       __ehfuncinfo$??$construct@U?$pair@$$CBIPAUClientContext@@@std@@ABUpiecewise_construct_t@2@V?$tuple@ABI@2@V?$tuple@$$V@2@@?$allocator@U?$_Tree_node@U?$pair@$$CBIPAUClientContext@@@std@@PAX@std@@@std@@QAEXPAU?$pair@$$CBIPAUClientContext@@@1@ABUpiecewise_construct_t@1@$$QAV?$tuple@ABI@1@$$QAV?$tuple@$$V@1@@Z 1001144c     IOCPS.obj
 0002:0000244c       __ehfuncinfo$??$construct@U?$pair@$$CBIPAVCIOCPBuffer@@@std@@ABUpiecewise_construct_t@2@V?$tuple@ABI@2@V?$tuple@$$V@2@@?$allocator@U?$_Tree_node@U?$pair@$$CBIPAVCIOCPBuffer@@@std@@PAX@std@@@std@@QAEXPAU?$pair@$$CBIPAVCIOCPBuffer@@@1@ABUpiecewise_construct_t@1@$$QAV?$tuple@ABI@1@$$QAV?$tuple@$$V@1@@Z 1001144c     IOCPS.obj
 0002:0000244c       __ehfuncinfo$??$construct@U?$pair@$$CBGPAX@std@@ABUpiecewise_construct_t@2@V?$tuple@ABG@2@V?$tuple@$$V@2@@?$allocator@U?$_Tree_node@U?$pair@$$CBGPAX@std@@PAX@std@@@std@@QAEXPAU?$pair@$$CBGPAX@1@ABUpiecewise_construct_t@1@$$QAV?$tuple@ABG@1@$$QAV?$tuple@$$V@1@@Z 1001144c     IOCPS.obj
 0002:00002470       __unwindtable$??$construct@U?$pair@$$CBIPAVCIOCPBuffer@@@std@@ABUpiecewise_construct_t@2@V?$tuple@ABI@2@V?$tuple@$$V@2@@?$allocator@U?$_Tree_node@U?$pair@$$CBIPAVCIOCPBuffer@@@std@@PAX@std@@@std@@QAEXPAU?$pair@$$CBIPAVCIOCPBuffer@@@1@ABUpiecewise_construct_t@1@$$QAV?$tuple@ABI@1@$$QAV?$tuple@$$V@1@@Z 10011470     IOCPS.obj
 0002:00002470       __unwindtable$??$construct@U?$pair@$$CBGPAX@std@@ABUpiecewise_construct_t@2@V?$tuple@ABG@2@V?$tuple@$$V@2@@?$allocator@U?$_Tree_node@U?$pair@$$CBGPAX@std@@PAX@std@@@std@@QAEXPAU?$pair@$$CBGPAX@1@ABUpiecewise_construct_t@1@$$QAV?$tuple@ABG@1@$$QAV?$tuple@$$V@1@@Z 10011470     IOCPS.obj
 0002:00002470       __unwindtable$??$construct@U?$pair@$$CBIPAUClientContext@@@std@@ABUpiecewise_construct_t@2@V?$tuple@ABI@2@V?$tuple@$$V@2@@?$allocator@U?$_Tree_node@U?$pair@$$CBIPAUClientContext@@@std@@PAX@std@@@std@@QAEXPAU?$pair@$$CBIPAUClientContext@@@1@ABUpiecewise_construct_t@1@$$QAV?$tuple@ABI@1@$$QAV?$tuple@$$V@1@@Z 10011470     IOCPS.obj
 0002:00002478       __ehfuncinfo$??0ITIOCP@@QAE@XZ 10011478     MyIOCP.obj
 0002:0000249c       __unwindtable$??0ITIOCP@@QAE@XZ 1001149c     MyIOCP.obj
 0002:000024b4       __ehfuncinfo$?CreateServerSocket@@YGPAVSocket@@XZ 100114b4     MyIOCP.obj
 0002:000024d8       __unwindtable$?CreateServerSocket@@YGPAVSocket@@XZ 100114d8     MyIOCP.obj
 0002:000024e0       __ehfuncinfo$?CreateClientSocket@@YGPAVSocket@@XZ 100114e0     MyIOCP.obj
 0002:00002504       __unwindtable$?CreateClientSocket@@YGPAVSocket@@XZ 10011504     MyIOCP.obj
 0002:00002510       __sehtable$?dllmain_crt_process_attach@@YAHQAUHINSTANCE__@@QAX@Z 10011510     MSVCRT:dll_dllmain.obj
 0002:00002530       __sehtable$?dllmain_crt_process_detach@@YAH_N@Z 10011530     MSVCRT:dll_dllmain.obj
 0002:00002550       __sehtable$?dllmain_dispatch@@YAHQAUHINSTANCE__@@KQAX@Z 10011550     MSVCRT:dll_dllmain.obj
 0002:00002600       __sehtable$___scrt_is_nonwritable_in_current_image 10011600     MSVCRT:utility.obj
 0002:00002620       .edata                     10011620     Socket.exp
 0002:00002648       rgpv                       10011648     Socket.exp
 0002:00002658       rgszName                   10011658     Socket.exp
 0002:00002668       rgwOrd                     10011668     Socket.exp
 0002:00002670       szName                     10011670     Socket.exp
 0002:0000267b       $N00001                    1001167b     Socket.exp
 0002:000026a0       $N00002                    100116a0     Socket.exp
 0002:000026c5       $N00003                    100116c5     Socket.exp
 0002:000026ec       $N00004                    100116ec     Socket.exp
 0002:000029ae       .idata$6                   100119ae     ws2_32:WS2_32.dll
 0002:000029d8       .idata$6                   100119d8     xlogger:xLogger.dll
 0002:00002b32       .idata$6                   10011b32     kernel32:KERNEL32.dll
 0002:00002b9a       .idata$6                   10011b9a     msvcprt:MSVCP140.dll
 0002:00002c4a       .idata$6                   10011c4a     vcruntime:VCRUNTIME140.dll
 0002:00002d82       .idata$6                   10011d82     ucrt:api-ms-win-crt-runtime-l1-1-0.dll
 0002:00002da4       .idata$6                   10011da4     ucrt:api-ms-win-crt-heap-l1-1-0.dll
 0003:000000f8       _GS_ExceptionRecord        100120f8     MSVCRT:gs_report.obj
 0003:00000148       _GS_ContextRecord          10012148     MSVCRT:gs_report.obj
 0003:00000414       ?__proc_attached@@3HA      10012414     MSVCRT:dll_dllmain.obj
 0003:00000420       ?module_local_atexit_table@@3U_onexit_table_t@@A 10012420     MSVCRT:utility.obj
 0003:0000042c       ?module_local_at_quick_exit_table@@3U_onexit_table_t@@A 1001242c     MSVCRT:utility.obj
 0003:00000438       ?is_initialized_as_dll@@3_NA 10012438     MSVCRT:utility.obj
 0004:00000000       __guard_fids__             10013000     MSVCRT:std_type_info_static.obj
 0004:00000004       __guard_fids_?dllmain_crt_process_attach@@YAHQAUHINSTANCE__@@QAX@Z 10013004     MSVCRT:dll_dllmain.obj
 0004:0000000c       __guard_fids_?dllmain_dispatch@@YAHQAUHINSTANCE__@@KQAX@Z 1001300c     MSVCRT:dll_dllmain.obj
 0004:00000010       __guard_fids__             10013010     MSVCRT:throw_bad_alloc.obj
 0004:00000018       __guard_fids__             10013018     MSVCRT:throw_bad_alloc.obj
 0004:00000020       __guard_fids__             10013020     MSVCRT:throw_bad_alloc.obj
 0004:00000028       __guard_fids__             10013028     MSVCRT:throw_bad_alloc.obj
 0004:0000002c       __guard_fids__             1001302c     MSVCRT:throw_bad_alloc.obj
 0004:00000030       __guard_fids__             10013030     MSVCRT:throw_bad_alloc.obj
 0004:00000034       __guard_fids__             10013034     MSVCRT:throw_bad_alloc.obj
 0004:00000038       __guard_fids__             10013038     MSVCRT:throw_bad_alloc.obj
 0004:0000003c       __guard_fids___except_handler4 1001303c     MSVCRT:_chandler4gs_.obj
 0004:00000040       __guard_fids__             10013040     MSVCRT:guard_support.obj
 0005:000000a0       $R000000                   100140a0     Socket1.res
 0005:000003c0       $R000320                   100143c0     Socket1.res
