 Protocollibold

 Timestamp is 595de3f6 (Thu Jul  6 12:47:10 2017)

 Preferred load address is 10000000

 Start         Length     Name                   Class
 0001:00000000 00000020H .text$di                CODE
 0001:00000020 0000ad80H .text$mn                CODE
 0001:0000ada0 000005c0H .text$x                 CODE
 0001:0000b360 0000000aH .text$yd                CODE
 0002:00000000 00000118H .idata$5                DATA
 0002:00000118 00000004H .00cfg                  DATA
 0002:0000011c 00000004H .CRT$XCA                DATA
 0002:00000120 00000004H .CRT$XCL                DATA
 0002:00000124 00000000H .CRT$XCU                DATA
 0002:00000124 00000004H .CRT$XCZ                DATA
 0002:00000128 00000004H .CRT$XIA                DATA
 0002:0000012c 00000004H .CRT$XIC                DATA
 0002:00000130 00000004H .CRT$XIZ                DATA
 0002:00000134 00000004H .CRT$XLA                DATA
 0002:00000138 00000004H .CRT$XLZ                DATA
 0002:0000013c 00000004H .CRT$XPA                DATA
 0002:00000140 00000004H .CRT$XPZ                DATA
 0002:00000144 00000004H .CRT$XTA                DATA
 0002:00000148 00000008H .CRT$XTZ                DATA
 0002:00000150 00000c7cH .rdata                  DATA
 0002:00000dcc 00000018H .rdata$T                DATA
 0002:00000de4 0000042cH .rdata$r                DATA
 0002:00001210 00000094H .rdata$sxdata           DATA
 0002:000012a4 00000390H .rdata$zzzdbg           DATA
 0002:00001634 00000004H .rtc$IAA                DATA
 0002:00001638 00000004H .rtc$IZZ                DATA
 0002:0000163c 00000004H .rtc$TAA                DATA
 0002:00001640 00000008H .rtc$TZZ                DATA
 0002:00001648 00000998H .xdata$x                DATA
 0002:00001fdc 00000000H ATL$__a                 DATA
 0002:00001fdc 00000000H ATL$__z                 DATA
 0002:00001fe0 00000128H .edata                  DATA
 0002:00002108 000000a0H .idata$2                DATA
 0002:000021a8 00000014H .idata$3                DATA
 0002:000021bc 00000118H .idata$4                DATA
 0002:000022d4 00000646H .idata$6                DATA
 0003:00000000 00000034H .data                   DATA
 0003:00000034 00000194H .data$r                 DATA
 0003:000001c8 000003e4H .bss                    DATA
 0004:00000000 00000004H .tls                    DATA
 0004:00000004 00000004H .tls$                   DATA
 0004:00000008 00000001H .tls$ZZZ                DATA
 0005:00000000 00000048H .gfids$y                DATA
 0006:00000000 000000a0H .rsrc$01                DATA
 0006:000000a0 000004a8H .rsrc$02                DATA

  Address         Publics by Value              Rva+Base       Lib:Object

 0000:00000000       ___guard_iat_count         00000000     <absolute>
 0000:00000000       ___guard_longjmp_table     00000000     <absolute>
 0000:00000000       ___guard_fids_table        00000000     <absolute>
 0000:00000000       ___guard_longjmp_count     00000000     <absolute>
 0000:00000000       ___guard_iat_table         00000000     <absolute>
 0000:00000000       ___dynamic_value_reloc_table 00000000     <absolute>
 0000:00000000       ___guard_fids_count        00000000     <absolute>
 0000:00000025       ___safe_se_handler_count   00000025     <absolute>
 0000:0000002c       __tls_array                0000002c     <absolute>
 0000:00000100       ___guard_flags             00000100     <absolute>
 0000:00000000       ___ImageBase               10000000     <linker-defined>
 0001:00000020       _HRESULT_FROM_WIN32        10001020 f i ClientProtocolImpl.obj
 0001:00000060       ??0exception@std@@QAE@QBD@Z 10001060 f i ClientProtocolImpl.obj
 0001:000000b0       ??0exception@std@@QAE@ABV01@@Z 100010b0 f i ClientProtocolImpl.obj
 0001:000000f0       ??1exception@std@@UAE@XZ   100010f0 f i ClientProtocolImpl.obj
 0001:00000120       ?what@exception@std@@UBEPBDXZ 10001120 f i ClientProtocolImpl.obj
 0001:00000150       ??_Gexception@std@@UAEPAXI@Z 10001150 f i ClientProtocolImpl.obj
 0001:00000150       ??_Eexception@std@@UAEPAXI@Z 10001150 f i * CIL library *:* CIL module *
 0001:00000180       ??2@YAPAXIPAX@Z            10001180 f i ClientProtocolImpl.obj
 0001:00000190       ?length@?$char_traits@D@std@@SAIPBD@Z 10001190 f i ClientProtocolImpl.obj
 0001:000001e0       ?copy@?$char_traits@D@std@@SAPADPADPBDI@Z 100011e0 f i ClientProtocolImpl.obj
 0001:00000210       ?move@?$char_traits@D@std@@SAPADPADPBDI@Z 10001210 f i ClientProtocolImpl.obj
 0001:00000250       ?assign@?$char_traits@D@std@@SAXAADABD@Z 10001250 f i ClientProtocolImpl.obj
 0001:00000260       ?_Allocate@std@@YAPAXII_N@Z 10001260 f i ClientProtocolImpl.obj
 0001:00000320       ?_Deallocate@std@@YAXPAXII@Z 10001320 f i ClientProtocolImpl.obj
 0001:000003c0       ??1IClientProtocol@@UAE@XZ 100013c0 f i ClientProtocolImpl.obj
 0001:000003e0       ??_EIClientProtocol@@UAEPAXI@Z 100013e0 f i * CIL library *:* CIL module *
 0001:000003e0       ??_GIClientProtocol@@UAEPAXI@Z 100013e0 f i ClientProtocolImpl.obj
 0001:00000410       ?_AtlInitializeCriticalSectionEx@ATL@@YAHPAU_RTL_CRITICAL_SECTION@@KK@Z 10001410 f i ClientProtocolImpl.obj
 0001:00000430       ?Init@CComCriticalSection@ATL@@QAEJXZ 10001430 f i ClientProtocolImpl.obj
 0001:00000470       ??0CTime@ATL@@QAE@_J@Z     10001470 f i ClientProtocolImpl.obj
 0001:00000470       ??0CTimeSpan@ATL@@QAE@_J@Z 10001470 f i ClientProtocolImpl.obj
 0001:00000490       ?GetTotalSeconds@CTimeSpan@ATL@@QBE_JXZ 10001490 f i ClientProtocolImpl.obj
 0001:000004b0       ?GetTickCount@CTime@ATL@@SG?AV12@XZ 100014b0 f i ClientProtocolImpl.obj
 0001:000004d0       ??0CTime@ATL@@QAE@XZ       100014d0 f i ClientProtocolImpl.obj
 0001:000004f0       ??GCTime@ATL@@QBE?AVCTimeSpan@1@V01@@Z 100014f0 f i ClientProtocolImpl.obj
 0001:00000980       ??0ClientProtocol@@QAE@XZ  10001980 f   ClientProtocolImpl.obj
 0001:00000ae0       ??_GClientProtocol@@UAEPAXI@Z 10001ae0 f i ClientProtocolImpl.obj
 0001:00000ae0       ??_EClientProtocol@@UAEPAXI@Z 10001ae0 f i * CIL library *:* CIL module *
 0001:00000b20       ??0IClientProtocol@@QAE@XZ 10001b20 f i ClientProtocolImpl.obj
 0001:00000b40       ??0ISocketEvents@@QAE@XZ   10001b40 f i ClientProtocolImpl.obj
 0001:00000b60       ??1ClientProtocol@@UAE@XZ  10001b60 f   ClientProtocolImpl.obj
 0001:00000bf0       ?Connect@ClientProtocol@@UAE_NPADGI@Z 10001bf0 f   ClientProtocolImpl.obj
 0001:00000d20       ?Send@ClientProtocol@@UAE_NIPAXI@Z 10001d20 f   ClientProtocolImpl.obj
 0001:00000db0       ?HeartbeatToBeSent@ClientProtocol@@UAEHXZ 10001db0 f   ClientProtocolImpl.obj
 0001:00000e20       ?RegisterServerEvents@ServerProtocol@@UAEXPAVIServerProtocolEvents@@@Z 10001e20 f   ServerProtocolImpl.obj
 0001:00000e20       ?RegisterClient@ClientProtocol@@UAEXPAVIClientProtocolEvents@@@Z 10001e20 f   ClientProtocolImpl.obj
 0001:00000e40       ?Disconnect@ClientProtocol@@UAE_NXZ 10001e40 f   ClientProtocolImpl.obj
 0001:00000e90       ?OnConnect@ClientProtocol@@UAEXI_NPADG@Z 10001e90 f   ClientProtocolImpl.obj
 0001:00000f10       ?OnReceive@ClientProtocol@@UAEXIPADI@Z 10001f10 f   ClientProtocolImpl.obj
 0001:00001420       ?OnSend@ClientProtocol@@UAEXIIW4SocketError@@@Z 10002420 f   ClientProtocolImpl.obj
 0001:00001470       ?CreateClientProtocol@@YGPAVIClientProtocol@@XZ 10002470 f   ClientProtocolImpl.obj
 0001:000014e0       ?ReleaseClientProtocol@@YGXPAVIClientProtocol@@@Z 100024e0 f   ClientProtocolImpl.obj
 0001:00001520       ?IsShutdown@ClientProtocol@@UAE_NXZ 10002520 f   ClientProtocolImpl.obj
 0001:00001540       ?CheckConnectionStatus@ClientProtocol@@UAE_NXZ 10002540 f   ClientProtocolImpl.obj
 0001:00001580       ?Connect@ClientProtocol@@UAE_NXZ 10002580 f   ClientProtocolImpl.obj
 0001:000015c0       ?GetConnectionStatus@ClientProtocol@@UAEHXZ 100025c0 f   ClientProtocolImpl.obj
 0001:000015c0       ?GetClientSessionManager@ServerProtocol@@UAEPAVIClientSessionMgr@@XZ 100025c0 f   ServerProtocolImpl.obj
 0001:000015e0       ?ConnectionMonitor@ClientProtocol@@SAKPAX@Z 100025e0 f   ClientProtocolImpl.obj
 0001:00001660       ??1?$basic_string@DU?$char_traits@D@std@@V?$allocator@D@2@@std@@QAE@XZ 10002660 f i ClientProtocolImpl.obj
 0001:000016b0       ??0?$basic_string@DU?$char_traits@D@std@@V?$allocator@D@2@@std@@QAE@PBD@Z 100026b0 f i ClientProtocolImpl.obj
 0001:00001720       ??1?$_String_alloc@U?$_String_base_types@DV?$allocator@D@std@@@std@@@std@@QAE@XZ 10002720 f i ClientProtocolImpl.obj
 0001:00001740       ??1?$_Compressed_pair@U?$_Wrap_alloc@V?$allocator@D@std@@@std@@V?$_String_val@U?$_Simple_types@D@std@@@2@$00@std@@QAE@XZ 10002740 f i ClientProtocolImpl.obj
 0001:00001760       ??1?$_String_val@U?$_Simple_types@D@std@@@std@@QAE@XZ 10002760 f i ClientProtocolImpl.obj
 0001:00001780       ??1_Bxty@?$_String_val@U?$_Simple_types@D@std@@@std@@QAE@XZ 10002780 f i ClientProtocolImpl.obj
 0001:00001790       ?_Mysize@?$_String_alloc@U?$_String_base_types@DV?$allocator@D@std@@@std@@@std@@QBEABIXZ 10002790 f i ClientProtocolImpl.obj
 0001:00001790       ?_Mysize@?$_String_alloc@U?$_String_base_types@DV?$allocator@D@std@@@std@@@std@@QAEAAIXZ 10002790 f i ClientProtocolImpl.obj
 0001:000017b0       ?_Getal@?$_List_alloc@U?$_List_base_types@IV?$allocator@I@std@@@std@@@std@@QAEAAU?$_Wrap_alloc@V?$allocator@U?$_List_node@IPAX@std@@@std@@@2@XZ 100027b0 f i ClientSession.obj
 0001:000017b0       ?_Getal@?$_List_alloc@U?$_List_base_types@IV?$allocator@I@std@@@std@@@std@@QBEABU?$_Wrap_alloc@V?$allocator@U?$_List_node@IPAX@std@@@std@@@2@XZ 100027b0 f i ClientSession.obj
 0001:000017b0       ?_Get_data@?$_List_alloc@U?$_List_base_types@PAVIAccount@@V?$allocator@PAVIAccount@@@std@@@std@@@std@@QAEAAV?$_List_val@U?$_List_simple_types@PAVIAccount@@@std@@@2@XZ 100027b0 f i ClientSession.obj
 0001:000017b0       ?_Getal@?$_String_alloc@U?$_String_base_types@DV?$allocator@D@std@@@std@@@std@@QAEAAU?$_Wrap_alloc@V?$allocator@D@std@@@2@XZ 100027b0 f i ClientProtocolImpl.obj
 0001:000017b0       ?_Get_data@?$_List_alloc@U?$_List_base_types@IV?$allocator@I@std@@@std@@@std@@QAEAAV?$_List_val@U?$_List_simple_types@I@std@@@2@XZ 100027b0 f i ClientSession.obj
 0001:000017b0       ?_Getcomp@?$_Tree_comp_alloc@V?$_Tmap_traits@IPAVIClientSession@@U?$less@I@std@@V?$allocator@U?$pair@$$CBIPAVIClientSession@@@std@@@3@$0A@@std@@@std@@QAEAAU?$less@I@2@XZ 100027b0 f i ClientSession.obj
 0001:000017b0       ?_Getcomp@?$_Tree_comp_alloc@V?$_Tmap_traits@V?$basic_string@DU?$char_traits@D@std@@V?$allocator@D@2@@std@@V?$list@IV?$allocator@I@std@@@2@U?$less@V?$basic_string@DU?$char_traits@D@std@@V?$allocator@D@2@@std@@@2@V?$allocator@U?$pair@$$CBV?$basic_string@DU?$char_traits@D@std@@V?$allocator@D@2@@std@@V?$list@IV?$allocator@I@std@@@2@@std@@@2@$0A@@std@@@std@@QAEAAU?$less@V?$basic_string@DU?$char_traits@D@std@@V?$allocator@D@2@@std@@@2@XZ 100027b0 f i ClientSession.obj
 0001:000017b0       ?_Getal@?$_String_alloc@U?$_String_base_types@DV?$allocator@D@std@@@std@@@std@@QBEABU?$_Wrap_alloc@V?$allocator@D@std@@@2@XZ 100027b0 f i ClientProtocolImpl.obj
 0001:000017b0       ?_Getal@?$_List_alloc@U?$_List_base_types@PAVIAccount@@V?$allocator@PAVIAccount@@@std@@@std@@@std@@QBEABU?$_Wrap_alloc@V?$allocator@U?$_List_node@PAVIAccount@@PAX@std@@@std@@@2@XZ 100027b0 f i ClientSession.obj
 0001:000017b0       ?_Getcomp@?$_Tree_comp_alloc@V?$_Tmap_traits@V?$basic_string@DU?$char_traits@D@std@@V?$allocator@D@2@@std@@V?$list@IV?$allocator@I@std@@@2@U?$less@V?$basic_string@DU?$char_traits@D@std@@V?$allocator@D@2@@std@@@2@V?$allocator@U?$pair@$$CBV?$basic_string@DU?$char_traits@D@std@@V?$allocator@D@2@@std@@V?$list@IV?$allocator@I@std@@@2@@std@@@2@$0A@@std@@@std@@QBEABU?$less@V?$basic_string@DU?$char_traits@D@std@@V?$allocator@D@2@@std@@@2@XZ 100027b0 f i ClientSession.obj
 0001:000017b0       ?_Get_data@?$_List_alloc@U?$_List_base_types@IV?$allocator@I@std@@@std@@@std@@QBEABV?$_List_val@U?$_List_simple_types@I@std@@@2@XZ 100027b0 f i ClientSession.obj
 0001:000017b0       ?_Get_data@?$_List_alloc@U?$_List_base_types@PAVIAccount@@V?$allocator@PAVIAccount@@@std@@@std@@@std@@QBEABV?$_List_val@U?$_List_simple_types@PAVIAccount@@@std@@@2@XZ 100027b0 f i ClientSession.obj
 0001:000017b0       ?_Getal@?$_List_alloc@U?$_List_base_types@PAVIAccount@@V?$allocator@PAVIAccount@@@std@@@std@@@std@@QAEAAU?$_Wrap_alloc@V?$allocator@U?$_List_node@PAVIAccount@@PAX@std@@@std@@@2@XZ 100027b0 f i ClientSession.obj
 0001:000017b0       ?_Get_data@?$_String_alloc@U?$_String_base_types@DV?$allocator@D@std@@@std@@@std@@QBEABV?$_String_val@U?$_Simple_types@D@std@@@2@XZ 100027b0 f i ClientProtocolImpl.obj
 0001:000017b0       ?_Getcomp@?$_Tree_comp_alloc@V?$_Tmap_traits@IPAVIClientSession@@U?$less@I@std@@V?$allocator@U?$pair@$$CBIPAVIClientSession@@@std@@@3@$0A@@std@@@std@@QBEABU?$less@I@2@XZ 100027b0 f i ClientSession.obj
 0001:000017b0       ?_Get_data@?$_String_alloc@U?$_String_base_types@DV?$allocator@D@std@@@std@@@std@@QAEAAV?$_String_val@U?$_Simple_types@D@std@@@2@XZ 100027b0 f i ClientProtocolImpl.obj
 0001:000017d0       ??0?$_String_alloc@U?$_String_base_types@DV?$allocator@D@std@@@std@@@std@@QAE@XZ 100027d0 f i ClientProtocolImpl.obj
 0001:000017f0       ?_Myptr@?$_String_alloc@U?$_String_base_types@DV?$allocator@D@std@@@std@@@std@@QBEPBDXZ 100027f0 f i ClientProtocolImpl.obj
 0001:000017f0       ?_Myptr@?$_String_alloc@U?$_String_base_types@DV?$allocator@D@std@@@std@@@std@@QAEPADXZ 100027f0 f i ClientProtocolImpl.obj
 0001:00001810       ?_Xlen@?$basic_string@DU?$char_traits@D@std@@V?$allocator@D@2@@std@@QBEXXZ 10002810 f i ClientProtocolImpl.obj
 0001:00001830       ?_Tidy@?$basic_string@DU?$char_traits@D@std@@V?$allocator@D@2@@std@@QAEX_NI@Z 10002830 f i ClientProtocolImpl.obj
 0001:000018f0       ?_Grow@?$basic_string@DU?$char_traits@D@std@@V?$allocator@D@2@@std@@QAE_NI_N@Z 100028f0 f i ClientProtocolImpl.obj
 0001:000019b0       ?_Eos@?$basic_string@DU?$char_traits@D@std@@V?$allocator@D@2@@std@@QAEXI@Z 100029b0 f i ClientProtocolImpl.obj
 0001:000019f0       ?assign@?$basic_string@DU?$char_traits@D@std@@V?$allocator@D@2@@std@@QAEAAV12@PBD@Z 100029f0 f i ClientProtocolImpl.obj
 0001:00001a20       ?assign@?$basic_string@DU?$char_traits@D@std@@V?$allocator@D@2@@std@@QAEAAV12@PBDI@Z 10002a20 f i ClientProtocolImpl.obj
 0001:00001aa0       ?assign@?$basic_string@DU?$char_traits@D@std@@V?$allocator@D@2@@std@@QAEAAV12@ABV12@II@Z 10002aa0 f i ClientProtocolImpl.obj
 0001:00001b40       ?_Get_first@?$_Compressed_pair@U?$_Wrap_alloc@V?$allocator@U?$_List_node@IPAX@std@@@std@@@std@@V?$_List_val@U?$_List_simple_types@I@std@@@2@$00@std@@QBEABU?$_Wrap_alloc@V?$allocator@U?$_List_node@IPAX@std@@@std@@@2@XZ 10002b40 f i ClientSession.obj
 0001:00001b40       ?_Get_second@?$_Compressed_pair@U?$_Wrap_alloc@V?$allocator@U?$_List_node@PAVIAccount@@PAX@std@@@std@@@std@@V?$_List_val@U?$_List_simple_types@PAVIAccount@@@std@@@2@$00@std@@QAEAAV?$_List_val@U?$_List_simple_types@PAVIAccount@@@std@@@2@XZ 10002b40 f i ClientSession.obj
 0001:00001b40       ?_Get_first@?$_Compressed_pair@U?$_Wrap_alloc@V?$allocator@U?$_List_node@PAVIAccount@@PAX@std@@@std@@@std@@V?$_List_val@U?$_List_simple_types@PAVIAccount@@@std@@@2@$00@std@@QAEAAU?$_Wrap_alloc@V?$allocator@U?$_List_node@PAVIAccount@@PAX@std@@@std@@@2@XZ 10002b40 f i ClientSession.obj
 0001:00001b40       ?_Get_second@?$_Compressed_pair@U?$less@V?$basic_string@DU?$char_traits@D@std@@V?$allocator@D@2@@std@@@std@@V?$_Compressed_pair@U?$_Wrap_alloc@V?$allocator@U?$_Tree_node@U?$pair@$$CBV?$basic_string@DU?$char_traits@D@std@@V?$allocator@D@2@@std@@V?$list@IV?$allocator@I@std@@@2@@std@@PAX@std@@@std@@@std@@V?$_Tree_val@U?$_Tree_simple_types@U?$pair@$$CBV?$basic_string@DU?$char_traits@D@std@@V?$allocator@D@2@@std@@V?$list@IV?$allocator@I@std@@@2@@std@@@std@@@2@$00@2@$00@std@@QAEAAV?$_Compressed_pair@U?$_Wrap_alloc@V?$allocator@U?$_Tree_node@U?$pair@$$CBV?$basic_string@DU?$char_traits@D@std@@V?$allocator@D@2@@std@@V?$list@IV?$allocator@I@std@@@2@@std@@PAX@std@@@std@@@std@@V?$_Tree_val@U?$_Tree_simple_types@U?$pair@$$CBV?$basic_string@DU?$char_traits@D@std@@V?$allocator@D@2@@std@@V?$list@IV?$allocator@I@std@@@2@@std@@@std@@@2@$00@2@XZ 10002b40 f i ClientSession.obj
 0001:00001b40       ?_Get_second@?$_Compressed_pair@U?$_Wrap_alloc@V?$allocator@U?$_List_node@IPAX@std@@@std@@@std@@V?$_List_val@U?$_List_simple_types@I@std@@@2@$00@std@@QAEAAV?$_List_val@U?$_List_simple_types@I@std@@@2@XZ 10002b40 f i ClientSession.obj
 0001:00001b40       ?_Get_first@?$_Compressed_pair@U?$_Wrap_alloc@V?$allocator@U?$_List_node@PAVIAccount@@PAX@std@@@std@@@std@@V?$_List_val@U?$_List_simple_types@PAVIAccount@@@std@@@2@$00@std@@QBEABU?$_Wrap_alloc@V?$allocator@U?$_List_node@PAVIAccount@@PAX@std@@@std@@@2@XZ 10002b40 f i ClientSession.obj
 0001:00001b40       ?_Get_second@?$_Compressed_pair@U?$_Wrap_alloc@V?$allocator@U?$_Tree_node@U?$pair@$$CBIPAVIClientSession@@@std@@PAX@std@@@std@@@std@@V?$_Tree_val@U?$_Tree_simple_types@U?$pair@$$CBIPAVIClientSession@@@std@@@std@@@2@$00@std@@QAEAAV?$_Tree_val@U?$_Tree_simple_types@U?$pair@$$CBIPAVIClientSession@@@std@@@std@@@2@XZ 10002b40 f i ClientSession.obj
 0001:00001b40       ?_Get_first@?$_Compressed_pair@U?$_Wrap_alloc@V?$allocator@D@std@@@std@@V?$_String_val@U?$_Simple_types@D@std@@@2@$00@std@@QBEABU?$_Wrap_alloc@V?$allocator@D@std@@@2@XZ 10002b40 f i ClientProtocolImpl.obj
 0001:00001b40       ?_Get_second@?$_Compressed_pair@U?$_Wrap_alloc@V?$allocator@U?$_Tree_node@U?$pair@$$CBV?$basic_string@DU?$char_traits@D@std@@V?$allocator@D@2@@std@@V?$list@IV?$allocator@I@std@@@2@@std@@PAX@std@@@std@@@std@@V?$_Tree_val@U?$_Tree_simple_types@U?$pair@$$CBV?$basic_string@DU?$char_traits@D@std@@V?$allocator@D@2@@std@@V?$list@IV?$allocator@I@std@@@2@@std@@@std@@@2@$00@std@@QAEAAV?$_Tree_val@U?$_Tree_simple_types@U?$pair@$$CBV?$basic_string@DU?$char_traits@D@std@@V?$allocator@D@2@@std@@V?$list@IV?$allocator@I@std@@@2@@std@@@std@@@2@XZ 10002b40 f i ClientSession.obj
 0001:00001b40       ?_Get_second@?$_Compressed_pair@U?$_Wrap_alloc@V?$allocator@D@std@@@std@@V?$_String_val@U?$_Simple_types@D@std@@@2@$00@std@@QBEABV?$_String_val@U?$_Simple_types@D@std@@@2@XZ 10002b40 f i ClientProtocolImpl.obj
 0001:00001b40       ??0?$allocator@U?$_Tree_node@U?$pair@$$CBV?$basic_string@DU?$char_traits@D@std@@V?$allocator@D@2@@std@@V?$list@IV?$allocator@I@std@@@2@@std@@PAX@std@@@std@@QAE@XZ 10002b40 f i ClientSession.obj
 0001:00001b40       ??0?$allocator@U?$_Tree_node@U?$pair@$$CBIPAVIClientSession@@@std@@PAX@std@@@std@@QAE@XZ 10002b40 f i ClientSession.obj
 0001:00001b40       ??0_Bxty@?$_String_val@U?$_Simple_types@D@std@@@std@@QAE@XZ 10002b40 f i ClientProtocolImpl.obj
 0001:00001b40       ?_Get_first@?$_Compressed_pair@U?$less@I@std@@V?$_Compressed_pair@U?$_Wrap_alloc@V?$allocator@U?$_Tree_node@U?$pair@$$CBIPAVIClientSession@@@std@@PAX@std@@@std@@@std@@V?$_Tree_val@U?$_Tree_simple_types@U?$pair@$$CBIPAVIClientSession@@@std@@@std@@@2@$00@2@$00@std@@QBEABU?$less@I@2@XZ 10002b40 f i ClientSession.obj
 0001:00001b40       ?_Get_first@?$_Compressed_pair@U?$less@V?$basic_string@DU?$char_traits@D@std@@V?$allocator@D@2@@std@@@std@@V?$_Compressed_pair@U?$_Wrap_alloc@V?$allocator@U?$_Tree_node@U?$pair@$$CBV?$basic_string@DU?$char_traits@D@std@@V?$allocator@D@2@@std@@V?$list@IV?$allocator@I@std@@@2@@std@@PAX@std@@@std@@@std@@V?$_Tree_val@U?$_Tree_simple_types@U?$pair@$$CBV?$basic_string@DU?$char_traits@D@std@@V?$allocator@D@2@@std@@V?$list@IV?$allocator@I@std@@@2@@std@@@std@@@2@$00@2@$00@std@@QBEABU?$less@V?$basic_string@DU?$char_traits@D@std@@V?$allocator@D@2@@std@@@2@XZ 10002b40 f i ClientSession.obj
 0001:00001b40       ?_Get_first@?$_Compressed_pair@U?$_Wrap_alloc@V?$allocator@U?$_List_node@IPAX@std@@@std@@@std@@V?$_List_val@U?$_List_simple_types@I@std@@@2@$00@std@@QAEAAU?$_Wrap_alloc@V?$allocator@U?$_List_node@IPAX@std@@@std@@@2@XZ 10002b40 f i ClientSession.obj
 0001:00001b40       ?_Get_second@?$_Compressed_pair@U?$less@I@std@@V?$_Compressed_pair@U?$_Wrap_alloc@V?$allocator@U?$_Tree_node@U?$pair@$$CBIPAVIClientSession@@@std@@PAX@std@@@std@@@std@@V?$_Tree_val@U?$_Tree_simple_types@U?$pair@$$CBIPAVIClientSession@@@std@@@std@@@2@$00@2@$00@std@@QBEABV?$_Compressed_pair@U?$_Wrap_alloc@V?$allocator@U?$_Tree_node@U?$pair@$$CBIPAVIClientSession@@@std@@PAX@std@@@std@@@std@@V?$_Tree_val@U?$_Tree_simple_types@U?$pair@$$CBIPAVIClientSession@@@std@@@std@@@2@$00@2@XZ 10002b40 f i ClientSession.obj
 0001:00001b40       ?_Get_second@?$_Compressed_pair@U?$_Wrap_alloc@V?$allocator@U?$_List_node@IPAX@std@@@std@@@std@@V?$_List_val@U?$_List_simple_types@I@std@@@2@$00@std@@QBEABV?$_List_val@U?$_List_simple_types@I@std@@@2@XZ 10002b40 f i ClientSession.obj
 0001:00001b40       ??0?$tuple@$$V@std@@QAE@XZ 10002b40 f i ClientSession.obj
 0001:00001b40       ?_Get_second@?$_Compressed_pair@U?$less@V?$basic_string@DU?$char_traits@D@std@@V?$allocator@D@2@@std@@@std@@V?$_Compressed_pair@U?$_Wrap_alloc@V?$allocator@U?$_Tree_node@U?$pair@$$CBV?$basic_string@DU?$char_traits@D@std@@V?$allocator@D@2@@std@@V?$list@IV?$allocator@I@std@@@2@@std@@PAX@std@@@std@@@std@@V?$_Tree_val@U?$_Tree_simple_types@U?$pair@$$CBV?$basic_string@DU?$char_traits@D@std@@V?$allocator@D@2@@std@@V?$list@IV?$allocator@I@std@@@2@@std@@@std@@@2@$00@2@$00@std@@QBEABV?$_Compressed_pair@U?$_Wrap_alloc@V?$allocator@U?$_Tree_node@U?$pair@$$CBV?$basic_string@DU?$char_traits@D@std@@V?$allocator@D@2@@std@@V?$list@IV?$allocator@I@std@@@2@@std@@PAX@std@@@std@@@std@@V?$_Tree_val@U?$_Tree_simple_types@U?$pair@$$CBV?$basic_string@DU?$char_traits@D@std@@V?$allocator@D@2@@std@@V?$list@IV?$allocator@I@std@@@2@@std@@@std@@@2@$00@2@XZ 10002b40 f i ClientSession.obj
 0001:00001b40       ?_Get_first@?$_Compressed_pair@U?$_Wrap_alloc@V?$allocator@U?$_Tree_node@U?$pair@$$CBIPAVIClientSession@@@std@@PAX@std@@@std@@@std@@V?$_Tree_val@U?$_Tree_simple_types@U?$pair@$$CBIPAVIClientSession@@@std@@@std@@@2@$00@std@@QAEAAU?$_Wrap_alloc@V?$allocator@U?$_Tree_node@U?$pair@$$CBIPAVIClientSession@@@std@@PAX@std@@@std@@@2@XZ 10002b40 f i ClientSession.obj
 0001:00001b40       ?_Get_second@?$_Compressed_pair@U?$less@I@std@@V?$_Compressed_pair@U?$_Wrap_alloc@V?$allocator@U?$_Tree_node@U?$pair@$$CBIPAVIClientSession@@@std@@PAX@std@@@std@@@std@@V?$_Tree_val@U?$_Tree_simple_types@U?$pair@$$CBIPAVIClientSession@@@std@@@std@@@2@$00@2@$00@std@@QAEAAV?$_Compressed_pair@U?$_Wrap_alloc@V?$allocator@U?$_Tree_node@U?$pair@$$CBIPAVIClientSession@@@std@@PAX@std@@@std@@@std@@V?$_Tree_val@U?$_Tree_simple_types@U?$pair@$$CBIPAVIClientSession@@@std@@@std@@@2@$00@2@XZ 10002b40 f i ClientSession.obj
 0001:00001b40       ??0?$allocator@U?$_List_node@PAVIAccount@@PAX@std@@@std@@QAE@XZ 10002b40 f i ClientSession.obj
 0001:00001b40       ?_Get_first@?$_Compressed_pair@U?$_Wrap_alloc@V?$allocator@U?$_Tree_node@U?$pair@$$CBIPAVIClientSession@@@std@@PAX@std@@@std@@@std@@V?$_Tree_val@U?$_Tree_simple_types@U?$pair@$$CBIPAVIClientSession@@@std@@@std@@@2@$00@std@@QBEABU?$_Wrap_alloc@V?$allocator@U?$_Tree_node@U?$pair@$$CBIPAVIClientSession@@@std@@PAX@std@@@std@@@2@XZ 10002b40 f i ClientSession.obj
 0001:00001b40       ?_Get_first@?$_Compressed_pair@U?$less@I@std@@V?$_Compressed_pair@U?$_Wrap_alloc@V?$allocator@U?$_Tree_node@U?$pair@$$CBIPAVIClientSession@@@std@@PAX@std@@@std@@@std@@V?$_Tree_val@U?$_Tree_simple_types@U?$pair@$$CBIPAVIClientSession@@@std@@@std@@@2@$00@2@$00@std@@QAEAAU?$less@I@2@XZ 10002b40 f i ClientSession.obj
 0001:00001b40       ??0?$allocator@D@std@@QAE@XZ 10002b40 f i ClientProtocolImpl.obj
 0001:00001b40       ?_Get_second@?$_Compressed_pair@U?$_Wrap_alloc@V?$allocator@U?$_Tree_node@U?$pair@$$CBIPAVIClientSession@@@std@@PAX@std@@@std@@@std@@V?$_Tree_val@U?$_Tree_simple_types@U?$pair@$$CBIPAVIClientSession@@@std@@@std@@@2@$00@std@@QBEABV?$_Tree_val@U?$_Tree_simple_types@U?$pair@$$CBIPAVIClientSession@@@std@@@std@@@2@XZ 10002b40 f i ClientSession.obj
 0001:00001b40       ?_Get_first@?$_Compressed_pair@U?$less@V?$basic_string@DU?$char_traits@D@std@@V?$allocator@D@2@@std@@@std@@V?$_Compressed_pair@U?$_Wrap_alloc@V?$allocator@U?$_Tree_node@U?$pair@$$CBV?$basic_string@DU?$char_traits@D@std@@V?$allocator@D@2@@std@@V?$list@IV?$allocator@I@std@@@2@@std@@PAX@std@@@std@@@std@@V?$_Tree_val@U?$_Tree_simple_types@U?$pair@$$CBV?$basic_string@DU?$char_traits@D@std@@V?$allocator@D@2@@std@@V?$list@IV?$allocator@I@std@@@2@@std@@@std@@@2@$00@2@$00@std@@QAEAAU?$less@V?$basic_string@DU?$char_traits@D@std@@V?$allocator@D@2@@std@@@2@XZ 10002b40 f i ClientSession.obj
 0001:00001b40       ?_Get_second@?$_Compressed_pair@U?$_Wrap_alloc@V?$allocator@U?$_List_node@PAVIAccount@@PAX@std@@@std@@@std@@V?$_List_val@U?$_List_simple_types@PAVIAccount@@@std@@@2@$00@std@@QBEABV?$_List_val@U?$_List_simple_types@PAVIAccount@@@std@@@2@XZ 10002b40 f i ClientSession.obj
 0001:00001b40       ?_Get_first@?$_Compressed_pair@U?$_Wrap_alloc@V?$allocator@U?$_Tree_node@U?$pair@$$CBV?$basic_string@DU?$char_traits@D@std@@V?$allocator@D@2@@std@@V?$list@IV?$allocator@I@std@@@2@@std@@PAX@std@@@std@@@std@@V?$_Tree_val@U?$_Tree_simple_types@U?$pair@$$CBV?$basic_string@DU?$char_traits@D@std@@V?$allocator@D@2@@std@@V?$list@IV?$allocator@I@std@@@2@@std@@@std@@@2@$00@std@@QAEAAU?$_Wrap_alloc@V?$allocator@U?$_Tree_node@U?$pair@$$CBV?$basic_string@DU?$char_traits@D@std@@V?$allocator@D@2@@std@@V?$list@IV?$allocator@I@std@@@2@@std@@PAX@std@@@std@@@2@XZ 10002b40 f i ClientSession.obj
 0001:00001b40       ?_Get_second@?$_Compressed_pair@U?$_Wrap_alloc@V?$allocator@D@std@@@std@@V?$_String_val@U?$_Simple_types@D@std@@@2@$00@std@@QAEAAV?$_String_val@U?$_Simple_types@D@std@@@2@XZ 10002b40 f i ClientProtocolImpl.obj
 0001:00001b40       ?_Get_first@?$_Compressed_pair@U?$_Wrap_alloc@V?$allocator@D@std@@@std@@V?$_String_val@U?$_Simple_types@D@std@@@2@$00@std@@QAEAAU?$_Wrap_alloc@V?$allocator@D@std@@@2@XZ 10002b40 f i ClientProtocolImpl.obj
 0001:00001b40       ??0?$allocator@U?$_List_node@IPAX@std@@@std@@QAE@XZ 10002b40 f i ClientSession.obj
 0001:00001b40       ?_Get_second@?$_Compressed_pair@U?$_Wrap_alloc@V?$allocator@U?$_Tree_node@U?$pair@$$CBV?$basic_string@DU?$char_traits@D@std@@V?$allocator@D@2@@std@@V?$list@IV?$allocator@I@std@@@2@@std@@PAX@std@@@std@@@std@@V?$_Tree_val@U?$_Tree_simple_types@U?$pair@$$CBV?$basic_string@DU?$char_traits@D@std@@V?$allocator@D@2@@std@@V?$list@IV?$allocator@I@std@@@2@@std@@@std@@@2@$00@std@@QBEABV?$_Tree_val@U?$_Tree_simple_types@U?$pair@$$CBV?$basic_string@DU?$char_traits@D@std@@V?$allocator@D@2@@std@@V?$list@IV?$allocator@I@std@@@2@@std@@@std@@@2@XZ 10002b40 f i ClientSession.obj
 0001:00001b40       ?_Get_first@?$_Compressed_pair@U?$_Wrap_alloc@V?$allocator@U?$_Tree_node@U?$pair@$$CBV?$basic_string@DU?$char_traits@D@std@@V?$allocator@D@2@@std@@V?$list@IV?$allocator@I@std@@@2@@std@@PAX@std@@@std@@@std@@V?$_Tree_val@U?$_Tree_simple_types@U?$pair@$$CBV?$basic_string@DU?$char_traits@D@std@@V?$allocator@D@2@@std@@V?$list@IV?$allocator@I@std@@@2@@std@@@std@@@2@$00@std@@QBEABU?$_Wrap_alloc@V?$allocator@U?$_Tree_node@U?$pair@$$CBV?$basic_string@DU?$char_traits@D@std@@V?$allocator@D@2@@std@@V?$list@IV?$allocator@I@std@@@2@@std@@PAX@std@@@std@@@2@XZ 10002b40 f i ClientSession.obj
 0001:00001b50       ?_Myptr@?$_String_val@U?$_Simple_types@D@std@@@std@@QBEPBDXZ 10002b50 f i ClientProtocolImpl.obj
 0001:00001b50       ?_Myptr@?$_String_val@U?$_Simple_types@D@std@@@std@@QAEPADXZ 10002b50 f i ClientProtocolImpl.obj
 0001:00001b90       ?deallocate@?$_Wrap_alloc@V?$allocator@D@std@@@std@@QAEXPADI@Z 10002b90 f i ClientProtocolImpl.obj
 0001:00001bb0       ?_Myres@?$_String_alloc@U?$_String_base_types@DV?$allocator@D@std@@@std@@@std@@QAEAAIXZ 10002bb0 f i ClientProtocolImpl.obj
 0001:00001bd0       ?_Myhead@?$_List_alloc@U?$_List_base_types@PAVIAccount@@V?$allocator@PAVIAccount@@@std@@@std@@@std@@QAEAAPAU?$_List_node@PAVIAccount@@PAX@2@XZ 10002bd0 f i ClientSession.obj
 0001:00001bd0       ?_Bx@?$_String_alloc@U?$_String_base_types@DV?$allocator@D@std@@@std@@@std@@QAEAAT_Bxty@?$_String_val@U?$_Simple_types@D@std@@@2@XZ 10002bd0 f i ClientProtocolImpl.obj
 0001:00001bd0       ?_Myhead@?$_List_alloc@U?$_List_base_types@IV?$allocator@I@std@@@std@@@std@@QAEAAPAU?$_List_node@IPAX@2@XZ 10002bd0 f i ClientSession.obj
 0001:00001bd0       ?_Myhead@?$_List_alloc@U?$_List_base_types@IV?$allocator@I@std@@@std@@@std@@QBEABQAU?$_List_node@IPAX@2@XZ 10002bd0 f i ClientSession.obj
 0001:00001bf0       ?_Xran@?$basic_string@DU?$char_traits@D@std@@V?$allocator@D@2@@std@@QBEXXZ 10002bf0 f i ClientProtocolImpl.obj
 0001:00001c10       ?_Check_offset@?$basic_string@DU?$char_traits@D@std@@V?$allocator@D@2@@std@@QBEXI@Z 10002c10 f i ClientProtocolImpl.obj
 0001:00001c40       ?_Inside@?$basic_string@DU?$char_traits@D@std@@V?$allocator@D@2@@std@@QAE_NPBD@Z 10002c40 f i ClientProtocolImpl.obj
 0001:00001c90       ?_Copy@?$basic_string@DU?$char_traits@D@std@@V?$allocator@D@2@@std@@QAEXII@Z 10002c90 f i ClientProtocolImpl.obj
 0001:00001e70       ?_Clamp_suffix_size@?$basic_string@DU?$char_traits@D@std@@V?$allocator@D@2@@std@@QBEIII@Z 10002e70 f i ClientProtocolImpl.obj
 0001:00001eb0       ?max_size@?$basic_string@DU?$char_traits@D@std@@V?$allocator@D@2@@std@@QBEIXZ 10002eb0 f i ClientProtocolImpl.obj
 0001:00001ef0       ?erase@?$basic_string@DU?$char_traits@D@std@@V?$allocator@D@2@@std@@QAEAAV12@II@Z 10002ef0 f i ClientProtocolImpl.obj
 0001:00001f80       ?erase@?$basic_string@DU?$char_traits@D@std@@V?$allocator@D@2@@std@@QAEAAV12@I@Z 10002f80 f i ClientProtocolImpl.obj
 0001:00001fb0       ?max_size@?$_Wrap_alloc@V?$allocator@D@std@@@std@@QBEIU_Nil@2@@Z 10002fb0 f i ClientProtocolImpl.obj
 0001:00001fd0       ?allocate@?$_Wrap_alloc@V?$allocator@D@std@@@std@@QAEPADI@Z 10002fd0 f i ClientProtocolImpl.obj
 0001:00001ff0       ?deallocate@?$allocator@D@std@@QAEXPADI@Z 10002ff0 f i ClientProtocolImpl.obj
 0001:00002010       ?max_size@?$allocator_traits@V?$allocator@D@std@@@std@@SAIABV?$allocator@D@2@@Z 10003010 f i ClientProtocolImpl.obj
 0001:00002020       ?allocate@?$allocator@D@std@@QAEPADI@Z 10003020 f i ClientProtocolImpl.obj
 0001:00002040       ?max_size@?$allocator@D@std@@QBEIXZ 10003040 f i ClientProtocolImpl.obj
 0001:00002050       ??$?0$$V@?$_Compressed_pair@U?$_Wrap_alloc@V?$allocator@D@std@@@std@@V?$_String_val@U?$_Simple_types@D@std@@@2@$00@std@@QAE@U_Zero_then_variadic_args_t@1@@Z 10003050 f i ClientProtocolImpl.obj
 0001:00002070       ?_Left@?$_Tree_val@U?$_Tree_simple_types@U?$pair@$$CBV?$basic_string@DU?$char_traits@D@std@@V?$allocator@D@2@@std@@V?$list@IV?$allocator@I@std@@@2@@std@@@std@@@std@@SAAAPAU?$_Tree_node@U?$pair@$$CBV?$basic_string@DU?$char_traits@D@std@@V?$allocator@D@2@@std@@V?$list@IV?$allocator@I@std@@@2@@std@@PAX@2@PAU32@@Z 10003070 f i ClientSession.obj
 0001:00002070       ??$move@AAD@std@@YA$$QADAAD@Z 10003070 f i ClientSession.obj
 0001:00002070       ??$forward@ABUpiecewise_construct_t@std@@@std@@YAABUpiecewise_construct_t@0@ABU10@@Z 10003070 f i ClientSession.obj
 0001:00002070       ??$forward@V?$tuple@$$V@std@@@std@@YA$$QAV?$tuple@$$V@0@AAV10@@Z 10003070 f i ClientSession.obj
 0001:00002070       ??$addressof@PAU?$_Tree_node@U?$pair@$$CBIPAVIClientSession@@@std@@PAX@std@@@std@@YAPAPAU?$_Tree_node@U?$pair@$$CBIPAVIClientSession@@@std@@PAX@0@AAPAU10@@Z 10003070 f i ClientSession.obj
 0001:00002070       ??$forward@AAV?$basic_string@DU?$char_traits@D@std@@V?$allocator@D@2@@std@@@std@@YAAAV?$basic_string@DU?$char_traits@D@std@@V?$allocator@D@2@@0@AAV10@@Z 10003070 f i ClientSession.obj
 0001:00002070       ??$forward@U_Zero_then_variadic_args_t@std@@@std@@YA$$QAU_Zero_then_variadic_args_t@0@AAU10@@Z 10003070 f i ClientSession.obj
 0001:00002070       ??$forward@_N@std@@YA$$QA_NAA_N@Z 10003070 f i ClientSession.obj
 0001:00002070       ??$forward@V?$allocator@D@std@@@std@@YA$$QAV?$allocator@D@0@AAV10@@Z 10003070 f i ClientSession.obj
 0001:00002070       ??$forward@AAV?$_Tree_iterator@V?$_Tree_val@U?$_Tree_simple_types@U?$pair@$$CBIPAVIClientSession@@@std@@@std@@@std@@@std@@@std@@YAAAV?$_Tree_iterator@V?$_Tree_val@U?$_Tree_simple_types@U?$pair@$$CBIPAVIClientSession@@@std@@@std@@@std@@@0@AAV10@@Z 10003070 f i ClientSession.obj
 0001:00002070       ??$forward@ABQAVIAccount@@@std@@YAABQAVIAccount@@ABQAV1@@Z 10003070 f i ClientSession.obj
 0001:00002070       ??$addressof@U?$pair@$$CBV?$basic_string@DU?$char_traits@D@std@@V?$allocator@D@2@@std@@V?$list@IV?$allocator@I@std@@@2@@std@@@std@@YAPAU?$pair@$$CBV?$basic_string@DU?$char_traits@D@std@@V?$allocator@D@2@@std@@V?$list@IV?$allocator@I@std@@@2@@0@AAU10@@Z 10003070 f i ClientSession.obj
 0001:00002070       ??$forward@ABU?$less@I@std@@@std@@YAABU?$less@I@0@ABU10@@Z 10003070 f i ClientSession.obj
 0001:00002070       ??$forward@V?$allocator@U?$_List_node@IPAX@std@@@std@@@std@@YA$$QAV?$allocator@U?$_List_node@IPAX@std@@@0@AAV10@@Z 10003070 f i ClientSession.obj
 0001:00002070       ??$addressof@PAU?$_List_node@IPAX@std@@@std@@YAPAPAU?$_List_node@IPAX@0@AAPAU10@@Z 10003070 f i ClientSession.obj
 0001:00002070       ??$forward@AAPAVIClientSession@@@std@@YAAAPAVIClientSession@@AAPAV1@@Z 10003070 f i ClientSession.obj
 0001:00002070       ??$forward@I@std@@YA$$QAIAAI@Z 10003070 f i ClientSession.obj
 0001:00002070       ??$addressof@PAU?$_List_node@PAVIAccount@@PAX@std@@@std@@YAPAPAU?$_List_node@PAVIAccount@@PAX@0@AAPAU10@@Z 10003070 f i ClientSession.obj
 0001:00002070       ?_Left@?$_Tree_val@U?$_Tree_simple_types@U?$pair@$$CBIPAVIClientSession@@@std@@@std@@@std@@SAAAPAU?$_Tree_node@U?$pair@$$CBIPAVIClientSession@@@std@@PAX@2@PAU32@@Z 10003070 f i ClientSession.obj
 0001:00002070       ??$forward@AAPAD@std@@YAAAPADAAPAD@Z 10003070 f i ClientProtocolImpl.obj
 0001:00002070       ??$forward@AAPAU?$_Tree_node@U?$pair@$$CBIPAVIClientSession@@@std@@PAX@std@@@std@@YAAAPAU?$_Tree_node@U?$pair@$$CBIPAVIClientSession@@@std@@PAX@0@AAPAU10@@Z 10003070 f i ClientSession.obj
 0001:00002070       ??$forward@V?$tuple@ABI@std@@@std@@YA$$QAV?$tuple@ABI@0@AAV10@@Z 10003070 f i ClientSession.obj
 0001:00002070       ?_Nextnode@?$_List_val@U?$_List_simple_types@I@std@@@std@@SAAAPAU?$_List_node@IPAX@2@PAU32@@Z 10003070 f i ClientSession.obj
 0001:00002070       ??$move@AAU?$_Wrap_alloc@V?$allocator@D@std@@@std@@@std@@YA$$QAU?$_Wrap_alloc@V?$allocator@D@std@@@0@AAU10@@Z 10003070 f i ClientSession.obj
 0001:00002070       ??$forward@U?$_Wrap_alloc@V?$allocator@U?$_List_node@IPAX@std@@@std@@@std@@@std@@YA$$QAU?$_Wrap_alloc@V?$allocator@U?$_List_node@IPAX@std@@@std@@@0@AAU10@@Z 10003070 f i ClientSession.obj
 0001:00002070       ??$forward@AAPAU?$_List_node@IPAX@std@@@std@@YAAAPAU?$_List_node@IPAX@0@AAPAU10@@Z 10003070 f i ClientSession.obj
 0001:00002070       ??$move@AAU?$_Wrap_alloc@V?$allocator@U?$_List_node@IPAX@std@@@std@@@std@@@std@@YA$$QAU?$_Wrap_alloc@V?$allocator@U?$_List_node@IPAX@std@@@std@@@0@AAU10@@Z 10003070 f i ClientSession.obj
 0001:00002070       ??$forward@AAU?$pair@$$CBIPAVIClientSession@@@std@@@std@@YAAAU?$pair@$$CBIPAVIClientSession@@@0@AAU10@@Z 10003070 f i ClientSession.obj
 0001:00002070       ??$forward@V?$_Tree_iterator@V?$_Tree_val@U?$_Tree_simple_types@U?$pair@$$CBIPAVIClientSession@@@std@@@std@@@std@@@std@@@std@@YA$$QAV?$_Tree_iterator@V?$_Tree_val@U?$_Tree_simple_types@U?$pair@$$CBIPAVIClientSession@@@std@@@std@@@std@@@0@AAV10@@Z 10003070 f i ClientSession.obj
 0001:00002070       ??$addressof@PAU?$_Tree_node@U?$pair@$$CBV?$basic_string@DU?$char_traits@D@std@@V?$allocator@D@2@@std@@V?$list@IV?$allocator@I@std@@@2@@std@@PAX@std@@@std@@YAPAPAU?$_Tree_node@U?$pair@$$CBV?$basic_string@DU?$char_traits@D@std@@V?$allocator@D@2@@std@@V?$list@IV?$allocator@I@std@@@2@@std@@PAX@0@AAPAU10@@Z 10003070 f i ClientSession.obj
 0001:00002070       ??$addressof@PAVIAccount@@@std@@YAPAPAVIAccount@@AAPAV1@@Z 10003070 f i ClientSession.obj
 0001:00002070       ??$_Unfancy@D@std@@YAPADPAD@Z 10003070 f i ClientProtocolImpl.obj
 0001:00002070       ??$addressof@$$CBI@std@@YAPBIABI@Z 10003070 f i ClientSession.obj
 0001:00002070       ??$forward@AAPAU?$_List_node@PAVIAccount@@PAX@std@@@std@@YAAAPAU?$_List_node@PAVIAccount@@PAX@0@AAPAU10@@Z 10003070 f i ClientSession.obj
 0001:00002070       ?_Nextnode@?$_List_val@U?$_List_simple_types@PAVIAccount@@@std@@@std@@SAAAPAU?$_List_node@PAVIAccount@@PAX@2@PAU32@@Z 10003070 f i ClientSession.obj
 0001:00002070       ??$forward@ABI@std@@YAABIABI@Z 10003070 f i ClientSession.obj
 0001:00002070       ??$forward@U?$_Wrap_alloc@V?$allocator@D@std@@@std@@@std@@YA$$QAU?$_Wrap_alloc@V?$allocator@D@std@@@0@AAU10@@Z 10003070 f i ClientSession.obj
 0001:00002070       ??$forward@ABU?$less@V?$basic_string@DU?$char_traits@D@std@@V?$allocator@D@2@@std@@@std@@@std@@YAABU?$less@V?$basic_string@DU?$char_traits@D@std@@V?$allocator@D@2@@std@@@0@ABU10@@Z 10003070 f i ClientSession.obj
 0001:00002070       ??$move@AAV?$tuple@ABI@std@@@std@@YA$$QAV?$tuple@ABI@0@AAV10@@Z 10003070 f i ClientSession.obj
 0001:00002070       ??$forward@AAV?$list@IV?$allocator@I@std@@@std@@@std@@YAAAV?$list@IV?$allocator@I@std@@@0@AAV10@@Z 10003070 f i ClientSession.obj
 0001:00002070       ??$addressof@I@std@@YAPAIAAI@Z 10003070 f i ClientSession.obj
 0001:00002070       ??$forward@V?$_Tree_iterator@V?$_Tree_val@U?$_Tree_simple_types@U?$pair@$$CBV?$basic_string@DU?$char_traits@D@std@@V?$allocator@D@2@@std@@V?$list@IV?$allocator@I@std@@@2@@std@@@std@@@std@@@std@@@std@@YA$$QAV?$_Tree_iterator@V?$_Tree_val@U?$_Tree_simple_types@U?$pair@$$CBV?$basic_string@DU?$char_traits@D@std@@V?$allocator@D@2@@std@@V?$list@IV?$allocator@I@std@@@2@@std@@@std@@@std@@@0@AAV10@@Z 10003070 f i ClientSession.obj
 0001:00002070       ??$forward@AAU?$pair@$$CBV?$basic_string@DU?$char_traits@D@std@@V?$allocator@D@2@@std@@V?$list@IV?$allocator@I@std@@@2@@std@@@std@@YAAAU?$pair@$$CBV?$basic_string@DU?$char_traits@D@std@@V?$allocator@D@2@@std@@V?$list@IV?$allocator@I@std@@@2@@0@AAU10@@Z 10003070 f i ClientSession.obj
 0001:00002070       ??$forward@AAV?$_Tree_iterator@V?$_Tree_val@U?$_Tree_simple_types@U?$pair@$$CBV?$basic_string@DU?$char_traits@D@std@@V?$allocator@D@2@@std@@V?$list@IV?$allocator@I@std@@@2@@std@@@std@@@std@@@std@@@std@@YAAAV?$_Tree_iterator@V?$_Tree_val@U?$_Tree_simple_types@U?$pair@$$CBV?$basic_string@DU?$char_traits@D@std@@V?$allocator@D@2@@std@@V?$list@IV?$allocator@I@std@@@2@@std@@@std@@@std@@@0@AAV10@@Z 10003070 f i ClientSession.obj
 0001:00002070       ??$forward@AAPAU?$_Tree_node@U?$pair@$$CBV?$basic_string@DU?$char_traits@D@std@@V?$allocator@D@2@@std@@V?$list@IV?$allocator@I@std@@@2@@std@@PAX@std@@@std@@YAAAPAU?$_Tree_node@U?$pair@$$CBV?$basic_string@DU?$char_traits@D@std@@V?$allocator@D@2@@std@@V?$list@IV?$allocator@I@std@@@2@@std@@PAX@0@AAPAU10@@Z 10003070 f i ClientSession.obj
 0001:00002070       ??$_Kfn@$$CBIPAVIClientSession@@@?$_Tmap_traits@IPAVIClientSession@@U?$less@I@std@@V?$allocator@U?$pair@$$CBIPAVIClientSession@@@std@@@3@$0A@@std@@SAABIABU?$pair@$$CBIPAVIClientSession@@@1@@Z 10003070 f i ClientSession.obj
 0001:00002070       ??$_Kfn@$$CBV?$basic_string@DU?$char_traits@D@std@@V?$allocator@D@2@@std@@V?$list@IV?$allocator@I@std@@@2@@?$_Tmap_traits@V?$basic_string@DU?$char_traits@D@std@@V?$allocator@D@2@@std@@V?$list@IV?$allocator@I@std@@@2@U?$less@V?$basic_string@DU?$char_traits@D@std@@V?$allocator@D@2@@std@@@2@V?$allocator@U?$pair@$$CBV?$basic_string@DU?$char_traits@D@std@@V?$allocator@D@2@@std@@V?$list@IV?$allocator@I@std@@@2@@std@@@2@$0A@@std@@SAABV?$basic_string@DU?$char_traits@D@std@@V?$allocator@D@2@@1@ABU?$pair@$$CBV?$basic_string@DU?$char_traits@D@std@@V?$allocator@D@2@@std@@V?$list@IV?$allocator@I@std@@@2@@1@@Z 10003070 f i ClientSession.obj
 0001:00002070       ??$addressof@PAD@std@@YAPAPADAAPAD@Z 10003070 f i ClientProtocolImpl.obj
 0001:00002070       ??$forward@AAU?$pair@IPAVIClientSession@@@std@@@std@@YAAAU?$pair@IPAVIClientSession@@@0@AAU10@@Z 10003070 f i ClientSession.obj
 0001:00002070       ??$addressof@U?$pair@$$CBIPAVIClientSession@@@std@@@std@@YAPAU?$pair@$$CBIPAVIClientSession@@@0@AAU10@@Z 10003070 f i ClientSession.obj
 0001:00002070       ??$forward@AAU?$pair@V?$basic_string@DU?$char_traits@D@std@@V?$allocator@D@2@@std@@V?$list@IV?$allocator@I@std@@@2@@std@@@std@@YAAAU?$pair@V?$basic_string@DU?$char_traits@D@std@@V?$allocator@D@2@@std@@V?$list@IV?$allocator@I@std@@@2@@0@AAU10@@Z 10003070 f i ClientSession.obj
 0001:00002080       ??$destroy@PAU?$_Tree_node@U?$pair@$$CBV?$basic_string@DU?$char_traits@D@std@@V?$allocator@D@2@@std@@V?$list@IV?$allocator@I@std@@@2@@std@@PAX@std@@@?$_Wrap_alloc@V?$allocator@U?$_Tree_node@U?$pair@$$CBV?$basic_string@DU?$char_traits@D@std@@V?$allocator@D@2@@std@@V?$list@IV?$allocator@I@std@@@2@@std@@PAX@std@@@std@@@std@@QAEXPAPAU?$_Tree_node@U?$pair@$$CBV?$basic_string@DU?$char_traits@D@std@@V?$allocator@D@2@@std@@V?$list@IV?$allocator@I@std@@@2@@std@@PAX@1@@Z 10003080 f i ClientSession.obj
 0001:00002080       ??$destroy@PAU?$_List_node@IPAX@std@@@?$_Wrap_alloc@V?$allocator@U?$_List_node@IPAX@std@@@std@@@std@@QAEXPAPAU?$_List_node@IPAX@1@@Z 10003080 f i ClientSession.obj
 0001:00002080       ??$destroy@I@?$_Wrap_alloc@V?$allocator@U?$_List_node@IPAX@std@@@std@@@std@@QAEXPAI@Z 10003080 f i ClientSession.obj
 0001:00002080       ??$destroy@PAU?$_Tree_node@U?$pair@$$CBIPAVIClientSession@@@std@@PAX@std@@@?$_Wrap_alloc@V?$allocator@U?$_Tree_node@U?$pair@$$CBIPAVIClientSession@@@std@@PAX@std@@@std@@@std@@QAEXPAPAU?$_Tree_node@U?$pair@$$CBIPAVIClientSession@@@std@@PAX@1@@Z 10003080 f i ClientSession.obj
 0001:00002080       ??$destroy@PAD@?$_Wrap_alloc@V?$allocator@D@std@@@std@@QAEXPAPAD@Z 10003080 f i ClientProtocolImpl.obj
 0001:00002080       ??$destroy@PAVIAccount@@@?$_Wrap_alloc@V?$allocator@U?$_List_node@PAVIAccount@@PAX@std@@@std@@@std@@QAEXPAPAVIAccount@@@Z 10003080 f i ClientSession.obj
 0001:00002080       ??$destroy@U?$pair@$$CBIPAVIClientSession@@@std@@@?$_Wrap_alloc@V?$allocator@U?$_Tree_node@U?$pair@$$CBIPAVIClientSession@@@std@@PAX@std@@@std@@@std@@QAEXPAU?$pair@$$CBIPAVIClientSession@@@1@@Z 10003080 f i ClientSession.obj
 0001:00002080       ??$destroy@PAU?$_List_node@PAVIAccount@@PAX@std@@@?$_Wrap_alloc@V?$allocator@U?$_List_node@PAVIAccount@@PAX@std@@@std@@@std@@QAEXPAPAU?$_List_node@PAVIAccount@@PAX@1@@Z 10003080 f i ClientSession.obj
 0001:000020a0       ??$construct@PAU?$_Tree_node@U?$pair@$$CBV?$basic_string@DU?$char_traits@D@std@@V?$allocator@D@2@@std@@V?$list@IV?$allocator@I@std@@@2@@std@@PAX@std@@AAPAU12@@?$_Wrap_alloc@V?$allocator@U?$_Tree_node@U?$pair@$$CBV?$basic_string@DU?$char_traits@D@std@@V?$allocator@D@2@@std@@V?$list@IV?$allocator@I@std@@@2@@std@@PAX@std@@@std@@@std@@QAEXPAPAU?$_Tree_node@U?$pair@$$CBV?$basic_string@DU?$char_traits@D@std@@V?$allocator@D@2@@std@@V?$list@IV?$allocator@I@std@@@2@@std@@PAX@1@AAPAU21@@Z 100030a0 f i ClientSession.obj
 0001:000020a0       ??$construct@PAVIAccount@@ABQAV1@@?$_Wrap_alloc@V?$allocator@U?$_List_node@PAVIAccount@@PAX@std@@@std@@@std@@QAEXPAPAVIAccount@@ABQAV2@@Z 100030a0 f i ClientSession.obj
 0001:000020a0       ??$construct@PAU?$_Tree_node@U?$pair@$$CBIPAVIClientSession@@@std@@PAX@std@@AAPAU12@@?$_Wrap_alloc@V?$allocator@U?$_Tree_node@U?$pair@$$CBIPAVIClientSession@@@std@@PAX@std@@@std@@@std@@QAEXPAPAU?$_Tree_node@U?$pair@$$CBIPAVIClientSession@@@std@@PAX@1@AAPAU21@@Z 100030a0 f i ClientSession.obj
 0001:000020a0       ??$construct@II@?$_Wrap_alloc@V?$allocator@U?$_List_node@IPAX@std@@@std@@@std@@QAEXPAI$$QAI@Z 100030a0 f i ClientSession.obj
 0001:000020a0       ??$construct@PAU?$_List_node@PAVIAccount@@PAX@std@@AAPAU12@@?$_Wrap_alloc@V?$allocator@U?$_List_node@PAVIAccount@@PAX@std@@@std@@@std@@QAEXPAPAU?$_List_node@PAVIAccount@@PAX@1@AAPAU21@@Z 100030a0 f i ClientSession.obj
 0001:000020a0       ??$construct@PAU?$_List_node@IPAX@std@@AAPAU12@@?$_Wrap_alloc@V?$allocator@U?$_List_node@IPAX@std@@@std@@@std@@QAEXPAPAU?$_List_node@IPAX@1@AAPAU21@@Z 100030a0 f i ClientSession.obj
 0001:000020a0       ??$construct@IABI@?$_Wrap_alloc@V?$allocator@U?$_List_node@IPAX@std@@@std@@@std@@QAEXPAIABI@Z 100030a0 f i ClientSession.obj
 0001:000020a0       ??$construct@PADAAPAD@?$_Wrap_alloc@V?$allocator@D@std@@@std@@QAEXPAPADAAPAD@Z 100030a0 f i ClientProtocolImpl.obj
 0001:000020d0       ??0?$_String_val@U?$_Simple_types@D@std@@@std@@QAE@XZ 100030d0 f i ClientProtocolImpl.obj
 0001:00002100       ??0?$_Wrap_alloc@V?$allocator@U?$_List_node@PAVIAccount@@PAX@std@@@std@@@std@@QAE@XZ 10003100 f i ClientSession.obj
 0001:00002100       ??0?$_Wrap_alloc@V?$allocator@D@std@@@std@@QAE@XZ 10003100 f i ClientProtocolImpl.obj
 0001:00002100       ??0?$_Wrap_alloc@V?$allocator@U?$_List_node@IPAX@std@@@std@@@std@@QAE@XZ 10003100 f i ClientSession.obj
 0001:00002100       ??0?$_Wrap_alloc@V?$allocator@U?$_Tree_node@U?$pair@$$CBIPAVIClientSession@@@std@@PAX@std@@@std@@@std@@QAE@XZ 10003100 f i ClientSession.obj
 0001:00002100       ??0?$_Wrap_alloc@V?$allocator@U?$_Tree_node@U?$pair@$$CBV?$basic_string@DU?$char_traits@D@std@@V?$allocator@D@2@@std@@V?$list@IV?$allocator@I@std@@@2@@std@@PAX@std@@@std@@@std@@QAE@XZ 10003100 f i ClientSession.obj
 0001:00002120       ??$destroy@I@?$allocator_traits@V?$allocator@U?$_List_node@IPAX@std@@@std@@@std@@SAXAAV?$allocator@U?$_List_node@IPAX@std@@@1@PAI@Z 10003120 f i ClientSession.obj
 0001:00002120       ??$destroy@PAD@?$allocator_traits@V?$allocator@D@std@@@std@@SAXAAV?$allocator@D@1@PAPAD@Z 10003120 f i ClientProtocolImpl.obj
 0001:00002120       ??$destroy@U?$pair@$$CBIPAVIClientSession@@@std@@@?$allocator_traits@V?$allocator@U?$_Tree_node@U?$pair@$$CBIPAVIClientSession@@@std@@PAX@std@@@std@@@std@@SAXAAV?$allocator@U?$_Tree_node@U?$pair@$$CBIPAVIClientSession@@@std@@PAX@std@@@1@PAU?$pair@$$CBIPAVIClientSession@@@1@@Z 10003120 f i ClientSession.obj
 0001:00002120       ??$destroy@PAU?$_List_node@IPAX@std@@@?$allocator_traits@V?$allocator@U?$_List_node@IPAX@std@@@std@@@std@@SAXAAV?$allocator@U?$_List_node@IPAX@std@@@1@PAPAU?$_List_node@IPAX@1@@Z 10003120 f i ClientSession.obj
 0001:00002120       ??$destroy@PAVIAccount@@@?$allocator_traits@V?$allocator@U?$_List_node@PAVIAccount@@PAX@std@@@std@@@std@@SAXAAV?$allocator@U?$_List_node@PAVIAccount@@PAX@std@@@1@PAPAVIAccount@@@Z 10003120 f i ClientSession.obj
 0001:00002120       ??$destroy@PAU?$_List_node@PAVIAccount@@PAX@std@@@?$allocator_traits@V?$allocator@U?$_List_node@PAVIAccount@@PAX@std@@@std@@@std@@SAXAAV?$allocator@U?$_List_node@PAVIAccount@@PAX@std@@@1@PAPAU?$_List_node@PAVIAccount@@PAX@1@@Z 10003120 f i ClientSession.obj
 0001:00002120       ??$destroy@PAU?$_Tree_node@U?$pair@$$CBV?$basic_string@DU?$char_traits@D@std@@V?$allocator@D@2@@std@@V?$list@IV?$allocator@I@std@@@2@@std@@PAX@std@@@?$allocator_traits@V?$allocator@U?$_Tree_node@U?$pair@$$CBV?$basic_string@DU?$char_traits@D@std@@V?$allocator@D@2@@std@@V?$list@IV?$allocator@I@std@@@2@@std@@PAX@std@@@std@@@std@@SAXAAV?$allocator@U?$_Tree_node@U?$pair@$$CBV?$basic_string@DU?$char_traits@D@std@@V?$allocator@D@2@@std@@V?$list@IV?$allocator@I@std@@@2@@std@@PAX@std@@@1@PAPAU?$_Tree_node@U?$pair@$$CBV?$basic_string@DU?$char_traits@D@std@@V?$allocator@D@2@@std@@V?$list@IV?$allocator@I@std@@@2@@std@@PAX@1@@Z 10003120 f i ClientSession.obj
 0001:00002120       ??$destroy@PAU?$_Tree_node@U?$pair@$$CBIPAVIClientSession@@@std@@PAX@std@@@?$allocator_traits@V?$allocator@U?$_Tree_node@U?$pair@$$CBIPAVIClientSession@@@std@@PAX@std@@@std@@@std@@SAXAAV?$allocator@U?$_Tree_node@U?$pair@$$CBIPAVIClientSession@@@std@@PAX@std@@@1@PAPAU?$_Tree_node@U?$pair@$$CBIPAVIClientSession@@@std@@PAX@1@@Z 10003120 f i ClientSession.obj
 0001:00002140       ??$construct@II@?$allocator_traits@V?$allocator@U?$_List_node@IPAX@std@@@std@@@std@@SAXAAV?$allocator@U?$_List_node@IPAX@std@@@1@PAI$$QAI@Z 10003140 f i ClientSession.obj
 0001:00002140       ??$construct@PAU?$_Tree_node@U?$pair@$$CBV?$basic_string@DU?$char_traits@D@std@@V?$allocator@D@2@@std@@V?$list@IV?$allocator@I@std@@@2@@std@@PAX@std@@AAPAU12@@?$allocator_traits@V?$allocator@U?$_Tree_node@U?$pair@$$CBV?$basic_string@DU?$char_traits@D@std@@V?$allocator@D@2@@std@@V?$list@IV?$allocator@I@std@@@2@@std@@PAX@std@@@std@@@std@@SAXAAV?$allocator@U?$_Tree_node@U?$pair@$$CBV?$basic_string@DU?$char_traits@D@std@@V?$allocator@D@2@@std@@V?$list@IV?$allocator@I@std@@@2@@std@@PAX@std@@@1@PAPAU?$_Tree_node@U?$pair@$$CBV?$basic_string@DU?$char_traits@D@std@@V?$allocator@D@2@@std@@V?$list@IV?$allocator@I@std@@@2@@std@@PAX@1@AAPAU31@@Z 10003140 f i ClientSession.obj
 0001:00002140       ??$construct@PAU?$_List_node@IPAX@std@@AAPAU12@@?$allocator_traits@V?$allocator@U?$_List_node@IPAX@std@@@std@@@std@@SAXAAV?$allocator@U?$_List_node@IPAX@std@@@1@PAPAU?$_List_node@IPAX@1@AAPAU31@@Z 10003140 f i ClientSession.obj
 0001:00002140       ??$construct@PAU?$_Tree_node@U?$pair@$$CBIPAVIClientSession@@@std@@PAX@std@@AAPAU12@@?$allocator_traits@V?$allocator@U?$_Tree_node@U?$pair@$$CBIPAVIClientSession@@@std@@PAX@std@@@std@@@std@@SAXAAV?$allocator@U?$_Tree_node@U?$pair@$$CBIPAVIClientSession@@@std@@PAX@std@@@1@PAPAU?$_Tree_node@U?$pair@$$CBIPAVIClientSession@@@std@@PAX@1@AAPAU31@@Z 10003140 f i ClientSession.obj
 0001:00002140       ??$construct@PADAAPAD@?$allocator_traits@V?$allocator@D@std@@@std@@SAXAAV?$allocator@D@1@PAPADAAPAD@Z 10003140 f i ClientProtocolImpl.obj
 0001:00002140       ??$construct@PAU?$_List_node@PAVIAccount@@PAX@std@@AAPAU12@@?$allocator_traits@V?$allocator@U?$_List_node@PAVIAccount@@PAX@std@@@std@@@std@@SAXAAV?$allocator@U?$_List_node@PAVIAccount@@PAX@std@@@1@PAPAU?$_List_node@PAVIAccount@@PAX@1@AAPAU31@@Z 10003140 f i ClientSession.obj
 0001:00002140       ??$construct@PAVIAccount@@ABQAV1@@?$allocator_traits@V?$allocator@U?$_List_node@PAVIAccount@@PAX@std@@@std@@@std@@SAXAAV?$allocator@U?$_List_node@PAVIAccount@@PAX@std@@@1@PAPAVIAccount@@ABQAV3@@Z 10003140 f i ClientSession.obj
 0001:00002140       ??$construct@IABI@?$allocator_traits@V?$allocator@U?$_List_node@IPAX@std@@@std@@@std@@SAXAAV?$allocator@U?$_List_node@IPAX@std@@@1@PAIABI@Z 10003140 f i ClientSession.obj
 0001:00002160       ??$destroy@U?$pair@$$CBIPAVIClientSession@@@std@@@?$allocator@U?$_Tree_node@U?$pair@$$CBIPAVIClientSession@@@std@@PAX@std@@@std@@QAEXPAU?$pair@$$CBIPAVIClientSession@@@1@@Z 10003160 f i ClientSession.obj
 0001:00002160       ??$destroy@PAVIAccount@@@?$allocator@U?$_List_node@PAVIAccount@@PAX@std@@@std@@QAEXPAPAVIAccount@@@Z 10003160 f i ClientSession.obj
 0001:00002160       ??$destroy@PAU?$_Tree_node@U?$pair@$$CBIPAVIClientSession@@@std@@PAX@std@@@?$allocator@U?$_Tree_node@U?$pair@$$CBIPAVIClientSession@@@std@@PAX@std@@@std@@QAEXPAPAU?$_Tree_node@U?$pair@$$CBIPAVIClientSession@@@std@@PAX@1@@Z 10003160 f i ClientSession.obj
 0001:00002160       ??$destroy@I@?$allocator@U?$_List_node@IPAX@std@@@std@@QAEXPAI@Z 10003160 f i ClientSession.obj
 0001:00002160       ??$destroy@PAU?$_List_node@IPAX@std@@@?$allocator@U?$_List_node@IPAX@std@@@std@@QAEXPAPAU?$_List_node@IPAX@1@@Z 10003160 f i ClientSession.obj
 0001:00002160       ?_Adopt@_Iterator_base0@std@@QAEXPBX@Z 10003160 f i ClientSession.obj
 0001:00002160       ??$destroy@PAD@?$allocator@D@std@@QAEXPAPAD@Z 10003160 f i ClientProtocolImpl.obj
 0001:00002160       ??$destroy@PAU?$_List_node@PAVIAccount@@PAX@std@@@?$allocator@U?$_List_node@PAVIAccount@@PAX@std@@@std@@QAEXPAPAU?$_List_node@PAVIAccount@@PAX@1@@Z 10003160 f i ClientSession.obj
 0001:00002160       ??$destroy@PAU?$_Tree_node@U?$pair@$$CBV?$basic_string@DU?$char_traits@D@std@@V?$allocator@D@2@@std@@V?$list@IV?$allocator@I@std@@@2@@std@@PAX@std@@@?$allocator@U?$_Tree_node@U?$pair@$$CBV?$basic_string@DU?$char_traits@D@std@@V?$allocator@D@2@@std@@V?$list@IV?$allocator@I@std@@@2@@std@@PAX@std@@@std@@QAEXPAPAU?$_Tree_node@U?$pair@$$CBV?$basic_string@DU?$char_traits@D@std@@V?$allocator@D@2@@std@@V?$list@IV?$allocator@I@std@@@2@@std@@PAX@1@@Z 10003160 f i ClientSession.obj
 0001:00002170       ??$construct@PAU?$_Tree_node@U?$pair@$$CBIPAVIClientSession@@@std@@PAX@std@@AAPAU12@@?$allocator@U?$_Tree_node@U?$pair@$$CBIPAVIClientSession@@@std@@PAX@std@@@std@@QAEXPAPAU?$_Tree_node@U?$pair@$$CBIPAVIClientSession@@@std@@PAX@1@AAPAU21@@Z 10003170 f i ClientSession.obj
 0001:00002170       ??$construct@IABI@?$allocator@U?$_List_node@IPAX@std@@@std@@QAEXPAIABI@Z 10003170 f i ClientSession.obj
 0001:00002170       ??$construct@PADAAPAD@?$allocator@D@std@@QAEXPAPADAAPAD@Z 10003170 f i ClientProtocolImpl.obj
 0001:00002170       ??$construct@PAVIAccount@@ABQAV1@@?$allocator@U?$_List_node@PAVIAccount@@PAX@std@@@std@@QAEXPAPAVIAccount@@ABQAV2@@Z 10003170 f i ClientSession.obj
 0001:00002170       ??$construct@PAU?$_List_node@PAVIAccount@@PAX@std@@AAPAU12@@?$allocator@U?$_List_node@PAVIAccount@@PAX@std@@@std@@QAEXPAPAU?$_List_node@PAVIAccount@@PAX@1@AAPAU21@@Z 10003170 f i ClientSession.obj
 0001:00002170       ??$construct@PAU?$_Tree_node@U?$pair@$$CBV?$basic_string@DU?$char_traits@D@std@@V?$allocator@D@2@@std@@V?$list@IV?$allocator@I@std@@@2@@std@@PAX@std@@AAPAU12@@?$allocator@U?$_Tree_node@U?$pair@$$CBV?$basic_string@DU?$char_traits@D@std@@V?$allocator@D@2@@std@@V?$list@IV?$allocator@I@std@@@2@@std@@PAX@std@@@std@@QAEXPAPAU?$_Tree_node@U?$pair@$$CBV?$basic_string@DU?$char_traits@D@std@@V?$allocator@D@2@@std@@V?$list@IV?$allocator@I@std@@@2@@std@@PAX@1@AAPAU21@@Z 10003170 f i ClientSession.obj
 0001:00002170       ??$construct@II@?$allocator@U?$_List_node@IPAX@std@@@std@@QAEXPAI$$QAI@Z 10003170 f i ClientSession.obj
 0001:00002170       ??$construct@PAU?$_List_node@IPAX@std@@AAPAU12@@?$allocator@U?$_List_node@IPAX@std@@@std@@QAEXPAPAU?$_List_node@IPAX@1@AAPAU21@@Z 10003170 f i ClientSession.obj
 0001:000021c0       ??3@YAXPAX0@Z              100031c0 f i ClientSession.obj
 0001:000021d0       ?compare@?$char_traits@D@std@@SAHPBD0I@Z 100031d0 f i ClientSession.obj
 0001:00002210       ?_Getcont@_Iterator_base0@std@@QBEPBU_Container_base0@2@XZ 10003210 f i ClientSession.obj
 0001:00002220       ??$?0U_Exact_args_t@std@@$0A@@?$tuple@$$V@std@@QAE@U_Exact_args_t@1@@Z 10003220 f i ClientSession.obj
 0001:00002220       ??0?$allocator@U?$_List_node@IPAX@std@@@std@@QAE@ABV01@@Z 10003220 f i ClientSession.obj
 0001:00002220       ??0?$allocator@D@std@@QAE@ABV01@@Z 10003220 f i ClientSession.obj
 0001:00002220       ??0?$tuple@$$V@std@@QAE@ABV01@@Z 10003220 f i ClientSession.obj
 0001:00002230       ??1IClientSession@@UAE@XZ  10003230 f i ClientSession.obj
 0001:00002250       ??_GIClientSession@@UAEPAXI@Z 10003250 f i ClientSession.obj
 0001:00002250       ??_EIClientSession@@UAEPAXI@Z 10003250 f i * CIL library *:* CIL module *
 0001:00002280       ??1IClientSessionMgr@@UAE@XZ 10003280 f i ClientSession.obj
 0001:000022a0       ??_GIClientSessionMgr@@UAEPAXI@Z 100032a0 f i ClientSession.obj
 0001:000022a0       ??_EIClientSessionMgr@@UAEPAXI@Z 100032a0 f i * CIL library *:* CIL module *
 0001:000022d0       ?GetAccountList@ClientSession@@UAEAAV?$list@PAVIAccount@@V?$allocator@PAVIAccount@@@std@@@std@@XZ 100032d0 f i ClientSession.obj
 0001:000022f0       ??0ClientSession@@QAE@IPADG@Z 100032f0 f   ClientSession.obj
 0001:00002460       ??_EClientSession@@UAEPAXI@Z 10003460 f i * CIL library *:* CIL module *
 0001:00002460       ??_GClientSession@@UAEPAXI@Z 10003460 f i ClientSession.obj
 0001:000024a0       ??0IClientSession@@QAE@XZ  100034a0 f i ClientSession.obj
 0001:000024c0       ??1ClientSession@@UAE@XZ   100034c0 f   ClientSession.obj
 0001:00002530       ?GetClientId@ClientSession@@UAEIXZ 10003530 f   ClientSession.obj
 0001:00002550       ?GetClientIp@ClientSession@@UAEPADXZ 10003550 f   ClientSession.obj
 0001:00002570       ?GetclientPort@ClientSession@@UAEGXZ 10003570 f   ClientSession.obj
 0001:00002590       ?IsHandShakeDone@ClientSession@@UAE_NXZ 10003590 f   ClientSession.obj
 0001:000025b0       ?HandleRecdBuffer@ClientSession@@UAEXPADIPAVIServerProtocolEvents@@0AAH@Z 100035b0 f   ClientSession.obj
 0001:000025c0       ?CheckHeartbeat@ClientSession@@UAEHXZ 100035c0 f   ClientSession.obj
 0001:00002640       ?AddAccount@ClientSession@@UAEXPAVIAccount@@@Z 10003640 f   ClientSession.obj
 0001:00002680       ?RemoveAccount@ClientSession@@UAE?AV?$_List_iterator@V?$_List_val@U?$_List_simple_types@PAVIAccount@@@std@@@std@@@std@@PAVIAccount@@AAV23@@Z 10003680 f   ClientSession.obj
 0001:000026e0       ?SetUserName@ClientSession@@UAEXPAD@Z 100036e0 f   ClientSession.obj
 0001:00002700       ?GetUserNameA@ClientSession@@UAEPBDXZ 10003700 f   ClientSession.obj
 0001:00002720       ??0ClientSessionMgr@@QAE@PAVIServerProtocol@@@Z 10003720 f   ClientSession.obj
 0001:000027f0       ??_EClientSessionMgr@@UAEPAXI@Z 100037f0 f i * CIL library *:* CIL module *
 0001:000027f0       ??_GClientSessionMgr@@UAEPAXI@Z 100037f0 f i ClientSession.obj
 0001:00002820       ??0IClientSessionMgr@@QAE@XZ 10003820 f i ClientSession.obj
 0001:00002840       ??1?$map@IPAVIClientSession@@U?$less@I@std@@V?$allocator@U?$pair@$$CBIPAVIClientSession@@@std@@@3@@std@@QAE@XZ 10003840 f i ClientSession.obj
 0001:00002860       ??1?$map@V?$basic_string@DU?$char_traits@D@std@@V?$allocator@D@2@@std@@V?$list@IV?$allocator@I@std@@@2@U?$less@V?$basic_string@DU?$char_traits@D@std@@V?$allocator@D@2@@std@@@2@V?$allocator@U?$pair@$$CBV?$basic_string@DU?$char_traits@D@std@@V?$allocator@D@2@@std@@V?$list@IV?$allocator@I@std@@@2@@std@@@2@@std@@QAE@XZ 10003860 f i ClientSession.obj
 0001:00002880       ??1ClientSessionMgr@@UAE@XZ 10003880 f   ClientSession.obj
 0001:000029a0       ?UpdateSendTime@ClientSessionMgr@@UAE_NI@Z 100039a0 f   ClientSession.obj
 0001:00002a30       ?Add@ClientSessionMgr@@UAEXIPADG@Z 10003a30 f   ClientSession.obj
 0001:00002b00       ?AcquireSessionLock@ClientSessionMgr@@UAEXXZ 10003b00 f   ClientSession.obj
 0001:00002b30       ?ReleaseSessionLock@ClientSessionMgr@@UAEXXZ 10003b30 f   ClientSession.obj
 0001:00002b60       ?AddUserName@ClientSessionMgr@@UAEXIV?$basic_string@DU?$char_traits@D@std@@V?$allocator@D@2@@std@@@Z 10003b60 f   ClientSession.obj
 0001:00002d10       ??1?$pair@$$CBV?$basic_string@DU?$char_traits@D@std@@V?$allocator@D@2@@std@@V?$list@IV?$allocator@I@std@@@2@@std@@QAE@XZ 10003d10 f i ClientSession.obj
 0001:00002d10       ??1?$pair@V?$basic_string@DU?$char_traits@D@std@@V?$allocator@D@2@@std@@V?$list@IV?$allocator@I@std@@@2@@std@@QAE@XZ 10003d10 f i ClientSession.obj
 0001:00002d30       ?Remove@ClientSessionMgr@@UAEXI@Z 10003d30 f   ClientSession.obj
 0001:00002ef0       ?GetClientSessionList@ClientSessionMgr@@UAEPAV?$list@IV?$allocator@I@std@@@std@@V?$basic_string@DU?$char_traits@D@std@@V?$allocator@D@2@@3@@Z 10003ef0 f   ClientSession.obj
 0001:00002f90       ?GetClientSession@ClientSessionMgr@@UAEPAVIClientSession@@I@Z 10003f90 f   ClientSession.obj
 0001:00003010       ?DisconnectClient@ClientSessionMgr@@UAEXI@Z 10004010 f   ClientSession.obj
 0001:00003040       ?IsShutdown@ClientSessionMgr@@UAE_NXZ 10004040 f   ClientSession.obj
 0001:00003060       ?ConnectionReviewer@ClientSessionMgr@@SAKPAX@Z 10004060 f   ClientSession.obj
 0001:00003070       ?SetGroupID@ClientSession@@UAEXH@Z 10004070 f   ClientSession.obj
 0001:00003090       ?GetGroupID@ClientSession@@UAEHXZ 10004090 f   ClientSession.obj
 0001:000030b0       ?WebsocketSend@ClientSession@@UAE_NPAXIPAVSocket@@@Z 100040b0 f   ClientSession.obj
 0001:000030d0       ??D?$_Tree_iterator@V?$_Tree_val@U?$_Tree_simple_types@U?$pair@$$CBIPAVIClientSession@@@std@@@std@@@std@@@std@@QBEAAU?$pair@$$CBIPAVIClientSession@@@1@XZ 100040d0 f i ClientSession.obj
 0001:000030d0       ??D?$_Tree_iterator@V?$_Tree_val@U?$_Tree_simple_types@U?$pair@$$CBV?$basic_string@DU?$char_traits@D@std@@V?$allocator@D@2@@std@@V?$list@IV?$allocator@I@std@@@2@@std@@@std@@@std@@@std@@QBEAAU?$pair@$$CBV?$basic_string@DU?$char_traits@D@std@@V?$allocator@D@2@@std@@V?$list@IV?$allocator@I@std@@@2@@1@XZ 100040d0 f i ClientSession.obj
 0001:000030f0       ??9?$_List_const_iterator@V?$_List_val@U?$_List_simple_types@I@std@@@std@@@std@@QBE_NABV01@@Z 100040f0 f i ClientSession.obj
 0001:000030f0       ??9?$_Tree_const_iterator@V?$_Tree_val@U?$_Tree_simple_types@U?$pair@$$CBIPAVIClientSession@@@std@@@std@@@std@@@std@@QBE_NABV01@@Z 100040f0 f i ClientSession.obj
 0001:000030f0       ??9?$_Tree_const_iterator@V?$_Tree_val@U?$_Tree_simple_types@U?$pair@$$CBV?$basic_string@DU?$char_traits@D@std@@V?$allocator@D@2@@std@@V?$list@IV?$allocator@I@std@@@2@@std@@@std@@@std@@@std@@QBE_NABV01@@Z 100040f0 f i ClientSession.obj
 0001:00003130       ?find@?$_Tree@V?$_Tmap_traits@V?$basic_string@DU?$char_traits@D@std@@V?$allocator@D@2@@std@@V?$list@IV?$allocator@I@std@@@2@U?$less@V?$basic_string@DU?$char_traits@D@std@@V?$allocator@D@2@@std@@@2@V?$allocator@U?$pair@$$CBV?$basic_string@DU?$char_traits@D@std@@V?$allocator@D@2@@std@@V?$list@IV?$allocator@I@std@@@2@@std@@@2@$0A@@std@@@std@@QAE?AV?$_Tree_iterator@V?$_Tree_val@U?$_Tree_simple_types@U?$pair@$$CBV?$basic_string@DU?$char_traits@D@std@@V?$allocator@D@2@@std@@V?$list@IV?$allocator@I@std@@@2@@std@@@std@@@std@@@2@ABV?$basic_string@DU?$char_traits@D@std@@V?$allocator@D@2@@2@@Z 10004130 f i ClientSession.obj
 0001:000031d0       ?erase@?$_Tree@V?$_Tmap_traits@V?$basic_string@DU?$char_traits@D@std@@V?$allocator@D@2@@std@@V?$list@IV?$allocator@I@std@@@2@U?$less@V?$basic_string@DU?$char_traits@D@std@@V?$allocator@D@2@@std@@@2@V?$allocator@U?$pair@$$CBV?$basic_string@DU?$char_traits@D@std@@V?$allocator@D@2@@std@@V?$list@IV?$allocator@I@std@@@2@@std@@@2@$0A@@std@@@std@@QAE?AV?$_Tree_iterator@V?$_Tree_val@U?$_Tree_simple_types@U?$pair@$$CBV?$basic_string@DU?$char_traits@D@std@@V?$allocator@D@2@@std@@V?$list@IV?$allocator@I@std@@@2@@std@@@std@@@std@@@2@V?$_Tree_const_iterator@V?$_Tree_val@U?$_Tree_simple_types@U?$pair@$$CBV?$basic_string@DU?$char_traits@D@std@@V?$allocator@D@2@@std@@V?$list@IV?$allocator@I@std@@@2@@std@@@std@@@std@@@2@@Z 100041d0 f i ClientSession.obj
 0001:00003950       ?end@?$_Tree@V?$_Tmap_traits@V?$basic_string@DU?$char_traits@D@std@@V?$allocator@D@2@@std@@V?$list@IV?$allocator@I@std@@@2@U?$less@V?$basic_string@DU?$char_traits@D@std@@V?$allocator@D@2@@std@@@2@V?$allocator@U?$pair@$$CBV?$basic_string@DU?$char_traits@D@std@@V?$allocator@D@2@@std@@V?$list@IV?$allocator@I@std@@@2@@std@@@2@$0A@@std@@@std@@QAE?AV?$_Tree_iterator@V?$_Tree_val@U?$_Tree_simple_types@U?$pair@$$CBV?$basic_string@DU?$char_traits@D@std@@V?$allocator@D@2@@std@@V?$list@IV?$allocator@I@std@@@2@@std@@@std@@@std@@@2@XZ 10004950 f i ClientSession.obj
 0001:00003950       ?end@?$_Tree@V?$_Tmap_traits@IPAVIClientSession@@U?$less@I@std@@V?$allocator@U?$pair@$$CBIPAVIClientSession@@@std@@@3@$0A@@std@@@std@@QAE?AV?$_Tree_iterator@V?$_Tree_val@U?$_Tree_simple_types@U?$pair@$$CBIPAVIClientSession@@@std@@@std@@@std@@@2@XZ 10004950 f i ClientSession.obj
 0001:000039b0       ??1?$_Tree@V?$_Tmap_traits@V?$basic_string@DU?$char_traits@D@std@@V?$allocator@D@2@@std@@V?$list@IV?$allocator@I@std@@@2@U?$less@V?$basic_string@DU?$char_traits@D@std@@V?$allocator@D@2@@std@@@2@V?$allocator@U?$pair@$$CBV?$basic_string@DU?$char_traits@D@std@@V?$allocator@D@2@@std@@V?$list@IV?$allocator@I@std@@@2@@std@@@2@$0A@@std@@@std@@QAE@XZ 100049b0 f i ClientSession.obj
 0001:00003a00       ??0?$map@V?$basic_string@DU?$char_traits@D@std@@V?$allocator@D@2@@std@@V?$list@IV?$allocator@I@std@@@2@U?$less@V?$basic_string@DU?$char_traits@D@std@@V?$allocator@D@2@@std@@@2@V?$allocator@U?$pair@$$CBV?$basic_string@DU?$char_traits@D@std@@V?$allocator@D@2@@std@@V?$list@IV?$allocator@I@std@@@2@@std@@@2@@std@@QAE@XZ 10004a00 f i ClientSession.obj
 0001:00003a20       ??E?$_Tree_iterator@V?$_Tree_val@U?$_Tree_simple_types@U?$pair@$$CBIPAVIClientSession@@@std@@@std@@@std@@@std@@QAE?AV01@H@Z 10004a20 f i ClientSession.obj
 0001:00003a50       ??C?$_Tree_iterator@V?$_Tree_val@U?$_Tree_simple_types@U?$pair@$$CBIPAVIClientSession@@@std@@@std@@@std@@@std@@QBEPAU?$pair@$$CBIPAVIClientSession@@@1@XZ 10004a50 f i ClientSession.obj
 0001:00003a70       ??0?$_Tree_iterator@V?$_Tree_val@U?$_Tree_simple_types@U?$pair@$$CBIPAVIClientSession@@@std@@@std@@@std@@@std@@QAE@XZ 10004a70 f i ClientSession.obj
 0001:00003a90       ?find@?$_Tree@V?$_Tmap_traits@IPAVIClientSession@@U?$less@I@std@@V?$allocator@U?$pair@$$CBIPAVIClientSession@@@std@@@3@$0A@@std@@@std@@QAE?AV?$_Tree_iterator@V?$_Tree_val@U?$_Tree_simple_types@U?$pair@$$CBIPAVIClientSession@@@std@@@std@@@std@@@2@ABI@Z 10004a90 f i ClientSession.obj
 0001:00003b30       ?clear@?$_Tree@V?$_Tmap_traits@IPAVIClientSession@@U?$less@I@std@@V?$allocator@U?$pair@$$CBIPAVIClientSession@@@std@@@3@$0A@@std@@@std@@QAEXXZ 10004b30 f i ClientSession.obj
 0001:00003bd0       ?erase@?$_Tree@V?$_Tmap_traits@IPAVIClientSession@@U?$less@I@std@@V?$allocator@U?$pair@$$CBIPAVIClientSession@@@std@@@3@$0A@@std@@@std@@QAE?AV?$_Tree_iterator@V?$_Tree_val@U?$_Tree_simple_types@U?$pair@$$CBIPAVIClientSession@@@std@@@std@@@std@@@2@V?$_Tree_const_iterator@V?$_Tree_val@U?$_Tree_simple_types@U?$pair@$$CBIPAVIClientSession@@@std@@@std@@@std@@@2@@Z 10004bd0 f i ClientSession.obj
 0001:00004350       ?begin@?$_Tree@V?$_Tmap_traits@V?$basic_string@DU?$char_traits@D@std@@V?$allocator@D@2@@std@@V?$list@IV?$allocator@I@std@@@2@U?$less@V?$basic_string@DU?$char_traits@D@std@@V?$allocator@D@2@@std@@@2@V?$allocator@U?$pair@$$CBV?$basic_string@DU?$char_traits@D@std@@V?$allocator@D@2@@std@@V?$list@IV?$allocator@I@std@@@2@@std@@@2@$0A@@std@@@std@@QAE?AV?$_Tree_iterator@V?$_Tree_val@U?$_Tree_simple_types@U?$pair@$$CBV?$basic_string@DU?$char_traits@D@std@@V?$allocator@D@2@@std@@V?$list@IV?$allocator@I@std@@@2@@std@@@std@@@std@@@2@XZ 10005350 f i ClientSession.obj
 0001:00004350       ?begin@?$_Tree@V?$_Tmap_traits@IPAVIClientSession@@U?$less@I@std@@V?$allocator@U?$pair@$$CBIPAVIClientSession@@@std@@@3@$0A@@std@@@std@@QAE?AV?$_Tree_iterator@V?$_Tree_val@U?$_Tree_simple_types@U?$pair@$$CBIPAVIClientSession@@@std@@@std@@@std@@@2@XZ 10005350 f i ClientSession.obj
 0001:000043b0       ??1?$_Tree@V?$_Tmap_traits@IPAVIClientSession@@U?$less@I@std@@V?$allocator@U?$pair@$$CBIPAVIClientSession@@@std@@@3@$0A@@std@@@std@@QAE@XZ 100053b0 f i ClientSession.obj
 0001:00004400       ??A?$map@IPAVIClientSession@@U?$less@I@std@@V?$allocator@U?$pair@$$CBIPAVIClientSession@@@std@@@3@@std@@QAEAAPAVIClientSession@@ABI@Z 10005400 f i ClientSession.obj
 0001:00004430       ??0?$map@IPAVIClientSession@@U?$less@I@std@@V?$allocator@U?$pair@$$CBIPAVIClientSession@@@std@@@3@@std@@QAE@XZ 10005430 f i ClientSession.obj
 0001:00004450       ?remove@?$list@IV?$allocator@I@std@@@std@@QAEXABI@Z 10005450 f i ClientSession.obj
 0001:00004540       ?empty@?$list@IV?$allocator@I@std@@@std@@QBE_NXZ 10005540 f i ClientSession.obj
 0001:00004570       ??1?$list@IV?$allocator@I@std@@@std@@QAE@XZ 10005570 f i ClientSession.obj
 0001:00004570       ??1?$list@PAVIAccount@@V?$allocator@PAVIAccount@@@std@@@std@@QAE@XZ 10005570 f i ClientSession.obj
 0001:000045c0       ?push_back@?$list@IV?$allocator@I@std@@@std@@QAEX$$QAI@Z 100055c0 f i ClientSession.obj
 0001:00004600       ??0?$list@IV?$allocator@I@std@@@std@@QAE@XZ 10005600 f i ClientSession.obj
 0001:00004600       ??0?$list@PAVIAccount@@V?$allocator@PAVIAccount@@@std@@@std@@QAE@XZ 10005600 f i ClientSession.obj
 0001:00004620       ?erase@?$list@IV?$allocator@I@std@@@std@@QAE?AV?$_List_iterator@V?$_List_val@U?$_List_simple_types@I@std@@@std@@@2@V?$_List_const_iterator@V?$_List_val@U?$_List_simple_types@I@std@@@std@@@2@@Z 10005620 f i ClientSession.obj
 0001:00004620       ?erase@?$list@PAVIAccount@@V?$allocator@PAVIAccount@@@std@@@std@@QAE?AV?$_List_iterator@V?$_List_val@U?$_List_simple_types@PAVIAccount@@@std@@@std@@@2@V?$_List_const_iterator@V?$_List_val@U?$_List_simple_types@PAVIAccount@@@std@@@std@@@2@@Z 10005620 f i ClientSession.obj
 0001:00004670       ?push_back@?$list@PAVIAccount@@V?$allocator@PAVIAccount@@@std@@@std@@QAEXABQAVIAccount@@@Z 10005670 f i ClientSession.obj
 0001:000046a0       ?compare@?$basic_string@DU?$char_traits@D@std@@V?$allocator@D@2@@std@@QBEHABV12@@Z 100056a0 f i ClientSession.obj
 0001:00004710       ?c_str@?$basic_string@DU?$char_traits@D@std@@V?$allocator@D@2@@std@@QBEPBDXZ 10005710 f i ClientSession.obj
 0001:00004750       ??4?$basic_string@DU?$char_traits@D@std@@V?$allocator@D@2@@std@@QAEAAV01@PBD@Z 10005750 f i ClientSession.obj
 0001:00004770       ??0?$basic_string@DU?$char_traits@D@std@@V?$allocator@D@2@@std@@QAE@XZ 10005770 f i ClientSession.obj
 0001:000047c0       ??0?$basic_string@DU?$char_traits@D@std@@V?$allocator@D@2@@std@@QAE@ABV01@@Z 100057c0 f i ClientSession.obj
 0001:00004850       ??1?$_List_buy@IV?$allocator@I@std@@@std@@QAE@XZ 10005850 f i ClientSession.obj
 0001:00004850       ??1?$_List_buy@PAVIAccount@@V?$allocator@PAVIAccount@@@std@@@std@@QAE@XZ 10005850 f i ClientSession.obj
 0001:00004870       ?pointer_to@?$pointer_traits@PAU?$pair@$$CBIPAVIClientSession@@@std@@@std@@SAPAU?$pair@$$CBIPAVIClientSession@@@2@AAU32@@Z 10005870 f i ClientSession.obj
 0001:00004870       ?_Left@?$_Tree_comp_alloc@V?$_Tmap_traits@IPAVIClientSession@@U?$less@I@std@@V?$allocator@U?$pair@$$CBIPAVIClientSession@@@std@@@3@$0A@@std@@@std@@SAAAPAU?$_Tree_node@U?$pair@$$CBIPAVIClientSession@@@std@@PAX@2@PAU32@@Z 10005870 f i ClientSession.obj
 0001:00004870       ?_Nextnode@?$_List_alloc@U?$_List_base_types@IV?$allocator@I@std@@@std@@@std@@SAAAPAU?$_List_node@IPAX@2@PAU32@@Z 10005870 f i ClientSession.obj
 0001:00004870       ?_Nextnode@?$_List_alloc@U?$_List_base_types@PAVIAccount@@V?$allocator@PAVIAccount@@@std@@@std@@@std@@SAAAPAU?$_List_node@PAVIAccount@@PAX@2@PAU32@@Z 10005870 f i ClientSession.obj
 0001:00004870       ?_Left@?$_Tree_comp_alloc@V?$_Tmap_traits@V?$basic_string@DU?$char_traits@D@std@@V?$allocator@D@2@@std@@V?$list@IV?$allocator@I@std@@@2@U?$less@V?$basic_string@DU?$char_traits@D@std@@V?$allocator@D@2@@std@@@2@V?$allocator@U?$pair@$$CBV?$basic_string@DU?$char_traits@D@std@@V?$allocator@D@2@@std@@V?$list@IV?$allocator@I@std@@@2@@std@@@2@$0A@@std@@@std@@SAAAPAU?$_Tree_node@U?$pair@$$CBV?$basic_string@DU?$char_traits@D@std@@V?$allocator@D@2@@std@@V?$list@IV?$allocator@I@std@@@2@@std@@PAX@2@PAU32@@Z 10005870 f i ClientSession.obj
 0001:00004890       ??E?$_List_iterator@V?$_List_val@U?$_List_simple_types@I@std@@@std@@@std@@QAE?AV01@H@Z 10005890 f i ClientSession.obj
 0001:000048c0       ??E?$_List_iterator@V?$_List_val@U?$_List_simple_types@I@std@@@std@@@std@@QAEAAV01@XZ 100058c0 f i ClientSession.obj
 0001:000048e0       ??D?$_List_iterator@V?$_List_val@U?$_List_simple_types@I@std@@@std@@@std@@QBEAAIXZ 100058e0 f i ClientSession.obj
 0001:00004900       ?_Mysize@?$_List_alloc@U?$_List_base_types@IV?$allocator@I@std@@@std@@@std@@QBEABIXZ 10005900 f i ClientSession.obj
 0001:00004900       ?_Mysize@?$_List_alloc@U?$_List_base_types@PAVIAccount@@V?$allocator@PAVIAccount@@@std@@@std@@@std@@QAEAAIXZ 10005900 f i ClientSession.obj
 0001:00004900       ?_Mysize@?$_List_alloc@U?$_List_base_types@IV?$allocator@I@std@@@std@@@std@@QAEAAIXZ 10005900 f i ClientSession.obj
 0001:00004920       ??1?$_List_alloc@U?$_List_base_types@PAVIAccount@@V?$allocator@PAVIAccount@@@std@@@std@@@std@@QAE@XZ 10005920 f i ClientSession.obj
 0001:00004920       ??1?$_List_alloc@U?$_List_base_types@IV?$allocator@I@std@@@std@@@std@@QAE@XZ 10005920 f i ClientSession.obj
 0001:00004970       ??0?$_List_buy@IV?$allocator@I@std@@@std@@QAE@XZ 10005970 f i ClientSession.obj
 0001:00004970       ??0?$_List_buy@PAVIAccount@@V?$allocator@PAVIAccount@@@std@@@std@@QAE@XZ 10005970 f i ClientSession.obj
 0001:00004990       ?_Mynode@?$_List_unchecked_const_iterator@V?$_List_val@U?$_List_simple_types@PAVIAccount@@@std@@@std@@U_Iterator_base0@2@@std@@QBEPAU?$_List_node@PAVIAccount@@PAX@2@XZ 10005990 f i ClientSession.obj
 0001:00004990       ?_Mynode@?$_Tree_unchecked_const_iterator@V?$_Tree_val@U?$_Tree_simple_types@U?$pair@$$CBIPAVIClientSession@@@std@@@std@@@std@@U_Iterator_base0@2@@std@@QBEPAU?$_Tree_node@U?$pair@$$CBIPAVIClientSession@@@std@@PAX@2@XZ 10005990 f i ClientSession.obj
 0001:00004990       ?_Mynode@?$_List_unchecked_const_iterator@V?$_List_val@U?$_List_simple_types@I@std@@@std@@U_Iterator_base0@2@@std@@QBEPAU?$_List_node@IPAX@2@XZ 10005990 f i ClientSession.obj
 0001:00004990       ?_Mynode@?$_Tree_unchecked_const_iterator@V?$_Tree_val@U?$_Tree_simple_types@U?$pair@$$CBV?$basic_string@DU?$char_traits@D@std@@V?$allocator@D@2@@std@@V?$list@IV?$allocator@I@std@@@2@@std@@@std@@@std@@U_Iterator_base0@2@@std@@QBEPAU?$_Tree_node@U?$pair@$$CBV?$basic_string@DU?$char_traits@D@std@@V?$allocator@D@2@@std@@V?$list@IV?$allocator@I@std@@@2@@std@@PAX@2@XZ 10005990 f i ClientSession.obj
 0001:000049a0       ??0?$_Tree_iterator@V?$_Tree_val@U?$_Tree_simple_types@U?$pair@$$CBIPAVIClientSession@@@std@@@std@@@std@@@std@@QAE@PAU?$_Tree_node@U?$pair@$$CBIPAVIClientSession@@@std@@PAX@1@PBV?$_Tree_val@U?$_Tree_simple_types@U?$pair@$$CBIPAVIClientSession@@@std@@@std@@@1@@Z 100059a0 f i ClientSession.obj
 0001:000049a0       ??0?$_List_iterator@V?$_List_val@U?$_List_simple_types@PAVIAccount@@@std@@@std@@@std@@QAE@PAU?$_List_node@PAVIAccount@@PAX@1@PBV?$_List_val@U?$_List_simple_types@PAVIAccount@@@std@@@1@@Z 100059a0 f i ClientSession.obj
 0001:000049a0       ??0?$_Tree_iterator@V?$_Tree_val@U?$_Tree_simple_types@U?$pair@$$CBV?$basic_string@DU?$char_traits@D@std@@V?$allocator@D@2@@std@@V?$list@IV?$allocator@I@std@@@2@@std@@@std@@@std@@@std@@QAE@PAU?$_Tree_node@U?$pair@$$CBV?$basic_string@DU?$char_traits@D@std@@V?$allocator@D@2@@std@@V?$list@IV?$allocator@I@std@@@2@@std@@PAX@1@PBV?$_Tree_val@U?$_Tree_simple_types@U?$pair@$$CBV?$basic_string@DU?$char_traits@D@std@@V?$allocator@D@2@@std@@V?$list@IV?$allocator@I@std@@@2@@std@@@std@@@1@@Z 100059a0 f i ClientSession.obj
 0001:000049a0       ??0?$_List_iterator@V?$_List_val@U?$_List_simple_types@I@std@@@std@@@std@@QAE@PAU?$_List_node@IPAX@1@PBV?$_List_val@U?$_List_simple_types@I@std@@@1@@Z 100059a0 f i ClientSession.obj
 0001:000049c0       ??8?$_Tree_const_iterator@V?$_Tree_val@U?$_Tree_simple_types@U?$pair@$$CBV?$basic_string@DU?$char_traits@D@std@@V?$allocator@D@2@@std@@V?$list@IV?$allocator@I@std@@@2@@std@@@std@@@std@@@std@@QBE_NABV01@@Z 100059c0 f i ClientSession.obj
 0001:000049c0       ??8?$_List_const_iterator@V?$_List_val@U?$_List_simple_types@I@std@@@std@@@std@@QBE_NABV01@@Z 100059c0 f i ClientSession.obj
 0001:000049c0       ??8?$_Tree_const_iterator@V?$_Tree_val@U?$_Tree_simple_types@U?$pair@$$CBIPAVIClientSession@@@std@@@std@@@std@@@std@@QBE_NABV01@@Z 100059c0 f i ClientSession.obj
 0001:000049f0       ??E?$_Tree_const_iterator@V?$_Tree_val@U?$_Tree_simple_types@U?$pair@$$CBIPAVIClientSession@@@std@@@std@@@std@@@std@@QAEAAV01@XZ 100059f0 f i ClientSession.obj
 0001:000049f0       ??E?$_Tree_const_iterator@V?$_Tree_val@U?$_Tree_simple_types@U?$pair@$$CBV?$basic_string@DU?$char_traits@D@std@@V?$allocator@D@2@@std@@V?$list@IV?$allocator@I@std@@@2@@std@@@std@@@std@@@std@@QAEAAV01@XZ 100059f0 f i ClientSession.obj
 0001:00004a10       ??D?$_Tree_const_iterator@V?$_Tree_val@U?$_Tree_simple_types@U?$pair@$$CBIPAVIClientSession@@@std@@@std@@@std@@@std@@QBEABU?$pair@$$CBIPAVIClientSession@@@1@XZ 10005a10 f i ClientSession.obj
 0001:00004a10       ??D?$_Tree_const_iterator@V?$_Tree_val@U?$_Tree_simple_types@U?$pair@$$CBV?$basic_string@DU?$char_traits@D@std@@V?$allocator@D@2@@std@@V?$list@IV?$allocator@I@std@@@2@@std@@@std@@@std@@@std@@QBEABU?$pair@$$CBV?$basic_string@DU?$char_traits@D@std@@V?$allocator@D@2@@std@@V?$list@IV?$allocator@I@std@@@2@@1@XZ 10005a10 f i ClientSession.obj
 0001:00004a30       ?deallocate@?$_Wrap_alloc@V?$allocator@U?$_Tree_node@U?$pair@$$CBV?$basic_string@DU?$char_traits@D@std@@V?$allocator@D@2@@std@@V?$list@IV?$allocator@I@std@@@2@@std@@PAX@std@@@std@@@std@@QAEXPAU?$_Tree_node@U?$pair@$$CBV?$basic_string@DU?$char_traits@D@std@@V?$allocator@D@2@@std@@V?$list@IV?$allocator@I@std@@@2@@std@@PAX@2@I@Z 10005a30 f i ClientSession.obj
 0001:00004a50       ?_Mysize@?$_Tree_comp_alloc@V?$_Tmap_traits@V?$basic_string@DU?$char_traits@D@std@@V?$allocator@D@2@@std@@V?$list@IV?$allocator@I@std@@@2@U?$less@V?$basic_string@DU?$char_traits@D@std@@V?$allocator@D@2@@std@@@2@V?$allocator@U?$pair@$$CBV?$basic_string@DU?$char_traits@D@std@@V?$allocator@D@2@@std@@V?$list@IV?$allocator@I@std@@@2@@std@@@2@$0A@@std@@@std@@QAEAAIXZ 10005a50 f i ClientSession.obj
 0001:00004a50       ?_Mysize@?$_Tree_comp_alloc@V?$_Tmap_traits@IPAVIClientSession@@U?$less@I@std@@V?$allocator@U?$pair@$$CBIPAVIClientSession@@@std@@@3@$0A@@std@@@std@@QBEABIXZ 10005a50 f i ClientSession.obj
 0001:00004a50       ?_Mysize@?$_Tree_comp_alloc@V?$_Tmap_traits@IPAVIClientSession@@U?$less@I@std@@V?$allocator@U?$pair@$$CBIPAVIClientSession@@@std@@@3@$0A@@std@@@std@@QAEAAIXZ 10005a50 f i ClientSession.obj
 0001:00004a70       ?_Myhead@?$_Tree_comp_alloc@V?$_Tmap_traits@V?$basic_string@DU?$char_traits@D@std@@V?$allocator@D@2@@std@@V?$list@IV?$allocator@I@std@@@2@U?$less@V?$basic_string@DU?$char_traits@D@std@@V?$allocator@D@2@@std@@@2@V?$allocator@U?$pair@$$CBV?$basic_string@DU?$char_traits@D@std@@V?$allocator@D@2@@std@@V?$list@IV?$allocator@I@std@@@2@@std@@@2@$0A@@std@@@std@@QBEABQAU?$_Tree_node@U?$pair@$$CBV?$basic_string@DU?$char_traits@D@std@@V?$allocator@D@2@@std@@V?$list@IV?$allocator@I@std@@@2@@std@@PAX@2@XZ 10005a70 f i ClientSession.obj
 0001:00004a70       ?_Myhead@?$_Tree_comp_alloc@V?$_Tmap_traits@IPAVIClientSession@@U?$less@I@std@@V?$allocator@U?$pair@$$CBIPAVIClientSession@@@std@@@3@$0A@@std@@@std@@QBEABQAU?$_Tree_node@U?$pair@$$CBIPAVIClientSession@@@std@@PAX@2@XZ 10005a70 f i ClientSession.obj
 0001:00004a70       ?_Myhead@?$_Tree_comp_alloc@V?$_Tmap_traits@V?$basic_string@DU?$char_traits@D@std@@V?$allocator@D@2@@std@@V?$list@IV?$allocator@I@std@@@2@U?$less@V?$basic_string@DU?$char_traits@D@std@@V?$allocator@D@2@@std@@@2@V?$allocator@U?$pair@$$CBV?$basic_string@DU?$char_traits@D@std@@V?$allocator@D@2@@std@@V?$list@IV?$allocator@I@std@@@2@@std@@@2@$0A@@std@@@std@@QAEAAPAU?$_Tree_node@U?$pair@$$CBV?$basic_string@DU?$char_traits@D@std@@V?$allocator@D@2@@std@@V?$list@IV?$allocator@I@std@@@2@@std@@PAX@2@XZ 10005a70 f i ClientSession.obj
 0001:00004a70       ?_Myhead@?$_Tree_comp_alloc@V?$_Tmap_traits@IPAVIClientSession@@U?$less@I@std@@V?$allocator@U?$pair@$$CBIPAVIClientSession@@@std@@@3@$0A@@std@@@std@@QAEAAPAU?$_Tree_node@U?$pair@$$CBIPAVIClientSession@@@std@@PAX@2@XZ 10005a70 f i ClientSession.obj
 0001:00004a90       ?_Getal@?$_Tree_comp_alloc@V?$_Tmap_traits@V?$basic_string@DU?$char_traits@D@std@@V?$allocator@D@2@@std@@V?$list@IV?$allocator@I@std@@@2@U?$less@V?$basic_string@DU?$char_traits@D@std@@V?$allocator@D@2@@std@@@2@V?$allocator@U?$pair@$$CBV?$basic_string@DU?$char_traits@D@std@@V?$allocator@D@2@@std@@V?$list@IV?$allocator@I@std@@@2@@std@@@2@$0A@@std@@@std@@QBEABU?$_Wrap_alloc@V?$allocator@U?$_Tree_node@U?$pair@$$CBV?$basic_string@DU?$char_traits@D@std@@V?$allocator@D@2@@std@@V?$list@IV?$allocator@I@std@@@2@@std@@PAX@std@@@std@@@2@XZ 10005a90 f i ClientSession.obj
 0001:00004a90       ?_Get_data@?$_Tree_comp_alloc@V?$_Tmap_traits@V?$basic_string@DU?$char_traits@D@std@@V?$allocator@D@2@@std@@V?$list@IV?$allocator@I@std@@@2@U?$less@V?$basic_string@DU?$char_traits@D@std@@V?$allocator@D@2@@std@@@2@V?$allocator@U?$pair@$$CBV?$basic_string@DU?$char_traits@D@std@@V?$allocator@D@2@@std@@V?$list@IV?$allocator@I@std@@@2@@std@@@2@$0A@@std@@@std@@QAEAAV?$_Tree_val@U?$_Tree_simple_types@U?$pair@$$CBV?$basic_string@DU?$char_traits@D@std@@V?$allocator@D@2@@std@@V?$list@IV?$allocator@I@std@@@2@@std@@@std@@@2@XZ 10005a90 f i ClientSession.obj
 0001:00004a90       ?_Get_data@?$_Tree_comp_alloc@V?$_Tmap_traits@IPAVIClientSession@@U?$less@I@std@@V?$allocator@U?$pair@$$CBIPAVIClientSession@@@std@@@3@$0A@@std@@@std@@QAEAAV?$_Tree_val@U?$_Tree_simple_types@U?$pair@$$CBIPAVIClientSession@@@std@@@std@@@2@XZ 10005a90 f i ClientSession.obj
 0001:00004a90       ?_Getal@?$_Tree_comp_alloc@V?$_Tmap_traits@V?$basic_string@DU?$char_traits@D@std@@V?$allocator@D@2@@std@@V?$list@IV?$allocator@I@std@@@2@U?$less@V?$basic_string@DU?$char_traits@D@std@@V?$allocator@D@2@@std@@@2@V?$allocator@U?$pair@$$CBV?$basic_string@DU?$char_traits@D@std@@V?$allocator@D@2@@std@@V?$list@IV?$allocator@I@std@@@2@@std@@@2@$0A@@std@@@std@@QAEAAU?$_Wrap_alloc@V?$allocator@U?$_Tree_node@U?$pair@$$CBV?$basic_string@DU?$char_traits@D@std@@V?$allocator@D@2@@std@@V?$list@IV?$allocator@I@std@@@2@@std@@PAX@std@@@std@@@2@XZ 10005a90 f i ClientSession.obj
 0001:00004a90       ?_Get_data@?$_Tree_comp_alloc@V?$_Tmap_traits@IPAVIClientSession@@U?$less@I@std@@V?$allocator@U?$pair@$$CBIPAVIClientSession@@@std@@@3@$0A@@std@@@std@@QBEABV?$_Tree_val@U?$_Tree_simple_types@U?$pair@$$CBIPAVIClientSession@@@std@@@std@@@2@XZ 10005a90 f i ClientSession.obj
 0001:00004a90       ?_Getal@?$_Tree_comp_alloc@V?$_Tmap_traits@IPAVIClientSession@@U?$less@I@std@@V?$allocator@U?$pair@$$CBIPAVIClientSession@@@std@@@3@$0A@@std@@@std@@QBEABU?$_Wrap_alloc@V?$allocator@U?$_Tree_node@U?$pair@$$CBIPAVIClientSession@@@std@@PAX@std@@@std@@@2@XZ 10005a90 f i ClientSession.obj
 0001:00004a90       ?_Getal@?$_Tree_comp_alloc@V?$_Tmap_traits@IPAVIClientSession@@U?$less@I@std@@V?$allocator@U?$pair@$$CBIPAVIClientSession@@@std@@@3@$0A@@std@@@std@@QAEAAU?$_Wrap_alloc@V?$allocator@U?$_Tree_node@U?$pair@$$CBIPAVIClientSession@@@std@@PAX@std@@@std@@@2@XZ 10005a90 f i ClientSession.obj
 0001:00004a90       ?_Get_data@?$_Tree_comp_alloc@V?$_Tmap_traits@V?$basic_string@DU?$char_traits@D@std@@V?$allocator@D@2@@std@@V?$list@IV?$allocator@I@std@@@2@U?$less@V?$basic_string@DU?$char_traits@D@std@@V?$allocator@D@2@@std@@@2@V?$allocator@U?$pair@$$CBV?$basic_string@DU?$char_traits@D@std@@V?$allocator@D@2@@std@@V?$list@IV?$allocator@I@std@@@2@@std@@@2@$0A@@std@@@std@@QBEABV?$_Tree_val@U?$_Tree_simple_types@U?$pair@$$CBV?$basic_string@DU?$char_traits@D@std@@V?$allocator@D@2@@std@@V?$list@IV?$allocator@I@std@@@2@@std@@@std@@@2@XZ 10005a90 f i ClientSession.obj
 0001:00004ab0       ??1?$_Tree_comp_alloc@V?$_Tmap_traits@V?$basic_string@DU?$char_traits@D@std@@V?$allocator@D@2@@std@@V?$list@IV?$allocator@I@std@@@2@U?$less@V?$basic_string@DU?$char_traits@D@std@@V?$allocator@D@2@@std@@@2@V?$allocator@U?$pair@$$CBV?$basic_string@DU?$char_traits@D@std@@V?$allocator@D@2@@std@@V?$list@IV?$allocator@I@std@@@2@@std@@@2@$0A@@std@@@std@@QAE@XZ 10005ab0 f i ClientSession.obj
 0001:00004b00       ?_Min@?$_Tree_comp_alloc@V?$_Tmap_traits@V?$basic_string@DU?$char_traits@D@std@@V?$allocator@D@2@@std@@V?$list@IV?$allocator@I@std@@@2@U?$less@V?$basic_string@DU?$char_traits@D@std@@V?$allocator@D@2@@std@@@2@V?$allocator@U?$pair@$$CBV?$basic_string@DU?$char_traits@D@std@@V?$allocator@D@2@@std@@V?$list@IV?$allocator@I@std@@@2@@std@@@2@$0A@@std@@@std@@SAPAU?$_Tree_node@U?$pair@$$CBV?$basic_string@DU?$char_traits@D@std@@V?$allocator@D@2@@std@@V?$list@IV?$allocator@I@std@@@2@@std@@PAX@2@PAU32@@Z 10005b00 f i ClientSession.obj
 0001:00004b00       ?_Min@?$_Tree_comp_alloc@V?$_Tmap_traits@IPAVIClientSession@@U?$less@I@std@@V?$allocator@U?$pair@$$CBIPAVIClientSession@@@std@@@3@$0A@@std@@@std@@SAPAU?$_Tree_node@U?$pair@$$CBIPAVIClientSession@@@std@@PAX@2@PAU32@@Z 10005b00 f i ClientSession.obj
 0001:00004b20       ?_Max@?$_Tree_comp_alloc@V?$_Tmap_traits@V?$basic_string@DU?$char_traits@D@std@@V?$allocator@D@2@@std@@V?$list@IV?$allocator@I@std@@@2@U?$less@V?$basic_string@DU?$char_traits@D@std@@V?$allocator@D@2@@std@@@2@V?$allocator@U?$pair@$$CBV?$basic_string@DU?$char_traits@D@std@@V?$allocator@D@2@@std@@V?$list@IV?$allocator@I@std@@@2@@std@@@2@$0A@@std@@@std@@SAPAU?$_Tree_node@U?$pair@$$CBV?$basic_string@DU?$char_traits@D@std@@V?$allocator@D@2@@std@@V?$list@IV?$allocator@I@std@@@2@@std@@PAX@2@PAU32@@Z 10005b20 f i ClientSession.obj
 0001:00004b20       ?_Max@?$_Tree_comp_alloc@V?$_Tmap_traits@IPAVIClientSession@@U?$less@I@std@@V?$allocator@U?$pair@$$CBIPAVIClientSession@@@std@@@3@$0A@@std@@@std@@SAPAU?$_Tree_node@U?$pair@$$CBIPAVIClientSession@@@std@@PAX@2@PAU32@@Z 10005b20 f i ClientSession.obj
 0001:00004b40       ?_Myval@?$_Tree_comp_alloc@V?$_Tmap_traits@IPAVIClientSession@@U?$less@I@std@@V?$allocator@U?$pair@$$CBIPAVIClientSession@@@std@@@3@$0A@@std@@@std@@SAAAU?$pair@$$CBIPAVIClientSession@@@2@PAU?$_Tree_node@U?$pair@$$CBIPAVIClientSession@@@std@@PAX@2@@Z 10005b40 f i ClientSession.obj
 0001:00004b40       ?_Myval@?$_Tree_comp_alloc@V?$_Tmap_traits@V?$basic_string@DU?$char_traits@D@std@@V?$allocator@D@2@@std@@V?$list@IV?$allocator@I@std@@@2@U?$less@V?$basic_string@DU?$char_traits@D@std@@V?$allocator@D@2@@std@@@2@V?$allocator@U?$pair@$$CBV?$basic_string@DU?$char_traits@D@std@@V?$allocator@D@2@@std@@V?$list@IV?$allocator@I@std@@@2@@std@@@2@$0A@@std@@@std@@SAAAU?$pair@$$CBV?$basic_string@DU?$char_traits@D@std@@V?$allocator@D@2@@std@@V?$list@IV?$allocator@I@std@@@2@@2@PAU?$_Tree_node@U?$pair@$$CBV?$basic_string@DU?$char_traits@D@std@@V?$allocator@D@2@@std@@V?$list@IV?$allocator@I@std@@@2@@std@@PAX@2@@Z 10005b40 f i ClientSession.obj
 0001:00004b60       ?_Myval@?$_List_alloc@U?$_List_base_types@IV?$allocator@I@std@@@std@@@std@@SAAAIPAU?$_List_node@IPAX@2@@Z 10005b60 f i ClientSession.obj
 0001:00004b60       ?_Myval@?$_List_alloc@U?$_List_base_types@PAVIAccount@@V?$allocator@PAVIAccount@@@std@@@std@@@std@@SAAAPAVIAccount@@PAU?$_List_node@PAVIAccount@@PAX@2@@Z 10005b60 f i ClientSession.obj
 0001:00004b60       ?_Right@?$_Tree_comp_alloc@V?$_Tmap_traits@V?$basic_string@DU?$char_traits@D@std@@V?$allocator@D@2@@std@@V?$list@IV?$allocator@I@std@@@2@U?$less@V?$basic_string@DU?$char_traits@D@std@@V?$allocator@D@2@@std@@@2@V?$allocator@U?$pair@$$CBV?$basic_string@DU?$char_traits@D@std@@V?$allocator@D@2@@std@@V?$list@IV?$allocator@I@std@@@2@@std@@@2@$0A@@std@@@std@@SAAAPAU?$_Tree_node@U?$pair@$$CBV?$basic_string@DU?$char_traits@D@std@@V?$allocator@D@2@@std@@V?$list@IV?$allocator@I@std@@@2@@std@@PAX@2@PAU32@@Z 10005b60 f i ClientSession.obj
 0001:00004b60       ?_Right@?$_Tree_comp_alloc@V?$_Tmap_traits@IPAVIClientSession@@U?$less@I@std@@V?$allocator@U?$pair@$$CBIPAVIClientSession@@@std@@@3@$0A@@std@@@std@@SAAAPAU?$_Tree_node@U?$pair@$$CBIPAVIClientSession@@@std@@PAX@2@PAU32@@Z 10005b60 f i ClientSession.obj
 0001:00004b80       ?_Prevnode@?$_List_alloc@U?$_List_base_types@PAVIAccount@@V?$allocator@PAVIAccount@@@std@@@std@@@std@@SAAAPAU?$_List_node@PAVIAccount@@PAX@2@PAU32@@Z 10005b80 f i ClientSession.obj
 0001:00004b80       ?_Prevnode@?$_List_alloc@U?$_List_base_types@IV?$allocator@I@std@@@std@@@std@@SAAAPAU?$_List_node@IPAX@2@PAU32@@Z 10005b80 f i ClientSession.obj
 0001:00004b80       ?_Parent@?$_Tree_comp_alloc@V?$_Tmap_traits@IPAVIClientSession@@U?$less@I@std@@V?$allocator@U?$pair@$$CBIPAVIClientSession@@@std@@@3@$0A@@std@@@std@@SAAAPAU?$_Tree_node@U?$pair@$$CBIPAVIClientSession@@@std@@PAX@2@PAU32@@Z 10005b80 f i ClientSession.obj
 0001:00004b80       ?_Parent@?$_Tree_comp_alloc@V?$_Tmap_traits@V?$basic_string@DU?$char_traits@D@std@@V?$allocator@D@2@@std@@V?$list@IV?$allocator@I@std@@@2@U?$less@V?$basic_string@DU?$char_traits@D@std@@V?$allocator@D@2@@std@@@2@V?$allocator@U?$pair@$$CBV?$basic_string@DU?$char_traits@D@std@@V?$allocator@D@2@@std@@V?$list@IV?$allocator@I@std@@@2@@std@@@2@$0A@@std@@@std@@SAAAPAU?$_Tree_node@U?$pair@$$CBV?$basic_string@DU?$char_traits@D@std@@V?$allocator@D@2@@std@@V?$list@IV?$allocator@I@std@@@2@@std@@PAX@2@PAU32@@Z 10005b80 f i ClientSession.obj
 0001:00004ba0       ?_Isnil@?$_Tree_comp_alloc@V?$_Tmap_traits@IPAVIClientSession@@U?$less@I@std@@V?$allocator@U?$pair@$$CBIPAVIClientSession@@@std@@@3@$0A@@std@@@std@@SAAADPAU?$_Tree_node@U?$pair@$$CBIPAVIClientSession@@@std@@PAX@2@@Z 10005ba0 f i ClientSession.obj
 0001:00004ba0       ?_Isnil@?$_Tree_comp_alloc@V?$_Tmap_traits@V?$basic_string@DU?$char_traits@D@std@@V?$allocator@D@2@@std@@V?$list@IV?$allocator@I@std@@@2@U?$less@V?$basic_string@DU?$char_traits@D@std@@V?$allocator@D@2@@std@@@2@V?$allocator@U?$pair@$$CBV?$basic_string@DU?$char_traits@D@std@@V?$allocator@D@2@@std@@V?$list@IV?$allocator@I@std@@@2@@std@@@2@$0A@@std@@@std@@SAAADPAU?$_Tree_node@U?$pair@$$CBV?$basic_string@DU?$char_traits@D@std@@V?$allocator@D@2@@std@@V?$list@IV?$allocator@I@std@@@2@@std@@PAX@2@@Z 10005ba0 f i ClientSession.obj
 0001:00004bc0       ?_Color@?$_Tree_comp_alloc@V?$_Tmap_traits@IPAVIClientSession@@U?$less@I@std@@V?$allocator@U?$pair@$$CBIPAVIClientSession@@@std@@@3@$0A@@std@@@std@@SAAADPAU?$_Tree_node@U?$pair@$$CBIPAVIClientSession@@@std@@PAX@2@@Z 10005bc0 f i ClientSession.obj
 0001:00004bc0       ?_Color@?$_Tree_comp_alloc@V?$_Tmap_traits@V?$basic_string@DU?$char_traits@D@std@@V?$allocator@D@2@@std@@V?$list@IV?$allocator@I@std@@@2@U?$less@V?$basic_string@DU?$char_traits@D@std@@V?$allocator@D@2@@std@@@2@V?$allocator@U?$pair@$$CBV?$basic_string@DU?$char_traits@D@std@@V?$allocator@D@2@@std@@V?$list@IV?$allocator@I@std@@@2@@std@@@2@$0A@@std@@@std@@SAAADPAU?$_Tree_node@U?$pair@$$CBV?$basic_string@DU?$char_traits@D@std@@V?$allocator@D@2@@std@@V?$list@IV?$allocator@I@std@@@2@@std@@PAX@2@@Z 10005bc0 f i ClientSession.obj
 0001:00004be0       ?_Key@?$_Tree@V?$_Tmap_traits@V?$basic_string@DU?$char_traits@D@std@@V?$allocator@D@2@@std@@V?$list@IV?$allocator@I@std@@@2@U?$less@V?$basic_string@DU?$char_traits@D@std@@V?$allocator@D@2@@std@@@2@V?$allocator@U?$pair@$$CBV?$basic_string@DU?$char_traits@D@std@@V?$allocator@D@2@@std@@V?$list@IV?$allocator@I@std@@@2@@std@@@2@$0A@@std@@@std@@IBEABV?$basic_string@DU?$char_traits@D@std@@V?$allocator@D@2@@2@PAU?$_Tree_node@U?$pair@$$CBV?$basic_string@DU?$char_traits@D@std@@V?$allocator@D@2@@std@@V?$list@IV?$allocator@I@std@@@2@@std@@PAX@2@@Z 10005be0 f i ClientSession.obj
 0001:00004be0       ?_Key@?$_Tree@V?$_Tmap_traits@IPAVIClientSession@@U?$less@I@std@@V?$allocator@U?$pair@$$CBIPAVIClientSession@@@std@@@3@$0A@@std@@@std@@IBEABIPAU?$_Tree_node@U?$pair@$$CBIPAVIClientSession@@@std@@PAX@2@@Z 10005be0 f i ClientSession.obj
 0001:00004c10       ?_Tidy@?$_Tree@V?$_Tmap_traits@V?$basic_string@DU?$char_traits@D@std@@V?$allocator@D@2@@std@@V?$list@IV?$allocator@I@std@@@2@U?$less@V?$basic_string@DU?$char_traits@D@std@@V?$allocator@D@2@@std@@@2@V?$allocator@U?$pair@$$CBV?$basic_string@DU?$char_traits@D@std@@V?$allocator@D@2@@std@@V?$list@IV?$allocator@I@std@@@2@@std@@@2@$0A@@std@@@std@@IAEXXZ 10005c10 f i ClientSession.obj
 0001:00004c60       ?_Rrotate@?$_Tree@V?$_Tmap_traits@V?$basic_string@DU?$char_traits@D@std@@V?$allocator@D@2@@std@@V?$list@IV?$allocator@I@std@@@2@U?$less@V?$basic_string@DU?$char_traits@D@std@@V?$allocator@D@2@@std@@@2@V?$allocator@U?$pair@$$CBV?$basic_string@DU?$char_traits@D@std@@V?$allocator@D@2@@std@@V?$list@IV?$allocator@I@std@@@2@@std@@@2@$0A@@std@@@std@@IAEXPAU?$_Tree_node@U?$pair@$$CBV?$basic_string@DU?$char_traits@D@std@@V?$allocator@D@2@@std@@V?$list@IV?$allocator@I@std@@@2@@std@@PAX@2@@Z 10005c60 f i ClientSession.obj
 0001:00004c60       ?_Rrotate@?$_Tree@V?$_Tmap_traits@IPAVIClientSession@@U?$less@I@std@@V?$allocator@U?$pair@$$CBIPAVIClientSession@@@std@@@3@$0A@@std@@@std@@IAEXPAU?$_Tree_node@U?$pair@$$CBIPAVIClientSession@@@std@@PAX@2@@Z 10005c60 f i ClientSession.obj
 0001:00004d90       ?_Root@?$_Tree@V?$_Tmap_traits@V?$basic_string@DU?$char_traits@D@std@@V?$allocator@D@2@@std@@V?$list@IV?$allocator@I@std@@@2@U?$less@V?$basic_string@DU?$char_traits@D@std@@V?$allocator@D@2@@std@@@2@V?$allocator@U?$pair@$$CBV?$basic_string@DU?$char_traits@D@std@@V?$allocator@D@2@@std@@V?$list@IV?$allocator@I@std@@@2@@std@@@2@$0A@@std@@@std@@IBEAAPAU?$_Tree_node@U?$pair@$$CBV?$basic_string@DU?$char_traits@D@std@@V?$allocator@D@2@@std@@V?$list@IV?$allocator@I@std@@@2@@std@@PAX@2@XZ 10005d90 f i ClientSession.obj
 0001:00004d90       ?_Root@?$_Tree@V?$_Tmap_traits@IPAVIClientSession@@U?$less@I@std@@V?$allocator@U?$pair@$$CBIPAVIClientSession@@@std@@@3@$0A@@std@@@std@@IBEAAPAU?$_Tree_node@U?$pair@$$CBIPAVIClientSession@@@std@@PAX@2@XZ 10005d90 f i ClientSession.obj
 0001:00004db0       ?_Rmost@?$_Tree@V?$_Tmap_traits@V?$basic_string@DU?$char_traits@D@std@@V?$allocator@D@2@@std@@V?$list@IV?$allocator@I@std@@@2@U?$less@V?$basic_string@DU?$char_traits@D@std@@V?$allocator@D@2@@std@@@2@V?$allocator@U?$pair@$$CBV?$basic_string@DU?$char_traits@D@std@@V?$allocator@D@2@@std@@V?$list@IV?$allocator@I@std@@@2@@std@@@2@$0A@@std@@@std@@IBEAAPAU?$_Tree_node@U?$pair@$$CBV?$basic_string@DU?$char_traits@D@std@@V?$allocator@D@2@@std@@V?$list@IV?$allocator@I@std@@@2@@std@@PAX@2@XZ 10005db0 f i ClientSession.obj
 0001:00004db0       ?_Rmost@?$_Tree@V?$_Tmap_traits@IPAVIClientSession@@U?$less@I@std@@V?$allocator@U?$pair@$$CBIPAVIClientSession@@@std@@@3@$0A@@std@@@std@@IBEAAPAU?$_Tree_node@U?$pair@$$CBIPAVIClientSession@@@std@@PAX@2@XZ 10005db0 f i ClientSession.obj
 0001:00004dd0       ?_Lrotate@?$_Tree@V?$_Tmap_traits@IPAVIClientSession@@U?$less@I@std@@V?$allocator@U?$pair@$$CBIPAVIClientSession@@@std@@@3@$0A@@std@@@std@@IAEXPAU?$_Tree_node@U?$pair@$$CBIPAVIClientSession@@@std@@PAX@2@@Z 10005dd0 f i ClientSession.obj
 0001:00004dd0       ?_Lrotate@?$_Tree@V?$_Tmap_traits@V?$basic_string@DU?$char_traits@D@std@@V?$allocator@D@2@@std@@V?$list@IV?$allocator@I@std@@@2@U?$less@V?$basic_string@DU?$char_traits@D@std@@V?$allocator@D@2@@std@@@2@V?$allocator@U?$pair@$$CBV?$basic_string@DU?$char_traits@D@std@@V?$allocator@D@2@@std@@V?$list@IV?$allocator@I@std@@@2@@std@@@2@$0A@@std@@@std@@IAEXPAU?$_Tree_node@U?$pair@$$CBV?$basic_string@DU?$char_traits@D@std@@V?$allocator@D@2@@std@@V?$list@IV?$allocator@I@std@@@2@@std@@PAX@2@@Z 10005dd0 f i ClientSession.obj
 0001:00004f00       ?_Lmost@?$_Tree@V?$_Tmap_traits@IPAVIClientSession@@U?$less@I@std@@V?$allocator@U?$pair@$$CBIPAVIClientSession@@@std@@@3@$0A@@std@@@std@@IBEAAPAU?$_Tree_node@U?$pair@$$CBIPAVIClientSession@@@std@@PAX@2@XZ 10005f00 f i ClientSession.obj
 0001:00004f00       ?_Lmost@?$_Tree@V?$_Tmap_traits@V?$basic_string@DU?$char_traits@D@std@@V?$allocator@D@2@@std@@V?$list@IV?$allocator@I@std@@@2@U?$less@V?$basic_string@DU?$char_traits@D@std@@V?$allocator@D@2@@std@@@2@V?$allocator@U?$pair@$$CBV?$basic_string@DU?$char_traits@D@std@@V?$allocator@D@2@@std@@V?$list@IV?$allocator@I@std@@@2@@std@@@2@$0A@@std@@@std@@IBEAAPAU?$_Tree_node@U?$pair@$$CBV?$basic_string@DU?$char_traits@D@std@@V?$allocator@D@2@@std@@V?$list@IV?$allocator@I@std@@@2@@std@@PAX@2@XZ 10005f00 f i ClientSession.obj
 0001:00004f20       ?lower_bound@?$_Tree@V?$_Tmap_traits@V?$basic_string@DU?$char_traits@D@std@@V?$allocator@D@2@@std@@V?$list@IV?$allocator@I@std@@@2@U?$less@V?$basic_string@DU?$char_traits@D@std@@V?$allocator@D@2@@std@@@2@V?$allocator@U?$pair@$$CBV?$basic_string@DU?$char_traits@D@std@@V?$allocator@D@2@@std@@V?$list@IV?$allocator@I@std@@@2@@std@@@2@$0A@@std@@@std@@QAE?AV?$_Tree_iterator@V?$_Tree_val@U?$_Tree_simple_types@U?$pair@$$CBV?$basic_string@DU?$char_traits@D@std@@V?$allocator@D@2@@std@@V?$list@IV?$allocator@I@std@@@2@@std@@@std@@@std@@@2@ABV?$basic_string@DU?$char_traits@D@std@@V?$allocator@D@2@@2@@Z 10005f20 f i ClientSession.obj
 0001:00004f50       ??0?$_Tree@V?$_Tmap_traits@V?$basic_string@DU?$char_traits@D@std@@V?$allocator@D@2@@std@@V?$list@IV?$allocator@I@std@@@2@U?$less@V?$basic_string@DU?$char_traits@D@std@@V?$allocator@D@2@@std@@@2@V?$allocator@U?$pair@$$CBV?$basic_string@DU?$char_traits@D@std@@V?$allocator@D@2@@std@@V?$list@IV?$allocator@I@std@@@2@@std@@@2@$0A@@std@@@std@@QAE@ABU?$less@V?$basic_string@DU?$char_traits@D@std@@V?$allocator@D@2@@std@@@1@@Z 10005f50 f i ClientSession.obj
 0001:00004f70       ??E?$_Tree_iterator@V?$_Tree_val@U?$_Tree_simple_types@U?$pair@$$CBIPAVIClientSession@@@std@@@std@@@std@@@std@@QAEAAV01@XZ 10005f70 f i ClientSession.obj
 0001:00004f90       ??0?$_Tree_const_iterator@V?$_Tree_val@U?$_Tree_simple_types@U?$pair@$$CBIPAVIClientSession@@@std@@@std@@@std@@@std@@QAE@XZ 10005f90 f i ClientSession.obj
 0001:00004fb0       ?deallocate@?$_Wrap_alloc@V?$allocator@U?$_Tree_node@U?$pair@$$CBIPAVIClientSession@@@std@@PAX@std@@@std@@@std@@QAEXPAU?$_Tree_node@U?$pair@$$CBIPAVIClientSession@@@std@@PAX@2@I@Z 10005fb0 f i ClientSession.obj
 0001:00004fd0       ??1?$_Tree_comp_alloc@V?$_Tmap_traits@IPAVIClientSession@@U?$less@I@std@@V?$allocator@U?$pair@$$CBIPAVIClientSession@@@std@@@3@$0A@@std@@@std@@QAE@XZ 10005fd0 f i ClientSession.obj
 0001:00005020       ?_Tidy@?$_Tree@V?$_Tmap_traits@IPAVIClientSession@@U?$less@I@std@@V?$allocator@U?$pair@$$CBIPAVIClientSession@@@std@@@3@$0A@@std@@@std@@IAEXXZ 10006020 f i ClientSession.obj
 0001:00005070       ?_Erase@?$_Tree@V?$_Tmap_traits@IPAVIClientSession@@U?$less@I@std@@V?$allocator@U?$pair@$$CBIPAVIClientSession@@@std@@@3@$0A@@std@@@std@@IAEXPAU?$_Tree_node@U?$pair@$$CBIPAVIClientSession@@@std@@PAX@2@@Z 10006070 f i ClientSession.obj
 0001:00005110       ?lower_bound@?$_Tree@V?$_Tmap_traits@IPAVIClientSession@@U?$less@I@std@@V?$allocator@U?$pair@$$CBIPAVIClientSession@@@std@@@3@$0A@@std@@@std@@QAE?AV?$_Tree_iterator@V?$_Tree_val@U?$_Tree_simple_types@U?$pair@$$CBIPAVIClientSession@@@std@@@std@@@std@@@2@ABI@Z 10006110 f i ClientSession.obj
 0001:00005140       ??0?$_Tree@V?$_Tmap_traits@IPAVIClientSession@@U?$less@I@std@@V?$allocator@U?$pair@$$CBIPAVIClientSession@@@std@@@3@$0A@@std@@@std@@QAE@ABU?$less@I@1@@Z 10006140 f i ClientSession.obj
 0001:00005160       ??R?$less@I@std@@QBE_NABI0@Z 10006160 f i ClientSession.obj
 0001:00005190       ?_Tidy@?$list@PAVIAccount@@V?$allocator@PAVIAccount@@@std@@@std@@QAEXXZ 10006190 f i ClientSession.obj
 0001:00005190       ?_Tidy@?$list@IV?$allocator@I@std@@@std@@QAEXXZ 10006190 f i ClientSession.obj
 0001:000051b0       ?_Unchecked_end@?$list@IV?$allocator@I@std@@@std@@QAE?AV?$_List_unchecked_iterator@V?$_List_val@U?$_List_simple_types@I@std@@@std@@@2@XZ 100061b0 f i ClientSession.obj
 0001:000051b0       ?_Unchecked_end@?$list@PAVIAccount@@V?$allocator@PAVIAccount@@@std@@@std@@QAE?AV?$_List_unchecked_iterator@V?$_List_val@U?$_List_simple_types@PAVIAccount@@@std@@@std@@@2@XZ 100061b0 f i ClientSession.obj
 0001:000051e0       ?end@?$list@IV?$allocator@I@std@@@std@@QAE?AV?$_List_iterator@V?$_List_val@U?$_List_simple_types@I@std@@@std@@@2@XZ 100061e0 f i ClientSession.obj
 0001:00005240       ?begin@?$list@IV?$allocator@I@std@@@std@@QAE?AV?$_List_iterator@V?$_List_val@U?$_List_simple_types@I@std@@@std@@@2@XZ 10006240 f i ClientSession.obj
 0001:000052b0       ??E?$_List_const_iterator@V?$_List_val@U?$_List_simple_types@I@std@@@std@@@std@@QAE?AV01@H@Z 100062b0 f i ClientSession.obj
 0001:000052b0       ??E?$_List_const_iterator@V?$_List_val@U?$_List_simple_types@PAVIAccount@@@std@@@std@@@std@@QAE?AV01@H@Z 100062b0 f i ClientSession.obj
 0001:000052e0       ?_Freenode@?$_List_buy@IV?$allocator@I@std@@@std@@QAEXPAU?$_List_node@IPAX@2@@Z 100062e0 f i ClientSession.obj
 0001:000052e0       ?_Freenode@?$_List_buy@PAVIAccount@@V?$allocator@PAVIAccount@@@std@@@std@@QAEXPAU?$_List_node@PAVIAccount@@PAX@2@@Z 100062e0 f i ClientSession.obj
 0001:00005380       ?_Unlinknode@?$list@IV?$allocator@I@std@@@std@@QAEPAU?$_List_node@IPAX@2@V?$_List_const_iterator@V?$_List_val@U?$_List_simple_types@I@std@@@std@@@2@@Z 10006380 f i ClientSession.obj
 0001:00005380       ?_Unlinknode@?$list@PAVIAccount@@V?$allocator@PAVIAccount@@@std@@@std@@QAEPAU?$_List_node@PAVIAccount@@PAX@2@V?$_List_const_iterator@V?$_List_val@U?$_List_simple_types@PAVIAccount@@@std@@@std@@@2@@Z 10006380 f i ClientSession.obj
 0001:00005410       ?_Make_iter@?$list@PAVIAccount@@V?$allocator@PAVIAccount@@@std@@@std@@QBE?AV?$_List_iterator@V?$_List_val@U?$_List_simple_types@PAVIAccount@@@std@@@std@@@2@V?$_List_const_iterator@V?$_List_val@U?$_List_simple_types@PAVIAccount@@@std@@@std@@@2@@Z 10006410 f i ClientSession.obj
 0001:00005410       ?_Make_iter@?$list@IV?$allocator@I@std@@@std@@QBE?AV?$_List_iterator@V?$_List_val@U?$_List_simple_types@I@std@@@std@@@2@V?$_List_const_iterator@V?$_List_val@U?$_List_simple_types@I@std@@@std@@@2@@Z 10006410 f i ClientSession.obj
 0001:00005460       ??R?$less@V?$basic_string@DU?$char_traits@D@std@@V?$allocator@D@2@@std@@@std@@QBE_NABV?$basic_string@DU?$char_traits@D@std@@V?$allocator@D@2@@1@0@Z 10006460 f i ClientSession.obj
 0001:00005480       ?select_on_container_copy_construction@?$_Wrap_alloc@V?$allocator@D@std@@@std@@QBE?AU12@U_Nil@2@@Z 10006480 f i ClientSession.obj
 0001:00005480       ?select_on_container_copy_construction@?$_Wrap_alloc@V?$allocator@U?$_List_node@IPAX@std@@@std@@@std@@QBE?AU12@U_Nil@2@@Z 10006480 f i ClientSession.obj
 0001:000054b0       ?_Traits_compare@?$basic_string@DU?$char_traits@D@std@@V?$allocator@D@2@@std@@SAHQBDI0I@Z 100064b0 f i ClientSession.obj
 0001:00005520       ??0?$_Tree_const_iterator@V?$_Tree_val@U?$_Tree_simple_types@U?$pair@$$CBIPAVIClientSession@@@std@@@std@@@std@@@std@@QAE@PAU?$_Tree_node@U?$pair@$$CBIPAVIClientSession@@@std@@PAX@1@PBV?$_Tree_val@U?$_Tree_simple_types@U?$pair@$$CBIPAVIClientSession@@@std@@@std@@@1@@Z 10006520 f i ClientSession.obj
 0001:00005520       ??0?$_List_unchecked_iterator@V?$_List_val@U?$_List_simple_types@I@std@@@std@@@std@@QAE@PAU?$_List_node@IPAX@1@PBV?$_List_val@U?$_List_simple_types@I@std@@@1@@Z 10006520 f i ClientSession.obj
 0001:00005520       ??0?$_Tree_const_iterator@V?$_Tree_val@U?$_Tree_simple_types@U?$pair@$$CBV?$basic_string@DU?$char_traits@D@std@@V?$allocator@D@2@@std@@V?$list@IV?$allocator@I@std@@@2@@std@@@std@@@std@@@std@@QAE@PAU?$_Tree_node@U?$pair@$$CBV?$basic_string@DU?$char_traits@D@std@@V?$allocator@D@2@@std@@V?$list@IV?$allocator@I@std@@@2@@std@@PAX@1@PBV?$_Tree_val@U?$_Tree_simple_types@U?$pair@$$CBV?$basic_string@DU?$char_traits@D@std@@V?$allocator@D@2@@std@@V?$list@IV?$allocator@I@std@@@2@@std@@@std@@@1@@Z 10006520 f i ClientSession.obj
 0001:00005520       ??0?$_List_const_iterator@V?$_List_val@U?$_List_simple_types@I@std@@@std@@@std@@QAE@PAU?$_List_node@IPAX@1@PBV?$_List_val@U?$_List_simple_types@I@std@@@1@@Z 10006520 f i ClientSession.obj
 0001:00005520       ??0?$_List_const_iterator@V?$_List_val@U?$_List_simple_types@PAVIAccount@@@std@@@std@@@std@@QAE@PAU?$_List_node@PAVIAccount@@PAX@1@PBV?$_List_val@U?$_List_simple_types@PAVIAccount@@@std@@@1@@Z 10006520 f i ClientSession.obj
 0001:00005520       ??0?$_List_unchecked_iterator@V?$_List_val@U?$_List_simple_types@PAVIAccount@@@std@@@std@@@std@@QAE@PAU?$_List_node@PAVIAccount@@PAX@1@PBV?$_List_val@U?$_List_simple_types@PAVIAccount@@@std@@@1@@Z 10006520 f i ClientSession.obj
 0001:00005540       ??E?$_List_const_iterator@V?$_List_val@U?$_List_simple_types@PAVIAccount@@@std@@@std@@@std@@QAEAAV01@XZ 10006540 f i ClientSession.obj
 0001:00005540       ??E?$_List_const_iterator@V?$_List_val@U?$_List_simple_types@I@std@@@std@@@std@@QAEAAV01@XZ 10006540 f i ClientSession.obj
 0001:00005570       ??D?$_List_const_iterator@V?$_List_val@U?$_List_simple_types@I@std@@@std@@@std@@QBEABIXZ 10006570 f i ClientSession.obj
 0001:00005590       ?_Freeheadnode@?$_List_alloc@U?$_List_base_types@IV?$allocator@I@std@@@std@@@std@@QAEXPAU?$_List_node@IPAX@2@@Z 10006590 f i ClientSession.obj
 0001:00005590       ?_Freeheadnode@?$_List_alloc@U?$_List_base_types@PAVIAccount@@V?$allocator@PAVIAccount@@@std@@@std@@@std@@QAEXPAU?$_List_node@PAVIAccount@@PAX@2@@Z 10006590 f i ClientSession.obj
 0001:00005600       ??0?$_List_alloc@U?$_List_base_types@PAVIAccount@@V?$allocator@PAVIAccount@@@std@@@std@@@std@@QAE@XZ 10006600 f i ClientSession.obj
 0001:00005600       ??0?$_List_alloc@U?$_List_base_types@IV?$allocator@I@std@@@std@@@std@@QAE@XZ 10006600 f i ClientSession.obj
 0001:00005640       ??E?$_Tree_unchecked_const_iterator@V?$_Tree_val@U?$_Tree_simple_types@U?$pair@$$CBIPAVIClientSession@@@std@@@std@@@std@@U_Iterator_base0@2@@std@@QAEAAV01@XZ 10006640 f i ClientSession.obj
 0001:00005640       ??E?$_Tree_unchecked_const_iterator@V?$_Tree_val@U?$_Tree_simple_types@U?$pair@$$CBV?$basic_string@DU?$char_traits@D@std@@V?$allocator@D@2@@std@@V?$list@IV?$allocator@I@std@@@2@@std@@@std@@@std@@U_Iterator_base0@2@@std@@QAEAAV01@XZ 10006640 f i ClientSession.obj
 0001:00005700       ??0?$_Tree_unchecked_const_iterator@V?$_Tree_val@U?$_Tree_simple_types@U?$pair@$$CBIPAVIClientSession@@@std@@@std@@@std@@U_Iterator_base0@2@@std@@QAE@XZ 10006700 f i ClientSession.obj
 0001:00005720       ?_Min@?$_Tree_val@U?$_Tree_simple_types@U?$pair@$$CBIPAVIClientSession@@@std@@@std@@@std@@SAPAU?$_Tree_node@U?$pair@$$CBIPAVIClientSession@@@std@@PAX@2@PAU32@@Z 10006720 f i ClientSession.obj
 0001:00005720       ?_Min@?$_Tree_val@U?$_Tree_simple_types@U?$pair@$$CBV?$basic_string@DU?$char_traits@D@std@@V?$allocator@D@2@@std@@V?$list@IV?$allocator@I@std@@@2@@std@@@std@@@std@@SAPAU?$_Tree_node@U?$pair@$$CBV?$basic_string@DU?$char_traits@D@std@@V?$allocator@D@2@@std@@V?$list@IV?$allocator@I@std@@@2@@std@@PAX@2@PAU32@@Z 10006720 f i ClientSession.obj
 0001:00005760       ?_Max@?$_Tree_val@U?$_Tree_simple_types@U?$pair@$$CBIPAVIClientSession@@@std@@@std@@@std@@SAPAU?$_Tree_node@U?$pair@$$CBIPAVIClientSession@@@std@@PAX@2@PAU32@@Z 10006760 f i ClientSession.obj
 0001:00005760       ?_Max@?$_Tree_val@U?$_Tree_simple_types@U?$pair@$$CBV?$basic_string@DU?$char_traits@D@std@@V?$allocator@D@2@@std@@V?$list@IV?$allocator@I@std@@@2@@std@@@std@@@std@@SAPAU?$_Tree_node@U?$pair@$$CBV?$basic_string@DU?$char_traits@D@std@@V?$allocator@D@2@@std@@V?$list@IV?$allocator@I@std@@@2@@std@@PAX@2@PAU32@@Z 10006760 f i ClientSession.obj
 0001:000057a0       ?_Myval@?$_Tree_val@U?$_Tree_simple_types@U?$pair@$$CBIPAVIClientSession@@@std@@@std@@@std@@SAAAU?$pair@$$CBIPAVIClientSession@@@2@PAU?$_Tree_node@U?$pair@$$CBIPAVIClientSession@@@std@@PAX@2@@Z 100067a0 f i ClientSession.obj
 0001:000057a0       ?_Myval@?$_Tree_val@U?$_Tree_simple_types@U?$pair@$$CBV?$basic_string@DU?$char_traits@D@std@@V?$allocator@D@2@@std@@V?$list@IV?$allocator@I@std@@@2@@std@@@std@@@std@@SAAAU?$pair@$$CBV?$basic_string@DU?$char_traits@D@std@@V?$allocator@D@2@@std@@V?$list@IV?$allocator@I@std@@@2@@2@PAU?$_Tree_node@U?$pair@$$CBV?$basic_string@DU?$char_traits@D@std@@V?$allocator@D@2@@std@@V?$list@IV?$allocator@I@std@@@2@@std@@PAX@2@@Z 100067a0 f i ClientSession.obj
 0001:000057b0       ?_Myval@?$_List_val@U?$_List_simple_types@PAVIAccount@@@std@@@std@@SAAAPAVIAccount@@PAU?$_List_node@PAVIAccount@@PAX@2@@Z 100067b0 f i ClientSession.obj
 0001:000057b0       ?_Right@?$_Tree_val@U?$_Tree_simple_types@U?$pair@$$CBIPAVIClientSession@@@std@@@std@@@std@@SAAAPAU?$_Tree_node@U?$pair@$$CBIPAVIClientSession@@@std@@PAX@2@PAU32@@Z 100067b0 f i ClientSession.obj
 0001:000057b0       ?_Right@?$_Tree_val@U?$_Tree_simple_types@U?$pair@$$CBV?$basic_string@DU?$char_traits@D@std@@V?$allocator@D@2@@std@@V?$list@IV?$allocator@I@std@@@2@@std@@@std@@@std@@SAAAPAU?$_Tree_node@U?$pair@$$CBV?$basic_string@DU?$char_traits@D@std@@V?$allocator@D@2@@std@@V?$list@IV?$allocator@I@std@@@2@@std@@PAX@2@PAU32@@Z 100067b0 f i ClientSession.obj
 0001:000057b0       ?_Myval@?$_List_val@U?$_List_simple_types@I@std@@@std@@SAAAIPAU?$_List_node@IPAX@2@@Z 100067b0 f i ClientSession.obj
 0001:000057c0       ?_Prevnode@?$_List_val@U?$_List_simple_types@PAVIAccount@@@std@@@std@@SAAAPAU?$_List_node@PAVIAccount@@PAX@2@PAU32@@Z 100067c0 f i ClientSession.obj
 0001:000057c0       ?_Parent@?$_Tree_val@U?$_Tree_simple_types@U?$pair@$$CBIPAVIClientSession@@@std@@@std@@@std@@SAAAPAU?$_Tree_node@U?$pair@$$CBIPAVIClientSession@@@std@@PAX@2@PAU32@@Z 100067c0 f i ClientSession.obj
 0001:000057c0       ?_Prevnode@?$_List_val@U?$_List_simple_types@I@std@@@std@@SAAAPAU?$_List_node@IPAX@2@PAU32@@Z 100067c0 f i ClientSession.obj
 0001:000057c0       ?_Parent@?$_Tree_val@U?$_Tree_simple_types@U?$pair@$$CBV?$basic_string@DU?$char_traits@D@std@@V?$allocator@D@2@@std@@V?$list@IV?$allocator@I@std@@@2@@std@@@std@@@std@@SAAAPAU?$_Tree_node@U?$pair@$$CBV?$basic_string@DU?$char_traits@D@std@@V?$allocator@D@2@@std@@V?$list@IV?$allocator@I@std@@@2@@std@@PAX@2@PAU32@@Z 100067c0 f i ClientSession.obj
 0001:000057d0       ?_Isnil@?$_Tree_val@U?$_Tree_simple_types@U?$pair@$$CBV?$basic_string@DU?$char_traits@D@std@@V?$allocator@D@2@@std@@V?$list@IV?$allocator@I@std@@@2@@std@@@std@@@std@@SAAADPAU?$_Tree_node@U?$pair@$$CBV?$basic_string@DU?$char_traits@D@std@@V?$allocator@D@2@@std@@V?$list@IV?$allocator@I@std@@@2@@std@@PAX@2@@Z 100067d0 f i ClientSession.obj
 0001:000057d0       ?_Isnil@?$_Tree_val@U?$_Tree_simple_types@U?$pair@$$CBIPAVIClientSession@@@std@@@std@@@std@@SAAADPAU?$_Tree_node@U?$pair@$$CBIPAVIClientSession@@@std@@PAX@2@@Z 100067d0 f i ClientSession.obj
 0001:000057e0       ?_Color@?$_Tree_val@U?$_Tree_simple_types@U?$pair@$$CBV?$basic_string@DU?$char_traits@D@std@@V?$allocator@D@2@@std@@V?$list@IV?$allocator@I@std@@@2@@std@@@std@@@std@@SAAADPAU?$_Tree_node@U?$pair@$$CBV?$basic_string@DU?$char_traits@D@std@@V?$allocator@D@2@@std@@V?$list@IV?$allocator@I@std@@@2@@std@@PAX@2@@Z 100067e0 f i ClientSession.obj
 0001:000057e0       ?_Color@?$_Tree_val@U?$_Tree_simple_types@U?$pair@$$CBIPAVIClientSession@@@std@@@std@@@std@@SAAADPAU?$_Tree_node@U?$pair@$$CBIPAVIClientSession@@@std@@PAX@2@@Z 100067e0 f i ClientSession.obj
 0001:000057f0       ?deallocate@?$allocator@U?$_Tree_node@U?$pair@$$CBV?$basic_string@DU?$char_traits@D@std@@V?$allocator@D@2@@std@@V?$list@IV?$allocator@I@std@@@2@@std@@PAX@std@@@std@@QAEXPAU?$_Tree_node@U?$pair@$$CBV?$basic_string@DU?$char_traits@D@std@@V?$allocator@D@2@@std@@V?$list@IV?$allocator@I@std@@@2@@std@@PAX@2@I@Z 100067f0 f i ClientSession.obj
 0001:00005810       ?_Freeheadnode@?$_Tree_comp_alloc@V?$_Tmap_traits@V?$basic_string@DU?$char_traits@D@std@@V?$allocator@D@2@@std@@V?$list@IV?$allocator@I@std@@@2@U?$less@V?$basic_string@DU?$char_traits@D@std@@V?$allocator@D@2@@std@@@2@V?$allocator@U?$pair@$$CBV?$basic_string@DU?$char_traits@D@std@@V?$allocator@D@2@@std@@V?$list@IV?$allocator@I@std@@@2@@std@@@2@$0A@@std@@@std@@QAEXPAU?$_Tree_node@U?$pair@$$CBV?$basic_string@DU?$char_traits@D@std@@V?$allocator@D@2@@std@@V?$list@IV?$allocator@I@std@@@2@@std@@PAX@2@@Z 10006810 f i ClientSession.obj
 0001:00005810       ?_Freenode0@?$_Tree_comp_alloc@V?$_Tmap_traits@V?$basic_string@DU?$char_traits@D@std@@V?$allocator@D@2@@std@@V?$list@IV?$allocator@I@std@@@2@U?$less@V?$basic_string@DU?$char_traits@D@std@@V?$allocator@D@2@@std@@@2@V?$allocator@U?$pair@$$CBV?$basic_string@DU?$char_traits@D@std@@V?$allocator@D@2@@std@@V?$list@IV?$allocator@I@std@@@2@@std@@@2@$0A@@std@@@std@@QAEXPAU?$_Tree_node@U?$pair@$$CBV?$basic_string@DU?$char_traits@D@std@@V?$allocator@D@2@@std@@V?$list@IV?$allocator@I@std@@@2@@std@@PAX@2@@Z 10006810 f i ClientSession.obj
 0001:000058b0       ??0?$_Tree_comp_alloc@V?$_Tmap_traits@V?$basic_string@DU?$char_traits@D@std@@V?$allocator@D@2@@std@@V?$list@IV?$allocator@I@std@@@2@U?$less@V?$basic_string@DU?$char_traits@D@std@@V?$allocator@D@2@@std@@@2@V?$allocator@U?$pair@$$CBV?$basic_string@DU?$char_traits@D@std@@V?$allocator@D@2@@std@@V?$list@IV?$allocator@I@std@@@2@@std@@@2@$0A@@std@@@std@@QAE@ABU?$less@V?$basic_string@DU?$char_traits@D@std@@V?$allocator@D@2@@std@@@1@@Z 100068b0 f i ClientSession.obj
 0001:000058e0       ?_Kfn@?$_Tree@V?$_Tmap_traits@V?$basic_string@DU?$char_traits@D@std@@V?$allocator@D@2@@std@@V?$list@IV?$allocator@I@std@@@2@U?$less@V?$basic_string@DU?$char_traits@D@std@@V?$allocator@D@2@@std@@@2@V?$allocator@U?$pair@$$CBV?$basic_string@DU?$char_traits@D@std@@V?$allocator@D@2@@std@@V?$list@IV?$allocator@I@std@@@2@@std@@@2@$0A@@std@@@std@@IBEABV?$basic_string@DU?$char_traits@D@std@@V?$allocator@D@2@@2@ABU?$pair@$$CBV?$basic_string@DU?$char_traits@D@std@@V?$allocator@D@2@@std@@V?$list@IV?$allocator@I@std@@@2@@2@@Z 100068e0 f i ClientSession.obj
 0001:000058e0       ?_Kfn@?$_Tree@V?$_Tmap_traits@IPAVIClientSession@@U?$less@I@std@@V?$allocator@U?$pair@$$CBIPAVIClientSession@@@std@@@3@$0A@@std@@@std@@IBEABIABU?$pair@$$CBIPAVIClientSession@@@2@@Z 100068e0 f i ClientSession.obj
 0001:00005900       ?erase@?$_Tree@V?$_Tmap_traits@V?$basic_string@DU?$char_traits@D@std@@V?$allocator@D@2@@std@@V?$list@IV?$allocator@I@std@@@2@U?$less@V?$basic_string@DU?$char_traits@D@std@@V?$allocator@D@2@@std@@@2@V?$allocator@U?$pair@$$CBV?$basic_string@DU?$char_traits@D@std@@V?$allocator@D@2@@std@@V?$list@IV?$allocator@I@std@@@2@@std@@@2@$0A@@std@@@std@@QAE?AV?$_Tree_iterator@V?$_Tree_val@U?$_Tree_simple_types@U?$pair@$$CBV?$basic_string@DU?$char_traits@D@std@@V?$allocator@D@2@@std@@V?$list@IV?$allocator@I@std@@@2@@std@@@std@@@std@@@2@V?$_Tree_const_iterator@V?$_Tree_val@U?$_Tree_simple_types@U?$pair@$$CBV?$basic_string@DU?$char_traits@D@std@@V?$allocator@D@2@@std@@V?$list@IV?$allocator@I@std@@@2@@std@@@std@@@std@@@2@0@Z 10006900 f i ClientSession.obj
 0001:000059b0       ?deallocate@?$allocator@U?$_Tree_node@U?$pair@$$CBIPAVIClientSession@@@std@@PAX@std@@@std@@QAEXPAU?$_Tree_node@U?$pair@$$CBIPAVIClientSession@@@std@@PAX@2@I@Z 100069b0 f i ClientSession.obj
 0001:000059d0       ?_Freeheadnode@?$_Tree_comp_alloc@V?$_Tmap_traits@IPAVIClientSession@@U?$less@I@std@@V?$allocator@U?$pair@$$CBIPAVIClientSession@@@std@@@3@$0A@@std@@@std@@QAEXPAU?$_Tree_node@U?$pair@$$CBIPAVIClientSession@@@std@@PAX@2@@Z 100069d0 f i ClientSession.obj
 0001:000059d0       ?_Freenode0@?$_Tree_comp_alloc@V?$_Tmap_traits@IPAVIClientSession@@U?$less@I@std@@V?$allocator@U?$pair@$$CBIPAVIClientSession@@@std@@@3@$0A@@std@@@std@@QAEXPAU?$_Tree_node@U?$pair@$$CBIPAVIClientSession@@@std@@PAX@2@@Z 100069d0 f i ClientSession.obj
 0001:00005a70       ??0?$_Tree_comp_alloc@V?$_Tmap_traits@IPAVIClientSession@@U?$less@I@std@@V?$allocator@U?$pair@$$CBIPAVIClientSession@@@std@@@3@$0A@@std@@@std@@QAE@ABU?$less@I@1@@Z 10006a70 f i ClientSession.obj
 0001:00005aa0       ?erase@?$_Tree@V?$_Tmap_traits@IPAVIClientSession@@U?$less@I@std@@V?$allocator@U?$pair@$$CBIPAVIClientSession@@@std@@@3@$0A@@std@@@std@@QAE?AV?$_Tree_iterator@V?$_Tree_val@U?$_Tree_simple_types@U?$pair@$$CBIPAVIClientSession@@@std@@@std@@@std@@@2@V?$_Tree_const_iterator@V?$_Tree_val@U?$_Tree_simple_types@U?$pair@$$CBIPAVIClientSession@@@std@@@std@@@std@@@2@0@Z 10006aa0 f i ClientSession.obj
 0001:00005b50       ?clear@?$list@PAVIAccount@@V?$allocator@PAVIAccount@@@std@@@std@@QAEXXZ 10006b50 f i ClientSession.obj
 0001:00005b50       ?clear@?$list@IV?$allocator@I@std@@@std@@QAEXXZ 10006b50 f i ClientSession.obj
 0001:00005c30       ?deallocate@?$_Wrap_alloc@V?$allocator@U?$_List_node@PAVIAccount@@PAX@std@@@std@@@std@@QAEXPAU?$_List_node@PAVIAccount@@PAX@2@I@Z 10006c30 f i ClientSession.obj
 0001:00005c30       ?deallocate@?$_Wrap_alloc@V?$allocator@U?$_List_node@IPAX@std@@@std@@@std@@QAEXPAU?$_List_node@IPAX@2@I@Z 10006c30 f i ClientSession.obj
 0001:00005c50       ?select_on_container_copy_construction@?$allocator_traits@V?$allocator@U?$_List_node@IPAX@std@@@std@@@std@@SA?AV?$allocator@U?$_List_node@IPAX@std@@@2@ABV32@@Z 10006c50 f i ClientSession.obj
 0001:00005c50       ?select_on_container_copy_construction@?$allocator_traits@V?$allocator@D@std@@@std@@SA?AV?$allocator@D@2@ABV32@@Z 10006c50 f i ClientSession.obj
 0001:00005c70       ??0?$_List_unchecked_const_iterator@V?$_List_val@U?$_List_simple_types@PAVIAccount@@@std@@@std@@U_Iterator_base0@2@@std@@QAE@PAU?$_List_node@PAVIAccount@@PAX@1@PBV?$_List_val@U?$_List_simple_types@PAVIAccount@@@std@@@1@@Z 10006c70 f i ClientSession.obj
 0001:00005c70       ??0?$_Tree_unchecked_const_iterator@V?$_Tree_val@U?$_Tree_simple_types@U?$pair@$$CBV?$basic_string@DU?$char_traits@D@std@@V?$allocator@D@2@@std@@V?$list@IV?$allocator@I@std@@@2@@std@@@std@@@std@@U_Iterator_base0@2@@std@@QAE@PAU?$_Tree_node@U?$pair@$$CBV?$basic_string@DU?$char_traits@D@std@@V?$allocator@D@2@@std@@V?$list@IV?$allocator@I@std@@@2@@std@@PAX@1@PBV?$_Tree_val@U?$_Tree_simple_types@U?$pair@$$CBV?$basic_string@DU?$char_traits@D@std@@V?$allocator@D@2@@std@@V?$list@IV?$allocator@I@std@@@2@@std@@@std@@@1@@Z 10006c70 f i ClientSession.obj
 0001:00005c70       ??0?$_Tree_unchecked_const_iterator@V?$_Tree_val@U?$_Tree_simple_types@U?$pair@$$CBIPAVIClientSession@@@std@@@std@@@std@@U_Iterator_base0@2@@std@@QAE@PAU?$_Tree_node@U?$pair@$$CBIPAVIClientSession@@@std@@PAX@1@PBV?$_Tree_val@U?$_Tree_simple_types@U?$pair@$$CBIPAVIClientSession@@@std@@@std@@@1@@Z 10006c70 f i ClientSession.obj
 0001:00005c70       ??0?$_List_unchecked_const_iterator@V?$_List_val@U?$_List_simple_types@I@std@@@std@@U_Iterator_base0@2@@std@@QAE@PAU?$_List_node@IPAX@1@PBV?$_List_val@U?$_List_simple_types@I@std@@@1@@Z 10006c70 f i ClientSession.obj
 0001:00005ca0       ?_Buyheadnode@?$_List_alloc@U?$_List_base_types@PAVIAccount@@V?$allocator@PAVIAccount@@@std@@@std@@@std@@QAEPAU?$_List_node@PAVIAccount@@PAX@2@XZ 10006ca0 f i ClientSession.obj
 0001:00005ca0       ?_Buyheadnode@?$_List_alloc@U?$_List_base_types@IV?$allocator@I@std@@@std@@@std@@QAEPAU?$_List_node@IPAX@2@XZ 10006ca0 f i ClientSession.obj
 0001:00005cc0       ??E?$_Tree_const_iterator@V?$_Tree_val@U?$_Tree_simple_types@U?$pair@$$CBV?$basic_string@DU?$char_traits@D@std@@V?$allocator@D@2@@std@@V?$list@IV?$allocator@I@std@@@2@@std@@@std@@@std@@@std@@QAE?AV01@H@Z 10006cc0 f i ClientSession.obj
 0001:00005cc0       ??E?$_Tree_const_iterator@V?$_Tree_val@U?$_Tree_simple_types@U?$pair@$$CBIPAVIClientSession@@@std@@@std@@@std@@@std@@QAE?AV01@H@Z 10006cc0 f i ClientSession.obj
 0001:00005cf0       ?_Construct@?$_Tree_comp_alloc@V?$_Tmap_traits@V?$basic_string@DU?$char_traits@D@std@@V?$allocator@D@2@@std@@V?$list@IV?$allocator@I@std@@@2@U?$less@V?$basic_string@DU?$char_traits@D@std@@V?$allocator@D@2@@std@@@2@V?$allocator@U?$pair@$$CBV?$basic_string@DU?$char_traits@D@std@@V?$allocator@D@2@@std@@V?$list@IV?$allocator@I@std@@@2@@std@@@2@$0A@@std@@@std@@QAEXXZ 10006cf0 f i ClientSession.obj
 0001:00005d20       ?clear@?$_Tree@V?$_Tmap_traits@V?$basic_string@DU?$char_traits@D@std@@V?$allocator@D@2@@std@@V?$list@IV?$allocator@I@std@@@2@U?$less@V?$basic_string@DU?$char_traits@D@std@@V?$allocator@D@2@@std@@@2@V?$allocator@U?$pair@$$CBV?$basic_string@DU?$char_traits@D@std@@V?$allocator@D@2@@std@@V?$list@IV?$allocator@I@std@@@2@@std@@@2@$0A@@std@@@std@@QAEXXZ 10006d20 f i ClientSession.obj
 0001:00005dc0       ?_Construct@?$_Tree_comp_alloc@V?$_Tmap_traits@IPAVIClientSession@@U?$less@I@std@@V?$allocator@U?$pair@$$CBIPAVIClientSession@@@std@@@3@$0A@@std@@@std@@QAEXXZ 10006dc0 f i ClientSession.obj
 0001:00005df0       ?deallocate@?$allocator@U?$_List_node@PAVIAccount@@PAX@std@@@std@@QAEXPAU?$_List_node@PAVIAccount@@PAX@2@I@Z 10006df0 f i ClientSession.obj
 0001:00005df0       ?deallocate@?$allocator@U?$_List_node@IPAX@std@@@std@@QAEXPAU?$_List_node@IPAX@2@I@Z 10006df0 f i ClientSession.obj
 0001:00005e10       ?_Buynode0@?$_List_alloc@U?$_List_base_types@IV?$allocator@I@std@@@std@@@std@@QAEPAU?$_List_node@IPAX@2@PAU32@0@Z 10006e10 f i ClientSession.obj
 0001:00005e10       ?_Buynode0@?$_List_alloc@U?$_List_base_types@PAVIAccount@@V?$allocator@PAVIAccount@@@std@@@std@@@std@@QAEPAU?$_List_node@PAVIAccount@@PAX@2@PAU32@0@Z 10006e10 f i ClientSession.obj
 0001:00005f20       ?_Buyheadnode@?$_Tree_comp_alloc@V?$_Tmap_traits@V?$basic_string@DU?$char_traits@D@std@@V?$allocator@D@2@@std@@V?$list@IV?$allocator@I@std@@@2@U?$less@V?$basic_string@DU?$char_traits@D@std@@V?$allocator@D@2@@std@@@2@V?$allocator@U?$pair@$$CBV?$basic_string@DU?$char_traits@D@std@@V?$allocator@D@2@@std@@V?$list@IV?$allocator@I@std@@@2@@std@@@2@$0A@@std@@@std@@QAEPAU?$_Tree_node@U?$pair@$$CBV?$basic_string@DU?$char_traits@D@std@@V?$allocator@D@2@@std@@V?$list@IV?$allocator@I@std@@@2@@std@@PAX@2@XZ 10006f20 f i ClientSession.obj
 0001:00006060       ?_Erase@?$_Tree@V?$_Tmap_traits@V?$basic_string@DU?$char_traits@D@std@@V?$allocator@D@2@@std@@V?$list@IV?$allocator@I@std@@@2@U?$less@V?$basic_string@DU?$char_traits@D@std@@V?$allocator@D@2@@std@@@2@V?$allocator@U?$pair@$$CBV?$basic_string@DU?$char_traits@D@std@@V?$allocator@D@2@@std@@V?$list@IV?$allocator@I@std@@@2@@std@@@2@$0A@@std@@@std@@IAEXPAU?$_Tree_node@U?$pair@$$CBV?$basic_string@DU?$char_traits@D@std@@V?$allocator@D@2@@std@@V?$list@IV?$allocator@I@std@@@2@@std@@PAX@2@@Z 10007060 f i ClientSession.obj
 0001:00006100       ?_Buyheadnode@?$_Tree_comp_alloc@V?$_Tmap_traits@IPAVIClientSession@@U?$less@I@std@@V?$allocator@U?$pair@$$CBIPAVIClientSession@@@std@@@3@$0A@@std@@@std@@QAEPAU?$_Tree_node@U?$pair@$$CBIPAVIClientSession@@@std@@PAX@2@XZ 10007100 f i ClientSession.obj
 0001:00006240       ?allocate@?$_Wrap_alloc@V?$allocator@U?$_List_node@PAVIAccount@@PAX@std@@@std@@@std@@QAEPAU?$_List_node@PAVIAccount@@PAX@2@I@Z 10007240 f i ClientSession.obj
 0001:00006240       ?allocate@?$_Wrap_alloc@V?$allocator@U?$_List_node@IPAX@std@@@std@@@std@@QAEPAU?$_List_node@IPAX@2@I@Z 10007240 f i ClientSession.obj
 0001:00006260       ?allocate@?$_Wrap_alloc@V?$allocator@U?$_Tree_node@U?$pair@$$CBV?$basic_string@DU?$char_traits@D@std@@V?$allocator@D@2@@std@@V?$list@IV?$allocator@I@std@@@2@@std@@PAX@std@@@std@@@std@@QAEPAU?$_Tree_node@U?$pair@$$CBV?$basic_string@DU?$char_traits@D@std@@V?$allocator@D@2@@std@@V?$list@IV?$allocator@I@std@@@2@@std@@PAX@2@I@Z 10007260 f i ClientSession.obj
 0001:00006280       ?allocate@?$_Wrap_alloc@V?$allocator@U?$_Tree_node@U?$pair@$$CBIPAVIClientSession@@@std@@PAX@std@@@std@@@std@@QAEPAU?$_Tree_node@U?$pair@$$CBIPAVIClientSession@@@std@@PAX@2@I@Z 10007280 f i ClientSession.obj
 0001:000062a0       ?allocate@?$allocator@U?$_List_node@IPAX@std@@@std@@QAEPAU?$_List_node@IPAX@2@I@Z 100072a0 f i ClientSession.obj
 0001:000062a0       ?allocate@?$allocator@U?$_List_node@PAVIAccount@@PAX@std@@@std@@QAEPAU?$_List_node@PAVIAccount@@PAX@2@I@Z 100072a0 f i ClientSession.obj
 0001:000062c0       ?allocate@?$allocator@U?$_Tree_node@U?$pair@$$CBV?$basic_string@DU?$char_traits@D@std@@V?$allocator@D@2@@std@@V?$list@IV?$allocator@I@std@@@2@@std@@PAX@std@@@std@@QAEPAU?$_Tree_node@U?$pair@$$CBV?$basic_string@DU?$char_traits@D@std@@V?$allocator@D@2@@std@@V?$list@IV?$allocator@I@std@@@2@@std@@PAX@2@I@Z 100072c0 f i ClientSession.obj
 0001:000062e0       ?allocate@?$allocator@U?$_Tree_node@U?$pair@$$CBIPAVIClientSession@@@std@@PAX@std@@@std@@QAEPAU?$_Tree_node@U?$pair@$$CBIPAVIClientSession@@@std@@PAX@2@I@Z 100072e0 f i ClientSession.obj
 0001:00006300       ??$?0IAAPAVIClientSession@@X$0A@@?$pair@IPAVIClientSession@@@std@@QAE@$$QAIAAPAVIClientSession@@@Z 10007300 f i ClientSession.obj
 0001:00006340       ??$insert@AAU?$pair@IPAVIClientSession@@@std@@X@?$map@IPAVIClientSession@@U?$less@I@std@@V?$allocator@U?$pair@$$CBIPAVIClientSession@@@std@@@3@@std@@QAE?AU?$pair@V?$_Tree_iterator@V?$_Tree_val@U?$_Tree_simple_types@U?$pair@$$CBIPAVIClientSession@@@std@@@std@@@std@@@std@@_N@1@AAU?$pair@IPAVIClientSession@@@1@@Z 10007340 f i ClientSession.obj
 0001:00006370       ??$?0AAV?$basic_string@DU?$char_traits@D@std@@V?$allocator@D@2@@std@@AAV?$list@IV?$allocator@I@std@@@1@X$0A@@?$pair@V?$basic_string@DU?$char_traits@D@std@@V?$allocator@D@2@@std@@V?$list@IV?$allocator@I@std@@@2@@std@@QAE@AAV?$basic_string@DU?$char_traits@D@std@@V?$allocator@D@2@@1@AAV?$list@IV?$allocator@I@std@@@1@@Z 10007370 f i ClientSession.obj
 0001:000063f0       ??$insert@AAU?$pair@V?$basic_string@DU?$char_traits@D@std@@V?$allocator@D@2@@std@@V?$list@IV?$allocator@I@std@@@2@@std@@X@?$map@V?$basic_string@DU?$char_traits@D@std@@V?$allocator@D@2@@std@@V?$list@IV?$allocator@I@std@@@2@U?$less@V?$basic_string@DU?$char_traits@D@std@@V?$allocator@D@2@@std@@@2@V?$allocator@U?$pair@$$CBV?$basic_string@DU?$char_traits@D@std@@V?$allocator@D@2@@std@@V?$list@IV?$allocator@I@std@@@2@@std@@@2@@std@@QAE?AU?$pair@V?$_Tree_iterator@V?$_Tree_val@U?$_Tree_simple_types@U?$pair@$$CBV?$basic_string@DU?$char_traits@D@std@@V?$allocator@D@2@@std@@V?$list@IV?$allocator@I@std@@@2@@std@@@std@@@std@@@std@@_N@1@AAU?$pair@V?$basic_string@DU?$char_traits@D@std@@V?$allocator@D@2@@std@@V?$list@IV?$allocator@I@std@@@2@@1@@Z 100073f0 f i ClientSession.obj
 0001:00006420       ??$swap@DX@std@@YAXAAD0@Z  10007420 f i ClientSession.obj
 0001:00006460       ??$destroy@U?$pair@$$CBV?$basic_string@DU?$char_traits@D@std@@V?$allocator@D@2@@std@@V?$list@IV?$allocator@I@std@@@2@@std@@@?$_Wrap_alloc@V?$allocator@U?$_Tree_node@U?$pair@$$CBV?$basic_string@DU?$char_traits@D@std@@V?$allocator@D@2@@std@@V?$list@IV?$allocator@I@std@@@2@@std@@PAX@std@@@std@@@std@@QAEXPAU?$pair@$$CBV?$basic_string@DU?$char_traits@D@std@@V?$allocator@D@2@@std@@V?$list@IV?$allocator@I@std@@@2@@1@@Z 10007460 f i ClientSession.obj
 0001:00006480       ??$try_emplace@$$V@?$map@IPAVIClientSession@@U?$less@I@std@@V?$allocator@U?$pair@$$CBIPAVIClientSession@@@std@@@3@@std@@QAE?AU?$pair@V?$_Tree_iterator@V?$_Tree_val@U?$_Tree_simple_types@U?$pair@$$CBIPAVIClientSession@@@std@@@std@@@std@@@std@@_N@1@ABI@Z 10007480 f i ClientSession.obj
 0001:000064a0       ??$_Insert@I@?$list@IV?$allocator@I@std@@@std@@QAEXV?$_List_unchecked_const_iterator@V?$_List_val@U?$_List_simple_types@I@std@@@std@@U_Iterator_base0@2@@1@$$QAI@Z 100074a0 f i ClientSession.obj
 0001:000064a0       ??$_Insert@ABI@?$list@IV?$allocator@I@std@@@std@@QAEXV?$_List_unchecked_const_iterator@V?$_List_val@U?$_List_simple_types@I@std@@@std@@U_Iterator_base0@2@@1@ABI@Z 100074a0 f i ClientSession.obj
 0001:000064a0       ??$_Insert@ABQAVIAccount@@@?$list@PAVIAccount@@V?$allocator@PAVIAccount@@@std@@@std@@QAEXV?$_List_unchecked_const_iterator@V?$_List_val@U?$_List_simple_types@PAVIAccount@@@std@@@std@@U_Iterator_base0@2@@1@ABQAVIAccount@@@Z 100074a0 f i ClientSession.obj
 0001:00006520       ??$?0U?$_Wrap_alloc@V?$allocator@D@std@@@std@@X@?$_String_alloc@U?$_String_base_types@DV?$allocator@D@std@@@std@@@std@@QAE@$$QAU?$_Wrap_alloc@V?$allocator@D@std@@@1@@Z 10007520 f i ClientSession.obj
 0001:00006550       ??$_Lbound@V?$basic_string@DU?$char_traits@D@std@@V?$allocator@D@2@@std@@@?$_Tree@V?$_Tmap_traits@V?$basic_string@DU?$char_traits@D@std@@V?$allocator@D@2@@std@@V?$list@IV?$allocator@I@std@@@2@U?$less@V?$basic_string@DU?$char_traits@D@std@@V?$allocator@D@2@@std@@@2@V?$allocator@U?$pair@$$CBV?$basic_string@DU?$char_traits@D@std@@V?$allocator@D@2@@std@@V?$list@IV?$allocator@I@std@@@2@@std@@@2@$0A@@std@@@std@@IBEPAU?$_Tree_node@U?$pair@$$CBV?$basic_string@DU?$char_traits@D@std@@V?$allocator@D@2@@std@@V?$list@IV?$allocator@I@std@@@2@@std@@PAX@1@ABV?$basic_string@DU?$char_traits@D@std@@V?$allocator@D@2@@1@@Z 10007550 f i ClientSession.obj
 0001:000065e0       ??$_Lbound@I@?$_Tree@V?$_Tmap_traits@IPAVIClientSession@@U?$less@I@std@@V?$allocator@U?$pair@$$CBIPAVIClientSession@@@std@@@3@$0A@@std@@@std@@IBEPAU?$_Tree_node@U?$pair@$$CBIPAVIClientSession@@@std@@PAX@1@ABI@Z 100075e0 f i ClientSession.obj
 0001:00006670       ??$?MDU?$char_traits@D@std@@V?$allocator@D@1@@std@@YA_NABV?$basic_string@DU?$char_traits@D@std@@V?$allocator@D@2@@0@0@Z 10007670 f i ClientSession.obj
 0001:000066a0       ??0?$_Wrap_alloc@V?$allocator@D@std@@@std@@QAE@$$QAU01@@Z 100076a0 f i ClientSession.obj
 0001:000066a0       ??$?0V?$allocator@U?$_List_node@IPAX@std@@@std@@@?$_Wrap_alloc@V?$allocator@U?$_List_node@IPAX@std@@@std@@@std@@QAE@$$QAV?$allocator@U?$_List_node@IPAX@std@@@1@@Z 100076a0 f i ClientSession.obj
 0001:000066a0       ??0?$_Wrap_alloc@V?$allocator@U?$_List_node@IPAX@std@@@std@@@std@@QAE@$$QAU01@@Z 100076a0 f i ClientSession.obj
 0001:000066a0       ??$?0V?$allocator@D@std@@@?$_Wrap_alloc@V?$allocator@D@std@@@std@@QAE@$$QAV?$allocator@D@1@@Z 100076a0 f i ClientSession.obj
 0001:000066d0       ??$?0$$V@?$_Compressed_pair@U?$_Wrap_alloc@V?$allocator@U?$_Tree_node@U?$pair@$$CBV?$basic_string@DU?$char_traits@D@std@@V?$allocator@D@2@@std@@V?$list@IV?$allocator@I@std@@@2@@std@@PAX@std@@@std@@@std@@V?$_Tree_val@U?$_Tree_simple_types@U?$pair@$$CBV?$basic_string@DU?$char_traits@D@std@@V?$allocator@D@2@@std@@V?$list@IV?$allocator@I@std@@@2@@std@@@std@@@2@$00@std@@QAE@U_Zero_then_variadic_args_t@1@@Z 100076d0 f i ClientSession.obj
 0001:000066d0       ??$?0$$V@?$_Compressed_pair@U?$_Wrap_alloc@V?$allocator@U?$_Tree_node@U?$pair@$$CBIPAVIClientSession@@@std@@PAX@std@@@std@@@std@@V?$_Tree_val@U?$_Tree_simple_types@U?$pair@$$CBIPAVIClientSession@@@std@@@std@@@2@$00@std@@QAE@U_Zero_then_variadic_args_t@1@@Z 100076d0 f i ClientSession.obj
 0001:000066d0       ??$?0$$V@?$_Compressed_pair@U?$_Wrap_alloc@V?$allocator@U?$_List_node@IPAX@std@@@std@@@std@@V?$_List_val@U?$_List_simple_types@I@std@@@2@$00@std@@QAE@U_Zero_then_variadic_args_t@1@@Z 100076d0 f i ClientSession.obj
 0001:000066d0       ??$?0$$V@?$_Compressed_pair@U?$_Wrap_alloc@V?$allocator@U?$_List_node@PAVIAccount@@PAX@std@@@std@@@std@@V?$_List_val@U?$_List_simple_types@PAVIAccount@@@std@@@2@$00@std@@QAE@U_Zero_then_variadic_args_t@1@@Z 100076d0 f i ClientSession.obj
 0001:000066f0       ??$?0ABU?$less@I@std@@U_Zero_then_variadic_args_t@1@@?$_Compressed_pair@U?$less@I@std@@V?$_Compressed_pair@U?$_Wrap_alloc@V?$allocator@U?$_Tree_node@U?$pair@$$CBIPAVIClientSession@@@std@@PAX@std@@@std@@@std@@V?$_Tree_val@U?$_Tree_simple_types@U?$pair@$$CBIPAVIClientSession@@@std@@@std@@@2@$00@2@$00@std@@QAE@U_One_then_variadic_args_t@1@ABU?$less@I@1@$$QAU_Zero_then_variadic_args_t@1@@Z 100076f0 f i ClientSession.obj
 0001:000066f0       ??$?0ABU?$less@V?$basic_string@DU?$char_traits@D@std@@V?$allocator@D@2@@std@@@std@@U_Zero_then_variadic_args_t@1@@?$_Compressed_pair@U?$less@V?$basic_string@DU?$char_traits@D@std@@V?$allocator@D@2@@std@@@std@@V?$_Compressed_pair@U?$_Wrap_alloc@V?$allocator@U?$_Tree_node@U?$pair@$$CBV?$basic_string@DU?$char_traits@D@std@@V?$allocator@D@2@@std@@V?$list@IV?$allocator@I@std@@@2@@std@@PAX@std@@@std@@@std@@V?$_Tree_val@U?$_Tree_simple_types@U?$pair@$$CBV?$basic_string@DU?$char_traits@D@std@@V?$allocator@D@2@@std@@V?$list@IV?$allocator@I@std@@@2@@std@@@std@@@2@$00@2@$00@std@@QAE@U_One_then_variadic_args_t@1@ABU?$less@V?$basic_string@DU?$char_traits@D@std@@V?$allocator@D@2@@std@@@1@$$QAU_Zero_then_variadic_args_t@1@@Z 100076f0 f i ClientSession.obj
 0001:00006730       ??0?$_Tree_val@U?$_Tree_simple_types@U?$pair@$$CBIPAVIClientSession@@@std@@@std@@@std@@QAE@XZ 10007730 f i ClientSession.obj
 0001:00006730       ??0?$_List_val@U?$_List_simple_types@I@std@@@std@@QAE@XZ 10007730 f i ClientSession.obj
 0001:00006730       ??0?$_Tree_val@U?$_Tree_simple_types@U?$pair@$$CBV?$basic_string@DU?$char_traits@D@std@@V?$allocator@D@2@@std@@V?$list@IV?$allocator@I@std@@@2@@std@@@std@@@std@@QAE@XZ 10007730 f i ClientSession.obj
 0001:00006730       ??0?$_List_val@U?$_List_simple_types@PAVIAccount@@@std@@@std@@QAE@XZ 10007730 f i ClientSession.obj
 0001:00006760       ?_Compare@?$_Tree@V?$_Tmap_traits@V?$basic_string@DU?$char_traits@D@std@@V?$allocator@D@2@@std@@V?$list@IV?$allocator@I@std@@@2@U?$less@V?$basic_string@DU?$char_traits@D@std@@V?$allocator@D@2@@std@@@2@V?$allocator@U?$pair@$$CBV?$basic_string@DU?$char_traits@D@std@@V?$allocator@D@2@@std@@V?$list@IV?$allocator@I@std@@@2@@std@@@2@$0A@@std@@@std@@IBE_NABV?$basic_string@DU?$char_traits@D@std@@V?$allocator@D@2@@2@0@Z 10007760 f i ClientSession.obj
 0001:00006790       ?_Compare@?$_Tree@V?$_Tmap_traits@IPAVIClientSession@@U?$less@I@std@@V?$allocator@U?$pair@$$CBIPAVIClientSession@@@std@@@3@$0A@@std@@@std@@IBE_NABI0@Z 10007790 f i ClientSession.obj
 0001:000067c0       ?_Incsize@?$list@IV?$allocator@I@std@@@std@@QAEXI@Z 100077c0 f i ClientSession.obj
 0001:000067c0       ?_Incsize@?$list@PAVIAccount@@V?$allocator@PAVIAccount@@@std@@@std@@QAEXI@Z 100077c0 f i ClientSession.obj
 0001:00006810       ??0?$list@IV?$allocator@I@std@@@std@@QAE@ABV01@@Z 10007810 f i ClientSession.obj
 0001:00006900       ?max_size@?$list@IV?$allocator@I@std@@@std@@QBEIXZ 10007900 f i ClientSession.obj
 0001:00006900       ?max_size@?$list@PAVIAccount@@V?$allocator@PAVIAccount@@@std@@@std@@QBEIXZ 10007900 f i ClientSession.obj
 0001:00006930       ?end@?$list@IV?$allocator@I@std@@@std@@QBE?AV?$_List_const_iterator@V?$_List_val@U?$_List_simple_types@I@std@@@std@@@2@XZ 10007930 f i ClientSession.obj
 0001:00006990       ?begin@?$list@IV?$allocator@I@std@@@std@@QBE?AV?$_List_const_iterator@V?$_List_val@U?$_List_simple_types@I@std@@@std@@@2@XZ 10007990 f i ClientSession.obj
 0001:00006a00       ?max_size@?$_Wrap_alloc@V?$allocator@U?$_List_node@IPAX@std@@@std@@@std@@QBEIU_Nil@2@@Z 10007a00 f i ClientSession.obj
 0001:00006a00       ?max_size@?$_Wrap_alloc@V?$allocator@U?$_List_node@PAVIAccount@@PAX@std@@@std@@@std@@QBEIU_Nil@2@@Z 10007a00 f i ClientSession.obj
 0001:00006a20       ?max_size@?$allocator_traits@V?$allocator@U?$_List_node@PAVIAccount@@PAX@std@@@std@@@std@@SAIABV?$allocator@U?$_List_node@PAVIAccount@@PAX@std@@@2@@Z 10007a20 f i ClientSession.obj
 0001:00006a20       ?max_size@?$allocator_traits@V?$allocator@U?$_List_node@IPAX@std@@@std@@@std@@SAIABV?$allocator@U?$_List_node@IPAX@std@@@2@@Z 10007a20 f i ClientSession.obj
 0001:00006a30       ?max_size@?$allocator@U?$_List_node@IPAX@std@@@std@@QBEIXZ 10007a30 f i ClientSession.obj
 0001:00006a30       ?max_size@?$allocator@U?$_List_node@PAVIAccount@@PAX@std@@@std@@QBEIXZ 10007a30 f i ClientSession.obj
 0001:00006a40       ??$emplace@AAU?$pair@IPAVIClientSession@@@std@@@?$_Tree@V?$_Tmap_traits@IPAVIClientSession@@U?$less@I@std@@V?$allocator@U?$pair@$$CBIPAVIClientSession@@@std@@@3@$0A@@std@@@std@@QAE?AU?$pair@V?$_Tree_iterator@V?$_Tree_val@U?$_Tree_simple_types@U?$pair@$$CBIPAVIClientSession@@@std@@@std@@@std@@@std@@_N@1@AAU?$pair@IPAVIClientSession@@@1@@Z 10007a40 f i ClientSession.obj
 0001:00006a90       ??$emplace@AAU?$pair@V?$basic_string@DU?$char_traits@D@std@@V?$allocator@D@2@@std@@V?$list@IV?$allocator@I@std@@@2@@std@@@?$_Tree@V?$_Tmap_traits@V?$basic_string@DU?$char_traits@D@std@@V?$allocator@D@2@@std@@V?$list@IV?$allocator@I@std@@@2@U?$less@V?$basic_string@DU?$char_traits@D@std@@V?$allocator@D@2@@std@@@2@V?$allocator@U?$pair@$$CBV?$basic_string@DU?$char_traits@D@std@@V?$allocator@D@2@@std@@V?$list@IV?$allocator@I@std@@@2@@std@@@2@$0A@@std@@@std@@QAE?AU?$pair@V?$_Tree_iterator@V?$_Tree_val@U?$_Tree_simple_types@U?$pair@$$CBV?$basic_string@DU?$char_traits@D@std@@V?$allocator@D@2@@std@@V?$list@IV?$allocator@I@std@@@2@@std@@@std@@@std@@@std@@_N@1@AAU?$pair@V?$basic_string@DU?$char_traits@D@std@@V?$allocator@D@2@@std@@V?$list@IV?$allocator@I@std@@@2@@1@@Z 10007a90 f i ClientSession.obj
 0001:00006ae0       ??$destroy@U?$pair@$$CBV?$basic_string@DU?$char_traits@D@std@@V?$allocator@D@2@@std@@V?$list@IV?$allocator@I@std@@@2@@std@@@?$allocator_traits@V?$allocator@U?$_Tree_node@U?$pair@$$CBV?$basic_string@DU?$char_traits@D@std@@V?$allocator@D@2@@std@@V?$list@IV?$allocator@I@std@@@2@@std@@PAX@std@@@std@@@std@@SAXAAV?$allocator@U?$_Tree_node@U?$pair@$$CBV?$basic_string@DU?$char_traits@D@std@@V?$allocator@D@2@@std@@V?$list@IV?$allocator@I@std@@@2@@std@@PAX@std@@@1@PAU?$pair@$$CBV?$basic_string@DU?$char_traits@D@std@@V?$allocator@D@2@@std@@V?$list@IV?$allocator@I@std@@@2@@1@@Z 10007ae0 f i ClientSession.obj
 0001:00006b00       ??$_Try_emplace@ABI$$V@?$map@IPAVIClientSession@@U?$less@I@std@@V?$allocator@U?$pair@$$CBIPAVIClientSession@@@std@@@3@@std@@QAE?AU?$pair@V?$_Tree_iterator@V?$_Tree_val@U?$_Tree_simple_types@U?$pair@$$CBIPAVIClientSession@@@std@@@std@@@std@@@std@@_N@1@ABI@Z 10007b00 f i ClientSession.obj
 0001:00006be0       ??$_Buynode@I@?$_List_buy@IV?$allocator@I@std@@@std@@QAEPAU?$_List_node@IPAX@1@PAU21@0$$QAI@Z 10007be0 f i ClientSession.obj
 0001:00006be0       ??$_Buynode@ABQAVIAccount@@@?$_List_buy@PAVIAccount@@V?$allocator@PAVIAccount@@@std@@@std@@QAEPAU?$_List_node@PAVIAccount@@PAX@1@PAU21@0ABQAVIAccount@@@Z 10007be0 f i ClientSession.obj
 0001:00006be0       ??$_Buynode@ABI@?$_List_buy@IV?$allocator@I@std@@@std@@QAEPAU?$_List_node@IPAX@1@PAU21@0ABI@Z 10007be0 f i ClientSession.obj
 0001:00006cb0       ??$?0U?$_Wrap_alloc@V?$allocator@D@std@@@std@@$$V@?$_Compressed_pair@U?$_Wrap_alloc@V?$allocator@D@std@@@std@@V?$_String_val@U?$_Simple_types@D@std@@@2@$00@std@@QAE@U_One_then_variadic_args_t@1@$$QAU?$_Wrap_alloc@V?$allocator@D@std@@@1@@Z 10007cb0 f i ClientSession.obj
 0001:00006ce0       ??$?0U?$_Wrap_alloc@V?$allocator@U?$_List_node@IPAX@std@@@std@@@std@@X@?$_List_buy@IV?$allocator@I@std@@@std@@QAE@$$QAU?$_Wrap_alloc@V?$allocator@U?$_List_node@IPAX@std@@@std@@@1@@Z 10007ce0 f i ClientSession.obj
 0001:00006d10       ??$insert@V?$_List_const_iterator@V?$_List_val@U?$_List_simple_types@I@std@@@std@@@std@@@?$list@IV?$allocator@I@std@@@std@@QAE?AV?$_List_iterator@V?$_List_val@U?$_List_simple_types@I@std@@@std@@@1@V?$_List_const_iterator@V?$_List_val@U?$_List_simple_types@I@std@@@std@@@1@00@Z 10007d10 f i ClientSession.obj
 0001:00006de0       ??F?$_List_iterator@V?$_List_val@U?$_List_simple_types@I@std@@@std@@@std@@QAEAAV01@XZ 10007de0 f i ClientSession.obj
 0001:00006e00       ?_Unchecked@?$_List_const_iterator@V?$_List_val@U?$_List_simple_types@I@std@@@std@@@std@@QBE?AV?$_List_unchecked_const_iterator@V?$_List_val@U?$_List_simple_types@I@std@@@std@@U_Iterator_base0@2@@2@XZ 10007e00 f i ClientSession.obj
 0001:00006e30       ??F?$_List_unchecked_const_iterator@V?$_List_val@U?$_List_simple_types@I@std@@@std@@U_Iterator_base0@2@@std@@QAEAAV01@XZ 10007e30 f i ClientSession.obj
 0001:00006e30       ??F?$_List_const_iterator@V?$_List_val@U?$_List_simple_types@I@std@@@std@@@std@@QAEAAV01@XZ 10007e30 f i ClientSession.obj
 0001:00006e60       ??$_Buynode@AAU?$pair@IPAVIClientSession@@@std@@@?$_Tree_comp_alloc@V?$_Tmap_traits@IPAVIClientSession@@U?$less@I@std@@V?$allocator@U?$pair@$$CBIPAVIClientSession@@@std@@@3@$0A@@std@@@std@@QAEPAU?$_Tree_node@U?$pair@$$CBIPAVIClientSession@@@std@@PAX@1@AAU?$pair@IPAVIClientSession@@@1@@Z 10007e60 f i ClientSession.obj
 0001:00006f40       ??$_Insert_nohint@AAU?$pair@$$CBIPAVIClientSession@@@std@@PAU?$_Tree_node@U?$pair@$$CBIPAVIClientSession@@@std@@PAX@2@@?$_Tree@V?$_Tmap_traits@IPAVIClientSession@@U?$less@I@std@@V?$allocator@U?$pair@$$CBIPAVIClientSession@@@std@@@3@$0A@@std@@@std@@IAE?AU?$pair@V?$_Tree_iterator@V?$_Tree_val@U?$_Tree_simple_types@U?$pair@$$CBIPAVIClientSession@@@std@@@std@@@std@@@std@@_N@1@_NAAU?$pair@$$CBIPAVIClientSession@@@1@PAU?$_Tree_node@U?$pair@$$CBIPAVIClientSession@@@std@@PAX@1@@Z 10007f40 f i ClientSession.obj
 0001:00007270       ??$_Buynode@AAU?$pair@V?$basic_string@DU?$char_traits@D@std@@V?$allocator@D@2@@std@@V?$list@IV?$allocator@I@std@@@2@@std@@@?$_Tree_comp_alloc@V?$_Tmap_traits@V?$basic_string@DU?$char_traits@D@std@@V?$allocator@D@2@@std@@V?$list@IV?$allocator@I@std@@@2@U?$less@V?$basic_string@DU?$char_traits@D@std@@V?$allocator@D@2@@std@@@2@V?$allocator@U?$pair@$$CBV?$basic_string@DU?$char_traits@D@std@@V?$allocator@D@2@@std@@V?$list@IV?$allocator@I@std@@@2@@std@@@2@$0A@@std@@@std@@QAEPAU?$_Tree_node@U?$pair@$$CBV?$basic_string@DU?$char_traits@D@std@@V?$allocator@D@2@@std@@V?$list@IV?$allocator@I@std@@@2@@std@@PAX@1@AAU?$pair@V?$basic_string@DU?$char_traits@D@std@@V?$allocator@D@2@@std@@V?$list@IV?$allocator@I@std@@@2@@1@@Z 10008270 f i ClientSession.obj
 0001:00007350       ??$_Insert_nohint@AAU?$pair@$$CBV?$basic_string@DU?$char_traits@D@std@@V?$allocator@D@2@@std@@V?$list@IV?$allocator@I@std@@@2@@std@@PAU?$_Tree_node@U?$pair@$$CBV?$basic_string@DU?$char_traits@D@std@@V?$allocator@D@2@@std@@V?$list@IV?$allocator@I@std@@@2@@std@@PAX@2@@?$_Tree@V?$_Tmap_traits@V?$basic_string@DU?$char_traits@D@std@@V?$allocator@D@2@@std@@V?$list@IV?$allocator@I@std@@@2@U?$less@V?$basic_string@DU?$char_traits@D@std@@V?$allocator@D@2@@std@@@2@V?$allocator@U?$pair@$$CBV?$basic_string@DU?$char_traits@D@std@@V?$allocator@D@2@@std@@V?$list@IV?$allocator@I@std@@@2@@std@@@2@$0A@@std@@@std@@IAE?AU?$pair@V?$_Tree_iterator@V?$_Tree_val@U?$_Tree_simple_types@U?$pair@$$CBV?$basic_string@DU?$char_traits@D@std@@V?$allocator@D@2@@std@@V?$list@IV?$allocator@I@std@@@2@@std@@@std@@@std@@@std@@_N@1@_NAAU?$pair@$$CBV?$basic_string@DU?$char_traits@D@std@@V?$allocator@D@2@@std@@V?$list@IV?$allocator@I@std@@@2@@1@PAU?$_Tree_node@U?$pair@$$CBV?$basic_string@DU?$char_traits@D@std@@V?$allocator@D@2@@std@@V?$list@IV?$allocator@I@std@@@2@@std@@PAX@1@@Z 10008350 f i ClientSession.obj
 0001:00007680       ??$destroy@U?$pair@$$CBV?$basic_string@DU?$char_traits@D@std@@V?$allocator@D@2@@std@@V?$list@IV?$allocator@I@std@@@2@@std@@@?$allocator@U?$_Tree_node@U?$pair@$$CBV?$basic_string@DU?$char_traits@D@std@@V?$allocator@D@2@@std@@V?$list@IV?$allocator@I@std@@@2@@std@@PAX@std@@@std@@QAEXPAU?$pair@$$CBV?$basic_string@DU?$char_traits@D@std@@V?$allocator@D@2@@std@@V?$list@IV?$allocator@I@std@@@2@@1@@Z 10008680 f i ClientSession.obj
 0001:000076a0       ??$forward_as_tuple@ABI@std@@YA?AV?$tuple@ABI@0@ABI@Z 100086a0 f i ClientSession.obj
 0001:000076f0       ??$forward_as_tuple@$$V@std@@YA?AV?$tuple@$$V@0@XZ 100086f0 f i ClientSession.obj
 0001:00007700       ??$emplace_hint@ABUpiecewise_construct_t@std@@V?$tuple@ABI@2@V?$tuple@$$V@2@@?$_Tree@V?$_Tmap_traits@IPAVIClientSession@@U?$less@I@std@@V?$allocator@U?$pair@$$CBIPAVIClientSession@@@std@@@3@$0A@@std@@@std@@QAE?AV?$_Tree_iterator@V?$_Tree_val@U?$_Tree_simple_types@U?$pair@$$CBIPAVIClientSession@@@std@@@std@@@std@@@1@V?$_Tree_const_iterator@V?$_Tree_val@U?$_Tree_simple_types@U?$pair@$$CBIPAVIClientSession@@@std@@@std@@@std@@@1@ABUpiecewise_construct_t@1@$$QAV?$tuple@ABI@1@$$QAV?$tuple@$$V@1@@Z 10008700 f i ClientSession.obj
 0001:00007770       ??$?0V?$_Tree_iterator@V?$_Tree_val@U?$_Tree_simple_types@U?$pair@$$CBV?$basic_string@DU?$char_traits@D@std@@V?$allocator@D@2@@std@@V?$list@IV?$allocator@I@std@@@2@@std@@@std@@@std@@@std@@_NX$0A@@?$pair@V?$_Tree_iterator@V?$_Tree_val@U?$_Tree_simple_types@U?$pair@$$CBV?$basic_string@DU?$char_traits@D@std@@V?$allocator@D@2@@std@@V?$list@IV?$allocator@I@std@@@2@@std@@@std@@@std@@@std@@_N@std@@QAE@$$QAV?$_Tree_iterator@V?$_Tree_val@U?$_Tree_simple_types@U?$pair@$$CBV?$basic_string@DU?$char_traits@D@std@@V?$allocator@D@2@@std@@V?$list@IV?$allocator@I@std@@@2@@std@@@std@@@std@@@1@$$QA_N@Z 10008770 f i ClientSession.obj
 0001:00007770       ??$?0V?$_Tree_iterator@V?$_Tree_val@U?$_Tree_simple_types@U?$pair@$$CBIPAVIClientSession@@@std@@@std@@@std@@@std@@_NX$0A@@?$pair@V?$_Tree_iterator@V?$_Tree_val@U?$_Tree_simple_types@U?$pair@$$CBIPAVIClientSession@@@std@@@std@@@std@@@std@@_N@std@@QAE@$$QAV?$_Tree_iterator@V?$_Tree_val@U?$_Tree_simple_types@U?$pair@$$CBIPAVIClientSession@@@std@@@std@@@std@@@1@$$QA_N@Z 10008770 f i ClientSession.obj
 0001:00007770       ??$?0AAV?$_Tree_iterator@V?$_Tree_val@U?$_Tree_simple_types@U?$pair@$$CBIPAVIClientSession@@@std@@@std@@@std@@@std@@_NX$0A@@?$pair@V?$_Tree_iterator@V?$_Tree_val@U?$_Tree_simple_types@U?$pair@$$CBIPAVIClientSession@@@std@@@std@@@std@@@std@@_N@std@@QAE@AAV?$_Tree_iterator@V?$_Tree_val@U?$_Tree_simple_types@U?$pair@$$CBIPAVIClientSession@@@std@@@std@@@std@@@1@$$QA_N@Z 10008770 f i ClientSession.obj
 0001:00007770       ??$?0AAV?$_Tree_iterator@V?$_Tree_val@U?$_Tree_simple_types@U?$pair@$$CBV?$basic_string@DU?$char_traits@D@std@@V?$allocator@D@2@@std@@V?$list@IV?$allocator@I@std@@@2@@std@@@std@@@std@@@std@@_NX$0A@@?$pair@V?$_Tree_iterator@V?$_Tree_val@U?$_Tree_simple_types@U?$pair@$$CBV?$basic_string@DU?$char_traits@D@std@@V?$allocator@D@2@@std@@V?$list@IV?$allocator@I@std@@@2@@std@@@std@@@std@@@std@@_N@std@@QAE@AAV?$_Tree_iterator@V?$_Tree_val@U?$_Tree_simple_types@U?$pair@$$CBV?$basic_string@DU?$char_traits@D@std@@V?$allocator@D@2@@std@@V?$list@IV?$allocator@I@std@@@2@@std@@@std@@@std@@@1@$$QA_N@Z 10008770 f i ClientSession.obj
 0001:000077b0       ??$?0U?$_Wrap_alloc@V?$allocator@U?$_List_node@IPAX@std@@@std@@@std@@X@?$_List_alloc@U?$_List_base_types@IV?$allocator@I@std@@@std@@@std@@QAE@$$QAU?$_Wrap_alloc@V?$allocator@U?$_List_node@IPAX@std@@@std@@@1@@Z 100087b0 f i ClientSession.obj
 0001:00007800       ??$_Insert_range@V?$_List_const_iterator@V?$_List_val@U?$_List_simple_types@I@std@@@std@@@std@@@?$list@IV?$allocator@I@std@@@std@@QAEXV?$_List_unchecked_const_iterator@V?$_List_val@U?$_List_simple_types@I@std@@@std@@U_Iterator_base0@2@@1@V?$_List_const_iterator@V?$_List_val@U?$_List_simple_types@I@std@@@std@@@1@1Uforward_iterator_tag@1@@Z 10008800 f i ClientSession.obj
 0001:000078f0       ??_G?$pair@$$CBV?$basic_string@DU?$char_traits@D@std@@V?$allocator@D@2@@std@@V?$list@IV?$allocator@I@std@@@2@@std@@QAEPAXI@Z 100088f0 f i ClientSession.obj
 0001:00007920       ??F?$_Tree_iterator@V?$_Tree_val@U?$_Tree_simple_types@U?$pair@$$CBV?$basic_string@DU?$char_traits@D@std@@V?$allocator@D@2@@std@@V?$list@IV?$allocator@I@std@@@2@@std@@@std@@@std@@@std@@QAEAAV01@XZ 10008920 f i ClientSession.obj
 0001:00007920       ??F?$_Tree_iterator@V?$_Tree_val@U?$_Tree_simple_types@U?$pair@$$CBIPAVIClientSession@@@std@@@std@@@std@@@std@@QAEAAV01@XZ 10008920 f i ClientSession.obj
 0001:00007940       ?_Buynode0@?$_Tree_comp_alloc@V?$_Tmap_traits@V?$basic_string@DU?$char_traits@D@std@@V?$allocator@D@2@@std@@V?$list@IV?$allocator@I@std@@@2@U?$less@V?$basic_string@DU?$char_traits@D@std@@V?$allocator@D@2@@std@@@2@V?$allocator@U?$pair@$$CBV?$basic_string@DU?$char_traits@D@std@@V?$allocator@D@2@@std@@V?$list@IV?$allocator@I@std@@@2@@std@@@2@$0A@@std@@@std@@QAEPAU?$_Tree_node@U?$pair@$$CBV?$basic_string@DU?$char_traits@D@std@@V?$allocator@D@2@@std@@V?$list@IV?$allocator@I@std@@@2@@std@@PAX@2@XZ 10008940 f i ClientSession.obj
 0001:00007a80       ?_Destroy_if_not_nil@?$_Tree@V?$_Tmap_traits@V?$basic_string@DU?$char_traits@D@std@@V?$allocator@D@2@@std@@V?$list@IV?$allocator@I@std@@@2@U?$less@V?$basic_string@DU?$char_traits@D@std@@V?$allocator@D@2@@std@@@2@V?$allocator@U?$pair@$$CBV?$basic_string@DU?$char_traits@D@std@@V?$allocator@D@2@@std@@V?$list@IV?$allocator@I@std@@@2@@std@@@2@$0A@@std@@@std@@IAEXPAU?$_Tree_node@U?$pair@$$CBV?$basic_string@DU?$char_traits@D@std@@V?$allocator@D@2@@std@@V?$list@IV?$allocator@I@std@@@2@@std@@PAX@2@@Z 10008a80 f i ClientSession.obj
 0001:00007ad0       ?_Buynode0@?$_Tree_comp_alloc@V?$_Tmap_traits@IPAVIClientSession@@U?$less@I@std@@V?$allocator@U?$pair@$$CBIPAVIClientSession@@@std@@@3@$0A@@std@@@std@@QAEPAU?$_Tree_node@U?$pair@$$CBIPAVIClientSession@@@std@@PAX@2@XZ 10008ad0 f i ClientSession.obj
 0001:00007c10       ?_Destroy_if_not_nil@?$_Tree@V?$_Tmap_traits@IPAVIClientSession@@U?$less@I@std@@V?$allocator@U?$pair@$$CBIPAVIClientSession@@@std@@@3@$0A@@std@@@std@@IAEXPAU?$_Tree_node@U?$pair@$$CBIPAVIClientSession@@@std@@PAX@2@@Z 10008c10 f i ClientSession.obj
 0001:00007c60       ?_Unchecked_erase@?$list@IV?$allocator@I@std@@@std@@QAEXV?$_List_unchecked_const_iterator@V?$_List_val@U?$_List_simple_types@I@std@@@std@@U_Iterator_base0@2@@2@@Z 10008c60 f i ClientSession.obj
 0001:00007d00       ??F?$_Tree_const_iterator@V?$_Tree_val@U?$_Tree_simple_types@U?$pair@$$CBV?$basic_string@DU?$char_traits@D@std@@V?$allocator@D@2@@std@@V?$list@IV?$allocator@I@std@@@2@@std@@@std@@@std@@@std@@QAEAAV01@XZ 10008d00 f i ClientSession.obj
 0001:00007d00       ??F?$_Tree_const_iterator@V?$_Tree_val@U?$_Tree_simple_types@U?$pair@$$CBIPAVIClientSession@@@std@@@std@@@std@@@std@@QAEAAV01@XZ 10008d00 f i ClientSession.obj
 0001:00007d20       ??F?$_Tree_unchecked_const_iterator@V?$_Tree_val@U?$_Tree_simple_types@U?$pair@$$CBIPAVIClientSession@@@std@@@std@@@std@@U_Iterator_base0@2@@std@@QAEAAV01@XZ 10008d20 f i ClientSession.obj
 0001:00007d20       ??F?$_Tree_unchecked_const_iterator@V?$_Tree_val@U?$_Tree_simple_types@U?$pair@$$CBV?$basic_string@DU?$char_traits@D@std@@V?$allocator@D@2@@std@@V?$list@IV?$allocator@I@std@@@2@@std@@@std@@@std@@U_Iterator_base0@2@@std@@QAEAAV01@XZ 10008d20 f i ClientSession.obj
 0001:00007e10       ??$construct@U?$pair@$$CBIPAVIClientSession@@@std@@AAU?$pair@IPAVIClientSession@@@2@@?$_Wrap_alloc@V?$allocator@U?$_Tree_node@U?$pair@$$CBIPAVIClientSession@@@std@@PAX@std@@@std@@@std@@QAEXPAU?$pair@$$CBIPAVIClientSession@@@1@AAU?$pair@IPAVIClientSession@@@1@@Z 10008e10 f i ClientSession.obj
 0001:00007e40       ??$_Insert_at@AAU?$pair@$$CBIPAVIClientSession@@@std@@PAU?$_Tree_node@U?$pair@$$CBIPAVIClientSession@@@std@@PAX@2@@?$_Tree@V?$_Tmap_traits@IPAVIClientSession@@U?$less@I@std@@V?$allocator@U?$pair@$$CBIPAVIClientSession@@@std@@@3@$0A@@std@@@std@@IAE?AV?$_Tree_iterator@V?$_Tree_val@U?$_Tree_simple_types@U?$pair@$$CBIPAVIClientSession@@@std@@@std@@@std@@@1@_NPAU?$_Tree_node@U?$pair@$$CBIPAVIClientSession@@@std@@PAX@1@AAU?$pair@$$CBIPAVIClientSession@@@1@1@Z 10008e40 f i ClientSession.obj
 0001:00008280       ??$construct@U?$pair@$$CBV?$basic_string@DU?$char_traits@D@std@@V?$allocator@D@2@@std@@V?$list@IV?$allocator@I@std@@@2@@std@@AAU?$pair@V?$basic_string@DU?$char_traits@D@std@@V?$allocator@D@2@@std@@V?$list@IV?$allocator@I@std@@@2@@2@@?$_Wrap_alloc@V?$allocator@U?$_Tree_node@U?$pair@$$CBV?$basic_string@DU?$char_traits@D@std@@V?$allocator@D@2@@std@@V?$list@IV?$allocator@I@std@@@2@@std@@PAX@std@@@std@@@std@@QAEXPAU?$pair@$$CBV?$basic_string@DU?$char_traits@D@std@@V?$allocator@D@2@@std@@V?$list@IV?$allocator@I@std@@@2@@1@AAU?$pair@V?$basic_string@DU?$char_traits@D@std@@V?$allocator@D@2@@std@@V?$list@IV?$allocator@I@std@@@2@@1@@Z 10009280 f i ClientSession.obj
 0001:000082b0       ??$_Insert_at@AAU?$pair@$$CBV?$basic_string@DU?$char_traits@D@std@@V?$allocator@D@2@@std@@V?$list@IV?$allocator@I@std@@@2@@std@@PAU?$_Tree_node@U?$pair@$$CBV?$basic_string@DU?$char_traits@D@std@@V?$allocator@D@2@@std@@V?$list@IV?$allocator@I@std@@@2@@std@@PAX@2@@?$_Tree@V?$_Tmap_traits@V?$basic_string@DU?$char_traits@D@std@@V?$allocator@D@2@@std@@V?$list@IV?$allocator@I@std@@@2@U?$less@V?$basic_string@DU?$char_traits@D@std@@V?$allocator@D@2@@std@@@2@V?$allocator@U?$pair@$$CBV?$basic_string@DU?$char_traits@D@std@@V?$allocator@D@2@@std@@V?$list@IV?$allocator@I@std@@@2@@std@@@2@$0A@@std@@@std@@IAE?AV?$_Tree_iterator@V?$_Tree_val@U?$_Tree_simple_types@U?$pair@$$CBV?$basic_string@DU?$char_traits@D@std@@V?$allocator@D@2@@std@@V?$list@IV?$allocator@I@std@@@2@@std@@@std@@@std@@@1@_NPAU?$_Tree_node@U?$pair@$$CBV?$basic_string@DU?$char_traits@D@std@@V?$allocator@D@2@@std@@V?$list@IV?$allocator@I@std@@@2@@std@@PAX@1@AAU?$pair@$$CBV?$basic_string@DU?$char_traits@D@std@@V?$allocator@D@2@@std@@V?$list@IV?$allocator@I@std@@@2@@1@1@Z 100092b0 f i ClientSession.obj
 0001:000086f0       ??$?0ABI$0A@@?$tuple@ABI@std@@QAE@ABI@Z 100096f0 f i ClientSession.obj
 0001:00008720       ??$_Buynode@ABUpiecewise_construct_t@std@@V?$tuple@ABI@2@V?$tuple@$$V@2@@?$_Tree_comp_alloc@V?$_Tmap_traits@IPAVIClientSession@@U?$less@I@std@@V?$allocator@U?$pair@$$CBIPAVIClientSession@@@std@@@3@$0A@@std@@@std@@QAEPAU?$_Tree_node@U?$pair@$$CBIPAVIClientSession@@@std@@PAX@1@ABUpiecewise_construct_t@1@$$QAV?$tuple@ABI@1@$$QAV?$tuple@$$V@1@@Z 10009720 f i ClientSession.obj
 0001:00008820       ??$_Insert_hint@AAU?$pair@$$CBIPAVIClientSession@@@std@@PAU?$_Tree_node@U?$pair@$$CBIPAVIClientSession@@@std@@PAX@2@@?$_Tree@V?$_Tmap_traits@IPAVIClientSession@@U?$less@I@std@@V?$allocator@U?$pair@$$CBIPAVIClientSession@@@std@@@3@$0A@@std@@@std@@IAE?AV?$_Tree_iterator@V?$_Tree_val@U?$_Tree_simple_types@U?$pair@$$CBIPAVIClientSession@@@std@@@std@@@std@@@1@V?$_Tree_const_iterator@V?$_Tree_val@U?$_Tree_simple_types@U?$pair@$$CBIPAVIClientSession@@@std@@@std@@@std@@@1@AAU?$pair@$$CBIPAVIClientSession@@@1@PAU?$_Tree_node@U?$pair@$$CBIPAVIClientSession@@@std@@PAX@1@@Z 10009820 f i ClientSession.obj
 0001:00009290       ??$?0U?$_Wrap_alloc@V?$allocator@U?$_List_node@IPAX@std@@@std@@@std@@$$V@?$_Compressed_pair@U?$_Wrap_alloc@V?$allocator@U?$_List_node@IPAX@std@@@std@@@std@@V?$_List_val@U?$_List_simple_types@I@std@@@2@$00@std@@QAE@U_One_then_variadic_args_t@1@$$QAU?$_Wrap_alloc@V?$allocator@U?$_List_node@IPAX@std@@@std@@@1@@Z 1000a290 f i ClientSession.obj
 0001:000092c0       ?max_size@?$_Tree@V?$_Tmap_traits@V?$basic_string@DU?$char_traits@D@std@@V?$allocator@D@2@@std@@V?$list@IV?$allocator@I@std@@@2@U?$less@V?$basic_string@DU?$char_traits@D@std@@V?$allocator@D@2@@std@@@2@V?$allocator@U?$pair@$$CBV?$basic_string@DU?$char_traits@D@std@@V?$allocator@D@2@@std@@V?$list@IV?$allocator@I@std@@@2@@std@@@2@$0A@@std@@@std@@QBEIXZ 1000a2c0 f i ClientSession.obj
 0001:000092f0       ?max_size@?$_Tree@V?$_Tmap_traits@IPAVIClientSession@@U?$less@I@std@@V?$allocator@U?$pair@$$CBIPAVIClientSession@@@std@@@3@$0A@@std@@@std@@QBEIXZ 1000a2f0 f i ClientSession.obj
 0001:00009320       ?size@?$_Tree@V?$_Tmap_traits@IPAVIClientSession@@U?$less@I@std@@V?$allocator@U?$pair@$$CBIPAVIClientSession@@@std@@@3@$0A@@std@@@std@@QBEIXZ 1000a320 f i ClientSession.obj
 0001:00009340       ?max_size@?$_Wrap_alloc@V?$allocator@U?$_Tree_node@U?$pair@$$CBV?$basic_string@DU?$char_traits@D@std@@V?$allocator@D@2@@std@@V?$list@IV?$allocator@I@std@@@2@@std@@PAX@std@@@std@@@std@@QBEIU_Nil@2@@Z 1000a340 f i ClientSession.obj
 0001:00009360       ?max_size@?$_Wrap_alloc@V?$allocator@U?$_Tree_node@U?$pair@$$CBIPAVIClientSession@@@std@@PAX@std@@@std@@@std@@QBEIU_Nil@2@@Z 1000a360 f i ClientSession.obj
 0001:00009380       ?max_size@?$allocator_traits@V?$allocator@U?$_Tree_node@U?$pair@$$CBV?$basic_string@DU?$char_traits@D@std@@V?$allocator@D@2@@std@@V?$list@IV?$allocator@I@std@@@2@@std@@PAX@std@@@std@@@std@@SAIABV?$allocator@U?$_Tree_node@U?$pair@$$CBV?$basic_string@DU?$char_traits@D@std@@V?$allocator@D@2@@std@@V?$list@IV?$allocator@I@std@@@2@@std@@PAX@std@@@2@@Z 1000a380 f i ClientSession.obj
 0001:00009390       ?max_size@?$allocator_traits@V?$allocator@U?$_Tree_node@U?$pair@$$CBIPAVIClientSession@@@std@@PAX@std@@@std@@@std@@SAIABV?$allocator@U?$_Tree_node@U?$pair@$$CBIPAVIClientSession@@@std@@PAX@std@@@2@@Z 1000a390 f i ClientSession.obj
 0001:000093a0       ?max_size@?$allocator@U?$_Tree_node@U?$pair@$$CBV?$basic_string@DU?$char_traits@D@std@@V?$allocator@D@2@@std@@V?$list@IV?$allocator@I@std@@@2@@std@@PAX@std@@@std@@QBEIXZ 1000a3a0 f i ClientSession.obj
 0001:000093b0       ?max_size@?$allocator@U?$_Tree_node@U?$pair@$$CBIPAVIClientSession@@@std@@PAX@std@@@std@@QBEIXZ 1000a3b0 f i ClientSession.obj
 0001:000093c0       ??$construct@U?$pair@$$CBIPAVIClientSession@@@std@@AAU?$pair@IPAVIClientSession@@@2@@?$allocator_traits@V?$allocator@U?$_Tree_node@U?$pair@$$CBIPAVIClientSession@@@std@@PAX@std@@@std@@@std@@SAXAAV?$allocator@U?$_Tree_node@U?$pair@$$CBIPAVIClientSession@@@std@@PAX@std@@@1@PAU?$pair@$$CBIPAVIClientSession@@@1@AAU?$pair@IPAVIClientSession@@@1@@Z 1000a3c0 f i ClientSession.obj
 0001:000093e0       ??$_Buynode_if_nil@AAU?$pair@$$CBV?$basic_string@DU?$char_traits@D@std@@V?$allocator@D@2@@std@@V?$list@IV?$allocator@I@std@@@2@@std@@@?$_Tree@V?$_Tmap_traits@V?$basic_string@DU?$char_traits@D@std@@V?$allocator@D@2@@std@@V?$list@IV?$allocator@I@std@@@2@U?$less@V?$basic_string@DU?$char_traits@D@std@@V?$allocator@D@2@@std@@@2@V?$allocator@U?$pair@$$CBV?$basic_string@DU?$char_traits@D@std@@V?$allocator@D@2@@std@@V?$list@IV?$allocator@I@std@@@2@@std@@@2@$0A@@std@@@std@@IAEPAU?$_Tree_node@U?$pair@$$CBV?$basic_string@DU?$char_traits@D@std@@V?$allocator@D@2@@std@@V?$list@IV?$allocator@I@std@@@2@@std@@PAX@1@PAU21@AAU?$pair@$$CBV?$basic_string@DU?$char_traits@D@std@@V?$allocator@D@2@@std@@V?$list@IV?$allocator@I@std@@@2@@1@@Z 1000a3e0 f i ClientSession.obj
 0001:000093e0       ??$_Buynode_if_nil@AAU?$pair@$$CBIPAVIClientSession@@@std@@@?$_Tree@V?$_Tmap_traits@IPAVIClientSession@@U?$less@I@std@@V?$allocator@U?$pair@$$CBIPAVIClientSession@@@std@@@3@$0A@@std@@@std@@IAEPAU?$_Tree_node@U?$pair@$$CBIPAVIClientSession@@@std@@PAX@1@PAU21@AAU?$pair@$$CBIPAVIClientSession@@@1@@Z 1000a3e0 f i ClientSession.obj
 0001:000093f0       ??$construct@U?$pair@$$CBV?$basic_string@DU?$char_traits@D@std@@V?$allocator@D@2@@std@@V?$list@IV?$allocator@I@std@@@2@@std@@AAU?$pair@V?$basic_string@DU?$char_traits@D@std@@V?$allocator@D@2@@std@@V?$list@IV?$allocator@I@std@@@2@@2@@?$allocator_traits@V?$allocator@U?$_Tree_node@U?$pair@$$CBV?$basic_string@DU?$char_traits@D@std@@V?$allocator@D@2@@std@@V?$list@IV?$allocator@I@std@@@2@@std@@PAX@std@@@std@@@std@@SAXAAV?$allocator@U?$_Tree_node@U?$pair@$$CBV?$basic_string@DU?$char_traits@D@std@@V?$allocator@D@2@@std@@V?$list@IV?$allocator@I@std@@@2@@std@@PAX@std@@@1@PAU?$pair@$$CBV?$basic_string@DU?$char_traits@D@std@@V?$allocator@D@2@@std@@V?$list@IV?$allocator@I@std@@@2@@1@AAU?$pair@V?$basic_string@DU?$char_traits@D@std@@V?$allocator@D@2@@std@@V?$list@IV?$allocator@I@std@@@2@@1@@Z 1000a3f0 f i ClientSession.obj
 0001:00009410       ??$?0ABI@?$_Tuple_val@ABI@std@@QAE@ABI@Z 1000a410 f i ClientSession.obj
 0001:00009440       ??$construct@U?$pair@$$CBIPAVIClientSession@@@std@@ABUpiecewise_construct_t@2@V?$tuple@ABI@2@V?$tuple@$$V@2@@?$_Wrap_alloc@V?$allocator@U?$_Tree_node@U?$pair@$$CBIPAVIClientSession@@@std@@PAX@std@@@std@@@std@@QAEXPAU?$pair@$$CBIPAVIClientSession@@@1@ABUpiecewise_construct_t@1@$$QAV?$tuple@ABI@1@$$QAV?$tuple@$$V@1@@Z 1000a440 f i ClientSession.obj
 0001:00009490       ??$construct@U?$pair@$$CBIPAVIClientSession@@@std@@AAU?$pair@IPAVIClientSession@@@2@@?$allocator@U?$_Tree_node@U?$pair@$$CBIPAVIClientSession@@@std@@PAX@std@@@std@@QAEXPAU?$pair@$$CBIPAVIClientSession@@@1@AAU?$pair@IPAVIClientSession@@@1@@Z 1000a490 f i ClientSession.obj
 0001:00009520       ??$construct@U?$pair@$$CBV?$basic_string@DU?$char_traits@D@std@@V?$allocator@D@2@@std@@V?$list@IV?$allocator@I@std@@@2@@std@@AAU?$pair@V?$basic_string@DU?$char_traits@D@std@@V?$allocator@D@2@@std@@V?$list@IV?$allocator@I@std@@@2@@2@@?$allocator@U?$_Tree_node@U?$pair@$$CBV?$basic_string@DU?$char_traits@D@std@@V?$allocator@D@2@@std@@V?$list@IV?$allocator@I@std@@@2@@std@@PAX@std@@@std@@QAEXPAU?$pair@$$CBV?$basic_string@DU?$char_traits@D@std@@V?$allocator@D@2@@std@@V?$list@IV?$allocator@I@std@@@2@@1@AAU?$pair@V?$basic_string@DU?$char_traits@D@std@@V?$allocator@D@2@@std@@V?$list@IV?$allocator@I@std@@@2@@1@@Z 1000a520 f i ClientSession.obj
 0001:000095b0       ??$construct@U?$pair@$$CBIPAVIClientSession@@@std@@ABUpiecewise_construct_t@2@V?$tuple@ABI@2@V?$tuple@$$V@2@@?$allocator_traits@V?$allocator@U?$_Tree_node@U?$pair@$$CBIPAVIClientSession@@@std@@PAX@std@@@std@@@std@@SAXAAV?$allocator@U?$_Tree_node@U?$pair@$$CBIPAVIClientSession@@@std@@PAX@std@@@1@PAU?$pair@$$CBIPAVIClientSession@@@1@ABUpiecewise_construct_t@1@$$QAV?$tuple@ABI@1@$$QAV?$tuple@$$V@1@@Z 1000a5b0 f i ClientSession.obj
 0001:000095f0       ??$?0IPAVIClientSession@@X$0A@@?$pair@$$CBIPAVIClientSession@@@std@@QAE@ABU?$pair@IPAVIClientSession@@@1@@Z 1000a5f0 f i ClientSession.obj
 0001:00009620       ??$?0V?$basic_string@DU?$char_traits@D@std@@V?$allocator@D@2@@std@@V?$list@IV?$allocator@I@std@@@1@X$0A@@?$pair@$$CBV?$basic_string@DU?$char_traits@D@std@@V?$allocator@D@2@@std@@V?$list@IV?$allocator@I@std@@@2@@std@@QAE@ABU?$pair@V?$basic_string@DU?$char_traits@D@std@@V?$allocator@D@2@@std@@V?$list@IV?$allocator@I@std@@@2@@1@@Z 1000a620 f i ClientSession.obj
 0001:00009690       ??$construct@U?$pair@$$CBIPAVIClientSession@@@std@@ABUpiecewise_construct_t@2@V?$tuple@ABI@2@V?$tuple@$$V@2@@?$allocator@U?$_Tree_node@U?$pair@$$CBIPAVIClientSession@@@std@@PAX@std@@@std@@QAEXPAU?$pair@$$CBIPAVIClientSession@@@1@ABUpiecewise_construct_t@1@$$QAV?$tuple@ABI@1@$$QAV?$tuple@$$V@1@@Z 1000a690 f i ClientSession.obj
 0001:00009750       ??0?$tuple@ABI@std@@QAE@$$QAV01@@Z 1000a750 f i ClientSession.obj
 0001:00009780       ??$?0ABI$$Z$$V@?$pair@$$CBIPAVIClientSession@@@std@@QAE@Upiecewise_construct_t@1@V?$tuple@ABI@1@V?$tuple@$$V@1@@Z 1000a780 f i ClientSession.obj
 0001:000097b0       ??$?0V?$tuple@ABI@std@@V?$tuple@$$V@1@$0A@$$Z$S@?$pair@$$CBIPAVIClientSession@@@std@@QAE@AAV?$tuple@ABI@1@AAV?$tuple@$$V@1@U?$integer_sequence@I$0A@@1@U?$integer_sequence@I$S@1@@Z 1000a7b0 f i ClientSession.obj
 0001:000097f0       ??$get@$0A@ABI@std@@YAABI$$QAV?$tuple@ABI@0@@Z 1000a7f0 f i ClientSession.obj
 0001:00009810       ??1IServerProtocol@@UAE@XZ 1000a810 f i ServerProtocolImpl.obj
 0001:00009830       ??_GIServerProtocol@@UAEPAXI@Z 1000a830 f i ServerProtocolImpl.obj
 0001:00009830       ??_EIServerProtocol@@UAEPAXI@Z 1000a830 f i * CIL library *:* CIL module *
 0001:00009860       ??0ServerProtocol@@QAE@XZ  1000a860 f   ServerProtocolImpl.obj
 0001:00009950       ??_EServerProtocol@@UAEPAXI@Z 1000a950 f i * CIL library *:* CIL module *
 0001:00009950       ??_GServerProtocol@@UAEPAXI@Z 1000a950 f i ServerProtocolImpl.obj
 0001:00009980       ??0IServerProtocol@@QAE@XZ 1000a980 f i ServerProtocolImpl.obj
 0001:000099a0       ??1ServerProtocol@@UAE@XZ  1000a9a0 f   ServerProtocolImpl.obj
 0001:00009a40       ?Start@ServerProtocol@@UAE_NGII@Z 1000aa40 f   ServerProtocolImpl.obj
 0001:00009a90       ?WebSocketSend@ServerProtocol@@UAE_NIPAXI_K@Z 1000aa90 f   ServerProtocolImpl.obj
 0001:00009ae0       ?Send@ServerProtocol@@UAE_NIPAXI_K@Z 1000aae0 f   ServerProtocolImpl.obj
 0001:00009b20       ?Shutdown@ServerProtocol@@UAEXXZ 1000ab20 f   ServerProtocolImpl.obj
 0001:00009b40       ?CreateServerProtocol@@YGPAVIServerProtocol@@XZ 1000ab40 f   ServerProtocolImpl.obj
 0001:00009bb0       ?ReleaseServerProtocol@@YGXPAVIServerProtocol@@@Z 1000abb0 f   ServerProtocolImpl.obj
 0001:00009bf0       ?OnConnect@ServerProtocol@@UAEXI_NPADG@Z 1000abf0 f   ServerProtocolImpl.obj
 0001:00009c30       ?OnReceive@ServerProtocol@@UAEXIPADI@Z 1000ac30 f   ServerProtocolImpl.obj
 0001:00009d10       ?OnSend@ServerProtocol@@UAEXIIW4SocketError@@@Z 1000ad10 f   ServerProtocolImpl.obj
 0001:00009d60       ?GetClientSession@ServerProtocol@@QAEPAVIClientSession@@I@Z 1000ad60 f   ServerProtocolImpl.obj
 0001:00009d90       ?DisconnectClient@ServerProtocol@@UAEXI@Z 1000ad90 f   ServerProtocolImpl.obj
 0001:00009dc0       _DllMain@12                1000adc0 f   dllmain.obj
 0001:00009dd5       ??0CAtlBaseModule@ATL@@QAE@XZ 1000add5 f   atls:atlbase.obj
 0001:00009e28       ??0_ATL_BASE_MODULE70@ATL@@QAE@XZ 1000ae28 f i atls:atlbase.obj
 0001:00009e4b       ??1CAtlBaseModule@ATL@@QAE@XZ 1000ae4b f   atls:atlbase.obj
 0001:00009e61       ?RemoveAll@?$CSimpleArray@PAUHINSTANCE__@@V?$CSimpleArrayEqualHelper@PAUHINSTANCE__@@@ATL@@@ATL@@QAEXXZ 1000ae61 f i atls:atlbase.obj
 0001:00009e7e       ??3@YAXPAX@Z               1000ae7e f   MSVCRT:delete_scalar.obj
 0001:00009e83       @__security_check_cookie@4 1000ae83 f   MSVCRT:_secchk_.obj
 0001:00009f54       ??$__crt_fast_encode_pointer@P6GHPAU_RTL_CONDITION_VARIABLE@@PAU_RTL_CRITICAL_SECTION@@K@Z@@YAP6GHPAU_RTL_CONDITION_VARIABLE@@PAU_RTL_CRITICAL_SECTION@@K@ZQ6GH01K@Z@Z 1000af54 f i MSVCRT:thread_safe_statics.obj
 0001:00009f54       ??$__crt_fast_encode_pointer@P6GXPAU_RTL_CONDITION_VARIABLE@@@Z@@YAP6GXPAU_RTL_CONDITION_VARIABLE@@@ZQ6GX0@Z@Z 1000af54 f i MSVCRT:thread_safe_statics.obj
 0001:00009f8d       ??2@YAPAXI@Z               1000af8d f   MSVCRT:new_scalar.obj
 0001:0000a004       ___scrt_acquire_startup_lock 1000b004 f   MSVCRT:utility.obj
 0001:0000a039       ___scrt_dllmain_after_initialize_c 1000b039 f   MSVCRT:utility.obj
 0001:0000a064       ___scrt_dllmain_before_initialize_c 1000b064 f   MSVCRT:utility.obj
 0001:0000a072       ___scrt_dllmain_crt_thread_attach 1000b072 f   MSVCRT:utility.obj
 0001:0000a091       ___scrt_dllmain_crt_thread_detach 1000b091 f   MSVCRT:utility.obj
 0001:0000a09e       ___scrt_dllmain_exception_filter 1000b09e f   MSVCRT:utility.obj
 0001:0000a0d1       ___scrt_dllmain_uninitialize_c 1000b0d1 f   MSVCRT:utility.obj
 0001:0000a0f4       ___scrt_dllmain_uninitialize_critical 1000b0f4 f   MSVCRT:utility.obj
 0001:0000a101       ___scrt_initialize_crt     1000b101 f   MSVCRT:utility.obj
 0001:0000a13a       ___scrt_initialize_onexit_tables 1000b13a f   MSVCRT:utility.obj
 0001:0000a1d1       ___scrt_is_nonwritable_in_current_image 1000b1d1 f   MSVCRT:utility.obj
 0001:0000a25b       ___scrt_release_startup_lock 1000b25b f   MSVCRT:utility.obj
 0001:0000a278       ___scrt_uninitialize_crt   1000b278 f   MSVCRT:utility.obj
 0001:0000a2a0       __onexit                   1000b2a0 f   MSVCRT:utility.obj
 0001:0000a2db       _atexit                    1000b2db f   MSVCRT:utility.obj
 0001:0000a2f0       ??3@YAXPAXI@Z              1000b2f0 f   MSVCRT:delete_scalar_size.obj
 0001:0000a2fe       ??_Etype_info@@UAEPAXI@Z   1000b2fe f i MSVCRT:std_type_info_static.obj
 0001:0000a2fe       ??_Gtype_info@@UAEPAXI@Z   1000b2fe f i MSVCRT:std_type_info_static.obj
 0001:0000a629       __DllMainCRTStartup@12     1000b629 f   MSVCRT:dll_dllmain.obj
 0001:0000a64c       ___raise_securityfailure   1000b64c f   MSVCRT:gs_report.obj
 0001:0000a674       ___report_gsfailure        1000b674 f   MSVCRT:gs_report.obj
 0001:0000a76f       ___scrt_fastfail           1000b76f f   MSVCRT:utility_desktop.obj
 0001:0000a88a       @_guard_check_icall@4      1000b88a f i MSVCRT:checkcfg.obj
 0001:0000a890       ??0bad_alloc@std@@QAE@ABV01@@Z 1000b890 f i MSVCRT:throw_bad_alloc.obj
 0001:0000a8ab       ??0bad_alloc@std@@QAE@XZ   1000b8ab f i MSVCRT:throw_bad_alloc.obj
 0001:0000a8c3       ??0bad_array_new_length@std@@QAE@ABV01@@Z 1000b8c3 f i MSVCRT:throw_bad_alloc.obj
 0001:0000a8de       ??0bad_array_new_length@std@@QAE@XZ 1000b8de f i MSVCRT:throw_bad_alloc.obj
 0001:0000a8f6       ??1bad_array_new_length@std@@UAE@XZ 1000b8f6 f i MSVCRT:throw_bad_alloc.obj
 0001:0000a8f6       ??1bad_alloc@std@@UAE@XZ   1000b8f6 f i MSVCRT:throw_bad_alloc.obj
 0001:0000a907       ??_Gbad_array_new_length@std@@UAEPAXI@Z 1000b907 f i MSVCRT:throw_bad_alloc.obj
 0001:0000a907       ??_Ebad_array_new_length@std@@UAEPAXI@Z 1000b907 f i MSVCRT:throw_bad_alloc.obj
 0001:0000a907       ??_Ebad_alloc@std@@UAEPAXI@Z 1000b907 f i MSVCRT:throw_bad_alloc.obj
 0001:0000a907       ??_Gbad_alloc@std@@UAEPAXI@Z 1000b907 f i MSVCRT:throw_bad_alloc.obj
 0001:0000a934       ?__scrt_throw_std_bad_alloc@@YAXXZ 1000b934 f   MSVCRT:throw_bad_alloc.obj
 0001:0000a951       ?__scrt_throw_std_bad_array_new_length@@YAXXZ 1000b951 f   MSVCRT:throw_bad_alloc.obj
 0001:0000a96e       ___isa_available_init      1000b96e f   MSVCRT:_cpu_disp_.obj
 0001:0000ab08       __get_startup_argv_mode    1000bb08 f   MSVCRT:argv_mode.obj
 0001:0000ab0c       ___scrt_is_ucrt_dll_in_use 1000bb0c f   MSVCRT:ucrt_detection.obj
 0001:0000ab20       __SEH_prolog4              1000bb20 f   MSVCRT:_sehprolg4_.obj
 0001:0000ab66       __SEH_epilog4              1000bb66 f   MSVCRT:_sehprolg4_.obj
 0001:0000ab7b       __except_handler4          1000bb7b f   MSVCRT:_chandler4gs_.obj
 0001:0000ab9e       ___security_init_cookie    1000bb9e f   MSVCRT:gs_support.obj
 0001:0000ac3a       ?__scrt_initialize_type_info@@YAXXZ 1000bc3a f   MSVCRT:tncleanup.obj
 0001:0000ac46       ?__scrt_uninitialize_type_info@@YAXXZ 1000bc46 f   MSVCRT:tncleanup.obj
 0001:0000ac52       ___local_stdio_printf_options 1000bc52 f i MSVCRT:default_local_stdio_options.obj
 0001:0000ac58       ___local_stdio_scanf_options 1000bc58 f i MSVCRT:default_local_stdio_options.obj
 0001:0000ac5e       ___scrt_initialize_default_local_stdio_options 1000bc5e f   MSVCRT:default_local_stdio_options.obj
 0001:0000ac7b       ___scrt_get_dyn_tls_init_callback 1000bc7b f   MSVCRT:dyn_tls_init.obj
 0001:0000ac81       __RTC_Initialize           1000bc81 f   MSVCRT:_initsect_.obj
 0001:0000acac       __RTC_Terminate            1000bcac f   MSVCRT:_initsect_.obj
 0001:0000acd7       @_guard_check_icall_nop@4  1000bcd7 f i MSVCRT:guard_support.obj
 0001:0000acd8       ___std_exception_destroy   1000bcd8 f   vcruntime:VCRUNTIME140.dll
 0001:0000acde       __purecall                 1000bcde f   vcruntime:VCRUNTIME140.dll
 0001:0000ace4       _memset                    1000bce4 f   vcruntime:VCRUNTIME140.dll
 0001:0000acea       ___vcrt_InitializeCriticalSectionEx 1000bcea f   vcruntime:VCRUNTIME140.dll
 0001:0000acf0       __CxxThrowException@8      1000bcf0 f   vcruntime:VCRUNTIME140.dll
 0001:0000acf6       __except_handler4_common   1000bcf6 f   vcruntime:VCRUNTIME140.dll
 0001:0000acfc       ___std_type_info_destroy_list 1000bcfc f   vcruntime:VCRUNTIME140.dll
 0001:0000ad02       _free                      1000bd02 f   ucrt:api-ms-win-crt-heap-l1-1-0.dll
 0001:0000ad08       _malloc                    1000bd08 f   ucrt:api-ms-win-crt-heap-l1-1-0.dll
 0001:0000ad0e       __callnewh                 1000bd0e f   ucrt:api-ms-win-crt-heap-l1-1-0.dll
 0001:0000ad14       __seh_filter_dll           1000bd14 f   ucrt:api-ms-win-crt-runtime-l1-1-0.dll
 0001:0000ad1a       __configure_narrow_argv    1000bd1a f   ucrt:api-ms-win-crt-runtime-l1-1-0.dll
 0001:0000ad20       __initialize_narrow_environment 1000bd20 f   ucrt:api-ms-win-crt-runtime-l1-1-0.dll
 0001:0000ad26       __initialize_onexit_table  1000bd26 f   ucrt:api-ms-win-crt-runtime-l1-1-0.dll
 0001:0000ad2c       __register_onexit_function 1000bd2c f   ucrt:api-ms-win-crt-runtime-l1-1-0.dll
 0001:0000ad32       __execute_onexit_table     1000bd32 f   ucrt:api-ms-win-crt-runtime-l1-1-0.dll
 0001:0000ad38       __crt_atexit               1000bd38 f   ucrt:api-ms-win-crt-runtime-l1-1-0.dll
 0001:0000ad3e       __cexit                    1000bd3e f   ucrt:api-ms-win-crt-runtime-l1-1-0.dll
 0001:0000ad44       __initterm                 1000bd44 f   ucrt:api-ms-win-crt-runtime-l1-1-0.dll
 0001:0000ad4a       __initterm_e               1000bd4a f   ucrt:api-ms-win-crt-runtime-l1-1-0.dll
 0001:0000ad50       _IsProcessorFeaturePresent@4 1000bd50 f   kernel32:KERNEL32.dll
 0001:0000ad56       ___vcrt_uninitialize       1000bd56 f   MSVCRT:ucrt_stubs.obj
 0001:0000ad56       ___acrt_initialize         1000bd56 f   MSVCRT:ucrt_stubs.obj
 0001:0000ad56       ___scrt_stub_for_acrt_thread_detach 1000bd56 f   MSVCRT:ucrt_stubs.obj
 0001:0000ad56       ___acrt_uninitialize       1000bd56 f   MSVCRT:ucrt_stubs.obj
 0001:0000ad56       ___vcrt_thread_attach      1000bd56 f   MSVCRT:ucrt_stubs.obj
 0001:0000ad56       ___vcrt_initialize         1000bd56 f   MSVCRT:ucrt_stubs.obj
 0001:0000ad56       ___acrt_uninitialize_critical 1000bd56 f   MSVCRT:ucrt_stubs.obj
 0001:0000ad56       ___scrt_stub_for_acrt_initialize 1000bd56 f   MSVCRT:ucrt_stubs.obj
 0001:0000ad56       ___scrt_stub_for_acrt_thread_attach 1000bd56 f   MSVCRT:ucrt_stubs.obj
 0001:0000ad56       ___acrt_thread_detach      1000bd56 f   MSVCRT:ucrt_stubs.obj
 0001:0000ad56       ___acrt_thread_attach      1000bd56 f   MSVCRT:ucrt_stubs.obj
 0001:0000ad56       ___scrt_stub_for_acrt_uninitialize 1000bd56 f   MSVCRT:ucrt_stubs.obj
 0001:0000ad56       ___vcrt_thread_detach      1000bd56 f   MSVCRT:ucrt_stubs.obj
 0001:0000ad56       ___scrt_stub_for_acrt_uninitialize_critical 1000bd56 f   MSVCRT:ucrt_stubs.obj
 0001:0000ad56       ___vcrt_uninitialize_critical 1000bd56 f   MSVCRT:ucrt_stubs.obj
 0001:0000ad59       ___scrt_stub_for_is_c_termination_complete 1000bd59 f   MSVCRT:ucrt_stubs.obj
 0001:0000ad59       __is_c_termination_complete 1000bd59 f   MSVCRT:ucrt_stubs.obj
 0001:0000ad60       __alloca_probe             1000bd60 f   MSVCRT:chkstk.obj
 0001:0000ad60       __chkstk                   1000bd60 f   MSVCRT:chkstk.obj
 0001:0000ad8e       ___CxxFrameHandler3        1000bd8e f   vcruntime:VCRUNTIME140.dll
 0001:0000ad94       _memcmp                    1000bd94 f   vcruntime:VCRUNTIME140.dll
 0001:0000ad9a       _memcpy                    1000bd9a f   vcruntime:VCRUNTIME140.dll
 0002:00000000       __imp__GetCurrentThreadId@0 1000d000     kernel32:KERNEL32.dll
 0002:00000004       __imp__OutputDebugStringW@4 1000d004     kernel32:KERNEL32.dll
 0002:00000008       __imp__CloseHandle@4       1000d008     kernel32:KERNEL32.dll
 0002:0000000c       __imp__InitializeSListHead@4 1000d00c     kernel32:KERNEL32.dll
 0002:00000010       __imp__GetSystemTimeAsFileTime@4 1000d010     kernel32:KERNEL32.dll
 0002:00000014       __imp__InitializeCriticalSection@4 1000d014     kernel32:KERNEL32.dll
 0002:00000018       __imp__InitializeCriticalSectionEx@12 1000d018     kernel32:KERNEL32.dll
 0002:0000001c       __imp__WaitForSingleObject@8 1000d01c     kernel32:KERNEL32.dll
 0002:00000020       __imp__Sleep@4             1000d020     kernel32:KERNEL32.dll
 0002:00000024       __imp__GetLastError@0      1000d024     kernel32:KERNEL32.dll
 0002:00000028       __imp__CreateThread@24     1000d028     kernel32:KERNEL32.dll
 0002:0000002c       __imp__DeleteCriticalSection@4 1000d02c     kernel32:KERNEL32.dll
 0002:00000030       __imp__EnterCriticalSection@4 1000d030     kernel32:KERNEL32.dll
 0002:00000034       __imp__LeaveCriticalSection@4 1000d034     kernel32:KERNEL32.dll
 0002:00000038       __imp__CreateEventW@16     1000d038     kernel32:KERNEL32.dll
 0002:0000003c       __imp__GetModuleHandleW@4  1000d03c     kernel32:KERNEL32.dll
 0002:00000040       __imp__GetProcAddress@8    1000d040     kernel32:KERNEL32.dll
 0002:00000044       __imp__UnhandledExceptionFilter@4 1000d044     kernel32:KERNEL32.dll
 0002:00000048       __imp__IsDebuggerPresent@0 1000d048     kernel32:KERNEL32.dll
 0002:0000004c       __imp__SetUnhandledExceptionFilter@4 1000d04c     kernel32:KERNEL32.dll
 0002:00000050       __imp__GetCurrentProcess@0 1000d050     kernel32:KERNEL32.dll
 0002:00000054       __imp__TerminateProcess@8  1000d054     kernel32:KERNEL32.dll
 0002:00000058       __imp__IsProcessorFeaturePresent@4 1000d058     kernel32:KERNEL32.dll
 0002:0000005c       __imp__QueryPerformanceCounter@4 1000d05c     kernel32:KERNEL32.dll
 0002:00000060       __imp__GetCurrentProcessId@0 1000d060     kernel32:KERNEL32.dll
 0002:00000064       \177KERNEL32_NULL_THUNK_DATA 1000d064     kernel32:KERNEL32.dll
 0002:00000068       __imp_?_Xbad_alloc@std@@YAXXZ 1000d068     msvcprt:MSVCP140.dll
 0002:0000006c       __imp_?_Xout_of_range@std@@YAXPBD@Z 1000d06c     msvcprt:MSVCP140.dll
 0002:00000070       __imp_?_Xlength_error@std@@YAXPBD@Z 1000d070     msvcprt:MSVCP140.dll
 0002:00000074       \177MSVCP140_NULL_THUNK_DATA 1000d074     msvcprt:MSVCP140.dll
 0002:00000078       __imp_?ReleaseLock@@YGXPAU_RTL_CRITICAL_SECTION@@@Z 1000d078     Utilities:Utilities.dll
 0002:0000007c       __imp_?AcquireLock@@YGXPAU_RTL_CRITICAL_SECTION@@@Z 1000d07c     Utilities:Utilities.dll
 0002:00000080       \177Utilities_NULL_THUNK_DATA 1000d080     Utilities:Utilities.dll
 0002:00000084       __imp__memmove             1000d084     vcruntime:VCRUNTIME140.dll
 0002:00000088       __imp____std_exception_destroy 1000d088     vcruntime:VCRUNTIME140.dll
 0002:0000008c       __imp____std_exception_copy 1000d08c     vcruntime:VCRUNTIME140.dll
 0002:00000090       __imp___except_handler4_common 1000d090     vcruntime:VCRUNTIME140.dll
 0002:00000094       __imp___CxxThrowException@8 1000d094     vcruntime:VCRUNTIME140.dll
 0002:00000098       __imp___purecall           1000d098     vcruntime:VCRUNTIME140.dll
 0002:0000009c       __imp__memset              1000d09c     vcruntime:VCRUNTIME140.dll
 0002:000000a0       __imp____std_type_info_destroy_list 1000d0a0     vcruntime:VCRUNTIME140.dll
 0002:000000a4       __imp____CxxFrameHandler3  1000d0a4     vcruntime:VCRUNTIME140.dll
 0002:000000a8       __imp__memcmp              1000d0a8     vcruntime:VCRUNTIME140.dll
 0002:000000ac       __imp____vcrt_InitializeCriticalSectionEx 1000d0ac     vcruntime:VCRUNTIME140.dll
 0002:000000b0       __imp__memcpy              1000d0b0     vcruntime:VCRUNTIME140.dll
 0002:000000b4       \177VCRUNTIME140_NULL_THUNK_DATA 1000d0b4     vcruntime:VCRUNTIME140.dll
 0002:000000b8       __imp__malloc              1000d0b8     ucrt:api-ms-win-crt-heap-l1-1-0.dll
 0002:000000bc       __imp___callnewh           1000d0bc     ucrt:api-ms-win-crt-heap-l1-1-0.dll
 0002:000000c0       __imp__free                1000d0c0     ucrt:api-ms-win-crt-heap-l1-1-0.dll
 0002:000000c4       \177api-ms-win-crt-heap-l1-1-0_NULL_THUNK_DATA 1000d0c4     ucrt:api-ms-win-crt-heap-l1-1-0.dll
 0002:000000c8       __imp___cexit              1000d0c8     ucrt:api-ms-win-crt-runtime-l1-1-0.dll
 0002:000000cc       __imp___crt_atexit         1000d0cc     ucrt:api-ms-win-crt-runtime-l1-1-0.dll
 0002:000000d0       __imp___execute_onexit_table 1000d0d0     ucrt:api-ms-win-crt-runtime-l1-1-0.dll
 0002:000000d4       __imp___errno              1000d0d4     ucrt:api-ms-win-crt-runtime-l1-1-0.dll
 0002:000000d8       __imp___initialize_onexit_table 1000d0d8     ucrt:api-ms-win-crt-runtime-l1-1-0.dll
 0002:000000dc       __imp___initialize_narrow_environment 1000d0dc     ucrt:api-ms-win-crt-runtime-l1-1-0.dll
 0002:000000e0       __imp___configure_narrow_argv 1000d0e0     ucrt:api-ms-win-crt-runtime-l1-1-0.dll
 0002:000000e4       __imp___seh_filter_dll     1000d0e4     ucrt:api-ms-win-crt-runtime-l1-1-0.dll
 0002:000000e8       __imp___initterm_e         1000d0e8     ucrt:api-ms-win-crt-runtime-l1-1-0.dll
 0002:000000ec       __imp___invalid_parameter_noinfo_noreturn 1000d0ec     ucrt:api-ms-win-crt-runtime-l1-1-0.dll
 0002:000000f0       __imp___register_onexit_function 1000d0f0     ucrt:api-ms-win-crt-runtime-l1-1-0.dll
 0002:000000f4       __imp___initterm           1000d0f4     ucrt:api-ms-win-crt-runtime-l1-1-0.dll
 0002:000000f8       \177api-ms-win-crt-runtime-l1-1-0_NULL_THUNK_DATA 1000d0f8     ucrt:api-ms-win-crt-runtime-l1-1-0.dll
 0002:000000fc       __imp___time64             1000d0fc     ucrt:api-ms-win-crt-time-l1-1-0.dll
 0002:00000100       \177api-ms-win-crt-time-l1-1-0_NULL_THUNK_DATA 1000d100     ucrt:api-ms-win-crt-time-l1-1-0.dll
 0002:00000104       __imp_?ReleaseServerSocket@@YGXPAVSocket@@@Z 1000d104     Socketold:socketold.dll
 0002:00000108       __imp_?CreateServerSocket@@YGPAVSocket@@XZ 1000d108     Socketold:socketold.dll
 0002:0000010c       __imp_?CreateClientSocket@@YGPAVSocket@@XZ 1000d10c     Socketold:socketold.dll
 0002:00000110       __imp_?ReleaseClientSocket@@YGXPAVSocket@@@Z 1000d110     Socketold:socketold.dll
 0002:00000114       \177socketold_NULL_THUNK_DATA 1000d114     Socketold:socketold.dll
 0002:00000118       ___guard_check_icall_fptr  1000d118     MSVCRT:guard_support.obj
 0002:0000011c       ___xc_a                    1000d11c     MSVCRT:initializers.obj
 0002:00000124       ___xc_z                    1000d124     MSVCRT:initializers.obj
 0002:00000128       ___xi_a                    1000d128     MSVCRT:initializers.obj
 0002:00000130       ___xi_z                    1000d130     MSVCRT:initializers.obj
 0002:00000134       ___xl_a                    1000d134     MSVCRT:tlssup.obj
 0002:00000138       ___xl_z                    1000d138     MSVCRT:tlssup.obj
 0002:0000013c       ___xp_a                    1000d13c     MSVCRT:initializers.obj
 0002:00000140       ___xp_z                    1000d140     MSVCRT:initializers.obj
 0002:00000144       ___xt_a                    1000d144     MSVCRT:initializers.obj
 0002:00000148       ___xt_z                    1000d148     MSVCRT:initializers.obj
 0002:00000150       _GUID_ATLVer110            1000d150     atls:atlbase.obj
 0002:00000160       ??_C@_1IC@ONKHOIDK@?$AAE?$AAR?$AAR?$AAO?$AAR?$AA?5?$AA?3?$AA?5?$AAU?$AAn?$AAa?$AAb?$AAl?$AAe?$AA?5?$AAt?$AAo?$AA?5?$AAi?$AAn?$AAi?$AAt?$AAi?$AAa?$AAl?$AAi?$AAz?$AAe?$AA?5?$AAc?$AAr?$AAi@ 1000d160     atls:atlbase.obj
 0002:000001e4       ??_C@_1BK@MGMFAEKH@?$AAk?$AAe?$AAr?$AAn?$AAe?$AAl?$AA3?$AA2?$AA?4?$AAd?$AAl?$AAl?$AA?$AA@ 1000d1e4     MSVCRT:thread_safe_statics.obj
 0002:00000200       ??_C@_0BM@HLJJNPAH@InitializeConditionVariable?$AA@ 1000d200     MSVCRT:thread_safe_statics.obj
 0002:0000021c       ??_C@_0BJ@JEBJOJFJ@SleepConditionVariableCS?$AA@ 1000d21c     MSVCRT:thread_safe_statics.obj
 0002:00000238       ??_C@_0BJ@PGPPEPCC@WakeAllConditionVariable?$AA@ 1000d238     MSVCRT:thread_safe_statics.obj
 0002:00000258       ??_7type_info@@6B@         1000d258     MSVCRT:std_type_info_static.obj
 0002:0000025c       __pRawDllMain              1000d25c     MSVCRT:dll_dllmain.obj
 0002:0000025c       __pDefaultRawDllMain       1000d25c     MSVCRT:dll_dllmain.obj
 0002:0000026c       ??_7exception@std@@6B@     1000d26c     MSVCRT:throw_bad_alloc.obj
 0002:00000278       ??_7bad_alloc@std@@6B@     1000d278     MSVCRT:throw_bad_alloc.obj
 0002:00000280       ??_C@_0P@GHFPNOJB@bad?5allocation?$AA@ 1000d280     MSVCRT:throw_bad_alloc.obj
 0002:00000294       ??_7bad_array_new_length@std@@6B@ 1000d294     MSVCRT:throw_bad_alloc.obj
 0002:0000029c       ??_C@_0BF@KINCDENJ@bad?5array?5new?5length?$AA@ 1000d29c     MSVCRT:throw_bad_alloc.obj
 0002:000002b4       ??_C@_0BC@EOODALEL@Unknown?5exception?$AA@ 1000d2b4     ClientProtocolImpl.obj
 0002:00000af0       ??_C@_0BA@JFNIOLAK@string?5too?5long?$AA@ 1000daf0     ClientProtocolImpl.obj
 0002:00000b00       ??_C@_0BI@CFPLBAOH@invalid?5string?5position?$AA@ 1000db00     ClientProtocolImpl.obj
 0002:00000b1c       ??_7ClientProtocol@@6BISocketEvents@@@ 1000db1c     ClientProtocolImpl.obj
 0002:00000b2c       ??_7ClientProtocol@@6BIClientProtocol@@@ 1000db2c     ClientProtocolImpl.obj
 0002:00000b58       ??_7ISocketEvents@@6B@     1000db58     ClientProtocolImpl.obj
 0002:00000b68       ??_7IClientProtocol@@6B@   1000db68     ClientProtocolImpl.obj
 0002:00000b90       ??_C@_0BB@MOGOBHAF@list?$DMT?$DO?5too?5long?$AA@ 1000db90     ClientSession.obj
 0002:00000ba4       ??_C@_0BE@JONHPENG@map?1set?$DMT?$DO?5too?5long?$AA@ 1000dba4     ClientSession.obj
 0002:00000bbc       ??_7ClientSession@@6B@     1000dbbc     ClientSession.obj
 0002:00000bfc       ??_7IClientSession@@6B@    1000dbfc     ClientSession.obj
 0002:00000c3c       ??_7IClientSessionMgr@@6B@ 1000dc3c     ClientSession.obj
 0002:00000c6c       ??_7ClientSessionMgr@@6B@  1000dc6c     ClientSession.obj
 0002:00000c98       ?npos@?$basic_string@DU?$char_traits@D@std@@V?$allocator@D@2@@std@@2IB 1000dc98     ClientSession.obj
 0002:00000ca0       ??_7ServerProtocol@@6BISocketEvents@@@ 1000dca0     ServerProtocolImpl.obj
 0002:00000cb0       ??_7ServerProtocol@@6BIServerProtocol@@@ 1000dcb0     ServerProtocolImpl.obj
 0002:00000cd4       ??_7IServerProtocol@@6B@   1000dcd4     ServerProtocolImpl.obj
 0002:00000d70       __load_config_used         1000dd70     MSVCRT:loadcfg.obj
 0002:00000dcc       __tls_used                 1000ddcc     MSVCRT:tlssup.obj
 0002:00000de4       ??_R4type_info@@6B@        1000dde4     MSVCRT:std_type_info_static.obj
 0002:00000df8       ??_R3type_info@@8          1000ddf8     MSVCRT:std_type_info_static.obj
 0002:00000e08       ??_R2type_info@@8          1000de08     MSVCRT:std_type_info_static.obj
 0002:00000e10       ??_R1A@?0A@EA@type_info@@8 1000de10     MSVCRT:std_type_info_static.obj
 0002:00000e2c       ??_R4bad_alloc@std@@6B@    1000de2c     MSVCRT:throw_bad_alloc.obj
 0002:00000e40       ??_R3bad_alloc@std@@8      1000de40     MSVCRT:throw_bad_alloc.obj
 0002:00000e50       ??_R2bad_alloc@std@@8      1000de50     MSVCRT:throw_bad_alloc.obj
 0002:00000e5c       ??_R1A@?0A@EA@bad_alloc@std@@8 1000de5c     MSVCRT:throw_bad_alloc.obj
 0002:00000e78       ??_R4bad_array_new_length@std@@6B@ 1000de78     MSVCRT:throw_bad_alloc.obj
 0002:00000e8c       ??_R3bad_array_new_length@std@@8 1000de8c     MSVCRT:throw_bad_alloc.obj
 0002:00000e9c       ??_R2bad_array_new_length@std@@8 1000de9c     MSVCRT:throw_bad_alloc.obj
 0002:00000eac       ??_R1A@?0A@EA@bad_array_new_length@std@@8 1000deac     MSVCRT:throw_bad_alloc.obj
 0002:00000ec8       ??_R4exception@std@@6B@    1000dec8     ClientProtocolImpl.obj
 0002:00000edc       ??_R3IClientProtocol@@8    1000dedc     ClientProtocolImpl.obj
 0002:00000eec       ??_R1A@?0A@EA@exception@std@@8 1000deec     ClientProtocolImpl.obj
 0002:00000f08       ??_R1A@?0A@EA@IClientProtocol@@8 1000df08     ClientProtocolImpl.obj
 0002:00000f24       ??_R4IClientProtocol@@6B@  1000df24     ClientProtocolImpl.obj
 0002:00000f38       ??_R2exception@std@@8      1000df38     ClientProtocolImpl.obj
 0002:00000f40       ??_R3ISocketEvents@@8      1000df40     ClientProtocolImpl.obj
 0002:00000f50       ??_R4ClientProtocol@@6BISocketEvents@@@ 1000df50     ClientProtocolImpl.obj
 0002:00000f64       ??_R4ClientProtocol@@6BIClientProtocol@@@ 1000df64     ClientProtocolImpl.obj
 0002:00000f78       ??_R2ISocketEvents@@8      1000df78     ClientProtocolImpl.obj
 0002:00000f80       ??_R2ClientProtocol@@8     1000df80     ClientProtocolImpl.obj
 0002:00000f90       ??_R2IClientProtocol@@8    1000df90     ClientProtocolImpl.obj
 0002:00000f98       ??_R4ISocketEvents@@6B@    1000df98     ClientProtocolImpl.obj
 0002:00000fac       ??_R3exception@std@@8      1000dfac     ClientProtocolImpl.obj
 0002:00000fbc       ??_R3ClientProtocol@@8     1000dfbc     ClientProtocolImpl.obj
 0002:00000fcc       ??_R13?0A@EN@ISocketEvents@@8 1000dfcc     ClientProtocolImpl.obj
 0002:00000fe8       ??_R1A@?0A@EA@ISocketEvents@@8 1000dfe8     ClientProtocolImpl.obj
 0002:00001004       ??_R1A@?0A@EA@ClientProtocol@@8 1000e004     ClientProtocolImpl.obj
 0002:00001020       ??_R3ClientSessionMgr@@8   1000e020     ClientSession.obj
 0002:00001030       ??_R1A@?0A@EA@ClientSessionMgr@@8 1000e030     ClientSession.obj
 0002:0000104c       ??_R4IClientSessionMgr@@6B@ 1000e04c     ClientSession.obj
 0002:00001060       ??_R2ClientSessionMgr@@8   1000e060     ClientSession.obj
 0002:0000106c       ??_R2IClientSessionMgr@@8  1000e06c     ClientSession.obj
 0002:00001074       ??_R4ClientSessionMgr@@6B@ 1000e074     ClientSession.obj
 0002:00001088       ??_R1A@?0A@EA@IClientSessionMgr@@8 1000e088     ClientSession.obj
 0002:000010a4       ??_R1A@?0A@EA@IClientSession@@8 1000e0a4     ClientSession.obj
 0002:000010c0       ??_R2IClientSession@@8     1000e0c0     ClientSession.obj
 0002:000010c8       ??_R3IClientSessionMgr@@8  1000e0c8     ClientSession.obj
 0002:000010d8       ??_R2ClientSession@@8      1000e0d8     ClientSession.obj
 0002:000010e4       ??_R3IClientSession@@8     1000e0e4     ClientSession.obj
 0002:000010f4       ??_R1A@?0A@EA@ClientSession@@8 1000e0f4     ClientSession.obj
 0002:00001110       ??_R3ClientSession@@8      1000e110     ClientSession.obj
 0002:00001120       ??_R4ClientSession@@6B@    1000e120     ClientSession.obj
 0002:00001134       ??_R4IClientSession@@6B@   1000e134     ClientSession.obj
 0002:00001148       ??_R4IServerProtocol@@6B@  1000e148     ServerProtocolImpl.obj
 0002:0000115c       ??_R13?0A@EA@ISocketEvents@@8 1000e15c     ServerProtocolImpl.obj
 0002:00001178       ??_R1A@?0A@EA@IServerProtocol@@8 1000e178     ServerProtocolImpl.obj
 0002:00001194       ??_R3IServerProtocol@@8    1000e194     ServerProtocolImpl.obj
 0002:000011a4       ??_R2ServerProtocol@@8     1000e1a4     ServerProtocolImpl.obj
 0002:000011b4       ??_R4ServerProtocol@@6BIServerProtocol@@@ 1000e1b4     ServerProtocolImpl.obj
 0002:000011c8       ??_R3ServerProtocol@@8     1000e1c8     ServerProtocolImpl.obj
 0002:000011d8       ??_R2IServerProtocol@@8    1000e1d8     ServerProtocolImpl.obj
 0002:000011e0       ??_R1A@?0A@EA@ServerProtocol@@8 1000e1e0     ServerProtocolImpl.obj
 0002:000011fc       ??_R4ServerProtocol@@6BISocketEvents@@@ 1000e1fc     ServerProtocolImpl.obj
 0002:00001210       ___safe_se_handler_table   1000e210     <linker-defined>
 0002:00001634       ___rtc_iaa                 1000e634     MSVCRT:_initsect_.obj
 0002:00001638       ___rtc_izz                 1000e638     MSVCRT:_initsect_.obj
 0002:0000163c       ___rtc_taa                 1000e63c     MSVCRT:_initsect_.obj
 0002:00001640       ___rtc_tzz                 1000e640     MSVCRT:_initsect_.obj
 0002:00001f34       __TI2?AVbad_alloc@std@@    1000ef34     MSVCRT:throw_bad_alloc.obj
 0002:00001f44       __CTA2?AVbad_alloc@std@@   1000ef44     MSVCRT:throw_bad_alloc.obj
 0002:00001f50       __CT??_R0?AVbad_alloc@std@@@8??0bad_alloc@std@@QAE@ABV01@@Z12 1000ef50     MSVCRT:throw_bad_alloc.obj
 0002:00001f6c       __TI3?AVbad_array_new_length@std@@ 1000ef6c     MSVCRT:throw_bad_alloc.obj
 0002:00001f7c       __CTA3?AVbad_array_new_length@std@@ 1000ef7c     MSVCRT:throw_bad_alloc.obj
 0002:00001f8c       __CT??_R0?AVbad_array_new_length@std@@@8??0bad_array_new_length@std@@QAE@ABV01@@Z12 1000ef8c     MSVCRT:throw_bad_alloc.obj
 0002:00001fa8       __TI1?AVexception@std@@    1000efa8     ClientProtocolImpl.obj
 0002:00001fb8       __CTA1?AVexception@std@@   1000efb8     ClientProtocolImpl.obj
 0002:00001fc0       __CT??_R0?AVexception@std@@@8??0exception@std@@QAE@ABV01@@Z12 1000efc0     ClientProtocolImpl.obj
 0002:00002108       __IMPORT_DESCRIPTOR_socketold 1000f108     Socketold:socketold.dll
 0002:0000211c       __IMPORT_DESCRIPTOR_Utilities 1000f11c     Utilities:Utilities.dll
 0002:00002130       __IMPORT_DESCRIPTOR_KERNEL32 1000f130     kernel32:KERNEL32.dll
 0002:00002144       __IMPORT_DESCRIPTOR_MSVCP140 1000f144     msvcprt:MSVCP140.dll
 0002:00002158       __IMPORT_DESCRIPTOR_VCRUNTIME140 1000f158     vcruntime:VCRUNTIME140.dll
 0002:0000216c       __IMPORT_DESCRIPTOR_api-ms-win-crt-runtime-l1-1-0 1000f16c     ucrt:api-ms-win-crt-runtime-l1-1-0.dll
 0002:00002180       __IMPORT_DESCRIPTOR_api-ms-win-crt-time-l1-1-0 1000f180     ucrt:api-ms-win-crt-time-l1-1-0.dll
 0002:00002194       __IMPORT_DESCRIPTOR_api-ms-win-crt-heap-l1-1-0 1000f194     ucrt:api-ms-win-crt-heap-l1-1-0.dll
 0002:000021a8       __NULL_IMPORT_DESCRIPTOR   1000f1a8     Socketold:socketold.dll
 0003:00000000       __Init_global_epoch        10010000     MSVCRT:thread_safe_statics.obj
 0003:00000004       ___scrt_native_dllmain_reason 10010004     MSVCRT:utility.obj
 0003:00000008       ___security_cookie_complement 10010008     MSVCRT:gs_cookie.obj
 0003:0000000c       ___security_cookie         1001000c     MSVCRT:gs_cookie.obj
 0003:00000010       ___isa_enabled             10010010     MSVCRT:_cpu_disp_.obj
 0003:00000020       ___scrt_ucrt_dll_is_in_use 10010020     MSVCRT:ucrt_stubs.obj
 0003:00000030       __fltused                  10010030     MSVCRT:fltused.obj
 0003:00000034       ??_R0?AVtype_info@@@8      10010034     MSVCRT:std_type_info_static.obj
 0003:0000004c       ??_R0?AVbad_alloc@std@@@8  1001004c     MSVCRT:throw_bad_alloc.obj
 0003:00000068       ??_R0?AVbad_array_new_length@std@@@8 10010068     MSVCRT:throw_bad_alloc.obj
 0003:00000090       ??_R0?AVIClientProtocol@@@8 10010090     ClientProtocolImpl.obj
 0003:000000b0       ??_R0?AVISocketEvents@@@8  100100b0     ClientProtocolImpl.obj
 0003:000000cc       ??_R0?AVClientProtocol@@@8 100100cc     ClientProtocolImpl.obj
 0003:000000ec       ??_R0?AVexception@std@@@8  100100ec     ClientProtocolImpl.obj
 0003:00000108       ??_R0?AVIClientSession@@@8 10010108     ClientSession.obj
 0003:00000128       ??_R0?AVIClientSessionMgr@@@8 10010128     ClientSession.obj
 0003:00000148       ??_R0?AVClientSession@@@8  10010148     ClientSession.obj
 0003:00000164       ??_R0?AVClientSessionMgr@@@8 10010164     ClientSession.obj
 0003:00000184       ??_R0?AVServerProtocol@@@8 10010184     ServerProtocolImpl.obj
 0003:000001a4       ??_R0?AVIServerProtocol@@@8 100101a4     ServerProtocolImpl.obj
 0003:000001c8       ?_AtlBaseModule@ATL@@3VCAtlBaseModule@1@A 100101c8     atls:atlbase.obj
 0003:00000200       ___@@_PchSym_@00@UwwUexgllohUexHoryhUhsrkUzgonuxUhixUzgoUzgohUlyqBiUrDIGUhgwzucOlyq@D30CF1FEFB9F8AE1 10010200     atls:stdafx.obj
 0003:0000022c       ___scrt_current_native_startup_state 1001022c     MSVCRT:utility.obj
 0003:00000230       ___scrt_native_startup_lock 10010230     MSVCRT:utility.obj
 0003:00000574       ___scrt_debugger_hook_flag 10010574     MSVCRT:utility_desktop.obj
 0003:00000578       __tls_index                10010578     MSVCRT:tlssup.obj
 0003:0000057c       ___isa_available           1001057c     MSVCRT:_cpu_disp_.obj
 0003:00000580       ___favor                   10010580     MSVCRT:_cpu_disp_.obj
 0003:00000588       ?__type_info_root_node@@3U__type_info_node@@A 10010588     MSVCRT:tncleanup.obj
 0003:00000590       ?_OptionsStorage@?1??__local_stdio_printf_options@@9@4_KA 10010590     MSVCRT:default_local_stdio_options.obj
 0003:00000598       ?_OptionsStorage@?1??__local_stdio_scanf_options@@9@4_KA 10010598     MSVCRT:default_local_stdio_options.obj
 0003:000005a4       ?m_bInitFailed@CAtlBaseModule@ATL@@2_NA 100105a4     ClientProtocolImpl.obj
 0003:000005a8       ___dyn_tls_init_callback   100105a8     <common>
 0004:00000000       __tls_start                10011000     MSVCRT:tlssup.obj
 0004:00000004       __Init_thread_epoch        10011004     MSVCRT:thread_safe_statics.obj
 0004:00000008       __tls_end                  10011008     MSVCRT:tlssup.obj

 entry point at        0001:0000a629

 Static symbols

 0000:fffeb000       .debug$S                   10000000     kernel32:KERNEL32.dll
 0000:fffeb000       .debug$S                   10000000     ucrt:api-ms-win-crt-heap-l1-1-0.dll
 0000:fffeb000       .debug$S                   10000000     ucrt:api-ms-win-crt-heap-l1-1-0.dll
 0000:fffeb000       .debug$S                   10000000     ucrt:api-ms-win-crt-heap-l1-1-0.dll
 0000:fffeb000       .debug$S                   10000000     ucrt:api-ms-win-crt-heap-l1-1-0.dll
 0000:fffeb000       .debug$S                   10000000     ucrt:api-ms-win-crt-runtime-l1-1-0.dll
 0000:fffeb000       .debug$S                   10000000     ucrt:api-ms-win-crt-runtime-l1-1-0.dll
 0000:fffeb000       .debug$S                   10000000     ucrt:api-ms-win-crt-runtime-l1-1-0.dll
 0000:fffeb000       .debug$S                   10000000     ucrt:api-ms-win-crt-runtime-l1-1-0.dll
 0000:fffeb000       .debug$S                   10000000     ucrt:api-ms-win-crt-runtime-l1-1-0.dll
 0000:fffeb000       .debug$S                   10000000     ucrt:api-ms-win-crt-runtime-l1-1-0.dll
 0000:fffeb000       .debug$S                   10000000     ucrt:api-ms-win-crt-runtime-l1-1-0.dll
 0000:fffeb000       .debug$S                   10000000     ucrt:api-ms-win-crt-runtime-l1-1-0.dll
 0000:fffeb000       .debug$S                   10000000     ucrt:api-ms-win-crt-runtime-l1-1-0.dll
 0000:fffeb000       .debug$S                   10000000     ucrt:api-ms-win-crt-runtime-l1-1-0.dll
 0000:fffeb000       .debug$S                   10000000     ucrt:api-ms-win-crt-runtime-l1-1-0.dll
 0000:fffeb000       .debug$S                   10000000     ucrt:api-ms-win-crt-runtime-l1-1-0.dll
 0000:fffeb000       .debug$S                   10000000     ucrt:api-ms-win-crt-runtime-l1-1-0.dll
 0000:fffeb000       .debug$S                   10000000     ucrt:api-ms-win-crt-runtime-l1-1-0.dll
 0000:fffeb000       .debug$S                   10000000     ucrt:api-ms-win-crt-runtime-l1-1-0.dll
 0000:fffeb000       .debug$S                   10000000     ucrt:api-ms-win-crt-time-l1-1-0.dll
 0000:fffeb000       .debug$S                   10000000     vcruntime:VCRUNTIME140.dll
 0000:fffeb000       .debug$S                   10000000     vcruntime:VCRUNTIME140.dll
 0000:fffeb000       .debug$S                   10000000     vcruntime:VCRUNTIME140.dll
 0000:fffeb000       .debug$S                   10000000     vcruntime:VCRUNTIME140.dll
 0000:fffeb000       .debug$S                   10000000     vcruntime:VCRUNTIME140.dll
 0000:fffeb000       .debug$S                   10000000     vcruntime:VCRUNTIME140.dll
 0000:fffeb000       .debug$S                   10000000     vcruntime:VCRUNTIME140.dll
 0000:fffeb000       .debug$S                   10000000     vcruntime:VCRUNTIME140.dll
 0000:fffeb000       .debug$S                   10000000     vcruntime:VCRUNTIME140.dll
 0000:fffeb000       .debug$S                   10000000     vcruntime:VCRUNTIME140.dll
 0000:fffeb000       .debug$S                   10000000     vcruntime:VCRUNTIME140.dll
 0000:fffeb000       .debug$S                   10000000     vcruntime:VCRUNTIME140.dll
 0000:fffeb000       .debug$S                   10000000     vcruntime:VCRUNTIME140.dll
 0000:fffeb000       .debug$S                   10000000     kernel32:KERNEL32.dll
 0000:fffeb000       .debug$S                   10000000     kernel32:KERNEL32.dll
 0000:fffeb000       .debug$S                   10000000     kernel32:KERNEL32.dll
 0000:fffeb000       .debug$S                   10000000     kernel32:KERNEL32.dll
 0000:fffeb000       .debug$S                   10000000     kernel32:KERNEL32.dll
 0000:fffeb000       .debug$S                   10000000     protocollibold.exp
 0000:fffeb000       .debug$S                   10000000     Socketold:socketold.dll
 0000:fffeb000       .debug$S                   10000000     Socketold:socketold.dll
 0000:fffeb000       .debug$S                   10000000     Socketold:socketold.dll
 0000:fffeb000       .debug$S                   10000000     Socketold:socketold.dll
 0000:fffeb000       .debug$S                   10000000     Utilities:Utilities.dll
 0000:fffeb000       .debug$S                   10000000     Utilities:Utilities.dll
 0000:fffeb000       .debug$S                   10000000     kernel32:KERNEL32.dll
 0000:fffeb000       .debug$S                   10000000     kernel32:KERNEL32.dll
 0000:fffeb000       .debug$S                   10000000     kernel32:KERNEL32.dll
 0000:fffeb000       .debug$S                   10000000     msvcprt:MSVCP140.dll
 0000:fffeb000       .debug$S                   10000000     msvcprt:MSVCP140.dll
 0000:fffeb000       .debug$S                   10000000     msvcprt:MSVCP140.dll
 0002:ffff3000       .idata$6                   10000000     user32:USER32.dll
 0000:fffeb000       .debug$S                   10000000     user32:USER32.dll
 0000:fffeb000       .debug$S                   10000000     kernel32:KERNEL32.dll
 0000:fffeb000       .debug$S                   10000000     kernel32:KERNEL32.dll
 0000:fffeb000       .debug$S                   10000000     kernel32:KERNEL32.dll
 0000:fffeb000       .debug$S                   10000000     kernel32:KERNEL32.dll
 0000:fffeb000       .debug$S                   10000000     kernel32:KERNEL32.dll
 0000:fffeb000       .debug$S                   10000000     kernel32:KERNEL32.dll
 0000:fffeb000       .debug$S                   10000000     kernel32:KERNEL32.dll
 0000:fffeb000       .debug$S                   10000000     kernel32:KERNEL32.dll
 0000:fffeb000       .debug$S                   10000000     kernel32:KERNEL32.dll
 0000:fffeb000       .debug$S                   10000000     kernel32:KERNEL32.dll
 0000:fffeb000       .debug$S                   10000000     kernel32:KERNEL32.dll
 0000:fffeb000       .debug$S                   10000000     kernel32:KERNEL32.dll
 0000:fffeb000       .debug$S                   10000000     kernel32:KERNEL32.dll
 0000:fffeb000       .debug$S                   10000000     kernel32:KERNEL32.dll
 0000:fffeb000       .debug$S                   10000000     kernel32:KERNEL32.dll
 0000:fffeb000       .debug$S                   10000000     kernel32:KERNEL32.dll
 0000:fffeb000       .debug$S                   10000000     kernel32:KERNEL32.dll
 0000:fffeb000       .debug$S                   10000000     kernel32:KERNEL32.dll
 0000:fffeb000       .debug$S                   10000000     kernel32:KERNEL32.dll
 0000:fffeb000       .debug$S                   10000000     kernel32:KERNEL32.dll
 0000:fffeb000       .debug$S                   10000000     kernel32:KERNEL32.dll
 0000:fffeb000       .debug$S                   10000000     kernel32:KERNEL32.dll
 0000:fffeb000       .debug$S                   10000000     kernel32:KERNEL32.dll
 0000:fffeb000       .debug$S                   10000000     kernel32:KERNEL32.dll
 0000:fffeb000       .debug$S                   10000000     kernel32:KERNEL32.dll
 0000:fffeb000       .debug$S                   10000000     kernel32:KERNEL32.dll
 0000:fffeb000       .debug$S                   10000000     kernel32:KERNEL32.dll
 0000:fffeb000       .debug$S                   10000000     kernel32:KERNEL32.dll
 0001:00000000       ??__E_AtlBaseModule@ATL@@YAXXZ 10001000 f   atls:atlbase.obj
 0001:00000520       ?GetMessageObject@@YAPAXI@Z 10001520 f   ClientProtocolImpl.obj
 0001:00000888       $LN57                      10001888     ClientProtocolImpl.obj
 0001:00001d6f       __catch$?_Copy@?$basic_string@DU?$char_traits@D@std@@V?$allocator@D@2@@std@@QAEXII@Z$0 10002d6f f i ClientProtocolImpl.obj
 0001:00001d9d       __catch$?_Copy@?$basic_string@DU?$char_traits@D@std@@V?$allocator@D@2@@std@@QAEXII@Z$1 10002d9d f i ClientProtocolImpl.obj
 0001:00005ecc       __catch$?_Buynode0@?$_List_alloc@U?$_List_base_types@PAVIAccount@@V?$allocator@PAVIAccount@@@std@@@std@@@std@@QAEPAU?$_List_node@PAVIAccount@@PAX@2@PAU32@0@Z$0 10006ecc f i ClientSession.obj
 0001:00005ecc       __catch$?_Buynode0@?$_List_alloc@U?$_List_base_types@IV?$allocator@I@std@@@std@@@std@@QAEPAU?$_List_node@IPAX@2@PAU32@0@Z$0 10006ecc f i ClientSession.obj
 0001:00005ff9       __catch$?_Buyheadnode@?$_Tree_comp_alloc@V?$_Tmap_traits@V?$basic_string@DU?$char_traits@D@std@@V?$allocator@D@2@@std@@V?$list@IV?$allocator@I@std@@@2@U?$less@V?$basic_string@DU?$char_traits@D@std@@V?$allocator@D@2@@std@@@2@V?$allocator@U?$pair@$$CBV?$basic_string@DU?$char_traits@D@std@@V?$allocator@D@2@@std@@V?$list@IV?$allocator@I@std@@@2@@std@@@2@$0A@@std@@@std@@QAEPAU?$_Tree_node@U?$pair@$$CBV?$basic_string@DU?$char_traits@D@std@@V?$allocator@D@2@@std@@V?$list@IV?$allocator@I@std@@@2@@std@@PAX@2@XZ$0 10006ff9 f i ClientSession.obj
 0001:000061d9       __catch$?_Buyheadnode@?$_Tree_comp_alloc@V?$_Tmap_traits@IPAVIClientSession@@U?$less@I@std@@V?$allocator@U?$pair@$$CBIPAVIClientSession@@@std@@@3@$0A@@std@@@std@@QAEPAU?$_Tree_node@U?$pair@$$CBIPAVIClientSession@@@std@@PAX@2@XZ$0 100071d9 f i ClientSession.obj
 0001:000068ac       __catch$??0?$list@IV?$allocator@I@std@@@std@@QAE@ABV01@@Z$0 100078ac f i ClientSession.obj
 0001:00006c63       __catch$??$_Buynode@ABI@?$_List_buy@IV?$allocator@I@std@@@std@@QAEPAU?$_List_node@IPAX@1@PAU21@0ABI@Z$0 10007c63 f i ClientSession.obj
 0001:00006c63       __catch$??$_Buynode@ABQAVIAccount@@@?$_List_buy@PAVIAccount@@V?$allocator@PAVIAccount@@@std@@@std@@QAEPAU?$_List_node@PAVIAccount@@PAX@1@PAU21@0ABQAVIAccount@@@Z$0 10007c63 f i ClientSession.obj
 0001:00006c63       __catch$??$_Buynode@I@?$_List_buy@IV?$allocator@I@std@@@std@@QAEPAU?$_List_node@IPAX@1@PAU21@0$$QAI@Z$0 10007c63 f i ClientSession.obj
 0001:00006ef9       __catch$??$_Buynode@AAU?$pair@IPAVIClientSession@@@std@@@?$_Tree_comp_alloc@V?$_Tmap_traits@IPAVIClientSession@@U?$less@I@std@@V?$allocator@U?$pair@$$CBIPAVIClientSession@@@std@@@3@$0A@@std@@@std@@QAEPAU?$_Tree_node@U?$pair@$$CBIPAVIClientSession@@@std@@PAX@1@AAU?$pair@IPAVIClientSession@@@1@@Z$0 10007ef9 f i ClientSession.obj
 0001:0000722d       __catch$??$_Insert_nohint@AAU?$pair@$$CBIPAVIClientSession@@@std@@PAU?$_Tree_node@U?$pair@$$CBIPAVIClientSession@@@std@@PAX@2@@?$_Tree@V?$_Tmap_traits@IPAVIClientSession@@U?$less@I@std@@V?$allocator@U?$pair@$$CBIPAVIClientSession@@@std@@@3@$0A@@std@@@std@@IAE?AU?$pair@V?$_Tree_iterator@V?$_Tree_val@U?$_Tree_simple_types@U?$pair@$$CBIPAVIClientSession@@@std@@@std@@@std@@@std@@_N@1@_NAAU?$pair@$$CBIPAVIClientSession@@@1@PAU?$_Tree_node@U?$pair@$$CBIPAVIClientSession@@@std@@PAX@1@@Z$0 1000822d f i ClientSession.obj
 0001:00007309       __catch$??$_Buynode@AAU?$pair@V?$basic_string@DU?$char_traits@D@std@@V?$allocator@D@2@@std@@V?$list@IV?$allocator@I@std@@@2@@std@@@?$_Tree_comp_alloc@V?$_Tmap_traits@V?$basic_string@DU?$char_traits@D@std@@V?$allocator@D@2@@std@@V?$list@IV?$allocator@I@std@@@2@U?$less@V?$basic_string@DU?$char_traits@D@std@@V?$allocator@D@2@@std@@@2@V?$allocator@U?$pair@$$CBV?$basic_string@DU?$char_traits@D@std@@V?$allocator@D@2@@std@@V?$list@IV?$allocator@I@std@@@2@@std@@@2@$0A@@std@@@std@@QAEPAU?$_Tree_node@U?$pair@$$CBV?$basic_string@DU?$char_traits@D@std@@V?$allocator@D@2@@std@@V?$list@IV?$allocator@I@std@@@2@@std@@PAX@1@AAU?$pair@V?$basic_string@DU?$char_traits@D@std@@V?$allocator@D@2@@std@@V?$list@IV?$allocator@I@std@@@2@@1@@Z$0 10008309 f i ClientSession.obj
 0001:0000763d       __catch$??$_Insert_nohint@AAU?$pair@$$CBV?$basic_string@DU?$char_traits@D@std@@V?$allocator@D@2@@std@@V?$list@IV?$allocator@I@std@@@2@@std@@PAU?$_Tree_node@U?$pair@$$CBV?$basic_string@DU?$char_traits@D@std@@V?$allocator@D@2@@std@@V?$list@IV?$allocator@I@std@@@2@@std@@PAX@2@@?$_Tree@V?$_Tmap_traits@V?$basic_string@DU?$char_traits@D@std@@V?$allocator@D@2@@std@@V?$list@IV?$allocator@I@std@@@2@U?$less@V?$basic_string@DU?$char_traits@D@std@@V?$allocator@D@2@@std@@@2@V?$allocator@U?$pair@$$CBV?$basic_string@DU?$char_traits@D@std@@V?$allocator@D@2@@std@@V?$list@IV?$allocator@I@std@@@2@@std@@@2@$0A@@std@@@std@@IAE?AU?$pair@V?$_Tree_iterator@V?$_Tree_val@U?$_Tree_simple_types@U?$pair@$$CBV?$basic_string@DU?$char_traits@D@std@@V?$allocator@D@2@@std@@V?$list@IV?$allocator@I@std@@@2@@std@@@std@@@std@@@std@@_N@1@_NAAU?$pair@$$CBV?$basic_string@DU?$char_traits@D@std@@V?$allocator@D@2@@std@@V?$list@IV?$allocator@I@std@@@2@@1@PAU?$_Tree_node@U?$pair@$$CBV?$basic_string@DU?$char_traits@D@std@@V?$allocator@D@2@@std@@V?$list@IV?$allocator@I@std@@@2@@std@@PAX@1@@Z$0 1000863d f i ClientSession.obj
 0001:0000787c       __catch$??$_Insert_range@V?$_List_const_iterator@V?$_List_val@U?$_List_simple_types@I@std@@@std@@@std@@@?$list@IV?$allocator@I@std@@@std@@QAEXV?$_List_unchecked_const_iterator@V?$_List_val@U?$_List_simple_types@I@std@@@std@@U_Iterator_base0@2@@1@V?$_List_const_iterator@V?$_List_val@U?$_List_simple_types@I@std@@@std@@@1@1Uforward_iterator_tag@1@@Z$0 1000887c f i ClientSession.obj
 0001:00007a28       __catch$?_Buynode0@?$_Tree_comp_alloc@V?$_Tmap_traits@V?$basic_string@DU?$char_traits@D@std@@V?$allocator@D@2@@std@@V?$list@IV?$allocator@I@std@@@2@U?$less@V?$basic_string@DU?$char_traits@D@std@@V?$allocator@D@2@@std@@@2@V?$allocator@U?$pair@$$CBV?$basic_string@DU?$char_traits@D@std@@V?$allocator@D@2@@std@@V?$list@IV?$allocator@I@std@@@2@@std@@@2@$0A@@std@@@std@@QAEPAU?$_Tree_node@U?$pair@$$CBV?$basic_string@DU?$char_traits@D@std@@V?$allocator@D@2@@std@@V?$list@IV?$allocator@I@std@@@2@@std@@PAX@2@XZ$0 10008a28 f i ClientSession.obj
 0001:00007bb8       __catch$?_Buynode0@?$_Tree_comp_alloc@V?$_Tmap_traits@IPAVIClientSession@@U?$less@I@std@@V?$allocator@U?$pair@$$CBIPAVIClientSession@@@std@@@3@$0A@@std@@@std@@QAEPAU?$_Tree_node@U?$pair@$$CBIPAVIClientSession@@@std@@PAX@2@XZ$0 10008bb8 f i ClientSession.obj
 0001:000087d3       __catch$??$_Buynode@ABUpiecewise_construct_t@std@@V?$tuple@ABI@2@V?$tuple@$$V@2@@?$_Tree_comp_alloc@V?$_Tmap_traits@IPAVIClientSession@@U?$less@I@std@@V?$allocator@U?$pair@$$CBIPAVIClientSession@@@std@@@3@$0A@@std@@@std@@QAEPAU?$_Tree_node@U?$pair@$$CBIPAVIClientSession@@@std@@PAX@1@ABUpiecewise_construct_t@1@$$QAV?$tuple@ABI@1@$$QAV?$tuple@$$V@1@@Z$0 100097d3 f i ClientSession.obj
 0001:00009214       __catch$??$_Insert_hint@AAU?$pair@$$CBIPAVIClientSession@@@std@@PAU?$_Tree_node@U?$pair@$$CBIPAVIClientSession@@@std@@PAX@2@@?$_Tree@V?$_Tmap_traits@IPAVIClientSession@@U?$less@I@std@@V?$allocator@U?$pair@$$CBIPAVIClientSession@@@std@@@3@$0A@@std@@@std@@IAE?AV?$_Tree_iterator@V?$_Tree_val@U?$_Tree_simple_types@U?$pair@$$CBIPAVIClientSession@@@std@@@std@@@std@@@1@V?$_Tree_const_iterator@V?$_Tree_val@U?$_Tree_simple_types@U?$pair@$$CBIPAVIClientSession@@@std@@@std@@@std@@@1@AAU?$pair@$$CBIPAVIClientSession@@@1@PAU?$_Tree_node@U?$pair@$$CBIPAVIClientSession@@@std@@PAX@1@@Z$0 1000a214 f i ClientSession.obj
 0001:00009e94       ?__scrt_initialize_thread_safe_statics@@YAHXZ 1000ae94 f   MSVCRT:thread_safe_statics.obj
 0001:00009f71       ?__scrt_uninitialize_thread_safe_statics@@YAXXZ 1000af71 f   MSVCRT:thread_safe_statics.obj
 0001:00009fc0       ?find_pe_section@@YAPAU_IMAGE_SECTION_HEADER@@QAEI@Z 1000afc0 f   MSVCRT:utility.obj
 0001:0000a321       ?dllmain_crt_dispatch@@YGHQAUHINSTANCE__@@KQAX@Z 1000b321 f   MSVCRT:dll_dllmain.obj
 0001:0000a374       ?dllmain_crt_process_attach@@YAHQAUHINSTANCE__@@QAX@Z 1000b374 f   MSVCRT:dll_dllmain.obj
 0001:0000a486       ?dllmain_crt_process_detach@@YAH_N@Z 1000b486 f   MSVCRT:dll_dllmain.obj
 0001:0000a503       ?dllmain_dispatch@@YAHQAUHINSTANCE__@@KQAX@Z 1000b503 f   MSVCRT:dll_dllmain.obj
 0001:0000a5ff       ?dllmain_raw@@YGHQAUHINSTANCE__@@KQAX@Z 1000b5ff f   MSVCRT:dll_dllmain.obj
 0001:0000ab20       $$000000                   1000bb20     MSVCRT:_sehprolg4_.obj
 0001:0000ad60       $$000000                   1000bd60     MSVCRT:chkstk.obj
 0001:0000ada0       __unwindfunclet$??0ClientProtocol@@QAE@XZ$0 1000bda0 f   ClientProtocolImpl.obj
 0001:0000ada8       __ehhandler$??0ClientProtocol@@QAE@XZ 1000bda8 f   ClientProtocolImpl.obj
 0001:0000add0       __ehhandler$?_Make_iter@?$list@IV?$allocator@I@std@@@std@@QBE?AV?$_List_iterator@V?$_List_val@U?$_List_simple_types@I@std@@@std@@@2@V?$_List_const_iterator@V?$_List_val@U?$_List_simple_types@I@std@@@std@@@2@@Z 1000bdd0 f   ClientSession.obj
 0001:0000add0       __ehhandler$?begin@?$_Tree@V?$_Tmap_traits@V?$basic_string@DU?$char_traits@D@std@@V?$allocator@D@2@@std@@V?$list@IV?$allocator@I@std@@@2@U?$less@V?$basic_string@DU?$char_traits@D@std@@V?$allocator@D@2@@std@@@2@V?$allocator@U?$pair@$$CBV?$basic_string@DU?$char_traits@D@std@@V?$allocator@D@2@@std@@V?$list@IV?$allocator@I@std@@@2@@std@@@2@$0A@@std@@@std@@QAE?AV?$_Tree_iterator@V?$_Tree_val@U?$_Tree_simple_types@U?$pair@$$CBV?$basic_string@DU?$char_traits@D@std@@V?$allocator@D@2@@std@@V?$list@IV?$allocator@I@std@@@2@@std@@@std@@@std@@@2@XZ 1000bdd0 f   ClientSession.obj
 0001:0000add0       __ehhandler$??1?$basic_string@DU?$char_traits@D@std@@V?$allocator@D@2@@std@@QAE@XZ 1000bdd0 f   ClientProtocolImpl.obj
 0001:0000add0       __ehhandler$??1?$_List_alloc@U?$_List_base_types@PAVIAccount@@V?$allocator@PAVIAccount@@@std@@@std@@@std@@QAE@XZ 1000bdd0 f   ClientSession.obj
 0001:0000add0       __ehhandler$??1ClientProtocol@@UAE@XZ 1000bdd0 f   ClientProtocolImpl.obj
 0001:0000add0       __ehhandler$?end@?$_Tree@V?$_Tmap_traits@V?$basic_string@DU?$char_traits@D@std@@V?$allocator@D@2@@std@@V?$list@IV?$allocator@I@std@@@2@U?$less@V?$basic_string@DU?$char_traits@D@std@@V?$allocator@D@2@@std@@@2@V?$allocator@U?$pair@$$CBV?$basic_string@DU?$char_traits@D@std@@V?$allocator@D@2@@std@@V?$list@IV?$allocator@I@std@@@2@@std@@@2@$0A@@std@@@std@@QAE?AV?$_Tree_iterator@V?$_Tree_val@U?$_Tree_simple_types@U?$pair@$$CBV?$basic_string@DU?$char_traits@D@std@@V?$allocator@D@2@@std@@V?$list@IV?$allocator@I@std@@@2@@std@@@std@@@std@@@2@XZ 1000bdd0 f   ClientSession.obj
 0001:0000add0       __ehhandler$??1?$_Tree@V?$_Tmap_traits@V?$basic_string@DU?$char_traits@D@std@@V?$allocator@D@2@@std@@V?$list@IV?$allocator@I@std@@@2@U?$less@V?$basic_string@DU?$char_traits@D@std@@V?$allocator@D@2@@std@@@2@V?$allocator@U?$pair@$$CBV?$basic_string@DU?$char_traits@D@std@@V?$allocator@D@2@@std@@V?$list@IV?$allocator@I@std@@@2@@std@@@2@$0A@@std@@@std@@QAE@XZ 1000bdd0 f   ClientSession.obj
 0001:0000add0       __ehhandler$?begin@?$list@IV?$allocator@I@std@@@std@@QBE?AV?$_List_const_iterator@V?$_List_val@U?$_List_simple_types@I@std@@@std@@@2@XZ 1000bdd0 f   ClientSession.obj
 0001:0000add0       __ehhandler$?_Make_iter@?$list@PAVIAccount@@V?$allocator@PAVIAccount@@@std@@@std@@QBE?AV?$_List_iterator@V?$_List_val@U?$_List_simple_types@PAVIAccount@@@std@@@std@@@2@V?$_List_const_iterator@V?$_List_val@U?$_List_simple_types@PAVIAccount@@@std@@@std@@@2@@Z 1000bdd0 f   ClientSession.obj
 0001:0000add0       __ehhandler$?begin@?$_Tree@V?$_Tmap_traits@IPAVIClientSession@@U?$less@I@std@@V?$allocator@U?$pair@$$CBIPAVIClientSession@@@std@@@3@$0A@@std@@@std@@QAE?AV?$_Tree_iterator@V?$_Tree_val@U?$_Tree_simple_types@U?$pair@$$CBIPAVIClientSession@@@std@@@std@@@std@@@2@XZ 1000bdd0 f   ClientSession.obj
 0001:0000add0       __ehhandler$??1?$_Tree@V?$_Tmap_traits@IPAVIClientSession@@U?$less@I@std@@V?$allocator@U?$pair@$$CBIPAVIClientSession@@@std@@@3@$0A@@std@@@std@@QAE@XZ 1000bdd0 f   ClientSession.obj
 0001:0000add0       __ehhandler$??1?$list@IV?$allocator@I@std@@@std@@QAE@XZ 1000bdd0 f   ClientSession.obj
 0001:0000add0       __ehhandler$??1?$list@PAVIAccount@@V?$allocator@PAVIAccount@@@std@@@std@@QAE@XZ 1000bdd0 f   ClientSession.obj
 0001:0000add0       __ehhandler$?end@?$_Tree@V?$_Tmap_traits@IPAVIClientSession@@U?$less@I@std@@V?$allocator@U?$pair@$$CBIPAVIClientSession@@@std@@@3@$0A@@std@@@std@@QAE?AV?$_Tree_iterator@V?$_Tree_val@U?$_Tree_simple_types@U?$pair@$$CBIPAVIClientSession@@@std@@@std@@@std@@@2@XZ 1000bdd0 f   ClientSession.obj
 0001:0000add0       __ehhandler$?c_str@?$basic_string@DU?$char_traits@D@std@@V?$allocator@D@2@@std@@QBEPBDXZ 1000bdd0 f   ClientSession.obj
 0001:0000add0       __ehhandler$??0?$basic_string@DU?$char_traits@D@std@@V?$allocator@D@2@@std@@QAE@XZ 1000bdd0 f   ClientSession.obj
 0001:0000add0       __ehhandler$?end@?$list@IV?$allocator@I@std@@@std@@QBE?AV?$_List_const_iterator@V?$_List_val@U?$_List_simple_types@I@std@@@std@@@2@XZ 1000bdd0 f   ClientSession.obj
 0001:0000add0       __ehhandler$?compare@?$basic_string@DU?$char_traits@D@std@@V?$allocator@D@2@@std@@QBEHABV12@@Z 1000bdd0 f   ClientSession.obj
 0001:0000add0       __ehhandler$??1?$_List_alloc@U?$_List_base_types@IV?$allocator@I@std@@@std@@@std@@QAE@XZ 1000bdd0 f   ClientSession.obj
 0001:0000add0       __ehhandler$??1?$_Tree_comp_alloc@V?$_Tmap_traits@V?$basic_string@DU?$char_traits@D@std@@V?$allocator@D@2@@std@@V?$list@IV?$allocator@I@std@@@2@U?$less@V?$basic_string@DU?$char_traits@D@std@@V?$allocator@D@2@@std@@@2@V?$allocator@U?$pair@$$CBV?$basic_string@DU?$char_traits@D@std@@V?$allocator@D@2@@std@@V?$list@IV?$allocator@I@std@@@2@@std@@@2@$0A@@std@@@std@@QAE@XZ 1000bdd0 f   ClientSession.obj
 0001:0000add0       __ehhandler$??1?$_Tree_comp_alloc@V?$_Tmap_traits@IPAVIClientSession@@U?$less@I@std@@V?$allocator@U?$pair@$$CBIPAVIClientSession@@@std@@@3@$0A@@std@@@std@@QAE@XZ 1000bdd0 f   ClientSession.obj
 0001:0000add0       __ehhandler$?end@?$list@IV?$allocator@I@std@@@std@@QAE?AV?$_List_iterator@V?$_List_val@U?$_List_simple_types@I@std@@@std@@@2@XZ 1000bdd0 f   ClientSession.obj
 0001:0000add0       __ehhandler$?begin@?$list@IV?$allocator@I@std@@@std@@QAE?AV?$_List_iterator@V?$_List_val@U?$_List_simple_types@I@std@@@std@@@2@XZ 1000bdd0 f   ClientSession.obj
 0001:0000adf0       __unwindfunclet$?Connect@ClientProtocol@@UAE_NPADGI@Z$0 1000bdf0 f   ClientProtocolImpl.obj
 0001:0000adf8       __ehhandler$?Connect@ClientProtocol@@UAE_NPADGI@Z 1000bdf8 f   ClientProtocolImpl.obj
 0001:0000ae20       __unwindfunclet$?CreateClientProtocol@@YGPAVIClientProtocol@@XZ$0 1000be20 f   ClientProtocolImpl.obj
 0001:0000ae32       __ehhandler$?CreateClientProtocol@@YGPAVIClientProtocol@@XZ 1000be32 f   ClientProtocolImpl.obj
 0001:0000ae50       __unwindfunclet$??0?$basic_string@DU?$char_traits@D@std@@V?$allocator@D@2@@std@@QAE@PBD@Z$0 1000be50 f   ClientProtocolImpl.obj
 0001:0000ae58       __ehhandler$??0?$basic_string@DU?$char_traits@D@std@@V?$allocator@D@2@@std@@QAE@PBD@Z 1000be58 f   ClientProtocolImpl.obj
 0001:0000ae80       __ehhandler$?_Copy@?$basic_string@DU?$char_traits@D@std@@V?$allocator@D@2@@std@@QAEXII@Z 1000be80 f   ClientProtocolImpl.obj
 0001:0000aea0       __unwindfunclet$??0ClientSession@@QAE@IPADG@Z$0 1000bea0 f   ClientSession.obj
 0001:0000aea8       __unwindfunclet$??0ClientSession@@QAE@IPADG@Z$1 1000bea8 f   ClientSession.obj
 0001:0000aeb6       __ehhandler$??0ClientSession@@QAE@IPADG@Z 1000beb6 f   ClientSession.obj
 0001:0000aee0       __unwindfunclet$??0ClientSessionMgr@@QAE@PAVIServerProtocol@@@Z$0 1000bee0 f   ClientSession.obj
 0001:0000aee8       __unwindfunclet$??0ClientSessionMgr@@QAE@PAVIServerProtocol@@@Z$1 1000bee8 f   ClientSession.obj
 0001:0000aef3       __ehhandler$??0ClientSessionMgr@@QAE@PAVIServerProtocol@@@Z 1000bef3 f   ClientSession.obj
 0001:0000af10       __ehhandler$??1ClientSessionMgr@@UAE@XZ 1000bf10 f   ClientSession.obj
 0001:0000af30       __unwindfunclet$?Add@ClientSessionMgr@@UAEXIPADG@Z$0 1000bf30 f   ClientSession.obj
 0001:0000af42       __ehhandler$?Add@ClientSessionMgr@@UAEXIPADG@Z 1000bf42 f   ClientSession.obj
 0001:0000af60       __unwindfunclet$?AddUserName@ClientSessionMgr@@UAEXIV?$basic_string@DU?$char_traits@D@std@@V?$allocator@D@2@@std@@@Z$0 1000bf60 f   ClientSession.obj
 0001:0000af68       __unwindfunclet$?AddUserName@ClientSessionMgr@@UAEXIV?$basic_string@DU?$char_traits@D@std@@V?$allocator@D@2@@std@@@Z$1 1000bf68 f   ClientSession.obj
 0001:0000af70       __unwindfunclet$?AddUserName@ClientSessionMgr@@UAEXIV?$basic_string@DU?$char_traits@D@std@@V?$allocator@D@2@@std@@@Z$2 1000bf70 f   ClientSession.obj
 0001:0000af78       __ehhandler$?AddUserName@ClientSessionMgr@@UAEXIV?$basic_string@DU?$char_traits@D@std@@V?$allocator@D@2@@std@@@Z 1000bf78 f   ClientSession.obj
 0001:0000afa0       __unwindfunclet$?Remove@ClientSessionMgr@@UAEXI@Z$0 1000bfa0 f   ClientSession.obj
 0001:0000afa8       __ehhandler$?Remove@ClientSessionMgr@@UAEXI@Z 1000bfa8 f   ClientSession.obj
 0001:0000afd0       __unwindfunclet$?GetClientSessionList@ClientSessionMgr@@UAEPAV?$list@IV?$allocator@I@std@@@std@@V?$basic_string@DU?$char_traits@D@std@@V?$allocator@D@2@@3@@Z$0 1000bfd0 f   ClientSession.obj
 0001:0000afd8       __ehhandler$?GetClientSessionList@ClientSessionMgr@@UAEPAV?$list@IV?$allocator@I@std@@@std@@V?$basic_string@DU?$char_traits@D@std@@V?$allocator@D@2@@3@@Z 1000bfd8 f   ClientSession.obj
 0001:0000b000       __ehhandler$?clear@?$_Tree@V?$_Tmap_traits@V?$basic_string@DU?$char_traits@D@std@@V?$allocator@D@2@@std@@V?$list@IV?$allocator@I@std@@@2@U?$less@V?$basic_string@DU?$char_traits@D@std@@V?$allocator@D@2@@std@@@2@V?$allocator@U?$pair@$$CBV?$basic_string@DU?$char_traits@D@std@@V?$allocator@D@2@@std@@V?$list@IV?$allocator@I@std@@@2@@std@@@2@$0A@@std@@@std@@QAEXXZ 1000c000 f   ClientSession.obj
 0001:0000b000       __ehhandler$?clear@?$_Tree@V?$_Tmap_traits@IPAVIClientSession@@U?$less@I@std@@V?$allocator@U?$pair@$$CBIPAVIClientSession@@@std@@@3@$0A@@std@@@std@@QAEXXZ 1000c000 f   ClientSession.obj
 0001:0000b020       __unwindfunclet$??0?$basic_string@DU?$char_traits@D@std@@V?$allocator@D@2@@std@@QAE@ABV01@@Z$0 1000c020 f   ClientSession.obj
 0001:0000b028       __ehhandler$??0?$basic_string@DU?$char_traits@D@std@@V?$allocator@D@2@@std@@QAE@ABV01@@Z 1000c028 f   ClientSession.obj
 0001:0000b050       __ehhandler$?clear@?$list@PAVIAccount@@V?$allocator@PAVIAccount@@@std@@@std@@QAEXXZ 1000c050 f   ClientSession.obj
 0001:0000b050       __ehhandler$?clear@?$list@IV?$allocator@I@std@@@std@@QAEXXZ 1000c050 f   ClientSession.obj
 0001:0000b050       __ehhandler$??1ServerProtocol@@UAE@XZ 1000c050 f   ServerProtocolImpl.obj
 0001:0000b070       __ehhandler$?_Buynode0@?$_List_alloc@U?$_List_base_types@PAVIAccount@@V?$allocator@PAVIAccount@@@std@@@std@@@std@@QAEPAU?$_List_node@PAVIAccount@@PAX@2@PAU32@0@Z 1000c070 f   ClientSession.obj
 0001:0000b070       __ehhandler$?_Buynode0@?$_List_alloc@U?$_List_base_types@IV?$allocator@I@std@@@std@@@std@@QAEPAU?$_List_node@IPAX@2@PAU32@0@Z 1000c070 f   ClientSession.obj
 0001:0000b090       __ehhandler$?_Buyheadnode@?$_Tree_comp_alloc@V?$_Tmap_traits@V?$basic_string@DU?$char_traits@D@std@@V?$allocator@D@2@@std@@V?$list@IV?$allocator@I@std@@@2@U?$less@V?$basic_string@DU?$char_traits@D@std@@V?$allocator@D@2@@std@@@2@V?$allocator@U?$pair@$$CBV?$basic_string@DU?$char_traits@D@std@@V?$allocator@D@2@@std@@V?$list@IV?$allocator@I@std@@@2@@std@@@2@$0A@@std@@@std@@QAEPAU?$_Tree_node@U?$pair@$$CBV?$basic_string@DU?$char_traits@D@std@@V?$allocator@D@2@@std@@V?$list@IV?$allocator@I@std@@@2@@std@@PAX@2@XZ 1000c090 f   ClientSession.obj
 0001:0000b0b0       __ehhandler$?_Buyheadnode@?$_Tree_comp_alloc@V?$_Tmap_traits@IPAVIClientSession@@U?$less@I@std@@V?$allocator@U?$pair@$$CBIPAVIClientSession@@@std@@@3@$0A@@std@@@std@@QAEPAU?$_Tree_node@U?$pair@$$CBIPAVIClientSession@@@std@@PAX@2@XZ 1000c0b0 f   ClientSession.obj
 0001:0000b0d0       __unwindfunclet$??$?0AAV?$basic_string@DU?$char_traits@D@std@@V?$allocator@D@2@@std@@AAV?$list@IV?$allocator@I@std@@@1@X$0A@@?$pair@V?$basic_string@DU?$char_traits@D@std@@V?$allocator@D@2@@std@@V?$list@IV?$allocator@I@std@@@2@@std@@QAE@AAV?$basic_string@DU?$char_traits@D@std@@V?$allocator@D@2@@1@AAV?$list@IV?$allocator@I@std@@@1@@Z$0 1000c0d0 f   ClientSession.obj
 0001:0000b0d0       __unwindfunclet$??$?0V?$basic_string@DU?$char_traits@D@std@@V?$allocator@D@2@@std@@V?$list@IV?$allocator@I@std@@@1@X$0A@@?$pair@$$CBV?$basic_string@DU?$char_traits@D@std@@V?$allocator@D@2@@std@@V?$list@IV?$allocator@I@std@@@2@@std@@QAE@ABU?$pair@V?$basic_string@DU?$char_traits@D@std@@V?$allocator@D@2@@std@@V?$list@IV?$allocator@I@std@@@2@@1@@Z$0 1000c0d0 f   ClientSession.obj
 0001:0000b0d8       __ehhandler$??$?0AAV?$basic_string@DU?$char_traits@D@std@@V?$allocator@D@2@@std@@AAV?$list@IV?$allocator@I@std@@@1@X$0A@@?$pair@V?$basic_string@DU?$char_traits@D@std@@V?$allocator@D@2@@std@@V?$list@IV?$allocator@I@std@@@2@@std@@QAE@AAV?$basic_string@DU?$char_traits@D@std@@V?$allocator@D@2@@1@AAV?$list@IV?$allocator@I@std@@@1@@Z 1000c0d8 f   ClientSession.obj
 0001:0000b0d8       __ehhandler$??$?0V?$basic_string@DU?$char_traits@D@std@@V?$allocator@D@2@@std@@V?$list@IV?$allocator@I@std@@@1@X$0A@@?$pair@$$CBV?$basic_string@DU?$char_traits@D@std@@V?$allocator@D@2@@std@@V?$list@IV?$allocator@I@std@@@2@@std@@QAE@ABU?$pair@V?$basic_string@DU?$char_traits@D@std@@V?$allocator@D@2@@std@@V?$list@IV?$allocator@I@std@@@2@@1@@Z 1000c0d8 f   ClientSession.obj
 0001:0000b100       __unwindfunclet$??0?$list@IV?$allocator@I@std@@@std@@QAE@ABV01@@Z$2 1000c100 f   ClientSession.obj
 0001:0000b108       __ehhandler$??0?$list@IV?$allocator@I@std@@@std@@QAE@ABV01@@Z 1000c108 f   ClientSession.obj
 0001:0000b130       __ehhandler$??$_Buynode@I@?$_List_buy@IV?$allocator@I@std@@@std@@QAEPAU?$_List_node@IPAX@1@PAU21@0$$QAI@Z 1000c130 f   ClientSession.obj
 0001:0000b130       __ehhandler$??$_Buynode@ABQAVIAccount@@@?$_List_buy@PAVIAccount@@V?$allocator@PAVIAccount@@@std@@@std@@QAEPAU?$_List_node@PAVIAccount@@PAX@1@PAU21@0ABQAVIAccount@@@Z 1000c130 f   ClientSession.obj
 0001:0000b130       __ehhandler$??$_Buynode@ABI@?$_List_buy@IV?$allocator@I@std@@@std@@QAEPAU?$_List_node@IPAX@1@PAU21@0ABI@Z 1000c130 f   ClientSession.obj
 0001:0000b150       __ehhandler$??$_Buynode@AAU?$pair@IPAVIClientSession@@@std@@@?$_Tree_comp_alloc@V?$_Tmap_traits@IPAVIClientSession@@U?$less@I@std@@V?$allocator@U?$pair@$$CBIPAVIClientSession@@@std@@@3@$0A@@std@@@std@@QAEPAU?$_Tree_node@U?$pair@$$CBIPAVIClientSession@@@std@@PAX@1@AAU?$pair@IPAVIClientSession@@@1@@Z 1000c150 f   ClientSession.obj
 0001:0000b170       __ehhandler$??$_Insert_nohint@AAU?$pair@$$CBIPAVIClientSession@@@std@@PAU?$_Tree_node@U?$pair@$$CBIPAVIClientSession@@@std@@PAX@2@@?$_Tree@V?$_Tmap_traits@IPAVIClientSession@@U?$less@I@std@@V?$allocator@U?$pair@$$CBIPAVIClientSession@@@std@@@3@$0A@@std@@@std@@IAE?AU?$pair@V?$_Tree_iterator@V?$_Tree_val@U?$_Tree_simple_types@U?$pair@$$CBIPAVIClientSession@@@std@@@std@@@std@@@std@@_N@1@_NAAU?$pair@$$CBIPAVIClientSession@@@1@PAU?$_Tree_node@U?$pair@$$CBIPAVIClientSession@@@std@@PAX@1@@Z 1000c170 f   ClientSession.obj
 0001:0000b190       __ehhandler$??$_Buynode@AAU?$pair@V?$basic_string@DU?$char_traits@D@std@@V?$allocator@D@2@@std@@V?$list@IV?$allocator@I@std@@@2@@std@@@?$_Tree_comp_alloc@V?$_Tmap_traits@V?$basic_string@DU?$char_traits@D@std@@V?$allocator@D@2@@std@@V?$list@IV?$allocator@I@std@@@2@U?$less@V?$basic_string@DU?$char_traits@D@std@@V?$allocator@D@2@@std@@@2@V?$allocator@U?$pair@$$CBV?$basic_string@DU?$char_traits@D@std@@V?$allocator@D@2@@std@@V?$list@IV?$allocator@I@std@@@2@@std@@@2@$0A@@std@@@std@@QAEPAU?$_Tree_node@U?$pair@$$CBV?$basic_string@DU?$char_traits@D@std@@V?$allocator@D@2@@std@@V?$list@IV?$allocator@I@std@@@2@@std@@PAX@1@AAU?$pair@V?$basic_string@DU?$char_traits@D@std@@V?$allocator@D@2@@std@@V?$list@IV?$allocator@I@std@@@2@@1@@Z 1000c190 f   ClientSession.obj
 0001:0000b1b0       __ehhandler$??$_Insert_nohint@AAU?$pair@$$CBV?$basic_string@DU?$char_traits@D@std@@V?$allocator@D@2@@std@@V?$list@IV?$allocator@I@std@@@2@@std@@PAU?$_Tree_node@U?$pair@$$CBV?$basic_string@DU?$char_traits@D@std@@V?$allocator@D@2@@std@@V?$list@IV?$allocator@I@std@@@2@@std@@PAX@2@@?$_Tree@V?$_Tmap_traits@V?$basic_string@DU?$char_traits@D@std@@V?$allocator@D@2@@std@@V?$list@IV?$allocator@I@std@@@2@U?$less@V?$basic_string@DU?$char_traits@D@std@@V?$allocator@D@2@@std@@@2@V?$allocator@U?$pair@$$CBV?$basic_string@DU?$char_traits@D@std@@V?$allocator@D@2@@std@@V?$list@IV?$allocator@I@std@@@2@@std@@@2@$0A@@std@@@std@@IAE?AU?$pair@V?$_Tree_iterator@V?$_Tree_val@U?$_Tree_simple_types@U?$pair@$$CBV?$basic_string@DU?$char_traits@D@std@@V?$allocator@D@2@@std@@V?$list@IV?$allocator@I@std@@@2@@std@@@std@@@std@@@std@@_N@1@_NAAU?$pair@$$CBV?$basic_string@DU?$char_traits@D@std@@V?$allocator@D@2@@std@@V?$list@IV?$allocator@I@std@@@2@@1@PAU?$_Tree_node@U?$pair@$$CBV?$basic_string@DU?$char_traits@D@std@@V?$allocator@D@2@@std@@V?$list@IV?$allocator@I@std@@@2@@std@@PAX@1@@Z 1000c1b0 f   ClientSession.obj
 0001:0000b1d0       __ehhandler$??$forward_as_tuple@ABI@std@@YA?AV?$tuple@ABI@0@ABI@Z 1000c1d0 f   ClientSession.obj
 0001:0000b1f0       __ehhandler$??$_Insert_range@V?$_List_const_iterator@V?$_List_val@U?$_List_simple_types@I@std@@@std@@@std@@@?$list@IV?$allocator@I@std@@@std@@QAEXV?$_List_unchecked_const_iterator@V?$_List_val@U?$_List_simple_types@I@std@@@std@@U_Iterator_base0@2@@1@V?$_List_const_iterator@V?$_List_val@U?$_List_simple_types@I@std@@@std@@@1@1Uforward_iterator_tag@1@@Z 1000c1f0 f   ClientSession.obj
 0001:0000b210       __ehhandler$?_Buynode0@?$_Tree_comp_alloc@V?$_Tmap_traits@V?$basic_string@DU?$char_traits@D@std@@V?$allocator@D@2@@std@@V?$list@IV?$allocator@I@std@@@2@U?$less@V?$basic_string@DU?$char_traits@D@std@@V?$allocator@D@2@@std@@@2@V?$allocator@U?$pair@$$CBV?$basic_string@DU?$char_traits@D@std@@V?$allocator@D@2@@std@@V?$list@IV?$allocator@I@std@@@2@@std@@@2@$0A@@std@@@std@@QAEPAU?$_Tree_node@U?$pair@$$CBV?$basic_string@DU?$char_traits@D@std@@V?$allocator@D@2@@std@@V?$list@IV?$allocator@I@std@@@2@@std@@PAX@2@XZ 1000c210 f   ClientSession.obj
 0001:0000b230       __ehhandler$?_Buynode0@?$_Tree_comp_alloc@V?$_Tmap_traits@IPAVIClientSession@@U?$less@I@std@@V?$allocator@U?$pair@$$CBIPAVIClientSession@@@std@@@3@$0A@@std@@@std@@QAEPAU?$_Tree_node@U?$pair@$$CBIPAVIClientSession@@@std@@PAX@2@XZ 1000c230 f   ClientSession.obj
 0001:0000b250       __ehhandler$??$_Buynode@ABUpiecewise_construct_t@std@@V?$tuple@ABI@2@V?$tuple@$$V@2@@?$_Tree_comp_alloc@V?$_Tmap_traits@IPAVIClientSession@@U?$less@I@std@@V?$allocator@U?$pair@$$CBIPAVIClientSession@@@std@@@3@$0A@@std@@@std@@QAEPAU?$_Tree_node@U?$pair@$$CBIPAVIClientSession@@@std@@PAX@1@ABUpiecewise_construct_t@1@$$QAV?$tuple@ABI@1@$$QAV?$tuple@$$V@1@@Z 1000c250 f   ClientSession.obj
 0001:0000b270       __ehhandler$??$_Insert_hint@AAU?$pair@$$CBIPAVIClientSession@@@std@@PAU?$_Tree_node@U?$pair@$$CBIPAVIClientSession@@@std@@PAX@2@@?$_Tree@V?$_Tmap_traits@IPAVIClientSession@@U?$less@I@std@@V?$allocator@U?$pair@$$CBIPAVIClientSession@@@std@@@3@$0A@@std@@@std@@IAE?AV?$_Tree_iterator@V?$_Tree_val@U?$_Tree_simple_types@U?$pair@$$CBIPAVIClientSession@@@std@@@std@@@std@@@1@V?$_Tree_const_iterator@V?$_Tree_val@U?$_Tree_simple_types@U?$pair@$$CBIPAVIClientSession@@@std@@@std@@@std@@@1@AAU?$pair@$$CBIPAVIClientSession@@@1@PAU?$_Tree_node@U?$pair@$$CBIPAVIClientSession@@@std@@PAX@1@@Z 1000c270 f   ClientSession.obj
 0001:0000b290       __unwindfunclet$??$construct@U?$pair@$$CBIPAVIClientSession@@@std@@AAU?$pair@IPAVIClientSession@@@2@@?$allocator@U?$_Tree_node@U?$pair@$$CBIPAVIClientSession@@@std@@PAX@std@@@std@@QAEXPAU?$pair@$$CBIPAVIClientSession@@@1@AAU?$pair@IPAVIClientSession@@@1@@Z$0 1000c290 f   ClientSession.obj
 0001:0000b290       __unwindfunclet$??$construct@U?$pair@$$CBV?$basic_string@DU?$char_traits@D@std@@V?$allocator@D@2@@std@@V?$list@IV?$allocator@I@std@@@2@@std@@AAU?$pair@V?$basic_string@DU?$char_traits@D@std@@V?$allocator@D@2@@std@@V?$list@IV?$allocator@I@std@@@2@@2@@?$allocator@U?$_Tree_node@U?$pair@$$CBV?$basic_string@DU?$char_traits@D@std@@V?$allocator@D@2@@std@@V?$list@IV?$allocator@I@std@@@2@@std@@PAX@std@@@std@@QAEXPAU?$pair@$$CBV?$basic_string@DU?$char_traits@D@std@@V?$allocator@D@2@@std@@V?$list@IV?$allocator@I@std@@@2@@1@AAU?$pair@V?$basic_string@DU?$char_traits@D@std@@V?$allocator@D@2@@std@@V?$list@IV?$allocator@I@std@@@2@@1@@Z$0 1000c290 f   ClientSession.obj
 0001:0000b2a1       __ehhandler$??$construct@U?$pair@$$CBIPAVIClientSession@@@std@@AAU?$pair@IPAVIClientSession@@@2@@?$allocator@U?$_Tree_node@U?$pair@$$CBIPAVIClientSession@@@std@@PAX@std@@@std@@QAEXPAU?$pair@$$CBIPAVIClientSession@@@1@AAU?$pair@IPAVIClientSession@@@1@@Z 1000c2a1 f   ClientSession.obj
 0001:0000b2a1       __ehhandler$??$construct@U?$pair@$$CBV?$basic_string@DU?$char_traits@D@std@@V?$allocator@D@2@@std@@V?$list@IV?$allocator@I@std@@@2@@std@@AAU?$pair@V?$basic_string@DU?$char_traits@D@std@@V?$allocator@D@2@@std@@V?$list@IV?$allocator@I@std@@@2@@2@@?$allocator@U?$_Tree_node@U?$pair@$$CBV?$basic_string@DU?$char_traits@D@std@@V?$allocator@D@2@@std@@V?$list@IV?$allocator@I@std@@@2@@std@@PAX@std@@@std@@QAEXPAU?$pair@$$CBV?$basic_string@DU?$char_traits@D@std@@V?$allocator@D@2@@std@@V?$list@IV?$allocator@I@std@@@2@@1@AAU?$pair@V?$basic_string@DU?$char_traits@D@std@@V?$allocator@D@2@@std@@V?$list@IV?$allocator@I@std@@@2@@1@@Z 1000c2a1 f   ClientSession.obj
 0001:0000b2c0       __unwindfunclet$??$construct@U?$pair@$$CBIPAVIClientSession@@@std@@ABUpiecewise_construct_t@2@V?$tuple@ABI@2@V?$tuple@$$V@2@@?$allocator@U?$_Tree_node@U?$pair@$$CBIPAVIClientSession@@@std@@PAX@std@@@std@@QAEXPAU?$pair@$$CBIPAVIClientSession@@@1@ABUpiecewise_construct_t@1@$$QAV?$tuple@ABI@1@$$QAV?$tuple@$$V@1@@Z$0 1000c2c0 f   ClientSession.obj
 0001:0000b2d1       __ehhandler$??$construct@U?$pair@$$CBIPAVIClientSession@@@std@@ABUpiecewise_construct_t@2@V?$tuple@ABI@2@V?$tuple@$$V@2@@?$allocator@U?$_Tree_node@U?$pair@$$CBIPAVIClientSession@@@std@@PAX@std@@@std@@QAEXPAU?$pair@$$CBIPAVIClientSession@@@1@ABUpiecewise_construct_t@1@$$QAV?$tuple@ABI@1@$$QAV?$tuple@$$V@1@@Z 1000c2d1 f   ClientSession.obj
 0001:0000b2f0       __unwindfunclet$??0ServerProtocol@@QAE@XZ$0 1000c2f0 f   ServerProtocolImpl.obj
 0001:0000b2f8       __unwindfunclet$??0ServerProtocol@@QAE@XZ$1 1000c2f8 f   ServerProtocolImpl.obj
 0001:0000b307       __ehhandler$??0ServerProtocol@@QAE@XZ 1000c307 f   ServerProtocolImpl.obj
 0001:0000b330       __unwindfunclet$?CreateServerProtocol@@YGPAVIServerProtocol@@XZ$0 1000c330 f   ServerProtocolImpl.obj
 0001:0000b33f       __ehhandler$?CreateServerProtocol@@YGPAVIServerProtocol@@XZ 1000c33f f   ServerProtocolImpl.obj
 0001:0000b360       ??__F_AtlBaseModule@ATL@@YAXXZ 1000c360 f   atls:atlbase.obj
 0002:00000120       ?_AtlBaseModule$initializer$@ATL@@3P6AXXZA 1000d120     atls:atlbase.obj
 0002:0000012c       ?__scrt_initialize_tss_var@@3P6AHXZA 1000d12c     MSVCRT:thread_safe_statics.obj
 0002:00000260       _GS_ExceptionPointers      1000d260     MSVCRT:gs_report.obj
 0002:000002c8       $SG4294967283              1000d2c8     ClientProtocolImpl.obj
 0002:000002d8       $SG4294967282              1000d2d8     ClientProtocolImpl.obj
 0002:000002e4       $SG4294967281              1000d2e4     ClientProtocolImpl.obj
 0002:000002ef       ?piecewise_construct@std@@3Upiecewise_construct_t@1@B 1000d2ef     ClientSession.obj
 0002:000002f0       $SG4294967280              1000d2f0     ClientProtocolImpl.obj
 0002:00000304       $SG4294967279              1000d304     ClientProtocolImpl.obj
 0002:00000318       $SG4294967278              1000d318     ClientProtocolImpl.obj
 0002:0000032c       $SG4294967277              1000d32c     ClientProtocolImpl.obj
 0002:00000340       $SG4294967276              1000d340     ClientProtocolImpl.obj
 0002:00000350       $SG4294967275              1000d350     ClientProtocolImpl.obj
 0002:00000364       $SG4294967274              1000d364     ClientProtocolImpl.obj
 0002:00000378       $SG4294967273              1000d378     ClientProtocolImpl.obj
 0002:00000388       $SG4294967272              1000d388     ClientProtocolImpl.obj
 0002:00000398       $SG4294967271              1000d398     ClientProtocolImpl.obj
 0002:000003ac       $SG4294967270              1000d3ac     ClientProtocolImpl.obj
 0002:000003c0       $SG4294967269              1000d3c0     ClientProtocolImpl.obj
 0002:000003d0       $SG4294967268              1000d3d0     ClientProtocolImpl.obj
 0002:000003e0       $SG4294967267              1000d3e0     ClientProtocolImpl.obj
 0002:000003f0       $SG4294967266              1000d3f0     ClientProtocolImpl.obj
 0002:00000400       $SG4294967265              1000d400     ClientProtocolImpl.obj
 0002:0000040c       $SG4294967264              1000d40c     ClientProtocolImpl.obj
 0002:0000041c       $SG4294967263              1000d41c     ClientProtocolImpl.obj
 0002:00000430       $SG4294967262              1000d430     ClientProtocolImpl.obj
 0002:00000440       $SG4294967261              1000d440     ClientProtocolImpl.obj
 0002:00000450       $SG4294967216              1000d450     ClientProtocolImpl.obj
 0002:00000454       $SG4294967215              1000d454     ClientProtocolImpl.obj
 0002:00000458       $SG4294967214              1000d458     ClientProtocolImpl.obj
 0002:0000045c       $SG4294967213              1000d45c     ClientProtocolImpl.obj
 0002:00000460       $SG4294967212              1000d460     ClientProtocolImpl.obj
 0002:00000464       $SG4294967211              1000d464     ClientProtocolImpl.obj
 0002:00000470       $SG4294967210              1000d470     ClientProtocolImpl.obj
 0002:0000047c       $SG4294967209              1000d47c     ClientProtocolImpl.obj
 0002:00000484       $SG4294967208              1000d484     ClientProtocolImpl.obj
 0002:0000048c       $SG4294967207              1000d48c     ClientProtocolImpl.obj
 0002:00000494       $SG4294967206              1000d494     ClientProtocolImpl.obj
 0002:000004ac       $SG4294967205              1000d4ac     ClientProtocolImpl.obj
 0002:000004b8       $SG4294967204              1000d4b8     ClientProtocolImpl.obj
 0002:000004c4       $SG4294967203              1000d4c4     ClientProtocolImpl.obj
 0002:000004d0       $SG4294967202              1000d4d0     ClientProtocolImpl.obj
 0002:000004d8       $SG4294967201              1000d4d8     ClientProtocolImpl.obj
 0002:000004dc       $SG4294967200              1000d4dc     ClientProtocolImpl.obj
 0002:000004e8       $SG4294967199              1000d4e8     ClientProtocolImpl.obj
 0002:000004f0       $SG4294967198              1000d4f0     ClientProtocolImpl.obj
 0002:000004fc       $SG4294967197              1000d4fc     ClientProtocolImpl.obj
 0002:00000504       $SG4294967142              1000d504     ClientProtocolImpl.obj
 0002:00000518       $SG4294967141              1000d518     ClientProtocolImpl.obj
 0002:00000530       $SG4294967048              1000d530     ClientProtocolImpl.obj
 0002:00000544       $SG4294967047              1000d544     ClientProtocolImpl.obj
 0002:0000055c       $SG4294967046              1000d55c     ClientProtocolImpl.obj
 0002:00000564       $SG4294967045              1000d564     ClientProtocolImpl.obj
 0002:0000056c       $SG4294967044              1000d56c     ClientProtocolImpl.obj
 0002:00000574       $SG4294967043              1000d574     ClientProtocolImpl.obj
 0002:00000578       $SG4294967042              1000d578     ClientProtocolImpl.obj
 0002:0000057c       $SG4294967041              1000d57c     ClientProtocolImpl.obj
 0002:00000580       $SG4294960278              1000d580     ClientSession.obj
 0002:00000594       $SG4294960277              1000d594     ClientSession.obj
 0002:000005ac       $SG4294960276              1000d5ac     ClientSession.obj
 0002:000005b4       $SG4294960275              1000d5b4     ClientSession.obj
 0002:000005bc       $SG4294960274              1000d5bc     ClientSession.obj
 0002:000005c4       $SG4294960273              1000d5c4     ClientSession.obj
 0002:000005c8       $SG4294960272              1000d5c8     ClientSession.obj
 0002:000005cc       $SG4294960271              1000d5cc     ClientSession.obj
 0002:000005d0       $SG4294960270              1000d5d0     ClientSession.obj
 0002:000005e0       $SG4294960269              1000d5e0     ClientSession.obj
 0002:000005ec       $SG4294960268              1000d5ec     ClientSession.obj
 0002:000005f8       $SG4294960267              1000d5f8     ClientSession.obj
 0002:0000060c       $SG4294960266              1000d60c     ClientSession.obj
 0002:00000620       $SG4294960265              1000d620     ClientSession.obj
 0002:00000634       $SG4294960264              1000d634     ClientSession.obj
 0002:00000648       $SG4294960263              1000d648     ClientSession.obj
 0002:00000658       $SG4294960262              1000d658     ClientSession.obj
 0002:0000066c       $SG4294960261              1000d66c     ClientSession.obj
 0002:00000680       $SG4294960260              1000d680     ClientSession.obj
 0002:00000690       $SG4294960259              1000d690     ClientSession.obj
 0002:000006a0       $SG4294960258              1000d6a0     ClientSession.obj
 0002:000006b4       $SG4294960257              1000d6b4     ClientSession.obj
 0002:000006c8       $SG4294960256              1000d6c8     ClientSession.obj
 0002:000006d8       $SG4294960255              1000d6d8     ClientSession.obj
 0002:000006e8       $SG4294960254              1000d6e8     ClientSession.obj
 0002:000006f8       $SG4294960253              1000d6f8     ClientSession.obj
 0002:00000708       $SG4294960252              1000d708     ClientSession.obj
 0002:00000714       $SG4294960251              1000d714     ClientSession.obj
 0002:00000724       $SG4294960250              1000d724     ClientSession.obj
 0002:00000738       $SG4294960249              1000d738     ClientSession.obj
 0002:00000748       $SG4294960248              1000d748     ClientSession.obj
 0002:00000758       $SG4294960203              1000d758     ClientSession.obj
 0002:0000075c       $SG4294960202              1000d75c     ClientSession.obj
 0002:00000760       $SG4294960201              1000d760     ClientSession.obj
 0002:00000764       $SG4294960200              1000d764     ClientSession.obj
 0002:00000768       $SG4294960199              1000d768     ClientSession.obj
 0002:0000076c       $SG4294960198              1000d76c     ClientSession.obj
 0002:00000778       $SG4294960197              1000d778     ClientSession.obj
 0002:00000784       $SG4294960196              1000d784     ClientSession.obj
 0002:0000078c       $SG4294960195              1000d78c     ClientSession.obj
 0002:00000794       $SG4294960194              1000d794     ClientSession.obj
 0002:0000079c       $SG4294960193              1000d79c     ClientSession.obj
 0002:000007b4       $SG4294960192              1000d7b4     ClientSession.obj
 0002:000007c0       $SG4294960191              1000d7c0     ClientSession.obj
 0002:000007cc       $SG4294960190              1000d7cc     ClientSession.obj
 0002:000007d8       $SG4294960189              1000d7d8     ClientSession.obj
 0002:000007e0       $SG4294960188              1000d7e0     ClientSession.obj
 0002:000007e4       $SG4294960187              1000d7e4     ClientSession.obj
 0002:000007f0       $SG4294960186              1000d7f0     ClientSession.obj
 0002:000007f8       $SG4294960185              1000d7f8     ClientSession.obj
 0002:00000804       $SG4294960184              1000d804     ClientSession.obj
 0002:0000080c       $SG4294960131              1000d80c     ClientSession.obj
 0002:00000820       $SG4294960130              1000d820     ClientSession.obj
 0002:00000838       $SG4294952587              1000d838     ServerProtocolImpl.obj
 0002:0000084c       $SG4294952586              1000d84c     ServerProtocolImpl.obj
 0002:00000864       $SG4294952585              1000d864     ServerProtocolImpl.obj
 0002:0000086c       $SG4294952584              1000d86c     ServerProtocolImpl.obj
 0002:00000874       $SG4294952583              1000d874     ServerProtocolImpl.obj
 0002:0000087c       $SG4294952582              1000d87c     ServerProtocolImpl.obj
 0002:00000880       $SG4294952581              1000d880     ServerProtocolImpl.obj
 0002:00000884       $SG4294952580              1000d884     ServerProtocolImpl.obj
 0002:00000888       $SG4294952579              1000d888     ServerProtocolImpl.obj
 0002:00000898       $SG4294952578              1000d898     ServerProtocolImpl.obj
 0002:000008a4       $SG4294952577              1000d8a4     ServerProtocolImpl.obj
 0002:000008b0       $SG4294952576              1000d8b0     ServerProtocolImpl.obj
 0002:000008c4       $SG4294952575              1000d8c4     ServerProtocolImpl.obj
 0002:000008d8       $SG4294952574              1000d8d8     ServerProtocolImpl.obj
 0002:000008ec       $SG4294952573              1000d8ec     ServerProtocolImpl.obj
 0002:00000900       $SG4294952572              1000d900     ServerProtocolImpl.obj
 0002:00000910       $SG4294952571              1000d910     ServerProtocolImpl.obj
 0002:00000924       $SG4294952570              1000d924     ServerProtocolImpl.obj
 0002:00000938       $SG4294952569              1000d938     ServerProtocolImpl.obj
 0002:00000948       $SG4294952568              1000d948     ServerProtocolImpl.obj
 0002:00000958       $SG4294952567              1000d958     ServerProtocolImpl.obj
 0002:0000096c       $SG4294952566              1000d96c     ServerProtocolImpl.obj
 0002:00000980       $SG4294952565              1000d980     ServerProtocolImpl.obj
 0002:00000990       $SG4294952564              1000d990     ServerProtocolImpl.obj
 0002:000009a0       $SG4294952563              1000d9a0     ServerProtocolImpl.obj
 0002:000009b0       $SG4294952562              1000d9b0     ServerProtocolImpl.obj
 0002:000009c0       $SG4294952561              1000d9c0     ServerProtocolImpl.obj
 0002:000009cc       $SG4294952560              1000d9cc     ServerProtocolImpl.obj
 0002:000009dc       $SG4294952559              1000d9dc     ServerProtocolImpl.obj
 0002:000009f0       $SG4294952558              1000d9f0     ServerProtocolImpl.obj
 0002:00000a00       $SG4294952557              1000da00     ServerProtocolImpl.obj
 0002:00000a10       $SG4294952512              1000da10     ServerProtocolImpl.obj
 0002:00000a14       $SG4294952511              1000da14     ServerProtocolImpl.obj
 0002:00000a18       $SG4294952510              1000da18     ServerProtocolImpl.obj
 0002:00000a1c       $SG4294952509              1000da1c     ServerProtocolImpl.obj
 0002:00000a20       $SG4294952508              1000da20     ServerProtocolImpl.obj
 0002:00000a24       $SG4294952507              1000da24     ServerProtocolImpl.obj
 0002:00000a30       $SG4294952506              1000da30     ServerProtocolImpl.obj
 0002:00000a3c       $SG4294952505              1000da3c     ServerProtocolImpl.obj
 0002:00000a44       $SG4294952504              1000da44     ServerProtocolImpl.obj
 0002:00000a4c       $SG4294952503              1000da4c     ServerProtocolImpl.obj
 0002:00000a54       $SG4294952502              1000da54     ServerProtocolImpl.obj
 0002:00000a6c       $SG4294952501              1000da6c     ServerProtocolImpl.obj
 0002:00000a78       $SG4294952500              1000da78     ServerProtocolImpl.obj
 0002:00000a84       $SG4294952499              1000da84     ServerProtocolImpl.obj
 0002:00000a90       $SG4294952498              1000da90     ServerProtocolImpl.obj
 0002:00000a98       $SG4294952497              1000da98     ServerProtocolImpl.obj
 0002:00000a9c       $SG4294952496              1000da9c     ServerProtocolImpl.obj
 0002:00000aa8       $SG4294952495              1000daa8     ServerProtocolImpl.obj
 0002:00000ab0       $SG4294952494              1000dab0     ServerProtocolImpl.obj
 0002:00000abc       $SG4294952493              1000dabc     ServerProtocolImpl.obj
 0002:00000ac4       $SG4294952440              1000dac4     ServerProtocolImpl.obj
 0002:00000ad8       $SG4294952439              1000dad8     ServerProtocolImpl.obj
 0002:00001648       __ehfuncinfo$??0ClientProtocol@@QAE@XZ 1000e648     ClientProtocolImpl.obj
 0002:0000166c       __unwindtable$??0ClientProtocol@@QAE@XZ 1000e66c     ClientProtocolImpl.obj
 0002:00001674       __ehfuncinfo$?end@?$list@IV?$allocator@I@std@@@std@@QAE?AV?$_List_iterator@V?$_List_val@U?$_List_simple_types@I@std@@@std@@@2@XZ 1000e674     ClientSession.obj
 0002:00001674       __ehfuncinfo$??1?$_Tree_comp_alloc@V?$_Tmap_traits@IPAVIClientSession@@U?$less@I@std@@V?$allocator@U?$pair@$$CBIPAVIClientSession@@@std@@@3@$0A@@std@@@std@@QAE@XZ 1000e674     ClientSession.obj
 0002:00001674       __ehfuncinfo$??1?$_Tree_comp_alloc@V?$_Tmap_traits@V?$basic_string@DU?$char_traits@D@std@@V?$allocator@D@2@@std@@V?$list@IV?$allocator@I@std@@@2@U?$less@V?$basic_string@DU?$char_traits@D@std@@V?$allocator@D@2@@std@@@2@V?$allocator@U?$pair@$$CBV?$basic_string@DU?$char_traits@D@std@@V?$allocator@D@2@@std@@V?$list@IV?$allocator@I@std@@@2@@std@@@2@$0A@@std@@@std@@QAE@XZ 1000e674     ClientSession.obj
 0002:00001674       __ehfuncinfo$??1?$_List_alloc@U?$_List_base_types@IV?$allocator@I@std@@@std@@@std@@QAE@XZ 1000e674     ClientSession.obj
 0002:00001674       __ehfuncinfo$?begin@?$list@IV?$allocator@I@std@@@std@@QAE?AV?$_List_iterator@V?$_List_val@U?$_List_simple_types@I@std@@@std@@@2@XZ 1000e674     ClientSession.obj
 0002:00001674       __ehfuncinfo$??1?$_List_alloc@U?$_List_base_types@PAVIAccount@@V?$allocator@PAVIAccount@@@std@@@std@@@std@@QAE@XZ 1000e674     ClientSession.obj
 0002:00001674       __ehfuncinfo$?_Make_iter@?$list@PAVIAccount@@V?$allocator@PAVIAccount@@@std@@@std@@QBE?AV?$_List_iterator@V?$_List_val@U?$_List_simple_types@PAVIAccount@@@std@@@std@@@2@V?$_List_const_iterator@V?$_List_val@U?$_List_simple_types@PAVIAccount@@@std@@@std@@@2@@Z 1000e674     ClientSession.obj
 0002:00001674       __ehfuncinfo$?c_str@?$basic_string@DU?$char_traits@D@std@@V?$allocator@D@2@@std@@QBEPBDXZ 1000e674     ClientSession.obj
 0002:00001674       __ehfuncinfo$?compare@?$basic_string@DU?$char_traits@D@std@@V?$allocator@D@2@@std@@QBEHABV12@@Z 1000e674     ClientSession.obj
 0002:00001674       __ehfuncinfo$??1?$list@PAVIAccount@@V?$allocator@PAVIAccount@@@std@@@std@@QAE@XZ 1000e674     ClientSession.obj
 0002:00001674       __ehfuncinfo$??1?$list@IV?$allocator@I@std@@@std@@QAE@XZ 1000e674     ClientSession.obj
 0002:00001674       __ehfuncinfo$??1?$_Tree@V?$_Tmap_traits@IPAVIClientSession@@U?$less@I@std@@V?$allocator@U?$pair@$$CBIPAVIClientSession@@@std@@@3@$0A@@std@@@std@@QAE@XZ 1000e674     ClientSession.obj
 0002:00001674       __ehfuncinfo$?begin@?$_Tree@V?$_Tmap_traits@IPAVIClientSession@@U?$less@I@std@@V?$allocator@U?$pair@$$CBIPAVIClientSession@@@std@@@3@$0A@@std@@@std@@QAE?AV?$_Tree_iterator@V?$_Tree_val@U?$_Tree_simple_types@U?$pair@$$CBIPAVIClientSession@@@std@@@std@@@std@@@2@XZ 1000e674     ClientSession.obj
 0002:00001674       __ehfuncinfo$?end@?$_Tree@V?$_Tmap_traits@IPAVIClientSession@@U?$less@I@std@@V?$allocator@U?$pair@$$CBIPAVIClientSession@@@std@@@3@$0A@@std@@@std@@QAE?AV?$_Tree_iterator@V?$_Tree_val@U?$_Tree_simple_types@U?$pair@$$CBIPAVIClientSession@@@std@@@std@@@std@@@2@XZ 1000e674     ClientSession.obj
 0002:00001674       __ehfuncinfo$?clear@?$_Tree@V?$_Tmap_traits@IPAVIClientSession@@U?$less@I@std@@V?$allocator@U?$pair@$$CBIPAVIClientSession@@@std@@@3@$0A@@std@@@std@@QAEXXZ 1000e674     ClientSession.obj
 0002:00001674       __ehfuncinfo$??1?$_Tree@V?$_Tmap_traits@V?$basic_string@DU?$char_traits@D@std@@V?$allocator@D@2@@std@@V?$list@IV?$allocator@I@std@@@2@U?$less@V?$basic_string@DU?$char_traits@D@std@@V?$allocator@D@2@@std@@@2@V?$allocator@U?$pair@$$CBV?$basic_string@DU?$char_traits@D@std@@V?$allocator@D@2@@std@@V?$list@IV?$allocator@I@std@@@2@@std@@@2@$0A@@std@@@std@@QAE@XZ 1000e674     ClientSession.obj
 0002:00001674       __ehfuncinfo$?end@?$_Tree@V?$_Tmap_traits@V?$basic_string@DU?$char_traits@D@std@@V?$allocator@D@2@@std@@V?$list@IV?$allocator@I@std@@@2@U?$less@V?$basic_string@DU?$char_traits@D@std@@V?$allocator@D@2@@std@@@2@V?$allocator@U?$pair@$$CBV?$basic_string@DU?$char_traits@D@std@@V?$allocator@D@2@@std@@V?$list@IV?$allocator@I@std@@@2@@std@@@2@$0A@@std@@@std@@QAE?AV?$_Tree_iterator@V?$_Tree_val@U?$_Tree_simple_types@U?$pair@$$CBV?$basic_string@DU?$char_traits@D@std@@V?$allocator@D@2@@std@@V?$list@IV?$allocator@I@std@@@2@@std@@@std@@@std@@@2@XZ 1000e674     ClientSession.obj
 0002:00001674       __ehfuncinfo$?begin@?$_Tree@V?$_Tmap_traits@V?$basic_string@DU?$char_traits@D@std@@V?$allocator@D@2@@std@@V?$list@IV?$allocator@I@std@@@2@U?$less@V?$basic_string@DU?$char_traits@D@std@@V?$allocator@D@2@@std@@@2@V?$allocator@U?$pair@$$CBV?$basic_string@DU?$char_traits@D@std@@V?$allocator@D@2@@std@@V?$list@IV?$allocator@I@std@@@2@@std@@@2@$0A@@std@@@std@@QAE?AV?$_Tree_iterator@V?$_Tree_val@U?$_Tree_simple_types@U?$pair@$$CBV?$basic_string@DU?$char_traits@D@std@@V?$allocator@D@2@@std@@V?$list@IV?$allocator@I@std@@@2@@std@@@std@@@std@@@2@XZ 1000e674     ClientSession.obj
 0002:00001674       __ehfuncinfo$?clear@?$list@IV?$allocator@I@std@@@std@@QAEXXZ 1000e674     ClientSession.obj
 0002:00001674       __ehfuncinfo$?_Make_iter@?$list@IV?$allocator@I@std@@@std@@QBE?AV?$_List_iterator@V?$_List_val@U?$_List_simple_types@I@std@@@std@@@2@V?$_List_const_iterator@V?$_List_val@U?$_List_simple_types@I@std@@@std@@@2@@Z 1000e674     ClientSession.obj
 0002:00001674       __ehfuncinfo$?clear@?$list@PAVIAccount@@V?$allocator@PAVIAccount@@@std@@@std@@QAEXXZ 1000e674     ClientSession.obj
 0002:00001674       __ehfuncinfo$?clear@?$_Tree@V?$_Tmap_traits@V?$basic_string@DU?$char_traits@D@std@@V?$allocator@D@2@@std@@V?$list@IV?$allocator@I@std@@@2@U?$less@V?$basic_string@DU?$char_traits@D@std@@V?$allocator@D@2@@std@@@2@V?$allocator@U?$pair@$$CBV?$basic_string@DU?$char_traits@D@std@@V?$allocator@D@2@@std@@V?$list@IV?$allocator@I@std@@@2@@std@@@2@$0A@@std@@@std@@QAEXXZ 1000e674     ClientSession.obj
 0002:00001674       __ehfuncinfo$??1ServerProtocol@@UAE@XZ 1000e674     ServerProtocolImpl.obj
 0002:00001674       __ehfuncinfo$??$forward_as_tuple@ABI@std@@YA?AV?$tuple@ABI@0@ABI@Z 1000e674     ClientSession.obj
 0002:00001674       __ehfuncinfo$?begin@?$list@IV?$allocator@I@std@@@std@@QBE?AV?$_List_const_iterator@V?$_List_val@U?$_List_simple_types@I@std@@@std@@@2@XZ 1000e674     ClientSession.obj
 0002:00001674       __ehfuncinfo$??1ClientSessionMgr@@UAE@XZ 1000e674     ClientSession.obj
 0002:00001674       __ehfuncinfo$??1?$basic_string@DU?$char_traits@D@std@@V?$allocator@D@2@@std@@QAE@XZ 1000e674     ClientProtocolImpl.obj
 0002:00001674       __ehfuncinfo$??1ClientProtocol@@UAE@XZ 1000e674     ClientProtocolImpl.obj
 0002:00001674       __ehfuncinfo$??0?$basic_string@DU?$char_traits@D@std@@V?$allocator@D@2@@std@@QAE@XZ 1000e674     ClientSession.obj
 0002:00001674       __ehfuncinfo$?end@?$list@IV?$allocator@I@std@@@std@@QBE?AV?$_List_const_iterator@V?$_List_val@U?$_List_simple_types@I@std@@@std@@@2@XZ 1000e674     ClientSession.obj
 0002:00001698       __ehfuncinfo$?Connect@ClientProtocol@@UAE_NPADGI@Z 1000e698     ClientProtocolImpl.obj
 0002:000016bc       __unwindtable$?Connect@ClientProtocol@@UAE_NPADGI@Z 1000e6bc     ClientProtocolImpl.obj
 0002:000016c4       __ehfuncinfo$?CreateClientProtocol@@YGPAVIClientProtocol@@XZ 1000e6c4     ClientProtocolImpl.obj
 0002:000016e8       __unwindtable$?CreateClientProtocol@@YGPAVIClientProtocol@@XZ 1000e6e8     ClientProtocolImpl.obj
 0002:000016f0       __ehfuncinfo$??0?$basic_string@DU?$char_traits@D@std@@V?$allocator@D@2@@std@@QAE@PBD@Z 1000e6f0     ClientProtocolImpl.obj
 0002:00001714       __unwindtable$??0?$basic_string@DU?$char_traits@D@std@@V?$allocator@D@2@@std@@QAE@PBD@Z 1000e714     ClientProtocolImpl.obj
 0002:0000171c       __ehfuncinfo$?_Copy@?$basic_string@DU?$char_traits@D@std@@V?$allocator@D@2@@std@@QAEXII@Z 1000e71c     ClientProtocolImpl.obj
 0002:00001740       __unwindtable$?_Copy@?$basic_string@DU?$char_traits@D@std@@V?$allocator@D@2@@std@@QAEXII@Z 1000e740     ClientProtocolImpl.obj
 0002:00001760       __tryblocktable$?_Copy@?$basic_string@DU?$char_traits@D@std@@V?$allocator@D@2@@std@@QAEXII@Z 1000e760     ClientProtocolImpl.obj
 0002:00001788       __catchsym$?_Copy@?$basic_string@DU?$char_traits@D@std@@V?$allocator@D@2@@std@@QAEXII@Z$4 1000e788     ClientProtocolImpl.obj
 0002:00001798       __catchsym$?_Copy@?$basic_string@DU?$char_traits@D@std@@V?$allocator@D@2@@std@@QAEXII@Z$5 1000e798     ClientProtocolImpl.obj
 0002:000017a8       __ehfuncinfo$??0ClientSession@@QAE@IPADG@Z 1000e7a8     ClientSession.obj
 0002:000017cc       __unwindtable$??0ClientSession@@QAE@IPADG@Z 1000e7cc     ClientSession.obj
 0002:000017dc       __ehfuncinfo$??0ClientSessionMgr@@QAE@PAVIServerProtocol@@@Z 1000e7dc     ClientSession.obj
 0002:00001800       __unwindtable$??0ClientSessionMgr@@QAE@PAVIServerProtocol@@@Z 1000e800     ClientSession.obj
 0002:00001810       __ehfuncinfo$?Add@ClientSessionMgr@@UAEXIPADG@Z 1000e810     ClientSession.obj
 0002:00001834       __unwindtable$?Add@ClientSessionMgr@@UAEXIPADG@Z 1000e834     ClientSession.obj
 0002:0000183c       __ehfuncinfo$?AddUserName@ClientSessionMgr@@UAEXIV?$basic_string@DU?$char_traits@D@std@@V?$allocator@D@2@@std@@@Z 1000e83c     ClientSession.obj
 0002:00001860       __unwindtable$?AddUserName@ClientSessionMgr@@UAEXIV?$basic_string@DU?$char_traits@D@std@@V?$allocator@D@2@@std@@@Z 1000e860     ClientSession.obj
 0002:00001878       __ehfuncinfo$?Remove@ClientSessionMgr@@UAEXI@Z 1000e878     ClientSession.obj
 0002:0000189c       __unwindtable$?Remove@ClientSessionMgr@@UAEXI@Z 1000e89c     ClientSession.obj
 0002:000018a4       __ehfuncinfo$?GetClientSessionList@ClientSessionMgr@@UAEPAV?$list@IV?$allocator@I@std@@@std@@V?$basic_string@DU?$char_traits@D@std@@V?$allocator@D@2@@3@@Z 1000e8a4     ClientSession.obj
 0002:000018c8       __unwindtable$?GetClientSessionList@ClientSessionMgr@@UAEPAV?$list@IV?$allocator@I@std@@@std@@V?$basic_string@DU?$char_traits@D@std@@V?$allocator@D@2@@3@@Z 1000e8c8     ClientSession.obj
 0002:000018d0       __ehfuncinfo$??0?$basic_string@DU?$char_traits@D@std@@V?$allocator@D@2@@std@@QAE@ABV01@@Z 1000e8d0     ClientSession.obj
 0002:000018f4       __unwindtable$??0?$basic_string@DU?$char_traits@D@std@@V?$allocator@D@2@@std@@QAE@ABV01@@Z 1000e8f4     ClientSession.obj
 0002:000018fc       __ehfuncinfo$?_Buynode0@?$_List_alloc@U?$_List_base_types@PAVIAccount@@V?$allocator@PAVIAccount@@@std@@@std@@@std@@QAEPAU?$_List_node@PAVIAccount@@PAX@2@PAU32@0@Z 1000e8fc     ClientSession.obj
 0002:000018fc       __ehfuncinfo$?_Buynode0@?$_List_alloc@U?$_List_base_types@IV?$allocator@I@std@@@std@@@std@@QAEPAU?$_List_node@IPAX@2@PAU32@0@Z 1000e8fc     ClientSession.obj
 0002:00001920       __unwindtable$?_Buynode0@?$_List_alloc@U?$_List_base_types@PAVIAccount@@V?$allocator@PAVIAccount@@@std@@@std@@@std@@QAEPAU?$_List_node@PAVIAccount@@PAX@2@PAU32@0@Z 1000e920     ClientSession.obj
 0002:00001920       __unwindtable$?_Buynode0@?$_List_alloc@U?$_List_base_types@IV?$allocator@I@std@@@std@@@std@@QAEPAU?$_List_node@IPAX@2@PAU32@0@Z 1000e920     ClientSession.obj
 0002:00001930       __tryblocktable$?_Buynode0@?$_List_alloc@U?$_List_base_types@PAVIAccount@@V?$allocator@PAVIAccount@@@std@@@std@@@std@@QAEPAU?$_List_node@PAVIAccount@@PAX@2@PAU32@0@Z 1000e930     ClientSession.obj
 0002:00001930       __tryblocktable$?_Buynode0@?$_List_alloc@U?$_List_base_types@IV?$allocator@I@std@@@std@@@std@@QAEPAU?$_List_node@IPAX@2@PAU32@0@Z 1000e930     ClientSession.obj
 0002:00001944       __catchsym$?_Buynode0@?$_List_alloc@U?$_List_base_types@IV?$allocator@I@std@@@std@@@std@@QAEPAU?$_List_node@IPAX@2@PAU32@0@Z$2 1000e944     ClientSession.obj
 0002:00001944       __catchsym$?_Buynode0@?$_List_alloc@U?$_List_base_types@PAVIAccount@@V?$allocator@PAVIAccount@@@std@@@std@@@std@@QAEPAU?$_List_node@PAVIAccount@@PAX@2@PAU32@0@Z$2 1000e944     ClientSession.obj
 0002:00001954       __ehfuncinfo$?_Buyheadnode@?$_Tree_comp_alloc@V?$_Tmap_traits@V?$basic_string@DU?$char_traits@D@std@@V?$allocator@D@2@@std@@V?$list@IV?$allocator@I@std@@@2@U?$less@V?$basic_string@DU?$char_traits@D@std@@V?$allocator@D@2@@std@@@2@V?$allocator@U?$pair@$$CBV?$basic_string@DU?$char_traits@D@std@@V?$allocator@D@2@@std@@V?$list@IV?$allocator@I@std@@@2@@std@@@2@$0A@@std@@@std@@QAEPAU?$_Tree_node@U?$pair@$$CBV?$basic_string@DU?$char_traits@D@std@@V?$allocator@D@2@@std@@V?$list@IV?$allocator@I@std@@@2@@std@@PAX@2@XZ 1000e954     ClientSession.obj
 0002:00001978       __unwindtable$?_Buyheadnode@?$_Tree_comp_alloc@V?$_Tmap_traits@V?$basic_string@DU?$char_traits@D@std@@V?$allocator@D@2@@std@@V?$list@IV?$allocator@I@std@@@2@U?$less@V?$basic_string@DU?$char_traits@D@std@@V?$allocator@D@2@@std@@@2@V?$allocator@U?$pair@$$CBV?$basic_string@DU?$char_traits@D@std@@V?$allocator@D@2@@std@@V?$list@IV?$allocator@I@std@@@2@@std@@@2@$0A@@std@@@std@@QAEPAU?$_Tree_node@U?$pair@$$CBV?$basic_string@DU?$char_traits@D@std@@V?$allocator@D@2@@std@@V?$list@IV?$allocator@I@std@@@2@@std@@PAX@2@XZ 1000e978     ClientSession.obj
 0002:00001988       __tryblocktable$?_Buyheadnode@?$_Tree_comp_alloc@V?$_Tmap_traits@V?$basic_string@DU?$char_traits@D@std@@V?$allocator@D@2@@std@@V?$list@IV?$allocator@I@std@@@2@U?$less@V?$basic_string@DU?$char_traits@D@std@@V?$allocator@D@2@@std@@@2@V?$allocator@U?$pair@$$CBV?$basic_string@DU?$char_traits@D@std@@V?$allocator@D@2@@std@@V?$list@IV?$allocator@I@std@@@2@@std@@@2@$0A@@std@@@std@@QAEPAU?$_Tree_node@U?$pair@$$CBV?$basic_string@DU?$char_traits@D@std@@V?$allocator@D@2@@std@@V?$list@IV?$allocator@I@std@@@2@@std@@PAX@2@XZ 1000e988     ClientSession.obj
 0002:0000199c       __catchsym$?_Buyheadnode@?$_Tree_comp_alloc@V?$_Tmap_traits@V?$basic_string@DU?$char_traits@D@std@@V?$allocator@D@2@@std@@V?$list@IV?$allocator@I@std@@@2@U?$less@V?$basic_string@DU?$char_traits@D@std@@V?$allocator@D@2@@std@@@2@V?$allocator@U?$pair@$$CBV?$basic_string@DU?$char_traits@D@std@@V?$allocator@D@2@@std@@V?$list@IV?$allocator@I@std@@@2@@std@@@2@$0A@@std@@@std@@QAEPAU?$_Tree_node@U?$pair@$$CBV?$basic_string@DU?$char_traits@D@std@@V?$allocator@D@2@@std@@V?$list@IV?$allocator@I@std@@@2@@std@@PAX@2@XZ$2 1000e99c     ClientSession.obj
 0002:000019ac       __ehfuncinfo$?_Buyheadnode@?$_Tree_comp_alloc@V?$_Tmap_traits@IPAVIClientSession@@U?$less@I@std@@V?$allocator@U?$pair@$$CBIPAVIClientSession@@@std@@@3@$0A@@std@@@std@@QAEPAU?$_Tree_node@U?$pair@$$CBIPAVIClientSession@@@std@@PAX@2@XZ 1000e9ac     ClientSession.obj
 0002:000019d0       __unwindtable$?_Buyheadnode@?$_Tree_comp_alloc@V?$_Tmap_traits@IPAVIClientSession@@U?$less@I@std@@V?$allocator@U?$pair@$$CBIPAVIClientSession@@@std@@@3@$0A@@std@@@std@@QAEPAU?$_Tree_node@U?$pair@$$CBIPAVIClientSession@@@std@@PAX@2@XZ 1000e9d0     ClientSession.obj
 0002:000019e0       __tryblocktable$?_Buyheadnode@?$_Tree_comp_alloc@V?$_Tmap_traits@IPAVIClientSession@@U?$less@I@std@@V?$allocator@U?$pair@$$CBIPAVIClientSession@@@std@@@3@$0A@@std@@@std@@QAEPAU?$_Tree_node@U?$pair@$$CBIPAVIClientSession@@@std@@PAX@2@XZ 1000e9e0     ClientSession.obj
 0002:000019f4       __catchsym$?_Buyheadnode@?$_Tree_comp_alloc@V?$_Tmap_traits@IPAVIClientSession@@U?$less@I@std@@V?$allocator@U?$pair@$$CBIPAVIClientSession@@@std@@@3@$0A@@std@@@std@@QAEPAU?$_Tree_node@U?$pair@$$CBIPAVIClientSession@@@std@@PAX@2@XZ$2 1000e9f4     ClientSession.obj
 0002:00001a04       __ehfuncinfo$??$?0AAV?$basic_string@DU?$char_traits@D@std@@V?$allocator@D@2@@std@@AAV?$list@IV?$allocator@I@std@@@1@X$0A@@?$pair@V?$basic_string@DU?$char_traits@D@std@@V?$allocator@D@2@@std@@V?$list@IV?$allocator@I@std@@@2@@std@@QAE@AAV?$basic_string@DU?$char_traits@D@std@@V?$allocator@D@2@@1@AAV?$list@IV?$allocator@I@std@@@1@@Z 1000ea04     ClientSession.obj
 0002:00001a04       __ehfuncinfo$??$?0V?$basic_string@DU?$char_traits@D@std@@V?$allocator@D@2@@std@@V?$list@IV?$allocator@I@std@@@1@X$0A@@?$pair@$$CBV?$basic_string@DU?$char_traits@D@std@@V?$allocator@D@2@@std@@V?$list@IV?$allocator@I@std@@@2@@std@@QAE@ABU?$pair@V?$basic_string@DU?$char_traits@D@std@@V?$allocator@D@2@@std@@V?$list@IV?$allocator@I@std@@@2@@1@@Z 1000ea04     ClientSession.obj
 0002:00001a28       __unwindtable$??$?0AAV?$basic_string@DU?$char_traits@D@std@@V?$allocator@D@2@@std@@AAV?$list@IV?$allocator@I@std@@@1@X$0A@@?$pair@V?$basic_string@DU?$char_traits@D@std@@V?$allocator@D@2@@std@@V?$list@IV?$allocator@I@std@@@2@@std@@QAE@AAV?$basic_string@DU?$char_traits@D@std@@V?$allocator@D@2@@1@AAV?$list@IV?$allocator@I@std@@@1@@Z 1000ea28     ClientSession.obj
 0002:00001a28       __unwindtable$??$?0V?$basic_string@DU?$char_traits@D@std@@V?$allocator@D@2@@std@@V?$list@IV?$allocator@I@std@@@1@X$0A@@?$pair@$$CBV?$basic_string@DU?$char_traits@D@std@@V?$allocator@D@2@@std@@V?$list@IV?$allocator@I@std@@@2@@std@@QAE@ABU?$pair@V?$basic_string@DU?$char_traits@D@std@@V?$allocator@D@2@@std@@V?$list@IV?$allocator@I@std@@@2@@1@@Z 1000ea28     ClientSession.obj
 0002:00001a30       __ehfuncinfo$??0?$list@IV?$allocator@I@std@@@std@@QAE@ABV01@@Z 1000ea30     ClientSession.obj
 0002:00001a54       __unwindtable$??0?$list@IV?$allocator@I@std@@@std@@QAE@ABV01@@Z 1000ea54     ClientSession.obj
 0002:00001a6c       __tryblocktable$??0?$list@IV?$allocator@I@std@@@std@@QAE@ABV01@@Z 1000ea6c     ClientSession.obj
 0002:00001a80       __catchsym$??0?$list@IV?$allocator@I@std@@@std@@QAE@ABV01@@Z$3 1000ea80     ClientSession.obj
 0002:00001a90       __ehfuncinfo$??$_Buynode@ABQAVIAccount@@@?$_List_buy@PAVIAccount@@V?$allocator@PAVIAccount@@@std@@@std@@QAEPAU?$_List_node@PAVIAccount@@PAX@1@PAU21@0ABQAVIAccount@@@Z 1000ea90     ClientSession.obj
 0002:00001a90       __ehfuncinfo$??$_Buynode@ABI@?$_List_buy@IV?$allocator@I@std@@@std@@QAEPAU?$_List_node@IPAX@1@PAU21@0ABI@Z 1000ea90     ClientSession.obj
 0002:00001a90       __ehfuncinfo$??$_Buynode@I@?$_List_buy@IV?$allocator@I@std@@@std@@QAEPAU?$_List_node@IPAX@1@PAU21@0$$QAI@Z 1000ea90     ClientSession.obj
 0002:00001ab4       __unwindtable$??$_Buynode@ABQAVIAccount@@@?$_List_buy@PAVIAccount@@V?$allocator@PAVIAccount@@@std@@@std@@QAEPAU?$_List_node@PAVIAccount@@PAX@1@PAU21@0ABQAVIAccount@@@Z 1000eab4     ClientSession.obj
 0002:00001ab4       __unwindtable$??$_Buynode@ABI@?$_List_buy@IV?$allocator@I@std@@@std@@QAEPAU?$_List_node@IPAX@1@PAU21@0ABI@Z 1000eab4     ClientSession.obj
 0002:00001ab4       __unwindtable$??$_Buynode@I@?$_List_buy@IV?$allocator@I@std@@@std@@QAEPAU?$_List_node@IPAX@1@PAU21@0$$QAI@Z 1000eab4     ClientSession.obj
 0002:00001ac4       __tryblocktable$??$_Buynode@I@?$_List_buy@IV?$allocator@I@std@@@std@@QAEPAU?$_List_node@IPAX@1@PAU21@0$$QAI@Z 1000eac4     ClientSession.obj
 0002:00001ac4       __tryblocktable$??$_Buynode@ABI@?$_List_buy@IV?$allocator@I@std@@@std@@QAEPAU?$_List_node@IPAX@1@PAU21@0ABI@Z 1000eac4     ClientSession.obj
 0002:00001ac4       __tryblocktable$??$_Buynode@ABQAVIAccount@@@?$_List_buy@PAVIAccount@@V?$allocator@PAVIAccount@@@std@@@std@@QAEPAU?$_List_node@PAVIAccount@@PAX@1@PAU21@0ABQAVIAccount@@@Z 1000eac4     ClientSession.obj
 0002:00001ad8       __catchsym$??$_Buynode@I@?$_List_buy@IV?$allocator@I@std@@@std@@QAEPAU?$_List_node@IPAX@1@PAU21@0$$QAI@Z$2 1000ead8     ClientSession.obj
 0002:00001ad8       __catchsym$??$_Buynode@ABI@?$_List_buy@IV?$allocator@I@std@@@std@@QAEPAU?$_List_node@IPAX@1@PAU21@0ABI@Z$2 1000ead8     ClientSession.obj
 0002:00001ad8       __catchsym$??$_Buynode@ABQAVIAccount@@@?$_List_buy@PAVIAccount@@V?$allocator@PAVIAccount@@@std@@@std@@QAEPAU?$_List_node@PAVIAccount@@PAX@1@PAU21@0ABQAVIAccount@@@Z$2 1000ead8     ClientSession.obj
 0002:00001ae8       __ehfuncinfo$??$_Buynode@AAU?$pair@IPAVIClientSession@@@std@@@?$_Tree_comp_alloc@V?$_Tmap_traits@IPAVIClientSession@@U?$less@I@std@@V?$allocator@U?$pair@$$CBIPAVIClientSession@@@std@@@3@$0A@@std@@@std@@QAEPAU?$_Tree_node@U?$pair@$$CBIPAVIClientSession@@@std@@PAX@1@AAU?$pair@IPAVIClientSession@@@1@@Z 1000eae8     ClientSession.obj
 0002:00001b0c       __unwindtable$??$_Buynode@AAU?$pair@IPAVIClientSession@@@std@@@?$_Tree_comp_alloc@V?$_Tmap_traits@IPAVIClientSession@@U?$less@I@std@@V?$allocator@U?$pair@$$CBIPAVIClientSession@@@std@@@3@$0A@@std@@@std@@QAEPAU?$_Tree_node@U?$pair@$$CBIPAVIClientSession@@@std@@PAX@1@AAU?$pair@IPAVIClientSession@@@1@@Z 1000eb0c     ClientSession.obj
 0002:00001b1c       __tryblocktable$??$_Buynode@AAU?$pair@IPAVIClientSession@@@std@@@?$_Tree_comp_alloc@V?$_Tmap_traits@IPAVIClientSession@@U?$less@I@std@@V?$allocator@U?$pair@$$CBIPAVIClientSession@@@std@@@3@$0A@@std@@@std@@QAEPAU?$_Tree_node@U?$pair@$$CBIPAVIClientSession@@@std@@PAX@1@AAU?$pair@IPAVIClientSession@@@1@@Z 1000eb1c     ClientSession.obj
 0002:00001b30       __catchsym$??$_Buynode@AAU?$pair@IPAVIClientSession@@@std@@@?$_Tree_comp_alloc@V?$_Tmap_traits@IPAVIClientSession@@U?$less@I@std@@V?$allocator@U?$pair@$$CBIPAVIClientSession@@@std@@@3@$0A@@std@@@std@@QAEPAU?$_Tree_node@U?$pair@$$CBIPAVIClientSession@@@std@@PAX@1@AAU?$pair@IPAVIClientSession@@@1@@Z$2 1000eb30     ClientSession.obj
 0002:00001b40       __ehfuncinfo$??$_Insert_nohint@AAU?$pair@$$CBIPAVIClientSession@@@std@@PAU?$_Tree_node@U?$pair@$$CBIPAVIClientSession@@@std@@PAX@2@@?$_Tree@V?$_Tmap_traits@IPAVIClientSession@@U?$less@I@std@@V?$allocator@U?$pair@$$CBIPAVIClientSession@@@std@@@3@$0A@@std@@@std@@IAE?AU?$pair@V?$_Tree_iterator@V?$_Tree_val@U?$_Tree_simple_types@U?$pair@$$CBIPAVIClientSession@@@std@@@std@@@std@@@std@@_N@1@_NAAU?$pair@$$CBIPAVIClientSession@@@1@PAU?$_Tree_node@U?$pair@$$CBIPAVIClientSession@@@std@@PAX@1@@Z 1000eb40     ClientSession.obj
 0002:00001b64       __unwindtable$??$_Insert_nohint@AAU?$pair@$$CBIPAVIClientSession@@@std@@PAU?$_Tree_node@U?$pair@$$CBIPAVIClientSession@@@std@@PAX@2@@?$_Tree@V?$_Tmap_traits@IPAVIClientSession@@U?$less@I@std@@V?$allocator@U?$pair@$$CBIPAVIClientSession@@@std@@@3@$0A@@std@@@std@@IAE?AU?$pair@V?$_Tree_iterator@V?$_Tree_val@U?$_Tree_simple_types@U?$pair@$$CBIPAVIClientSession@@@std@@@std@@@std@@@std@@_N@1@_NAAU?$pair@$$CBIPAVIClientSession@@@1@PAU?$_Tree_node@U?$pair@$$CBIPAVIClientSession@@@std@@PAX@1@@Z 1000eb64     ClientSession.obj
 0002:00001b74       __tryblocktable$??$_Insert_nohint@AAU?$pair@$$CBIPAVIClientSession@@@std@@PAU?$_Tree_node@U?$pair@$$CBIPAVIClientSession@@@std@@PAX@2@@?$_Tree@V?$_Tmap_traits@IPAVIClientSession@@U?$less@I@std@@V?$allocator@U?$pair@$$CBIPAVIClientSession@@@std@@@3@$0A@@std@@@std@@IAE?AU?$pair@V?$_Tree_iterator@V?$_Tree_val@U?$_Tree_simple_types@U?$pair@$$CBIPAVIClientSession@@@std@@@std@@@std@@@std@@_N@1@_NAAU?$pair@$$CBIPAVIClientSession@@@1@PAU?$_Tree_node@U?$pair@$$CBIPAVIClientSession@@@std@@PAX@1@@Z 1000eb74     ClientSession.obj
 0002:00001b88       __catchsym$??$_Insert_nohint@AAU?$pair@$$CBIPAVIClientSession@@@std@@PAU?$_Tree_node@U?$pair@$$CBIPAVIClientSession@@@std@@PAX@2@@?$_Tree@V?$_Tmap_traits@IPAVIClientSession@@U?$less@I@std@@V?$allocator@U?$pair@$$CBIPAVIClientSession@@@std@@@3@$0A@@std@@@std@@IAE?AU?$pair@V?$_Tree_iterator@V?$_Tree_val@U?$_Tree_simple_types@U?$pair@$$CBIPAVIClientSession@@@std@@@std@@@std@@@std@@_N@1@_NAAU?$pair@$$CBIPAVIClientSession@@@1@PAU?$_Tree_node@U?$pair@$$CBIPAVIClientSession@@@std@@PAX@1@@Z$2 1000eb88     ClientSession.obj
 0002:00001b98       __ehfuncinfo$??$_Buynode@AAU?$pair@V?$basic_string@DU?$char_traits@D@std@@V?$allocator@D@2@@std@@V?$list@IV?$allocator@I@std@@@2@@std@@@?$_Tree_comp_alloc@V?$_Tmap_traits@V?$basic_string@DU?$char_traits@D@std@@V?$allocator@D@2@@std@@V?$list@IV?$allocator@I@std@@@2@U?$less@V?$basic_string@DU?$char_traits@D@std@@V?$allocator@D@2@@std@@@2@V?$allocator@U?$pair@$$CBV?$basic_string@DU?$char_traits@D@std@@V?$allocator@D@2@@std@@V?$list@IV?$allocator@I@std@@@2@@std@@@2@$0A@@std@@@std@@QAEPAU?$_Tree_node@U?$pair@$$CBV?$basic_string@DU?$char_traits@D@std@@V?$allocator@D@2@@std@@V?$list@IV?$allocator@I@std@@@2@@std@@PAX@1@AAU?$pair@V?$basic_string@DU?$char_traits@D@std@@V?$allocator@D@2@@std@@V?$list@IV?$allocator@I@std@@@2@@1@@Z 1000eb98     ClientSession.obj
 0002:00001bbc       __unwindtable$??$_Buynode@AAU?$pair@V?$basic_string@DU?$char_traits@D@std@@V?$allocator@D@2@@std@@V?$list@IV?$allocator@I@std@@@2@@std@@@?$_Tree_comp_alloc@V?$_Tmap_traits@V?$basic_string@DU?$char_traits@D@std@@V?$allocator@D@2@@std@@V?$list@IV?$allocator@I@std@@@2@U?$less@V?$basic_string@DU?$char_traits@D@std@@V?$allocator@D@2@@std@@@2@V?$allocator@U?$pair@$$CBV?$basic_string@DU?$char_traits@D@std@@V?$allocator@D@2@@std@@V?$list@IV?$allocator@I@std@@@2@@std@@@2@$0A@@std@@@std@@QAEPAU?$_Tree_node@U?$pair@$$CBV?$basic_string@DU?$char_traits@D@std@@V?$allocator@D@2@@std@@V?$list@IV?$allocator@I@std@@@2@@std@@PAX@1@AAU?$pair@V?$basic_string@DU?$char_traits@D@std@@V?$allocator@D@2@@std@@V?$list@IV?$allocator@I@std@@@2@@1@@Z 1000ebbc     ClientSession.obj
 0002:00001bcc       __tryblocktable$??$_Buynode@AAU?$pair@V?$basic_string@DU?$char_traits@D@std@@V?$allocator@D@2@@std@@V?$list@IV?$allocator@I@std@@@2@@std@@@?$_Tree_comp_alloc@V?$_Tmap_traits@V?$basic_string@DU?$char_traits@D@std@@V?$allocator@D@2@@std@@V?$list@IV?$allocator@I@std@@@2@U?$less@V?$basic_string@DU?$char_traits@D@std@@V?$allocator@D@2@@std@@@2@V?$allocator@U?$pair@$$CBV?$basic_string@DU?$char_traits@D@std@@V?$allocator@D@2@@std@@V?$list@IV?$allocator@I@std@@@2@@std@@@2@$0A@@std@@@std@@QAEPAU?$_Tree_node@U?$pair@$$CBV?$basic_string@DU?$char_traits@D@std@@V?$allocator@D@2@@std@@V?$list@IV?$allocator@I@std@@@2@@std@@PAX@1@AAU?$pair@V?$basic_string@DU?$char_traits@D@std@@V?$allocator@D@2@@std@@V?$list@IV?$allocator@I@std@@@2@@1@@Z 1000ebcc     ClientSession.obj
 0002:00001be0       __catchsym$??$_Buynode@AAU?$pair@V?$basic_string@DU?$char_traits@D@std@@V?$allocator@D@2@@std@@V?$list@IV?$allocator@I@std@@@2@@std@@@?$_Tree_comp_alloc@V?$_Tmap_traits@V?$basic_string@DU?$char_traits@D@std@@V?$allocator@D@2@@std@@V?$list@IV?$allocator@I@std@@@2@U?$less@V?$basic_string@DU?$char_traits@D@std@@V?$allocator@D@2@@std@@@2@V?$allocator@U?$pair@$$CBV?$basic_string@DU?$char_traits@D@std@@V?$allocator@D@2@@std@@V?$list@IV?$allocator@I@std@@@2@@std@@@2@$0A@@std@@@std@@QAEPAU?$_Tree_node@U?$pair@$$CBV?$basic_string@DU?$char_traits@D@std@@V?$allocator@D@2@@std@@V?$list@IV?$allocator@I@std@@@2@@std@@PAX@1@AAU?$pair@V?$basic_string@DU?$char_traits@D@std@@V?$allocator@D@2@@std@@V?$list@IV?$allocator@I@std@@@2@@1@@Z$2 1000ebe0     ClientSession.obj
 0002:00001bf0       __ehfuncinfo$??$_Insert_nohint@AAU?$pair@$$CBV?$basic_string@DU?$char_traits@D@std@@V?$allocator@D@2@@std@@V?$list@IV?$allocator@I@std@@@2@@std@@PAU?$_Tree_node@U?$pair@$$CBV?$basic_string@DU?$char_traits@D@std@@V?$allocator@D@2@@std@@V?$list@IV?$allocator@I@std@@@2@@std@@PAX@2@@?$_Tree@V?$_Tmap_traits@V?$basic_string@DU?$char_traits@D@std@@V?$allocator@D@2@@std@@V?$list@IV?$allocator@I@std@@@2@U?$less@V?$basic_string@DU?$char_traits@D@std@@V?$allocator@D@2@@std@@@2@V?$allocator@U?$pair@$$CBV?$basic_string@DU?$char_traits@D@std@@V?$allocator@D@2@@std@@V?$list@IV?$allocator@I@std@@@2@@std@@@2@$0A@@std@@@std@@IAE?AU?$pair@V?$_Tree_iterator@V?$_Tree_val@U?$_Tree_simple_types@U?$pair@$$CBV?$basic_string@DU?$char_traits@D@std@@V?$allocator@D@2@@std@@V?$list@IV?$allocator@I@std@@@2@@std@@@std@@@std@@@std@@_N@1@_NAAU?$pair@$$CBV?$basic_string@DU?$char_traits@D@std@@V?$allocator@D@2@@std@@V?$list@IV?$allocator@I@std@@@2@@1@PAU?$_Tree_node@U?$pair@$$CBV?$basic_string@DU?$char_traits@D@std@@V?$allocator@D@2@@std@@V?$list@IV?$allocator@I@std@@@2@@std@@PAX@1@@Z 1000ebf0     ClientSession.obj
 0002:00001c14       __unwindtable$??$_Insert_nohint@AAU?$pair@$$CBV?$basic_string@DU?$char_traits@D@std@@V?$allocator@D@2@@std@@V?$list@IV?$allocator@I@std@@@2@@std@@PAU?$_Tree_node@U?$pair@$$CBV?$basic_string@DU?$char_traits@D@std@@V?$allocator@D@2@@std@@V?$list@IV?$allocator@I@std@@@2@@std@@PAX@2@@?$_Tree@V?$_Tmap_traits@V?$basic_string@DU?$char_traits@D@std@@V?$allocator@D@2@@std@@V?$list@IV?$allocator@I@std@@@2@U?$less@V?$basic_string@DU?$char_traits@D@std@@V?$allocator@D@2@@std@@@2@V?$allocator@U?$pair@$$CBV?$basic_string@DU?$char_traits@D@std@@V?$allocator@D@2@@std@@V?$list@IV?$allocator@I@std@@@2@@std@@@2@$0A@@std@@@std@@IAE?AU?$pair@V?$_Tree_iterator@V?$_Tree_val@U?$_Tree_simple_types@U?$pair@$$CBV?$basic_string@DU?$char_traits@D@std@@V?$allocator@D@2@@std@@V?$list@IV?$allocator@I@std@@@2@@std@@@std@@@std@@@std@@_N@1@_NAAU?$pair@$$CBV?$basic_string@DU?$char_traits@D@std@@V?$allocator@D@2@@std@@V?$list@IV?$allocator@I@std@@@2@@1@PAU?$_Tree_node@U?$pair@$$CBV?$basic_string@DU?$char_traits@D@std@@V?$allocator@D@2@@std@@V?$list@IV?$allocator@I@std@@@2@@std@@PAX@1@@Z 1000ec14     ClientSession.obj
 0002:00001c24       __tryblocktable$??$_Insert_nohint@AAU?$pair@$$CBV?$basic_string@DU?$char_traits@D@std@@V?$allocator@D@2@@std@@V?$list@IV?$allocator@I@std@@@2@@std@@PAU?$_Tree_node@U?$pair@$$CBV?$basic_string@DU?$char_traits@D@std@@V?$allocator@D@2@@std@@V?$list@IV?$allocator@I@std@@@2@@std@@PAX@2@@?$_Tree@V?$_Tmap_traits@V?$basic_string@DU?$char_traits@D@std@@V?$allocator@D@2@@std@@V?$list@IV?$allocator@I@std@@@2@U?$less@V?$basic_string@DU?$char_traits@D@std@@V?$allocator@D@2@@std@@@2@V?$allocator@U?$pair@$$CBV?$basic_string@DU?$char_traits@D@std@@V?$allocator@D@2@@std@@V?$list@IV?$allocator@I@std@@@2@@std@@@2@$0A@@std@@@std@@IAE?AU?$pair@V?$_Tree_iterator@V?$_Tree_val@U?$_Tree_simple_types@U?$pair@$$CBV?$basic_string@DU?$char_traits@D@std@@V?$allocator@D@2@@std@@V?$list@IV?$allocator@I@std@@@2@@std@@@std@@@std@@@std@@_N@1@_NAAU?$pair@$$CBV?$basic_string@DU?$char_traits@D@std@@V?$allocator@D@2@@std@@V?$list@IV?$allocator@I@std@@@2@@1@PAU?$_Tree_node@U?$pair@$$CBV?$basic_string@DU?$char_traits@D@std@@V?$allocator@D@2@@std@@V?$list@IV?$allocator@I@std@@@2@@std@@PAX@1@@Z 1000ec24     ClientSession.obj
 0002:00001c38       __catchsym$??$_Insert_nohint@AAU?$pair@$$CBV?$basic_string@DU?$char_traits@D@std@@V?$allocator@D@2@@std@@V?$list@IV?$allocator@I@std@@@2@@std@@PAU?$_Tree_node@U?$pair@$$CBV?$basic_string@DU?$char_traits@D@std@@V?$allocator@D@2@@std@@V?$list@IV?$allocator@I@std@@@2@@std@@PAX@2@@?$_Tree@V?$_Tmap_traits@V?$basic_string@DU?$char_traits@D@std@@V?$allocator@D@2@@std@@V?$list@IV?$allocator@I@std@@@2@U?$less@V?$basic_string@DU?$char_traits@D@std@@V?$allocator@D@2@@std@@@2@V?$allocator@U?$pair@$$CBV?$basic_string@DU?$char_traits@D@std@@V?$allocator@D@2@@std@@V?$list@IV?$allocator@I@std@@@2@@std@@@2@$0A@@std@@@std@@IAE?AU?$pair@V?$_Tree_iterator@V?$_Tree_val@U?$_Tree_simple_types@U?$pair@$$CBV?$basic_string@DU?$char_traits@D@std@@V?$allocator@D@2@@std@@V?$list@IV?$allocator@I@std@@@2@@std@@@std@@@std@@@std@@_N@1@_NAAU?$pair@$$CBV?$basic_string@DU?$char_traits@D@std@@V?$allocator@D@2@@std@@V?$list@IV?$allocator@I@std@@@2@@1@PAU?$_Tree_node@U?$pair@$$CBV?$basic_string@DU?$char_traits@D@std@@V?$allocator@D@2@@std@@V?$list@IV?$allocator@I@std@@@2@@std@@PAX@1@@Z$2 1000ec38     ClientSession.obj
 0002:00001c48       __ehfuncinfo$??$_Insert_range@V?$_List_const_iterator@V?$_List_val@U?$_List_simple_types@I@std@@@std@@@std@@@?$list@IV?$allocator@I@std@@@std@@QAEXV?$_List_unchecked_const_iterator@V?$_List_val@U?$_List_simple_types@I@std@@@std@@U_Iterator_base0@2@@1@V?$_List_const_iterator@V?$_List_val@U?$_List_simple_types@I@std@@@std@@@1@1Uforward_iterator_tag@1@@Z 1000ec48     ClientSession.obj
 0002:00001c6c       __unwindtable$??$_Insert_range@V?$_List_const_iterator@V?$_List_val@U?$_List_simple_types@I@std@@@std@@@std@@@?$list@IV?$allocator@I@std@@@std@@QAEXV?$_List_unchecked_const_iterator@V?$_List_val@U?$_List_simple_types@I@std@@@std@@U_Iterator_base0@2@@1@V?$_List_const_iterator@V?$_List_val@U?$_List_simple_types@I@std@@@std@@@1@1Uforward_iterator_tag@1@@Z 1000ec6c     ClientSession.obj
 0002:00001c7c       __tryblocktable$??$_Insert_range@V?$_List_const_iterator@V?$_List_val@U?$_List_simple_types@I@std@@@std@@@std@@@?$list@IV?$allocator@I@std@@@std@@QAEXV?$_List_unchecked_const_iterator@V?$_List_val@U?$_List_simple_types@I@std@@@std@@U_Iterator_base0@2@@1@V?$_List_const_iterator@V?$_List_val@U?$_List_simple_types@I@std@@@std@@@1@1Uforward_iterator_tag@1@@Z 1000ec7c     ClientSession.obj
 0002:00001c90       __catchsym$??$_Insert_range@V?$_List_const_iterator@V?$_List_val@U?$_List_simple_types@I@std@@@std@@@std@@@?$list@IV?$allocator@I@std@@@std@@QAEXV?$_List_unchecked_const_iterator@V?$_List_val@U?$_List_simple_types@I@std@@@std@@U_Iterator_base0@2@@1@V?$_List_const_iterator@V?$_List_val@U?$_List_simple_types@I@std@@@std@@@1@1Uforward_iterator_tag@1@@Z$2 1000ec90     ClientSession.obj
 0002:00001ca0       __ehfuncinfo$?_Buynode0@?$_Tree_comp_alloc@V?$_Tmap_traits@V?$basic_string@DU?$char_traits@D@std@@V?$allocator@D@2@@std@@V?$list@IV?$allocator@I@std@@@2@U?$less@V?$basic_string@DU?$char_traits@D@std@@V?$allocator@D@2@@std@@@2@V?$allocator@U?$pair@$$CBV?$basic_string@DU?$char_traits@D@std@@V?$allocator@D@2@@std@@V?$list@IV?$allocator@I@std@@@2@@std@@@2@$0A@@std@@@std@@QAEPAU?$_Tree_node@U?$pair@$$CBV?$basic_string@DU?$char_traits@D@std@@V?$allocator@D@2@@std@@V?$list@IV?$allocator@I@std@@@2@@std@@PAX@2@XZ 1000eca0     ClientSession.obj
 0002:00001cc4       __unwindtable$?_Buynode0@?$_Tree_comp_alloc@V?$_Tmap_traits@V?$basic_string@DU?$char_traits@D@std@@V?$allocator@D@2@@std@@V?$list@IV?$allocator@I@std@@@2@U?$less@V?$basic_string@DU?$char_traits@D@std@@V?$allocator@D@2@@std@@@2@V?$allocator@U?$pair@$$CBV?$basic_string@DU?$char_traits@D@std@@V?$allocator@D@2@@std@@V?$list@IV?$allocator@I@std@@@2@@std@@@2@$0A@@std@@@std@@QAEPAU?$_Tree_node@U?$pair@$$CBV?$basic_string@DU?$char_traits@D@std@@V?$allocator@D@2@@std@@V?$list@IV?$allocator@I@std@@@2@@std@@PAX@2@XZ 1000ecc4     ClientSession.obj
 0002:00001cd4       __tryblocktable$?_Buynode0@?$_Tree_comp_alloc@V?$_Tmap_traits@V?$basic_string@DU?$char_traits@D@std@@V?$allocator@D@2@@std@@V?$list@IV?$allocator@I@std@@@2@U?$less@V?$basic_string@DU?$char_traits@D@std@@V?$allocator@D@2@@std@@@2@V?$allocator@U?$pair@$$CBV?$basic_string@DU?$char_traits@D@std@@V?$allocator@D@2@@std@@V?$list@IV?$allocator@I@std@@@2@@std@@@2@$0A@@std@@@std@@QAEPAU?$_Tree_node@U?$pair@$$CBV?$basic_string@DU?$char_traits@D@std@@V?$allocator@D@2@@std@@V?$list@IV?$allocator@I@std@@@2@@std@@PAX@2@XZ 1000ecd4     ClientSession.obj
 0002:00001ce8       __catchsym$?_Buynode0@?$_Tree_comp_alloc@V?$_Tmap_traits@V?$basic_string@DU?$char_traits@D@std@@V?$allocator@D@2@@std@@V?$list@IV?$allocator@I@std@@@2@U?$less@V?$basic_string@DU?$char_traits@D@std@@V?$allocator@D@2@@std@@@2@V?$allocator@U?$pair@$$CBV?$basic_string@DU?$char_traits@D@std@@V?$allocator@D@2@@std@@V?$list@IV?$allocator@I@std@@@2@@std@@@2@$0A@@std@@@std@@QAEPAU?$_Tree_node@U?$pair@$$CBV?$basic_string@DU?$char_traits@D@std@@V?$allocator@D@2@@std@@V?$list@IV?$allocator@I@std@@@2@@std@@PAX@2@XZ$2 1000ece8     ClientSession.obj
 0002:00001cf8       __ehfuncinfo$?_Buynode0@?$_Tree_comp_alloc@V?$_Tmap_traits@IPAVIClientSession@@U?$less@I@std@@V?$allocator@U?$pair@$$CBIPAVIClientSession@@@std@@@3@$0A@@std@@@std@@QAEPAU?$_Tree_node@U?$pair@$$CBIPAVIClientSession@@@std@@PAX@2@XZ 1000ecf8     ClientSession.obj
 0002:00001d1c       __unwindtable$?_Buynode0@?$_Tree_comp_alloc@V?$_Tmap_traits@IPAVIClientSession@@U?$less@I@std@@V?$allocator@U?$pair@$$CBIPAVIClientSession@@@std@@@3@$0A@@std@@@std@@QAEPAU?$_Tree_node@U?$pair@$$CBIPAVIClientSession@@@std@@PAX@2@XZ 1000ed1c     ClientSession.obj
 0002:00001d2c       __tryblocktable$?_Buynode0@?$_Tree_comp_alloc@V?$_Tmap_traits@IPAVIClientSession@@U?$less@I@std@@V?$allocator@U?$pair@$$CBIPAVIClientSession@@@std@@@3@$0A@@std@@@std@@QAEPAU?$_Tree_node@U?$pair@$$CBIPAVIClientSession@@@std@@PAX@2@XZ 1000ed2c     ClientSession.obj
 0002:00001d40       __catchsym$?_Buynode0@?$_Tree_comp_alloc@V?$_Tmap_traits@IPAVIClientSession@@U?$less@I@std@@V?$allocator@U?$pair@$$CBIPAVIClientSession@@@std@@@3@$0A@@std@@@std@@QAEPAU?$_Tree_node@U?$pair@$$CBIPAVIClientSession@@@std@@PAX@2@XZ$2 1000ed40     ClientSession.obj
 0002:00001d50       __ehfuncinfo$??$_Buynode@ABUpiecewise_construct_t@std@@V?$tuple@ABI@2@V?$tuple@$$V@2@@?$_Tree_comp_alloc@V?$_Tmap_traits@IPAVIClientSession@@U?$less@I@std@@V?$allocator@U?$pair@$$CBIPAVIClientSession@@@std@@@3@$0A@@std@@@std@@QAEPAU?$_Tree_node@U?$pair@$$CBIPAVIClientSession@@@std@@PAX@1@ABUpiecewise_construct_t@1@$$QAV?$tuple@ABI@1@$$QAV?$tuple@$$V@1@@Z 1000ed50     ClientSession.obj
 0002:00001d74       __unwindtable$??$_Buynode@ABUpiecewise_construct_t@std@@V?$tuple@ABI@2@V?$tuple@$$V@2@@?$_Tree_comp_alloc@V?$_Tmap_traits@IPAVIClientSession@@U?$less@I@std@@V?$allocator@U?$pair@$$CBIPAVIClientSession@@@std@@@3@$0A@@std@@@std@@QAEPAU?$_Tree_node@U?$pair@$$CBIPAVIClientSession@@@std@@PAX@1@ABUpiecewise_construct_t@1@$$QAV?$tuple@ABI@1@$$QAV?$tuple@$$V@1@@Z 1000ed74     ClientSession.obj
 0002:00001d84       __tryblocktable$??$_Buynode@ABUpiecewise_construct_t@std@@V?$tuple@ABI@2@V?$tuple@$$V@2@@?$_Tree_comp_alloc@V?$_Tmap_traits@IPAVIClientSession@@U?$less@I@std@@V?$allocator@U?$pair@$$CBIPAVIClientSession@@@std@@@3@$0A@@std@@@std@@QAEPAU?$_Tree_node@U?$pair@$$CBIPAVIClientSession@@@std@@PAX@1@ABUpiecewise_construct_t@1@$$QAV?$tuple@ABI@1@$$QAV?$tuple@$$V@1@@Z 1000ed84     ClientSession.obj
 0002:00001d98       __catchsym$??$_Buynode@ABUpiecewise_construct_t@std@@V?$tuple@ABI@2@V?$tuple@$$V@2@@?$_Tree_comp_alloc@V?$_Tmap_traits@IPAVIClientSession@@U?$less@I@std@@V?$allocator@U?$pair@$$CBIPAVIClientSession@@@std@@@3@$0A@@std@@@std@@QAEPAU?$_Tree_node@U?$pair@$$CBIPAVIClientSession@@@std@@PAX@1@ABUpiecewise_construct_t@1@$$QAV?$tuple@ABI@1@$$QAV?$tuple@$$V@1@@Z$2 1000ed98     ClientSession.obj
 0002:00001da8       __ehfuncinfo$??$_Insert_hint@AAU?$pair@$$CBIPAVIClientSession@@@std@@PAU?$_Tree_node@U?$pair@$$CBIPAVIClientSession@@@std@@PAX@2@@?$_Tree@V?$_Tmap_traits@IPAVIClientSession@@U?$less@I@std@@V?$allocator@U?$pair@$$CBIPAVIClientSession@@@std@@@3@$0A@@std@@@std@@IAE?AV?$_Tree_iterator@V?$_Tree_val@U?$_Tree_simple_types@U?$pair@$$CBIPAVIClientSession@@@std@@@std@@@std@@@1@V?$_Tree_const_iterator@V?$_Tree_val@U?$_Tree_simple_types@U?$pair@$$CBIPAVIClientSession@@@std@@@std@@@std@@@1@AAU?$pair@$$CBIPAVIClientSession@@@1@PAU?$_Tree_node@U?$pair@$$CBIPAVIClientSession@@@std@@PAX@1@@Z 1000eda8     ClientSession.obj
 0002:00001dcc       __unwindtable$??$_Insert_hint@AAU?$pair@$$CBIPAVIClientSession@@@std@@PAU?$_Tree_node@U?$pair@$$CBIPAVIClientSession@@@std@@PAX@2@@?$_Tree@V?$_Tmap_traits@IPAVIClientSession@@U?$less@I@std@@V?$allocator@U?$pair@$$CBIPAVIClientSession@@@std@@@3@$0A@@std@@@std@@IAE?AV?$_Tree_iterator@V?$_Tree_val@U?$_Tree_simple_types@U?$pair@$$CBIPAVIClientSession@@@std@@@std@@@std@@@1@V?$_Tree_const_iterator@V?$_Tree_val@U?$_Tree_simple_types@U?$pair@$$CBIPAVIClientSession@@@std@@@std@@@std@@@1@AAU?$pair@$$CBIPAVIClientSession@@@1@PAU?$_Tree_node@U?$pair@$$CBIPAVIClientSession@@@std@@PAX@1@@Z 1000edcc     ClientSession.obj
 0002:00001ddc       __tryblocktable$??$_Insert_hint@AAU?$pair@$$CBIPAVIClientSession@@@std@@PAU?$_Tree_node@U?$pair@$$CBIPAVIClientSession@@@std@@PAX@2@@?$_Tree@V?$_Tmap_traits@IPAVIClientSession@@U?$less@I@std@@V?$allocator@U?$pair@$$CBIPAVIClientSession@@@std@@@3@$0A@@std@@@std@@IAE?AV?$_Tree_iterator@V?$_Tree_val@U?$_Tree_simple_types@U?$pair@$$CBIPAVIClientSession@@@std@@@std@@@std@@@1@V?$_Tree_const_iterator@V?$_Tree_val@U?$_Tree_simple_types@U?$pair@$$CBIPAVIClientSession@@@std@@@std@@@std@@@1@AAU?$pair@$$CBIPAVIClientSession@@@1@PAU?$_Tree_node@U?$pair@$$CBIPAVIClientSession@@@std@@PAX@1@@Z 1000eddc     ClientSession.obj
 0002:00001df0       __catchsym$??$_Insert_hint@AAU?$pair@$$CBIPAVIClientSession@@@std@@PAU?$_Tree_node@U?$pair@$$CBIPAVIClientSession@@@std@@PAX@2@@?$_Tree@V?$_Tmap_traits@IPAVIClientSession@@U?$less@I@std@@V?$allocator@U?$pair@$$CBIPAVIClientSession@@@std@@@3@$0A@@std@@@std@@IAE?AV?$_Tree_iterator@V?$_Tree_val@U?$_Tree_simple_types@U?$pair@$$CBIPAVIClientSession@@@std@@@std@@@std@@@1@V?$_Tree_const_iterator@V?$_Tree_val@U?$_Tree_simple_types@U?$pair@$$CBIPAVIClientSession@@@std@@@std@@@std@@@1@AAU?$pair@$$CBIPAVIClientSession@@@1@PAU?$_Tree_node@U?$pair@$$CBIPAVIClientSession@@@std@@PAX@1@@Z$2 1000edf0     ClientSession.obj
 0002:00001e00       __ehfuncinfo$??$construct@U?$pair@$$CBV?$basic_string@DU?$char_traits@D@std@@V?$allocator@D@2@@std@@V?$list@IV?$allocator@I@std@@@2@@std@@AAU?$pair@V?$basic_string@DU?$char_traits@D@std@@V?$allocator@D@2@@std@@V?$list@IV?$allocator@I@std@@@2@@2@@?$allocator@U?$_Tree_node@U?$pair@$$CBV?$basic_string@DU?$char_traits@D@std@@V?$allocator@D@2@@std@@V?$list@IV?$allocator@I@std@@@2@@std@@PAX@std@@@std@@QAEXPAU?$pair@$$CBV?$basic_string@DU?$char_traits@D@std@@V?$allocator@D@2@@std@@V?$list@IV?$allocator@I@std@@@2@@1@AAU?$pair@V?$basic_string@DU?$char_traits@D@std@@V?$allocator@D@2@@std@@V?$list@IV?$allocator@I@std@@@2@@1@@Z 1000ee00     ClientSession.obj
 0002:00001e00       __ehfuncinfo$??$construct@U?$pair@$$CBIPAVIClientSession@@@std@@AAU?$pair@IPAVIClientSession@@@2@@?$allocator@U?$_Tree_node@U?$pair@$$CBIPAVIClientSession@@@std@@PAX@std@@@std@@QAEXPAU?$pair@$$CBIPAVIClientSession@@@1@AAU?$pair@IPAVIClientSession@@@1@@Z 1000ee00     ClientSession.obj
 0002:00001e24       __unwindtable$??$construct@U?$pair@$$CBIPAVIClientSession@@@std@@AAU?$pair@IPAVIClientSession@@@2@@?$allocator@U?$_Tree_node@U?$pair@$$CBIPAVIClientSession@@@std@@PAX@std@@@std@@QAEXPAU?$pair@$$CBIPAVIClientSession@@@1@AAU?$pair@IPAVIClientSession@@@1@@Z 1000ee24     ClientSession.obj
 0002:00001e24       __unwindtable$??$construct@U?$pair@$$CBV?$basic_string@DU?$char_traits@D@std@@V?$allocator@D@2@@std@@V?$list@IV?$allocator@I@std@@@2@@std@@AAU?$pair@V?$basic_string@DU?$char_traits@D@std@@V?$allocator@D@2@@std@@V?$list@IV?$allocator@I@std@@@2@@2@@?$allocator@U?$_Tree_node@U?$pair@$$CBV?$basic_string@DU?$char_traits@D@std@@V?$allocator@D@2@@std@@V?$list@IV?$allocator@I@std@@@2@@std@@PAX@std@@@std@@QAEXPAU?$pair@$$CBV?$basic_string@DU?$char_traits@D@std@@V?$allocator@D@2@@std@@V?$list@IV?$allocator@I@std@@@2@@1@AAU?$pair@V?$basic_string@DU?$char_traits@D@std@@V?$allocator@D@2@@std@@V?$list@IV?$allocator@I@std@@@2@@1@@Z 1000ee24     ClientSession.obj
 0002:00001e2c       __ehfuncinfo$??$construct@U?$pair@$$CBIPAVIClientSession@@@std@@ABUpiecewise_construct_t@2@V?$tuple@ABI@2@V?$tuple@$$V@2@@?$allocator@U?$_Tree_node@U?$pair@$$CBIPAVIClientSession@@@std@@PAX@std@@@std@@QAEXPAU?$pair@$$CBIPAVIClientSession@@@1@ABUpiecewise_construct_t@1@$$QAV?$tuple@ABI@1@$$QAV?$tuple@$$V@1@@Z 1000ee2c     ClientSession.obj
 0002:00001e50       __unwindtable$??$construct@U?$pair@$$CBIPAVIClientSession@@@std@@ABUpiecewise_construct_t@2@V?$tuple@ABI@2@V?$tuple@$$V@2@@?$allocator@U?$_Tree_node@U?$pair@$$CBIPAVIClientSession@@@std@@PAX@std@@@std@@QAEXPAU?$pair@$$CBIPAVIClientSession@@@1@ABUpiecewise_construct_t@1@$$QAV?$tuple@ABI@1@$$QAV?$tuple@$$V@1@@Z 1000ee50     ClientSession.obj
 0002:00001e58       __ehfuncinfo$??0ServerProtocol@@QAE@XZ 1000ee58     ServerProtocolImpl.obj
 0002:00001e7c       __unwindtable$??0ServerProtocol@@QAE@XZ 1000ee7c     ServerProtocolImpl.obj
 0002:00001e8c       __ehfuncinfo$?CreateServerProtocol@@YGPAVIServerProtocol@@XZ 1000ee8c     ServerProtocolImpl.obj
 0002:00001eb0       __unwindtable$?CreateServerProtocol@@YGPAVIServerProtocol@@XZ 1000eeb0     ServerProtocolImpl.obj
 0002:00001eb8       __sehtable$___scrt_is_nonwritable_in_current_image 1000eeb8     MSVCRT:utility.obj
 0002:00001ed8       __sehtable$?dllmain_crt_process_attach@@YAHQAUHINSTANCE__@@QAX@Z 1000eed8     MSVCRT:dll_dllmain.obj
 0002:00001ef8       __sehtable$?dllmain_crt_process_detach@@YAH_N@Z 1000eef8     MSVCRT:dll_dllmain.obj
 0002:00001f18       __sehtable$?dllmain_dispatch@@YAHQAUHINSTANCE__@@KQAX@Z 1000ef18     MSVCRT:dll_dllmain.obj
 0002:00001fe0       .edata                     1000efe0     protocollibold.exp
 0002:00002008       rgpv                       1000f008     protocollibold.exp
 0002:00002018       rgszName                   1000f018     protocollibold.exp
 0002:00002028       rgwOrd                     1000f028     protocollibold.exp
 0002:00002030       szName                     1000f030     protocollibold.exp
 0002:00002043       $N00001                    1000f043     protocollibold.exp
 0002:00002073       $N00002                    1000f073     protocollibold.exp
 0002:000020a3       $N00003                    1000f0a3     protocollibold.exp
 0002:000020d5       $N00004                    1000f0d5     protocollibold.exp
 0002:00002378       .idata$6                   1000f378     Socketold:socketold.dll
 0002:000023e6       .idata$6                   1000f3e6     Utilities:Utilities.dll
 0002:000024b4       .idata$6                   1000f4b4     kernel32:KERNEL32.dll
 0002:0000251c       .idata$6                   1000f51c     msvcprt:MSVCP140.dll
 0002:000025f2       .idata$6                   1000f5f2     vcruntime:VCRUNTIME140.dll
 0002:0000272c       .idata$6                   1000f72c     ucrt:api-ms-win-crt-runtime-l1-1-0.dll
 0002:0000274e       .idata$6                   1000f74e     ucrt:api-ms-win-crt-time-l1-1-0.dll
 0002:0000276e       .idata$6                   1000f76e     ucrt:api-ms-win-crt-heap-l1-1-0.dll
 0003:00000204       ?_Tss_mutex@@3U_RTL_CRITICAL_SECTION@@A 10010204     MSVCRT:thread_safe_statics.obj
 0003:0000021c       ?_Tss_cv@@3U_RTL_CONDITION_VARIABLE@@A 1001021c     MSVCRT:thread_safe_statics.obj
 0003:00000220       ?_Tss_event@@3PAXA         10010220     MSVCRT:thread_safe_statics.obj
 0003:00000224       ?encoded_sleep_condition_variable_cs@@3P6GHPAU_RTL_CONDITION_VARIABLE@@PAU_RTL_CRITICAL_SECTION@@K@ZA 10010224     MSVCRT:thread_safe_statics.obj
 0003:00000228       ?encoded_wake_all_condition_variable@@3P6GXPAU_RTL_CONDITION_VARIABLE@@@ZA 10010228     MSVCRT:thread_safe_statics.obj
 0003:00000234       ?module_local_atexit_table@@3U_onexit_table_t@@A 10010234     MSVCRT:utility.obj
 0003:00000240       ?module_local_at_quick_exit_table@@3U_onexit_table_t@@A 10010240     MSVCRT:utility.obj
 0003:0000024c       ?is_initialized_as_dll@@3_NA 1001024c     MSVCRT:utility.obj
 0003:00000250       ?__proc_attached@@3HA      10010250     MSVCRT:dll_dllmain.obj
 0003:00000258       _GS_ExceptionRecord        10010258     MSVCRT:gs_report.obj
 0003:000002a8       _GS_ContextRecord          100102a8     MSVCRT:gs_report.obj
 0003:000005a0       ?count@?1??GetMessageObject@@YAPAXI@Z@4HA 100105a0     ClientProtocolImpl.obj
 0005:00000000       __guard_fids__             10012000     MSVCRT:thread_safe_statics.obj
 0005:00000004       __guard_fids_?__scrt_initialize_thread_safe_statics@@YAHXZ 10012004     MSVCRT:thread_safe_statics.obj
 0005:00000008       __guard_fids__             10012008     MSVCRT:std_type_info_static.obj
 0005:0000000c       __guard_fids_?dllmain_crt_process_attach@@YAHQAUHINSTANCE__@@QAX@Z 1001200c     MSVCRT:dll_dllmain.obj
 0005:00000014       __guard_fids_?dllmain_dispatch@@YAHQAUHINSTANCE__@@KQAX@Z 10012014     MSVCRT:dll_dllmain.obj
 0005:00000018       __guard_fids__             10012018     MSVCRT:throw_bad_alloc.obj
 0005:00000020       __guard_fids__             10012020     MSVCRT:throw_bad_alloc.obj
 0005:00000028       __guard_fids__             10012028     MSVCRT:throw_bad_alloc.obj
 0005:00000030       __guard_fids__             10012030     MSVCRT:throw_bad_alloc.obj
 0005:00000034       __guard_fids__             10012034     MSVCRT:throw_bad_alloc.obj
 0005:00000038       __guard_fids__             10012038     MSVCRT:throw_bad_alloc.obj
 0005:0000003c       __guard_fids__             1001203c     MSVCRT:throw_bad_alloc.obj
 0005:00000040       __guard_fids___except_handler4 10012040     MSVCRT:_chandler4gs_.obj
 0005:00000044       __guard_fids__             10012044     MSVCRT:guard_support.obj
 0006:000000a0       $R000000                   100130a0     ProtocolLib1.res
 0006:000003c8       $R000328                   100133c8     ProtocolLib1.res
