 ProtocolLib

 Timestamp is 59636ed6 (Mon Jul 10 17:41:02 2017)

 Preferred load address is 10000000

 Start         Length     Name                   Class
 0001:00000000 00000020H .text$di                CODE
 0001:00000020 0000b5a0H .text$mn                CODE
 0001:0000b5c0 000005c0H .text$x                 CODE
 0001:0000bb80 0000000aH .text$yd                CODE
 0002:00000000 00000120H .idata$5                DATA
 0002:00000120 00000004H .00cfg                  DATA
 0002:00000124 00000004H .CRT$XCA                DATA
 0002:00000128 00000004H .CRT$XCL                DATA
 0002:0000012c 00000000H .CRT$XCU                DATA
 0002:0000012c 00000004H .CRT$XCZ                DATA
 0002:00000130 00000004H .CRT$XIA                DATA
 0002:00000134 00000004H .CRT$XIC                DATA
 0002:00000138 00000004H .CRT$XIZ                DATA
 0002:0000013c 00000004H .CRT$XLA                DATA
 0002:00000140 00000004H .CRT$XLZ                DATA
 0002:00000144 00000004H .CRT$XPA                DATA
 0002:00000148 00000004H .CRT$XPZ                DATA
 0002:0000014c 00000004H .CRT$XTA                DATA
 0002:00000150 00000010H .CRT$XTZ                DATA
 0002:00000160 00000cccH .rdata                  DATA
 0002:00000e2c 00000018H .rdata$T                DATA
 0002:00000e44 0000042cH .rdata$r                DATA
 0002:00001270 00000094H .rdata$sxdata           DATA
 0002:00001304 00000398H .rdata$zzzdbg           DATA
 0002:0000169c 00000004H .rtc$IAA                DATA
 0002:000016a0 00000004H .rtc$IZZ                DATA
 0002:000016a4 00000004H .rtc$TAA                DATA
 0002:000016a8 00000008H .rtc$TZZ                DATA
 0002:000016b0 000009a0H .xdata$x                DATA
 0002:00002044 00000000H ATL$__a                 DATA
 0002:00002044 00000000H ATL$__z                 DATA
 0002:00002050 00000124H .edata                  DATA
 0002:00002174 000000b4H .idata$2                DATA
 0002:00002228 00000014H .idata$3                DATA
 0002:0000223c 00000120H .idata$4                DATA
 0002:0000235c 0000066eH .idata$6                DATA
 0003:00000000 00000034H .data                   DATA
 0003:00000034 00000194H .data$r                 DATA
 0003:000001c8 000003e8H .bss                    DATA
 0004:00000000 00000004H .tls                    DATA
 0004:00000004 00000004H .tls$                   DATA
 0004:00000008 00000001H .tls$ZZZ                DATA
 0005:00000000 00000048H .gfids$y                DATA
 0006:00000000 000000a0H .rsrc$01                DATA
 0006:000000a0 000004a8H .rsrc$02                DATA

  Address         Publics by Value              Rva+Base       Lib:Object

 0000:00000000       ___guard_iat_count         00000000     <absolute>
 0000:00000000       ___guard_longjmp_table     00000000     <absolute>
 0000:00000000       ___guard_fids_table        00000000     <absolute>
 0000:00000000       ___guard_longjmp_count     00000000     <absolute>
 0000:00000000       ___guard_iat_table         00000000     <absolute>
 0000:00000000       ___dynamic_value_reloc_table 00000000     <absolute>
 0000:00000000       ___guard_fids_count        00000000     <absolute>
 0000:00000025       ___safe_se_handler_count   00000025     <absolute>
 0000:0000002c       __tls_array                0000002c     <absolute>
 0000:00000100       ___guard_flags             00000100     <absolute>
 0000:00000000       ___ImageBase               10000000     <linker-defined>
 0001:00000020       _HRESULT_FROM_WIN32        10001020 f i ClientProtocolImpl.obj
 0001:00000060       ??0exception@std@@QAE@QBD@Z 10001060 f i ClientProtocolImpl.obj
 0001:000000b0       ??0exception@std@@QAE@ABV01@@Z 100010b0 f i ClientProtocolImpl.obj
 0001:000000f0       ??1exception@std@@UAE@XZ   100010f0 f i ClientProtocolImpl.obj
 0001:00000120       ?what@exception@std@@UBEPBDXZ 10001120 f i ClientProtocolImpl.obj
 0001:00000150       ??_Gexception@std@@UAEPAXI@Z 10001150 f i ClientProtocolImpl.obj
 0001:00000150       ??_Eexception@std@@UAEPAXI@Z 10001150 f i * CIL library *:* CIL module *
 0001:00000180       ??2@YAPAXIPAX@Z            10001180 f i ClientProtocolImpl.obj
 0001:00000190       ?length@?$char_traits@D@std@@SAIPBD@Z 10001190 f i ClientProtocolImpl.obj
 0001:000001e0       ?copy@?$char_traits@D@std@@SAPADPADPBDI@Z 100011e0 f i ClientProtocolImpl.obj
 0001:00000210       ?move@?$char_traits@D@std@@SAPADPADPBDI@Z 10001210 f i ClientProtocolImpl.obj
 0001:00000250       ?assign@?$char_traits@D@std@@SAXAADABD@Z 10001250 f i ClientProtocolImpl.obj
 0001:00000260       ?_Allocate@std@@YAPAXII_N@Z 10001260 f i ClientProtocolImpl.obj
 0001:00000320       ?_Deallocate@std@@YAXPAXII@Z 10001320 f i ClientProtocolImpl.obj
 0001:000003c0       ??1IClientProtocol@@UAE@XZ 100013c0 f i ClientProtocolImpl.obj
 0001:000003e0       ??_GIClientProtocol@@UAEPAXI@Z 100013e0 f i ClientProtocolImpl.obj
 0001:000003e0       ??_EIClientProtocol@@UAEPAXI@Z 100013e0 f i * CIL library *:* CIL module *
 0001:00000410       ?_AtlInitializeCriticalSectionEx@ATL@@YAHPAU_RTL_CRITICAL_SECTION@@KK@Z 10001410 f i ClientProtocolImpl.obj
 0001:00000430       ?Init@CComCriticalSection@ATL@@QAEJXZ 10001430 f i ClientProtocolImpl.obj
 0001:00000470       ??0CTime@ATL@@QAE@_J@Z     10001470 f i ClientProtocolImpl.obj
 0001:00000470       ??0CTimeSpan@ATL@@QAE@_J@Z 10001470 f i ClientProtocolImpl.obj
 0001:00000490       ?GetTotalSeconds@CTimeSpan@ATL@@QBE_JXZ 10001490 f i ClientProtocolImpl.obj
 0001:000004b0       ?GetTickCount@CTime@ATL@@SG?AV12@XZ 100014b0 f i ClientProtocolImpl.obj
 0001:000004d0       ??0CTime@ATL@@QAE@XZ       100014d0 f i ClientProtocolImpl.obj
 0001:000004f0       ??GCTime@ATL@@QBE?AVCTimeSpan@1@V01@@Z 100014f0 f i ClientProtocolImpl.obj
 0001:00000980       ??0ClientProtocol@@QAE@XZ  10001980 f   ClientProtocolImpl.obj
 0001:00000ac0       ??_EClientProtocol@@UAEPAXI@Z 10001ac0 f i * CIL library *:* CIL module *
 0001:00000ac0       ??_GClientProtocol@@UAEPAXI@Z 10001ac0 f i ClientProtocolImpl.obj
 0001:00000b00       ??0IClientProtocol@@QAE@XZ 10001b00 f i ClientProtocolImpl.obj
 0001:00000b20       ??0ISocketEvents@@QAE@XZ   10001b20 f i ClientProtocolImpl.obj
 0001:00000b40       ??1ClientProtocol@@UAE@XZ  10001b40 f   ClientProtocolImpl.obj
 0001:00000bd0       ?Connect@ClientProtocol@@UAE_NPADGI@Z 10001bd0 f   ClientProtocolImpl.obj
 0001:00000d00       ?Send@ClientProtocol@@UAE_NIPAXI@Z 10001d00 f   ClientProtocolImpl.obj
 0001:00000d90       ?HeartbeatToBeSent@ClientProtocol@@UAEHXZ 10001d90 f   ClientProtocolImpl.obj
 0001:00000e00       ?RegisterClient@ClientProtocol@@UAEXPAVIClientProtocolEvents@@@Z 10001e00 f   ClientProtocolImpl.obj
 0001:00000e00       ?RegisterServerEvents@ServerProtocol@@UAEXPAVIServerProtocolEvents@@@Z 10001e00 f   ServerProtocolImpl.obj
 0001:00000e20       ?Disconnect@ClientProtocol@@UAE_NXZ 10001e20 f   ClientProtocolImpl.obj
 0001:00000e70       ?OnConnect@ClientProtocol@@UAEXI_NPADG@Z 10001e70 f   ClientProtocolImpl.obj
 0001:00000f20       ?OnReceive@ClientProtocol@@UAEXIPADI@Z 10001f20 f   ClientProtocolImpl.obj
 0001:00001440       ?OnSend@ClientProtocol@@UAEXIIW4SocketError@@@Z 10002440 f   ClientProtocolImpl.obj
 0001:00001490       ?CreateClientProtocol@@YGPAVIClientProtocol@@XZ 10002490 f   ClientProtocolImpl.obj
 0001:00001500       ?ReleaseClientProtocol@@YGXPAVIClientProtocol@@@Z 10002500 f   ClientProtocolImpl.obj
 0001:00001540       ?IsShutdown@ClientProtocol@@UAE_NXZ 10002540 f   ClientProtocolImpl.obj
 0001:00001560       ?CheckConnectionStatus@ClientProtocol@@UAE_NXZ 10002560 f   ClientProtocolImpl.obj
 0001:000015a0       ?Connect@ClientProtocol@@UAE_NXZ 100025a0 f   ClientProtocolImpl.obj
 0001:000015e0       ?GetClientSessionManager@ServerProtocol@@UAEPAVIClientSessionMgr@@XZ 100025e0 f   ServerProtocolImpl.obj
 0001:000015e0       ?GetConnectionStatus@ClientProtocol@@UAEHXZ 100025e0 f   ClientProtocolImpl.obj
 0001:00001600       ?ConnectionMonitor@ClientProtocol@@SAKPAX@Z 10002600 f   ClientProtocolImpl.obj
 0001:000016e0       ??1?$basic_string@DU?$char_traits@D@std@@V?$allocator@D@2@@std@@QAE@XZ 100026e0 f i ClientProtocolImpl.obj
 0001:00001730       ??0?$basic_string@DU?$char_traits@D@std@@V?$allocator@D@2@@std@@QAE@PBD@Z 10002730 f i ClientProtocolImpl.obj
 0001:000017a0       ??1?$_String_alloc@U?$_String_base_types@DV?$allocator@D@std@@@std@@@std@@QAE@XZ 100027a0 f i ClientProtocolImpl.obj
 0001:000017c0       ??1?$_Compressed_pair@U?$_Wrap_alloc@V?$allocator@D@std@@@std@@V?$_String_val@U?$_Simple_types@D@std@@@2@$00@std@@QAE@XZ 100027c0 f i ClientProtocolImpl.obj
 0001:000017e0       ??1?$_String_val@U?$_Simple_types@D@std@@@std@@QAE@XZ 100027e0 f i ClientProtocolImpl.obj
 0001:00001800       ??1_Bxty@?$_String_val@U?$_Simple_types@D@std@@@std@@QAE@XZ 10002800 f i ClientProtocolImpl.obj
 0001:00001810       ?_Mysize@?$_String_alloc@U?$_String_base_types@DV?$allocator@D@std@@@std@@@std@@QBEABIXZ 10002810 f i ClientProtocolImpl.obj
 0001:00001810       ?_Mysize@?$_String_alloc@U?$_String_base_types@DV?$allocator@D@std@@@std@@@std@@QAEAAIXZ 10002810 f i ClientProtocolImpl.obj
 0001:00001830       ?_Getcomp@?$_Tree_comp_alloc@V?$_Tmap_traits@IPAVIClientSession@@U?$less@I@std@@V?$allocator@U?$pair@$$CBIPAVIClientSession@@@std@@@3@$0A@@std@@@std@@QAEAAU?$less@I@2@XZ 10002830 f i ClientSession.obj
 0001:00001830       ?_Getal@?$_String_alloc@U?$_String_base_types@DV?$allocator@D@std@@@std@@@std@@QAEAAU?$_Wrap_alloc@V?$allocator@D@std@@@2@XZ 10002830 f i ClientProtocolImpl.obj
 0001:00001830       ?_Getal@?$_String_alloc@U?$_String_base_types@DV?$allocator@D@std@@@std@@@std@@QBEABU?$_Wrap_alloc@V?$allocator@D@std@@@2@XZ 10002830 f i ClientProtocolImpl.obj
 0001:00001830       ?_Get_data@?$_List_alloc@U?$_List_base_types@PAVIAccount@@V?$allocator@PAVIAccount@@@std@@@std@@@std@@QBEABV?$_List_val@U?$_List_simple_types@PAVIAccount@@@std@@@2@XZ 10002830 f i ClientSession.obj
 0001:00001830       ?_Getal@?$_List_alloc@U?$_List_base_types@PAVIAccount@@V?$allocator@PAVIAccount@@@std@@@std@@@std@@QBEABU?$_Wrap_alloc@V?$allocator@U?$_List_node@PAVIAccount@@PAX@std@@@std@@@2@XZ 10002830 f i ClientSession.obj
 0001:00001830       ?_Get_data@?$_String_alloc@U?$_String_base_types@DV?$allocator@D@std@@@std@@@std@@QAEAAV?$_String_val@U?$_Simple_types@D@std@@@2@XZ 10002830 f i ClientProtocolImpl.obj
 0001:00001830       ?_Get_data@?$_List_alloc@U?$_List_base_types@PAVIAccount@@V?$allocator@PAVIAccount@@@std@@@std@@@std@@QAEAAV?$_List_val@U?$_List_simple_types@PAVIAccount@@@std@@@2@XZ 10002830 f i ClientSession.obj
 0001:00001830       ?_Get_data@?$_String_alloc@U?$_String_base_types@DV?$allocator@D@std@@@std@@@std@@QBEABV?$_String_val@U?$_Simple_types@D@std@@@2@XZ 10002830 f i ClientProtocolImpl.obj
 0001:00001830       ?_Getcomp@?$_Tree_comp_alloc@V?$_Tmap_traits@V?$basic_string@DU?$char_traits@D@std@@V?$allocator@D@2@@std@@V?$list@IV?$allocator@I@std@@@2@U?$less@V?$basic_string@DU?$char_traits@D@std@@V?$allocator@D@2@@std@@@2@V?$allocator@U?$pair@$$CBV?$basic_string@DU?$char_traits@D@std@@V?$allocator@D@2@@std@@V?$list@IV?$allocator@I@std@@@2@@std@@@2@$0A@@std@@@std@@QBEABU?$less@V?$basic_string@DU?$char_traits@D@std@@V?$allocator@D@2@@std@@@2@XZ 10002830 f i ClientSession.obj
 0001:00001830       ?_Getal@?$_List_alloc@U?$_List_base_types@IV?$allocator@I@std@@@std@@@std@@QBEABU?$_Wrap_alloc@V?$allocator@U?$_List_node@IPAX@std@@@std@@@2@XZ 10002830 f i ClientSession.obj
 0001:00001830       ?_Getcomp@?$_Tree_comp_alloc@V?$_Tmap_traits@IPAVIClientSession@@U?$less@I@std@@V?$allocator@U?$pair@$$CBIPAVIClientSession@@@std@@@3@$0A@@std@@@std@@QBEABU?$less@I@2@XZ 10002830 f i ClientSession.obj
 0001:00001830       ?_Get_data@?$_List_alloc@U?$_List_base_types@IV?$allocator@I@std@@@std@@@std@@QBEABV?$_List_val@U?$_List_simple_types@I@std@@@2@XZ 10002830 f i ClientSession.obj
 0001:00001830       ?_Get_data@?$_List_alloc@U?$_List_base_types@IV?$allocator@I@std@@@std@@@std@@QAEAAV?$_List_val@U?$_List_simple_types@I@std@@@2@XZ 10002830 f i ClientSession.obj
 0001:00001830       ?_Getcomp@?$_Tree_comp_alloc@V?$_Tmap_traits@V?$basic_string@DU?$char_traits@D@std@@V?$allocator@D@2@@std@@V?$list@IV?$allocator@I@std@@@2@U?$less@V?$basic_string@DU?$char_traits@D@std@@V?$allocator@D@2@@std@@@2@V?$allocator@U?$pair@$$CBV?$basic_string@DU?$char_traits@D@std@@V?$allocator@D@2@@std@@V?$list@IV?$allocator@I@std@@@2@@std@@@2@$0A@@std@@@std@@QAEAAU?$less@V?$basic_string@DU?$char_traits@D@std@@V?$allocator@D@2@@std@@@2@XZ 10002830 f i ClientSession.obj
 0001:00001830       ?_Getal@?$_List_alloc@U?$_List_base_types@IV?$allocator@I@std@@@std@@@std@@QAEAAU?$_Wrap_alloc@V?$allocator@U?$_List_node@IPAX@std@@@std@@@2@XZ 10002830 f i ClientSession.obj
 0001:00001830       ?_Getal@?$_List_alloc@U?$_List_base_types@PAVIAccount@@V?$allocator@PAVIAccount@@@std@@@std@@@std@@QAEAAU?$_Wrap_alloc@V?$allocator@U?$_List_node@PAVIAccount@@PAX@std@@@std@@@2@XZ 10002830 f i ClientSession.obj
 0001:00001850       ??0?$_String_alloc@U?$_String_base_types@DV?$allocator@D@std@@@std@@@std@@QAE@XZ 10002850 f i ClientProtocolImpl.obj
 0001:00001870       ?_Myptr@?$_String_alloc@U?$_String_base_types@DV?$allocator@D@std@@@std@@@std@@QBEPBDXZ 10002870 f i ClientProtocolImpl.obj
 0001:00001870       ?_Myptr@?$_String_alloc@U?$_String_base_types@DV?$allocator@D@std@@@std@@@std@@QAEPADXZ 10002870 f i ClientProtocolImpl.obj
 0001:00001890       ?_Xlen@?$basic_string@DU?$char_traits@D@std@@V?$allocator@D@2@@std@@QBEXXZ 10002890 f i ClientProtocolImpl.obj
 0001:000018b0       ?_Tidy@?$basic_string@DU?$char_traits@D@std@@V?$allocator@D@2@@std@@QAEX_NI@Z 100028b0 f i ClientProtocolImpl.obj
 0001:00001970       ?_Grow@?$basic_string@DU?$char_traits@D@std@@V?$allocator@D@2@@std@@QAE_NI_N@Z 10002970 f i ClientProtocolImpl.obj
 0001:00001a30       ?_Eos@?$basic_string@DU?$char_traits@D@std@@V?$allocator@D@2@@std@@QAEXI@Z 10002a30 f i ClientProtocolImpl.obj
 0001:00001a70       ?assign@?$basic_string@DU?$char_traits@D@std@@V?$allocator@D@2@@std@@QAEAAV12@PBD@Z 10002a70 f i ClientProtocolImpl.obj
 0001:00001aa0       ?assign@?$basic_string@DU?$char_traits@D@std@@V?$allocator@D@2@@std@@QAEAAV12@PBDI@Z 10002aa0 f i ClientProtocolImpl.obj
 0001:00001b20       ?assign@?$basic_string@DU?$char_traits@D@std@@V?$allocator@D@2@@std@@QAEAAV12@ABV12@II@Z 10002b20 f i ClientProtocolImpl.obj
 0001:00001bc0       ?_Get_second@?$_Compressed_pair@U?$_Wrap_alloc@V?$allocator@U?$_List_node@PAVIAccount@@PAX@std@@@std@@@std@@V?$_List_val@U?$_List_simple_types@PAVIAccount@@@std@@@2@$00@std@@QAEAAV?$_List_val@U?$_List_simple_types@PAVIAccount@@@std@@@2@XZ 10002bc0 f i ClientSession.obj
 0001:00001bc0       ??0?$allocator@U?$_Tree_node@U?$pair@$$CBV?$basic_string@DU?$char_traits@D@std@@V?$allocator@D@2@@std@@V?$list@IV?$allocator@I@std@@@2@@std@@PAX@std@@@std@@QAE@XZ 10002bc0 f i ClientSession.obj
 0001:00001bc0       ?_Get_first@?$_Compressed_pair@U?$_Wrap_alloc@V?$allocator@U?$_Tree_node@U?$pair@$$CBIPAVIClientSession@@@std@@PAX@std@@@std@@@std@@V?$_Tree_val@U?$_Tree_simple_types@U?$pair@$$CBIPAVIClientSession@@@std@@@std@@@2@$00@std@@QBEABU?$_Wrap_alloc@V?$allocator@U?$_Tree_node@U?$pair@$$CBIPAVIClientSession@@@std@@PAX@std@@@std@@@2@XZ 10002bc0 f i ClientSession.obj
 0001:00001bc0       ?_Get_first@?$_Compressed_pair@U?$_Wrap_alloc@V?$allocator@U?$_List_node@PAVIAccount@@PAX@std@@@std@@@std@@V?$_List_val@U?$_List_simple_types@PAVIAccount@@@std@@@2@$00@std@@QAEAAU?$_Wrap_alloc@V?$allocator@U?$_List_node@PAVIAccount@@PAX@std@@@std@@@2@XZ 10002bc0 f i ClientSession.obj
 0001:00001bc0       ?_Get_first@?$_Compressed_pair@U?$_Wrap_alloc@V?$allocator@D@std@@@std@@V?$_String_val@U?$_Simple_types@D@std@@@2@$00@std@@QAEAAU?$_Wrap_alloc@V?$allocator@D@std@@@2@XZ 10002bc0 f i ClientProtocolImpl.obj
 0001:00001bc0       ?_Get_second@?$_Compressed_pair@U?$_Wrap_alloc@V?$allocator@D@std@@@std@@V?$_String_val@U?$_Simple_types@D@std@@@2@$00@std@@QAEAAV?$_String_val@U?$_Simple_types@D@std@@@2@XZ 10002bc0 f i ClientProtocolImpl.obj
 0001:00001bc0       ??0?$tuple@$$V@std@@QAE@XZ 10002bc0 f i ClientSession.obj
 0001:00001bc0       ?_Get_second@?$_Compressed_pair@U?$less@I@std@@V?$_Compressed_pair@U?$_Wrap_alloc@V?$allocator@U?$_Tree_node@U?$pair@$$CBIPAVIClientSession@@@std@@PAX@std@@@std@@@std@@V?$_Tree_val@U?$_Tree_simple_types@U?$pair@$$CBIPAVIClientSession@@@std@@@std@@@2@$00@2@$00@std@@QBEABV?$_Compressed_pair@U?$_Wrap_alloc@V?$allocator@U?$_Tree_node@U?$pair@$$CBIPAVIClientSession@@@std@@PAX@std@@@std@@@std@@V?$_Tree_val@U?$_Tree_simple_types@U?$pair@$$CBIPAVIClientSession@@@std@@@std@@@2@$00@2@XZ 10002bc0 f i ClientSession.obj
 0001:00001bc0       ?_Get_second@?$_Compressed_pair@U?$_Wrap_alloc@V?$allocator@U?$_List_node@IPAX@std@@@std@@@std@@V?$_List_val@U?$_List_simple_types@I@std@@@2@$00@std@@QAEAAV?$_List_val@U?$_List_simple_types@I@std@@@2@XZ 10002bc0 f i ClientSession.obj
 0001:00001bc0       ??0?$allocator@U?$_List_node@PAVIAccount@@PAX@std@@@std@@QAE@XZ 10002bc0 f i ClientSession.obj
 0001:00001bc0       ?_Get_first@?$_Compressed_pair@U?$_Wrap_alloc@V?$allocator@U?$_Tree_node@U?$pair@$$CBV?$basic_string@DU?$char_traits@D@std@@V?$allocator@D@2@@std@@V?$list@IV?$allocator@I@std@@@2@@std@@PAX@std@@@std@@@std@@V?$_Tree_val@U?$_Tree_simple_types@U?$pair@$$CBV?$basic_string@DU?$char_traits@D@std@@V?$allocator@D@2@@std@@V?$list@IV?$allocator@I@std@@@2@@std@@@std@@@2@$00@std@@QBEABU?$_Wrap_alloc@V?$allocator@U?$_Tree_node@U?$pair@$$CBV?$basic_string@DU?$char_traits@D@std@@V?$allocator@D@2@@std@@V?$list@IV?$allocator@I@std@@@2@@std@@PAX@std@@@std@@@2@XZ 10002bc0 f i ClientSession.obj
 0001:00001bc0       ?_Get_first@?$_Compressed_pair@U?$_Wrap_alloc@V?$allocator@U?$_List_node@IPAX@std@@@std@@@std@@V?$_List_val@U?$_List_simple_types@I@std@@@2@$00@std@@QBEABU?$_Wrap_alloc@V?$allocator@U?$_List_node@IPAX@std@@@std@@@2@XZ 10002bc0 f i ClientSession.obj
 0001:00001bc0       ?_Get_first@?$_Compressed_pair@U?$_Wrap_alloc@V?$allocator@U?$_Tree_node@U?$pair@$$CBIPAVIClientSession@@@std@@PAX@std@@@std@@@std@@V?$_Tree_val@U?$_Tree_simple_types@U?$pair@$$CBIPAVIClientSession@@@std@@@std@@@2@$00@std@@QAEAAU?$_Wrap_alloc@V?$allocator@U?$_Tree_node@U?$pair@$$CBIPAVIClientSession@@@std@@PAX@std@@@std@@@2@XZ 10002bc0 f i ClientSession.obj
 0001:00001bc0       ?_Get_second@?$_Compressed_pair@U?$_Wrap_alloc@V?$allocator@U?$_Tree_node@U?$pair@$$CBIPAVIClientSession@@@std@@PAX@std@@@std@@@std@@V?$_Tree_val@U?$_Tree_simple_types@U?$pair@$$CBIPAVIClientSession@@@std@@@std@@@2@$00@std@@QBEABV?$_Tree_val@U?$_Tree_simple_types@U?$pair@$$CBIPAVIClientSession@@@std@@@std@@@2@XZ 10002bc0 f i ClientSession.obj
 0001:00001bc0       ?_Get_second@?$_Compressed_pair@U?$_Wrap_alloc@V?$allocator@U?$_List_node@IPAX@std@@@std@@@std@@V?$_List_val@U?$_List_simple_types@I@std@@@2@$00@std@@QBEABV?$_List_val@U?$_List_simple_types@I@std@@@2@XZ 10002bc0 f i ClientSession.obj
 0001:00001bc0       ?_Get_first@?$_Compressed_pair@U?$_Wrap_alloc@V?$allocator@U?$_List_node@IPAX@std@@@std@@@std@@V?$_List_val@U?$_List_simple_types@I@std@@@2@$00@std@@QAEAAU?$_Wrap_alloc@V?$allocator@U?$_List_node@IPAX@std@@@std@@@2@XZ 10002bc0 f i ClientSession.obj
 0001:00001bc0       ?_Get_second@?$_Compressed_pair@U?$_Wrap_alloc@V?$allocator@U?$_Tree_node@U?$pair@$$CBIPAVIClientSession@@@std@@PAX@std@@@std@@@std@@V?$_Tree_val@U?$_Tree_simple_types@U?$pair@$$CBIPAVIClientSession@@@std@@@std@@@2@$00@std@@QAEAAV?$_Tree_val@U?$_Tree_simple_types@U?$pair@$$CBIPAVIClientSession@@@std@@@std@@@2@XZ 10002bc0 f i ClientSession.obj
 0001:00001bc0       ??0?$allocator@U?$_List_node@IPAX@std@@@std@@QAE@XZ 10002bc0 f i ClientSession.obj
 0001:00001bc0       ??0?$allocator@D@std@@QAE@XZ 10002bc0 f i ClientProtocolImpl.obj
 0001:00001bc0       ??0_Bxty@?$_String_val@U?$_Simple_types@D@std@@@std@@QAE@XZ 10002bc0 f i ClientProtocolImpl.obj
 0001:00001bc0       ?_Get_first@?$_Compressed_pair@U?$_Wrap_alloc@V?$allocator@U?$_List_node@PAVIAccount@@PAX@std@@@std@@@std@@V?$_List_val@U?$_List_simple_types@PAVIAccount@@@std@@@2@$00@std@@QBEABU?$_Wrap_alloc@V?$allocator@U?$_List_node@PAVIAccount@@PAX@std@@@std@@@2@XZ 10002bc0 f i ClientSession.obj
 0001:00001bc0       ?_Get_first@?$_Compressed_pair@U?$less@I@std@@V?$_Compressed_pair@U?$_Wrap_alloc@V?$allocator@U?$_Tree_node@U?$pair@$$CBIPAVIClientSession@@@std@@PAX@std@@@std@@@std@@V?$_Tree_val@U?$_Tree_simple_types@U?$pair@$$CBIPAVIClientSession@@@std@@@std@@@2@$00@2@$00@std@@QBEABU?$less@I@2@XZ 10002bc0 f i ClientSession.obj
 0001:00001bc0       ?_Get_second@?$_Compressed_pair@U?$_Wrap_alloc@V?$allocator@D@std@@@std@@V?$_String_val@U?$_Simple_types@D@std@@@2@$00@std@@QBEABV?$_String_val@U?$_Simple_types@D@std@@@2@XZ 10002bc0 f i ClientProtocolImpl.obj
 0001:00001bc0       ?_Get_second@?$_Compressed_pair@U?$less@I@std@@V?$_Compressed_pair@U?$_Wrap_alloc@V?$allocator@U?$_Tree_node@U?$pair@$$CBIPAVIClientSession@@@std@@PAX@std@@@std@@@std@@V?$_Tree_val@U?$_Tree_simple_types@U?$pair@$$CBIPAVIClientSession@@@std@@@std@@@2@$00@2@$00@std@@QAEAAV?$_Compressed_pair@U?$_Wrap_alloc@V?$allocator@U?$_Tree_node@U?$pair@$$CBIPAVIClientSession@@@std@@PAX@std@@@std@@@std@@V?$_Tree_val@U?$_Tree_simple_types@U?$pair@$$CBIPAVIClientSession@@@std@@@std@@@2@$00@2@XZ 10002bc0 f i ClientSession.obj
 0001:00001bc0       ?_Get_first@?$_Compressed_pair@U?$less@V?$basic_string@DU?$char_traits@D@std@@V?$allocator@D@2@@std@@@std@@V?$_Compressed_pair@U?$_Wrap_alloc@V?$allocator@U?$_Tree_node@U?$pair@$$CBV?$basic_string@DU?$char_traits@D@std@@V?$allocator@D@2@@std@@V?$list@IV?$allocator@I@std@@@2@@std@@PAX@std@@@std@@@std@@V?$_Tree_val@U?$_Tree_simple_types@U?$pair@$$CBV?$basic_string@DU?$char_traits@D@std@@V?$allocator@D@2@@std@@V?$list@IV?$allocator@I@std@@@2@@std@@@std@@@2@$00@2@$00@std@@QAEAAU?$less@V?$basic_string@DU?$char_traits@D@std@@V?$allocator@D@2@@std@@@2@XZ 10002bc0 f i ClientSession.obj
 0001:00001bc0       ?_Get_first@?$_Compressed_pair@U?$less@V?$basic_string@DU?$char_traits@D@std@@V?$allocator@D@2@@std@@@std@@V?$_Compressed_pair@U?$_Wrap_alloc@V?$allocator@U?$_Tree_node@U?$pair@$$CBV?$basic_string@DU?$char_traits@D@std@@V?$allocator@D@2@@std@@V?$list@IV?$allocator@I@std@@@2@@std@@PAX@std@@@std@@@std@@V?$_Tree_val@U?$_Tree_simple_types@U?$pair@$$CBV?$basic_string@DU?$char_traits@D@std@@V?$allocator@D@2@@std@@V?$list@IV?$allocator@I@std@@@2@@std@@@std@@@2@$00@2@$00@std@@QBEABU?$less@V?$basic_string@DU?$char_traits@D@std@@V?$allocator@D@2@@std@@@2@XZ 10002bc0 f i ClientSession.obj
 0001:00001bc0       ??0?$allocator@U?$_Tree_node@U?$pair@$$CBIPAVIClientSession@@@std@@PAX@std@@@std@@QAE@XZ 10002bc0 f i ClientSession.obj
 0001:00001bc0       ?_Get_second@?$_Compressed_pair@U?$_Wrap_alloc@V?$allocator@U?$_List_node@PAVIAccount@@PAX@std@@@std@@@std@@V?$_List_val@U?$_List_simple_types@PAVIAccount@@@std@@@2@$00@std@@QBEABV?$_List_val@U?$_List_simple_types@PAVIAccount@@@std@@@2@XZ 10002bc0 f i ClientSession.obj
 0001:00001bc0       ?_Get_second@?$_Compressed_pair@U?$less@V?$basic_string@DU?$char_traits@D@std@@V?$allocator@D@2@@std@@@std@@V?$_Compressed_pair@U?$_Wrap_alloc@V?$allocator@U?$_Tree_node@U?$pair@$$CBV?$basic_string@DU?$char_traits@D@std@@V?$allocator@D@2@@std@@V?$list@IV?$allocator@I@std@@@2@@std@@PAX@std@@@std@@@std@@V?$_Tree_val@U?$_Tree_simple_types@U?$pair@$$CBV?$basic_string@DU?$char_traits@D@std@@V?$allocator@D@2@@std@@V?$list@IV?$allocator@I@std@@@2@@std@@@std@@@2@$00@2@$00@std@@QAEAAV?$_Compressed_pair@U?$_Wrap_alloc@V?$allocator@U?$_Tree_node@U?$pair@$$CBV?$basic_string@DU?$char_traits@D@std@@V?$allocator@D@2@@std@@V?$list@IV?$allocator@I@std@@@2@@std@@PAX@std@@@std@@@std@@V?$_Tree_val@U?$_Tree_simple_types@U?$pair@$$CBV?$basic_string@DU?$char_traits@D@std@@V?$allocator@D@2@@std@@V?$list@IV?$allocator@I@std@@@2@@std@@@std@@@2@$00@2@XZ 10002bc0 f i ClientSession.obj
 0001:00001bc0       ?_Get_second@?$_Compressed_pair@U?$_Wrap_alloc@V?$allocator@U?$_Tree_node@U?$pair@$$CBV?$basic_string@DU?$char_traits@D@std@@V?$allocator@D@2@@std@@V?$list@IV?$allocator@I@std@@@2@@std@@PAX@std@@@std@@@std@@V?$_Tree_val@U?$_Tree_simple_types@U?$pair@$$CBV?$basic_string@DU?$char_traits@D@std@@V?$allocator@D@2@@std@@V?$list@IV?$allocator@I@std@@@2@@std@@@std@@@2@$00@std@@QBEABV?$_Tree_val@U?$_Tree_simple_types@U?$pair@$$CBV?$basic_string@DU?$char_traits@D@std@@V?$allocator@D@2@@std@@V?$list@IV?$allocator@I@std@@@2@@std@@@std@@@2@XZ 10002bc0 f i ClientSession.obj
 0001:00001bc0       ?_Get_first@?$_Compressed_pair@U?$_Wrap_alloc@V?$allocator@U?$_Tree_node@U?$pair@$$CBV?$basic_string@DU?$char_traits@D@std@@V?$allocator@D@2@@std@@V?$list@IV?$allocator@I@std@@@2@@std@@PAX@std@@@std@@@std@@V?$_Tree_val@U?$_Tree_simple_types@U?$pair@$$CBV?$basic_string@DU?$char_traits@D@std@@V?$allocator@D@2@@std@@V?$list@IV?$allocator@I@std@@@2@@std@@@std@@@2@$00@std@@QAEAAU?$_Wrap_alloc@V?$allocator@U?$_Tree_node@U?$pair@$$CBV?$basic_string@DU?$char_traits@D@std@@V?$allocator@D@2@@std@@V?$list@IV?$allocator@I@std@@@2@@std@@PAX@std@@@std@@@2@XZ 10002bc0 f i ClientSession.obj
 0001:00001bc0       ?_Get_second@?$_Compressed_pair@U?$_Wrap_alloc@V?$allocator@U?$_Tree_node@U?$pair@$$CBV?$basic_string@DU?$char_traits@D@std@@V?$allocator@D@2@@std@@V?$list@IV?$allocator@I@std@@@2@@std@@PAX@std@@@std@@@std@@V?$_Tree_val@U?$_Tree_simple_types@U?$pair@$$CBV?$basic_string@DU?$char_traits@D@std@@V?$allocator@D@2@@std@@V?$list@IV?$allocator@I@std@@@2@@std@@@std@@@2@$00@std@@QAEAAV?$_Tree_val@U?$_Tree_simple_types@U?$pair@$$CBV?$basic_string@DU?$char_traits@D@std@@V?$allocator@D@2@@std@@V?$list@IV?$allocator@I@std@@@2@@std@@@std@@@2@XZ 10002bc0 f i ClientSession.obj
 0001:00001bc0       ?_Get_first@?$_Compressed_pair@U?$_Wrap_alloc@V?$allocator@D@std@@@std@@V?$_String_val@U?$_Simple_types@D@std@@@2@$00@std@@QBEABU?$_Wrap_alloc@V?$allocator@D@std@@@2@XZ 10002bc0 f i ClientProtocolImpl.obj
 0001:00001bc0       ?_Get_second@?$_Compressed_pair@U?$less@V?$basic_string@DU?$char_traits@D@std@@V?$allocator@D@2@@std@@@std@@V?$_Compressed_pair@U?$_Wrap_alloc@V?$allocator@U?$_Tree_node@U?$pair@$$CBV?$basic_string@DU?$char_traits@D@std@@V?$allocator@D@2@@std@@V?$list@IV?$allocator@I@std@@@2@@std@@PAX@std@@@std@@@std@@V?$_Tree_val@U?$_Tree_simple_types@U?$pair@$$CBV?$basic_string@DU?$char_traits@D@std@@V?$allocator@D@2@@std@@V?$list@IV?$allocator@I@std@@@2@@std@@@std@@@2@$00@2@$00@std@@QBEABV?$_Compressed_pair@U?$_Wrap_alloc@V?$allocator@U?$_Tree_node@U?$pair@$$CBV?$basic_string@DU?$char_traits@D@std@@V?$allocator@D@2@@std@@V?$list@IV?$allocator@I@std@@@2@@std@@PAX@std@@@std@@@std@@V?$_Tree_val@U?$_Tree_simple_types@U?$pair@$$CBV?$basic_string@DU?$char_traits@D@std@@V?$allocator@D@2@@std@@V?$list@IV?$allocator@I@std@@@2@@std@@@std@@@2@$00@2@XZ 10002bc0 f i ClientSession.obj
 0001:00001bc0       ?_Get_first@?$_Compressed_pair@U?$less@I@std@@V?$_Compressed_pair@U?$_Wrap_alloc@V?$allocator@U?$_Tree_node@U?$pair@$$CBIPAVIClientSession@@@std@@PAX@std@@@std@@@std@@V?$_Tree_val@U?$_Tree_simple_types@U?$pair@$$CBIPAVIClientSession@@@std@@@std@@@2@$00@2@$00@std@@QAEAAU?$less@I@2@XZ 10002bc0 f i ClientSession.obj
 0001:00001bd0       ?_Myptr@?$_String_val@U?$_Simple_types@D@std@@@std@@QAEPADXZ 10002bd0 f i ClientProtocolImpl.obj
 0001:00001bd0       ?_Myptr@?$_String_val@U?$_Simple_types@D@std@@@std@@QBEPBDXZ 10002bd0 f i ClientProtocolImpl.obj
 0001:00001c10       ?deallocate@?$_Wrap_alloc@V?$allocator@D@std@@@std@@QAEXPADI@Z 10002c10 f i ClientProtocolImpl.obj
 0001:00001c30       ?_Myres@?$_String_alloc@U?$_String_base_types@DV?$allocator@D@std@@@std@@@std@@QAEAAIXZ 10002c30 f i ClientProtocolImpl.obj
 0001:00001c50       ?_Myhead@?$_List_alloc@U?$_List_base_types@IV?$allocator@I@std@@@std@@@std@@QAEAAPAU?$_List_node@IPAX@2@XZ 10002c50 f i ClientSession.obj
 0001:00001c50       ?_Bx@?$_String_alloc@U?$_String_base_types@DV?$allocator@D@std@@@std@@@std@@QAEAAT_Bxty@?$_String_val@U?$_Simple_types@D@std@@@2@XZ 10002c50 f i ClientProtocolImpl.obj
 0001:00001c50       ?_Myhead@?$_List_alloc@U?$_List_base_types@IV?$allocator@I@std@@@std@@@std@@QBEABQAU?$_List_node@IPAX@2@XZ 10002c50 f i ClientSession.obj
 0001:00001c50       ?_Myhead@?$_List_alloc@U?$_List_base_types@PAVIAccount@@V?$allocator@PAVIAccount@@@std@@@std@@@std@@QAEAAPAU?$_List_node@PAVIAccount@@PAX@2@XZ 10002c50 f i ClientSession.obj
 0001:00001c70       ?_Xran@?$basic_string@DU?$char_traits@D@std@@V?$allocator@D@2@@std@@QBEXXZ 10002c70 f i ClientProtocolImpl.obj
 0001:00001c90       ?_Check_offset@?$basic_string@DU?$char_traits@D@std@@V?$allocator@D@2@@std@@QBEXI@Z 10002c90 f i ClientProtocolImpl.obj
 0001:00001cc0       ?_Inside@?$basic_string@DU?$char_traits@D@std@@V?$allocator@D@2@@std@@QAE_NPBD@Z 10002cc0 f i ClientProtocolImpl.obj
 0001:00001d10       ?_Copy@?$basic_string@DU?$char_traits@D@std@@V?$allocator@D@2@@std@@QAEXII@Z 10002d10 f i ClientProtocolImpl.obj
 0001:00001ef0       ?_Clamp_suffix_size@?$basic_string@DU?$char_traits@D@std@@V?$allocator@D@2@@std@@QBEIII@Z 10002ef0 f i ClientProtocolImpl.obj
 0001:00001f30       ?max_size@?$basic_string@DU?$char_traits@D@std@@V?$allocator@D@2@@std@@QBEIXZ 10002f30 f i ClientProtocolImpl.obj
 0001:00001f70       ?erase@?$basic_string@DU?$char_traits@D@std@@V?$allocator@D@2@@std@@QAEAAV12@II@Z 10002f70 f i ClientProtocolImpl.obj
 0001:00002000       ?erase@?$basic_string@DU?$char_traits@D@std@@V?$allocator@D@2@@std@@QAEAAV12@I@Z 10003000 f i ClientProtocolImpl.obj
 0001:00002030       ?max_size@?$_Wrap_alloc@V?$allocator@D@std@@@std@@QBEIU_Nil@2@@Z 10003030 f i ClientProtocolImpl.obj
 0001:00002050       ?allocate@?$_Wrap_alloc@V?$allocator@D@std@@@std@@QAEPADI@Z 10003050 f i ClientProtocolImpl.obj
 0001:00002070       ?deallocate@?$allocator@D@std@@QAEXPADI@Z 10003070 f i ClientProtocolImpl.obj
 0001:00002090       ?max_size@?$allocator_traits@V?$allocator@D@std@@@std@@SAIABV?$allocator@D@2@@Z 10003090 f i ClientProtocolImpl.obj
 0001:000020a0       ?allocate@?$allocator@D@std@@QAEPADI@Z 100030a0 f i ClientProtocolImpl.obj
 0001:000020c0       ?max_size@?$allocator@D@std@@QBEIXZ 100030c0 f i ClientProtocolImpl.obj
 0001:000020d0       ??$?0$$V@?$_Compressed_pair@U?$_Wrap_alloc@V?$allocator@D@std@@@std@@V?$_String_val@U?$_Simple_types@D@std@@@2@$00@std@@QAE@U_Zero_then_variadic_args_t@1@@Z 100030d0 f i ClientProtocolImpl.obj
 0001:000020f0       ??$forward@V?$allocator@U?$_List_node@IPAX@std@@@std@@@std@@YA$$QAV?$allocator@U?$_List_node@IPAX@std@@@0@AAV10@@Z 100030f0 f i ClientSession.obj
 0001:000020f0       ??$forward@_N@std@@YA$$QA_NAA_N@Z 100030f0 f i ClientSession.obj
 0001:000020f0       ??$forward@AAV?$basic_string@DU?$char_traits@D@std@@V?$allocator@D@2@@std@@@std@@YAAAV?$basic_string@DU?$char_traits@D@std@@V?$allocator@D@2@@0@AAV10@@Z 100030f0 f i ClientSession.obj
 0001:000020f0       ??$forward@ABQAVIAccount@@@std@@YAABQAVIAccount@@ABQAV1@@Z 100030f0 f i ClientSession.obj
 0001:000020f0       ??$move@AAV?$tuple@ABI@std@@@std@@YA$$QAV?$tuple@ABI@0@AAV10@@Z 100030f0 f i ClientSession.obj
 0001:000020f0       ??$forward@AAV?$list@IV?$allocator@I@std@@@std@@@std@@YAAAV?$list@IV?$allocator@I@std@@@0@AAV10@@Z 100030f0 f i ClientSession.obj
 0001:000020f0       ??$forward@AAV?$_Tree_iterator@V?$_Tree_val@U?$_Tree_simple_types@U?$pair@$$CBV?$basic_string@DU?$char_traits@D@std@@V?$allocator@D@2@@std@@V?$list@IV?$allocator@I@std@@@2@@std@@@std@@@std@@@std@@@std@@YAAAV?$_Tree_iterator@V?$_Tree_val@U?$_Tree_simple_types@U?$pair@$$CBV?$basic_string@DU?$char_traits@D@std@@V?$allocator@D@2@@std@@V?$list@IV?$allocator@I@std@@@2@@std@@@std@@@std@@@0@AAV10@@Z 100030f0 f i ClientSession.obj
 0001:000020f0       ??$forward@V?$_Tree_iterator@V?$_Tree_val@U?$_Tree_simple_types@U?$pair@$$CBV?$basic_string@DU?$char_traits@D@std@@V?$allocator@D@2@@std@@V?$list@IV?$allocator@I@std@@@2@@std@@@std@@@std@@@std@@@std@@YA$$QAV?$_Tree_iterator@V?$_Tree_val@U?$_Tree_simple_types@U?$pair@$$CBV?$basic_string@DU?$char_traits@D@std@@V?$allocator@D@2@@std@@V?$list@IV?$allocator@I@std@@@2@@std@@@std@@@std@@@0@AAV10@@Z 100030f0 f i ClientSession.obj
 0001:000020f0       ??$forward@AAPAU?$_Tree_node@U?$pair@$$CBV?$basic_string@DU?$char_traits@D@std@@V?$allocator@D@2@@std@@V?$list@IV?$allocator@I@std@@@2@@std@@PAX@std@@@std@@YAAAPAU?$_Tree_node@U?$pair@$$CBV?$basic_string@DU?$char_traits@D@std@@V?$allocator@D@2@@std@@V?$list@IV?$allocator@I@std@@@2@@std@@PAX@0@AAPAU10@@Z 100030f0 f i ClientSession.obj
 0001:000020f0       ??$forward@ABU?$less@I@std@@@std@@YAABU?$less@I@0@ABU10@@Z 100030f0 f i ClientSession.obj
 0001:000020f0       ?_Left@?$_Tree_val@U?$_Tree_simple_types@U?$pair@$$CBV?$basic_string@DU?$char_traits@D@std@@V?$allocator@D@2@@std@@V?$list@IV?$allocator@I@std@@@2@@std@@@std@@@std@@SAAAPAU?$_Tree_node@U?$pair@$$CBV?$basic_string@DU?$char_traits@D@std@@V?$allocator@D@2@@std@@V?$list@IV?$allocator@I@std@@@2@@std@@PAX@2@PAU32@@Z 100030f0 f i ClientSession.obj
 0001:000020f0       ??$forward@AAU?$pair@IPAVIClientSession@@@std@@@std@@YAAAU?$pair@IPAVIClientSession@@@0@AAU10@@Z 100030f0 f i ClientSession.obj
 0001:000020f0       ?_Left@?$_Tree_val@U?$_Tree_simple_types@U?$pair@$$CBIPAVIClientSession@@@std@@@std@@@std@@SAAAPAU?$_Tree_node@U?$pair@$$CBIPAVIClientSession@@@std@@PAX@2@PAU32@@Z 100030f0 f i ClientSession.obj
 0001:000020f0       ??$forward@V?$_Tree_iterator@V?$_Tree_val@U?$_Tree_simple_types@U?$pair@$$CBIPAVIClientSession@@@std@@@std@@@std@@@std@@@std@@YA$$QAV?$_Tree_iterator@V?$_Tree_val@U?$_Tree_simple_types@U?$pair@$$CBIPAVIClientSession@@@std@@@std@@@std@@@0@AAV10@@Z 100030f0 f i ClientSession.obj
 0001:000020f0       ??$forward@AAPAU?$_Tree_node@U?$pair@$$CBIPAVIClientSession@@@std@@PAX@std@@@std@@YAAAPAU?$_Tree_node@U?$pair@$$CBIPAVIClientSession@@@std@@PAX@0@AAPAU10@@Z 100030f0 f i ClientSession.obj
 0001:000020f0       ??$forward@AAPAD@std@@YAAAPADAAPAD@Z 100030f0 f i ClientProtocolImpl.obj
 0001:000020f0       ??$addressof@$$CBI@std@@YAPBIABI@Z 100030f0 f i ClientSession.obj
 0001:000020f0       ??$forward@AAPAU?$_List_node@PAVIAccount@@PAX@std@@@std@@YAAAPAU?$_List_node@PAVIAccount@@PAX@0@AAPAU10@@Z 100030f0 f i ClientSession.obj
 0001:000020f0       ??$forward@V?$tuple@$$V@std@@@std@@YA$$QAV?$tuple@$$V@0@AAV10@@Z 100030f0 f i ClientSession.obj
 0001:000020f0       ??$addressof@PAD@std@@YAPAPADAAPAD@Z 100030f0 f i ClientProtocolImpl.obj
 0001:000020f0       ??$_Kfn@$$CBIPAVIClientSession@@@?$_Tmap_traits@IPAVIClientSession@@U?$less@I@std@@V?$allocator@U?$pair@$$CBIPAVIClientSession@@@std@@@3@$0A@@std@@SAABIABU?$pair@$$CBIPAVIClientSession@@@1@@Z 100030f0 f i ClientSession.obj
 0001:000020f0       ??$_Unfancy@D@std@@YAPADPAD@Z 100030f0 f i ClientProtocolImpl.obj
 0001:000020f0       ??$forward@U?$_Wrap_alloc@V?$allocator@U?$_List_node@IPAX@std@@@std@@@std@@@std@@YA$$QAU?$_Wrap_alloc@V?$allocator@U?$_List_node@IPAX@std@@@std@@@0@AAU10@@Z 100030f0 f i ClientSession.obj
 0001:000020f0       ??$forward@AAV?$_Tree_iterator@V?$_Tree_val@U?$_Tree_simple_types@U?$pair@$$CBIPAVIClientSession@@@std@@@std@@@std@@@std@@@std@@YAAAV?$_Tree_iterator@V?$_Tree_val@U?$_Tree_simple_types@U?$pair@$$CBIPAVIClientSession@@@std@@@std@@@std@@@0@AAV10@@Z 100030f0 f i ClientSession.obj
 0001:000020f0       ??$addressof@PAU?$_Tree_node@U?$pair@$$CBV?$basic_string@DU?$char_traits@D@std@@V?$allocator@D@2@@std@@V?$list@IV?$allocator@I@std@@@2@@std@@PAX@std@@@std@@YAPAPAU?$_Tree_node@U?$pair@$$CBV?$basic_string@DU?$char_traits@D@std@@V?$allocator@D@2@@std@@V?$list@IV?$allocator@I@std@@@2@@std@@PAX@0@AAPAU10@@Z 100030f0 f i ClientSession.obj
 0001:000020f0       ??$addressof@PAVIAccount@@@std@@YAPAPAVIAccount@@AAPAV1@@Z 100030f0 f i ClientSession.obj
 0001:000020f0       ??$forward@AAU?$pair@$$CBIPAVIClientSession@@@std@@@std@@YAAAU?$pair@$$CBIPAVIClientSession@@@0@AAU10@@Z 100030f0 f i ClientSession.obj
 0001:000020f0       ??$_Kfn@$$CBV?$basic_string@DU?$char_traits@D@std@@V?$allocator@D@2@@std@@V?$list@IV?$allocator@I@std@@@2@@?$_Tmap_traits@V?$basic_string@DU?$char_traits@D@std@@V?$allocator@D@2@@std@@V?$list@IV?$allocator@I@std@@@2@U?$less@V?$basic_string@DU?$char_traits@D@std@@V?$allocator@D@2@@std@@@2@V?$allocator@U?$pair@$$CBV?$basic_string@DU?$char_traits@D@std@@V?$allocator@D@2@@std@@V?$list@IV?$allocator@I@std@@@2@@std@@@2@$0A@@std@@SAABV?$basic_string@DU?$char_traits@D@std@@V?$allocator@D@2@@1@ABU?$pair@$$CBV?$basic_string@DU?$char_traits@D@std@@V?$allocator@D@2@@std@@V?$list@IV?$allocator@I@std@@@2@@1@@Z 100030f0 f i ClientSession.obj
 0001:000020f0       ??$forward@ABU?$less@V?$basic_string@DU?$char_traits@D@std@@V?$allocator@D@2@@std@@@std@@@std@@YAABU?$less@V?$basic_string@DU?$char_traits@D@std@@V?$allocator@D@2@@std@@@0@ABU10@@Z 100030f0 f i ClientSession.obj
 0001:000020f0       ??$forward@AAPAVIClientSession@@@std@@YAAAPAVIClientSession@@AAPAV1@@Z 100030f0 f i ClientSession.obj
 0001:000020f0       ??$addressof@U?$pair@$$CBIPAVIClientSession@@@std@@@std@@YAPAU?$pair@$$CBIPAVIClientSession@@@0@AAU10@@Z 100030f0 f i ClientSession.obj
 0001:000020f0       ??$move@AAD@std@@YA$$QADAAD@Z 100030f0 f i ClientSession.obj
 0001:000020f0       ??$forward@U_Zero_then_variadic_args_t@std@@@std@@YA$$QAU_Zero_then_variadic_args_t@0@AAU10@@Z 100030f0 f i ClientSession.obj
 0001:000020f0       ??$forward@I@std@@YA$$QAIAAI@Z 100030f0 f i ClientSession.obj
 0001:000020f0       ??$forward@U?$_Wrap_alloc@V?$allocator@D@std@@@std@@@std@@YA$$QAU?$_Wrap_alloc@V?$allocator@D@std@@@0@AAU10@@Z 100030f0 f i ClientSession.obj
 0001:000020f0       ??$forward@ABI@std@@YAABIABI@Z 100030f0 f i ClientSession.obj
 0001:000020f0       ??$move@AAU?$_Wrap_alloc@V?$allocator@D@std@@@std@@@std@@YA$$QAU?$_Wrap_alloc@V?$allocator@D@std@@@0@AAU10@@Z 100030f0 f i ClientSession.obj
 0001:000020f0       ??$forward@AAU?$pair@$$CBV?$basic_string@DU?$char_traits@D@std@@V?$allocator@D@2@@std@@V?$list@IV?$allocator@I@std@@@2@@std@@@std@@YAAAU?$pair@$$CBV?$basic_string@DU?$char_traits@D@std@@V?$allocator@D@2@@std@@V?$list@IV?$allocator@I@std@@@2@@0@AAU10@@Z 100030f0 f i ClientSession.obj
 0001:000020f0       ?_Nextnode@?$_List_val@U?$_List_simple_types@I@std@@@std@@SAAAPAU?$_List_node@IPAX@2@PAU32@@Z 100030f0 f i ClientSession.obj
 0001:000020f0       ??$addressof@PAU?$_List_node@IPAX@std@@@std@@YAPAPAU?$_List_node@IPAX@0@AAPAU10@@Z 100030f0 f i ClientSession.obj
 0001:000020f0       ?_Nextnode@?$_List_val@U?$_List_simple_types@PAVIAccount@@@std@@@std@@SAAAPAU?$_List_node@PAVIAccount@@PAX@2@PAU32@@Z 100030f0 f i ClientSession.obj
 0001:000020f0       ??$forward@V?$allocator@D@std@@@std@@YA$$QAV?$allocator@D@0@AAV10@@Z 100030f0 f i ClientSession.obj
 0001:000020f0       ??$forward@AAPAU?$_List_node@IPAX@std@@@std@@YAAAPAU?$_List_node@IPAX@0@AAPAU10@@Z 100030f0 f i ClientSession.obj
 0001:000020f0       ??$move@AAU?$_Wrap_alloc@V?$allocator@U?$_List_node@IPAX@std@@@std@@@std@@@std@@YA$$QAU?$_Wrap_alloc@V?$allocator@U?$_List_node@IPAX@std@@@std@@@0@AAU10@@Z 100030f0 f i ClientSession.obj
 0001:000020f0       ??$forward@ABUpiecewise_construct_t@std@@@std@@YAABUpiecewise_construct_t@0@ABU10@@Z 100030f0 f i ClientSession.obj
 0001:000020f0       ??$addressof@I@std@@YAPAIAAI@Z 100030f0 f i ClientSession.obj
 0001:000020f0       ??$addressof@PAU?$_List_node@PAVIAccount@@PAX@std@@@std@@YAPAPAU?$_List_node@PAVIAccount@@PAX@0@AAPAU10@@Z 100030f0 f i ClientSession.obj
 0001:000020f0       ??$addressof@U?$pair@$$CBV?$basic_string@DU?$char_traits@D@std@@V?$allocator@D@2@@std@@V?$list@IV?$allocator@I@std@@@2@@std@@@std@@YAPAU?$pair@$$CBV?$basic_string@DU?$char_traits@D@std@@V?$allocator@D@2@@std@@V?$list@IV?$allocator@I@std@@@2@@0@AAU10@@Z 100030f0 f i ClientSession.obj
 0001:000020f0       ??$addressof@PAU?$_Tree_node@U?$pair@$$CBIPAVIClientSession@@@std@@PAX@std@@@std@@YAPAPAU?$_Tree_node@U?$pair@$$CBIPAVIClientSession@@@std@@PAX@0@AAPAU10@@Z 100030f0 f i ClientSession.obj
 0001:000020f0       ??$forward@V?$tuple@ABI@std@@@std@@YA$$QAV?$tuple@ABI@0@AAV10@@Z 100030f0 f i ClientSession.obj
 0001:000020f0       ??$forward@AAU?$pair@V?$basic_string@DU?$char_traits@D@std@@V?$allocator@D@2@@std@@V?$list@IV?$allocator@I@std@@@2@@std@@@std@@YAAAU?$pair@V?$basic_string@DU?$char_traits@D@std@@V?$allocator@D@2@@std@@V?$list@IV?$allocator@I@std@@@2@@0@AAU10@@Z 100030f0 f i ClientSession.obj
 0001:00002100       ??$destroy@PAU?$_List_node@IPAX@std@@@?$_Wrap_alloc@V?$allocator@U?$_List_node@IPAX@std@@@std@@@std@@QAEXPAPAU?$_List_node@IPAX@1@@Z 10003100 f i ClientSession.obj
 0001:00002100       ??$destroy@PAU?$_Tree_node@U?$pair@$$CBIPAVIClientSession@@@std@@PAX@std@@@?$_Wrap_alloc@V?$allocator@U?$_Tree_node@U?$pair@$$CBIPAVIClientSession@@@std@@PAX@std@@@std@@@std@@QAEXPAPAU?$_Tree_node@U?$pair@$$CBIPAVIClientSession@@@std@@PAX@1@@Z 10003100 f i ClientSession.obj
 0001:00002100       ??$destroy@PAVIAccount@@@?$_Wrap_alloc@V?$allocator@U?$_List_node@PAVIAccount@@PAX@std@@@std@@@std@@QAEXPAPAVIAccount@@@Z 10003100 f i ClientSession.obj
 0001:00002100       ??$destroy@PAD@?$_Wrap_alloc@V?$allocator@D@std@@@std@@QAEXPAPAD@Z 10003100 f i ClientProtocolImpl.obj
 0001:00002100       ??$destroy@U?$pair@$$CBIPAVIClientSession@@@std@@@?$_Wrap_alloc@V?$allocator@U?$_Tree_node@U?$pair@$$CBIPAVIClientSession@@@std@@PAX@std@@@std@@@std@@QAEXPAU?$pair@$$CBIPAVIClientSession@@@1@@Z 10003100 f i ClientSession.obj
 0001:00002100       ??$destroy@PAU?$_List_node@PAVIAccount@@PAX@std@@@?$_Wrap_alloc@V?$allocator@U?$_List_node@PAVIAccount@@PAX@std@@@std@@@std@@QAEXPAPAU?$_List_node@PAVIAccount@@PAX@1@@Z 10003100 f i ClientSession.obj
 0001:00002100       ??$destroy@I@?$_Wrap_alloc@V?$allocator@U?$_List_node@IPAX@std@@@std@@@std@@QAEXPAI@Z 10003100 f i ClientSession.obj
 0001:00002100       ??$destroy@PAU?$_Tree_node@U?$pair@$$CBV?$basic_string@DU?$char_traits@D@std@@V?$allocator@D@2@@std@@V?$list@IV?$allocator@I@std@@@2@@std@@PAX@std@@@?$_Wrap_alloc@V?$allocator@U?$_Tree_node@U?$pair@$$CBV?$basic_string@DU?$char_traits@D@std@@V?$allocator@D@2@@std@@V?$list@IV?$allocator@I@std@@@2@@std@@PAX@std@@@std@@@std@@QAEXPAPAU?$_Tree_node@U?$pair@$$CBV?$basic_string@DU?$char_traits@D@std@@V?$allocator@D@2@@std@@V?$list@IV?$allocator@I@std@@@2@@std@@PAX@1@@Z 10003100 f i ClientSession.obj
 0001:00002120       ??$construct@PAU?$_Tree_node@U?$pair@$$CBV?$basic_string@DU?$char_traits@D@std@@V?$allocator@D@2@@std@@V?$list@IV?$allocator@I@std@@@2@@std@@PAX@std@@AAPAU12@@?$_Wrap_alloc@V?$allocator@U?$_Tree_node@U?$pair@$$CBV?$basic_string@DU?$char_traits@D@std@@V?$allocator@D@2@@std@@V?$list@IV?$allocator@I@std@@@2@@std@@PAX@std@@@std@@@std@@QAEXPAPAU?$_Tree_node@U?$pair@$$CBV?$basic_string@DU?$char_traits@D@std@@V?$allocator@D@2@@std@@V?$list@IV?$allocator@I@std@@@2@@std@@PAX@1@AAPAU21@@Z 10003120 f i ClientSession.obj
 0001:00002120       ??$construct@PAU?$_List_node@IPAX@std@@AAPAU12@@?$_Wrap_alloc@V?$allocator@U?$_List_node@IPAX@std@@@std@@@std@@QAEXPAPAU?$_List_node@IPAX@1@AAPAU21@@Z 10003120 f i ClientSession.obj
 0001:00002120       ??$construct@IABI@?$_Wrap_alloc@V?$allocator@U?$_List_node@IPAX@std@@@std@@@std@@QAEXPAIABI@Z 10003120 f i ClientSession.obj
 0001:00002120       ??$construct@II@?$_Wrap_alloc@V?$allocator@U?$_List_node@IPAX@std@@@std@@@std@@QAEXPAI$$QAI@Z 10003120 f i ClientSession.obj
 0001:00002120       ??$construct@PADAAPAD@?$_Wrap_alloc@V?$allocator@D@std@@@std@@QAEXPAPADAAPAD@Z 10003120 f i ClientProtocolImpl.obj
 0001:00002120       ??$construct@PAVIAccount@@ABQAV1@@?$_Wrap_alloc@V?$allocator@U?$_List_node@PAVIAccount@@PAX@std@@@std@@@std@@QAEXPAPAVIAccount@@ABQAV2@@Z 10003120 f i ClientSession.obj
 0001:00002120       ??$construct@PAU?$_List_node@PAVIAccount@@PAX@std@@AAPAU12@@?$_Wrap_alloc@V?$allocator@U?$_List_node@PAVIAccount@@PAX@std@@@std@@@std@@QAEXPAPAU?$_List_node@PAVIAccount@@PAX@1@AAPAU21@@Z 10003120 f i ClientSession.obj
 0001:00002120       ??$construct@PAU?$_Tree_node@U?$pair@$$CBIPAVIClientSession@@@std@@PAX@std@@AAPAU12@@?$_Wrap_alloc@V?$allocator@U?$_Tree_node@U?$pair@$$CBIPAVIClientSession@@@std@@PAX@std@@@std@@@std@@QAEXPAPAU?$_Tree_node@U?$pair@$$CBIPAVIClientSession@@@std@@PAX@1@AAPAU21@@Z 10003120 f i ClientSession.obj
 0001:00002150       ??0?$_String_val@U?$_Simple_types@D@std@@@std@@QAE@XZ 10003150 f i ClientProtocolImpl.obj
 0001:00002180       ??0?$_Wrap_alloc@V?$allocator@U?$_List_node@PAVIAccount@@PAX@std@@@std@@@std@@QAE@XZ 10003180 f i ClientSession.obj
 0001:00002180       ??0?$_Wrap_alloc@V?$allocator@U?$_Tree_node@U?$pair@$$CBV?$basic_string@DU?$char_traits@D@std@@V?$allocator@D@2@@std@@V?$list@IV?$allocator@I@std@@@2@@std@@PAX@std@@@std@@@std@@QAE@XZ 10003180 f i ClientSession.obj
 0001:00002180       ??0?$_Wrap_alloc@V?$allocator@U?$_Tree_node@U?$pair@$$CBIPAVIClientSession@@@std@@PAX@std@@@std@@@std@@QAE@XZ 10003180 f i ClientSession.obj
 0001:00002180       ??0?$_Wrap_alloc@V?$allocator@U?$_List_node@IPAX@std@@@std@@@std@@QAE@XZ 10003180 f i ClientSession.obj
 0001:00002180       ??0?$_Wrap_alloc@V?$allocator@D@std@@@std@@QAE@XZ 10003180 f i ClientProtocolImpl.obj
 0001:000021a0       ??$destroy@PAU?$_Tree_node@U?$pair@$$CBIPAVIClientSession@@@std@@PAX@std@@@?$allocator_traits@V?$allocator@U?$_Tree_node@U?$pair@$$CBIPAVIClientSession@@@std@@PAX@std@@@std@@@std@@SAXAAV?$allocator@U?$_Tree_node@U?$pair@$$CBIPAVIClientSession@@@std@@PAX@std@@@1@PAPAU?$_Tree_node@U?$pair@$$CBIPAVIClientSession@@@std@@PAX@1@@Z 100031a0 f i ClientSession.obj
 0001:000021a0       ??$destroy@I@?$allocator_traits@V?$allocator@U?$_List_node@IPAX@std@@@std@@@std@@SAXAAV?$allocator@U?$_List_node@IPAX@std@@@1@PAI@Z 100031a0 f i ClientSession.obj
 0001:000021a0       ??$destroy@PAU?$_Tree_node@U?$pair@$$CBV?$basic_string@DU?$char_traits@D@std@@V?$allocator@D@2@@std@@V?$list@IV?$allocator@I@std@@@2@@std@@PAX@std@@@?$allocator_traits@V?$allocator@U?$_Tree_node@U?$pair@$$CBV?$basic_string@DU?$char_traits@D@std@@V?$allocator@D@2@@std@@V?$list@IV?$allocator@I@std@@@2@@std@@PAX@std@@@std@@@std@@SAXAAV?$allocator@U?$_Tree_node@U?$pair@$$CBV?$basic_string@DU?$char_traits@D@std@@V?$allocator@D@2@@std@@V?$list@IV?$allocator@I@std@@@2@@std@@PAX@std@@@1@PAPAU?$_Tree_node@U?$pair@$$CBV?$basic_string@DU?$char_traits@D@std@@V?$allocator@D@2@@std@@V?$list@IV?$allocator@I@std@@@2@@std@@PAX@1@@Z 100031a0 f i ClientSession.obj
 0001:000021a0       ??$destroy@PAU?$_List_node@IPAX@std@@@?$allocator_traits@V?$allocator@U?$_List_node@IPAX@std@@@std@@@std@@SAXAAV?$allocator@U?$_List_node@IPAX@std@@@1@PAPAU?$_List_node@IPAX@1@@Z 100031a0 f i ClientSession.obj
 0001:000021a0       ??$destroy@PAD@?$allocator_traits@V?$allocator@D@std@@@std@@SAXAAV?$allocator@D@1@PAPAD@Z 100031a0 f i ClientProtocolImpl.obj
 0001:000021a0       ??$destroy@PAU?$_List_node@PAVIAccount@@PAX@std@@@?$allocator_traits@V?$allocator@U?$_List_node@PAVIAccount@@PAX@std@@@std@@@std@@SAXAAV?$allocator@U?$_List_node@PAVIAccount@@PAX@std@@@1@PAPAU?$_List_node@PAVIAccount@@PAX@1@@Z 100031a0 f i ClientSession.obj
 0001:000021a0       ??$destroy@PAVIAccount@@@?$allocator_traits@V?$allocator@U?$_List_node@PAVIAccount@@PAX@std@@@std@@@std@@SAXAAV?$allocator@U?$_List_node@PAVIAccount@@PAX@std@@@1@PAPAVIAccount@@@Z 100031a0 f i ClientSession.obj
 0001:000021a0       ??$destroy@U?$pair@$$CBIPAVIClientSession@@@std@@@?$allocator_traits@V?$allocator@U?$_Tree_node@U?$pair@$$CBIPAVIClientSession@@@std@@PAX@std@@@std@@@std@@SAXAAV?$allocator@U?$_Tree_node@U?$pair@$$CBIPAVIClientSession@@@std@@PAX@std@@@1@PAU?$pair@$$CBIPAVIClientSession@@@1@@Z 100031a0 f i ClientSession.obj
 0001:000021c0       ??$construct@II@?$allocator_traits@V?$allocator@U?$_List_node@IPAX@std@@@std@@@std@@SAXAAV?$allocator@U?$_List_node@IPAX@std@@@1@PAI$$QAI@Z 100031c0 f i ClientSession.obj
 0001:000021c0       ??$construct@PAU?$_Tree_node@U?$pair@$$CBV?$basic_string@DU?$char_traits@D@std@@V?$allocator@D@2@@std@@V?$list@IV?$allocator@I@std@@@2@@std@@PAX@std@@AAPAU12@@?$allocator_traits@V?$allocator@U?$_Tree_node@U?$pair@$$CBV?$basic_string@DU?$char_traits@D@std@@V?$allocator@D@2@@std@@V?$list@IV?$allocator@I@std@@@2@@std@@PAX@std@@@std@@@std@@SAXAAV?$allocator@U?$_Tree_node@U?$pair@$$CBV?$basic_string@DU?$char_traits@D@std@@V?$allocator@D@2@@std@@V?$list@IV?$allocator@I@std@@@2@@std@@PAX@std@@@1@PAPAU?$_Tree_node@U?$pair@$$CBV?$basic_string@DU?$char_traits@D@std@@V?$allocator@D@2@@std@@V?$list@IV?$allocator@I@std@@@2@@std@@PAX@1@AAPAU31@@Z 100031c0 f i ClientSession.obj
 0001:000021c0       ??$construct@PAU?$_List_node@PAVIAccount@@PAX@std@@AAPAU12@@?$allocator_traits@V?$allocator@U?$_List_node@PAVIAccount@@PAX@std@@@std@@@std@@SAXAAV?$allocator@U?$_List_node@PAVIAccount@@PAX@std@@@1@PAPAU?$_List_node@PAVIAccount@@PAX@1@AAPAU31@@Z 100031c0 f i ClientSession.obj
 0001:000021c0       ??$construct@PADAAPAD@?$allocator_traits@V?$allocator@D@std@@@std@@SAXAAV?$allocator@D@1@PAPADAAPAD@Z 100031c0 f i ClientProtocolImpl.obj
 0001:000021c0       ??$construct@IABI@?$allocator_traits@V?$allocator@U?$_List_node@IPAX@std@@@std@@@std@@SAXAAV?$allocator@U?$_List_node@IPAX@std@@@1@PAIABI@Z 100031c0 f i ClientSession.obj
 0001:000021c0       ??$construct@PAU?$_List_node@IPAX@std@@AAPAU12@@?$allocator_traits@V?$allocator@U?$_List_node@IPAX@std@@@std@@@std@@SAXAAV?$allocator@U?$_List_node@IPAX@std@@@1@PAPAU?$_List_node@IPAX@1@AAPAU31@@Z 100031c0 f i ClientSession.obj
 0001:000021c0       ??$construct@PAU?$_Tree_node@U?$pair@$$CBIPAVIClientSession@@@std@@PAX@std@@AAPAU12@@?$allocator_traits@V?$allocator@U?$_Tree_node@U?$pair@$$CBIPAVIClientSession@@@std@@PAX@std@@@std@@@std@@SAXAAV?$allocator@U?$_Tree_node@U?$pair@$$CBIPAVIClientSession@@@std@@PAX@std@@@1@PAPAU?$_Tree_node@U?$pair@$$CBIPAVIClientSession@@@std@@PAX@1@AAPAU31@@Z 100031c0 f i ClientSession.obj
 0001:000021c0       ??$construct@PAVIAccount@@ABQAV1@@?$allocator_traits@V?$allocator@U?$_List_node@PAVIAccount@@PAX@std@@@std@@@std@@SAXAAV?$allocator@U?$_List_node@PAVIAccount@@PAX@std@@@1@PAPAVIAccount@@ABQAV3@@Z 100031c0 f i ClientSession.obj
 0001:000021e0       ??$destroy@PAU?$_List_node@IPAX@std@@@?$allocator@U?$_List_node@IPAX@std@@@std@@QAEXPAPAU?$_List_node@IPAX@1@@Z 100031e0 f i ClientSession.obj
 0001:000021e0       ??$destroy@I@?$allocator@U?$_List_node@IPAX@std@@@std@@QAEXPAI@Z 100031e0 f i ClientSession.obj
 0001:000021e0       ??$destroy@PAD@?$allocator@D@std@@QAEXPAPAD@Z 100031e0 f i ClientProtocolImpl.obj
 0001:000021e0       ??$destroy@U?$pair@$$CBIPAVIClientSession@@@std@@@?$allocator@U?$_Tree_node@U?$pair@$$CBIPAVIClientSession@@@std@@PAX@std@@@std@@QAEXPAU?$pair@$$CBIPAVIClientSession@@@1@@Z 100031e0 f i ClientSession.obj
 0001:000021e0       ??$destroy@PAU?$_Tree_node@U?$pair@$$CBV?$basic_string@DU?$char_traits@D@std@@V?$allocator@D@2@@std@@V?$list@IV?$allocator@I@std@@@2@@std@@PAX@std@@@?$allocator@U?$_Tree_node@U?$pair@$$CBV?$basic_string@DU?$char_traits@D@std@@V?$allocator@D@2@@std@@V?$list@IV?$allocator@I@std@@@2@@std@@PAX@std@@@std@@QAEXPAPAU?$_Tree_node@U?$pair@$$CBV?$basic_string@DU?$char_traits@D@std@@V?$allocator@D@2@@std@@V?$list@IV?$allocator@I@std@@@2@@std@@PAX@1@@Z 100031e0 f i ClientSession.obj
 0001:000021e0       ?_Adopt@_Iterator_base0@std@@QAEXPBX@Z 100031e0 f i ClientSession.obj
 0001:000021e0       ??$destroy@PAU?$_List_node@PAVIAccount@@PAX@std@@@?$allocator@U?$_List_node@PAVIAccount@@PAX@std@@@std@@QAEXPAPAU?$_List_node@PAVIAccount@@PAX@1@@Z 100031e0 f i ClientSession.obj
 0001:000021e0       ??$destroy@PAVIAccount@@@?$allocator@U?$_List_node@PAVIAccount@@PAX@std@@@std@@QAEXPAPAVIAccount@@@Z 100031e0 f i ClientSession.obj
 0001:000021e0       ??$destroy@PAU?$_Tree_node@U?$pair@$$CBIPAVIClientSession@@@std@@PAX@std@@@?$allocator@U?$_Tree_node@U?$pair@$$CBIPAVIClientSession@@@std@@PAX@std@@@std@@QAEXPAPAU?$_Tree_node@U?$pair@$$CBIPAVIClientSession@@@std@@PAX@1@@Z 100031e0 f i ClientSession.obj
 0001:000021f0       ??$construct@PADAAPAD@?$allocator@D@std@@QAEXPAPADAAPAD@Z 100031f0 f i ClientProtocolImpl.obj
 0001:000021f0       ??$construct@PAU?$_List_node@IPAX@std@@AAPAU12@@?$allocator@U?$_List_node@IPAX@std@@@std@@QAEXPAPAU?$_List_node@IPAX@1@AAPAU21@@Z 100031f0 f i ClientSession.obj
 0001:000021f0       ??$construct@IABI@?$allocator@U?$_List_node@IPAX@std@@@std@@QAEXPAIABI@Z 100031f0 f i ClientSession.obj
 0001:000021f0       ??$construct@PAVIAccount@@ABQAV1@@?$allocator@U?$_List_node@PAVIAccount@@PAX@std@@@std@@QAEXPAPAVIAccount@@ABQAV2@@Z 100031f0 f i ClientSession.obj
 0001:000021f0       ??$construct@PAU?$_List_node@PAVIAccount@@PAX@std@@AAPAU12@@?$allocator@U?$_List_node@PAVIAccount@@PAX@std@@@std@@QAEXPAPAU?$_List_node@PAVIAccount@@PAX@1@AAPAU21@@Z 100031f0 f i ClientSession.obj
 0001:000021f0       ??$construct@PAU?$_Tree_node@U?$pair@$$CBV?$basic_string@DU?$char_traits@D@std@@V?$allocator@D@2@@std@@V?$list@IV?$allocator@I@std@@@2@@std@@PAX@std@@AAPAU12@@?$allocator@U?$_Tree_node@U?$pair@$$CBV?$basic_string@DU?$char_traits@D@std@@V?$allocator@D@2@@std@@V?$list@IV?$allocator@I@std@@@2@@std@@PAX@std@@@std@@QAEXPAPAU?$_Tree_node@U?$pair@$$CBV?$basic_string@DU?$char_traits@D@std@@V?$allocator@D@2@@std@@V?$list@IV?$allocator@I@std@@@2@@std@@PAX@1@AAPAU21@@Z 100031f0 f i ClientSession.obj
 0001:000021f0       ??$construct@PAU?$_Tree_node@U?$pair@$$CBIPAVIClientSession@@@std@@PAX@std@@AAPAU12@@?$allocator@U?$_Tree_node@U?$pair@$$CBIPAVIClientSession@@@std@@PAX@std@@@std@@QAEXPAPAU?$_Tree_node@U?$pair@$$CBIPAVIClientSession@@@std@@PAX@1@AAPAU21@@Z 100031f0 f i ClientSession.obj
 0001:000021f0       ??$construct@II@?$allocator@U?$_List_node@IPAX@std@@@std@@QAEXPAI$$QAI@Z 100031f0 f i ClientSession.obj
 0001:00002240       ??3@YAXPAX0@Z              10003240 f i ClientSession.obj
 0001:00002250       ?compare@?$char_traits@D@std@@SAHPBD0I@Z 10003250 f i ClientSession.obj
 0001:00002290       ?_Getcont@_Iterator_base0@std@@QBEPBU_Container_base0@2@XZ 10003290 f i ClientSession.obj
 0001:000022a0       ??0?$allocator@D@std@@QAE@ABV01@@Z 100032a0 f i ClientSession.obj
 0001:000022a0       ??$?0U_Exact_args_t@std@@$0A@@?$tuple@$$V@std@@QAE@U_Exact_args_t@1@@Z 100032a0 f i ClientSession.obj
 0001:000022a0       ??0?$tuple@$$V@std@@QAE@ABV01@@Z 100032a0 f i ClientSession.obj
 0001:000022a0       ??0?$allocator@U?$_List_node@IPAX@std@@@std@@QAE@ABV01@@Z 100032a0 f i ClientSession.obj
 0001:00002710       ??1IClientSession@@UAE@XZ  10003710 f i ClientSession.obj
 0001:00002730       ??_GIClientSession@@UAEPAXI@Z 10003730 f i ClientSession.obj
 0001:00002730       ??_EIClientSession@@UAEPAXI@Z 10003730 f i * CIL library *:* CIL module *
 0001:00002760       ??1IClientSessionMgr@@UAE@XZ 10003760 f i ClientSession.obj
 0001:00002780       ??_EIClientSessionMgr@@UAEPAXI@Z 10003780 f i * CIL library *:* CIL module *
 0001:00002780       ??_GIClientSessionMgr@@UAEPAXI@Z 10003780 f i ClientSession.obj
 0001:000027b0       ?GetAccountList@ClientSession@@UAEAAV?$list@PAVIAccount@@V?$allocator@PAVIAccount@@@std@@@std@@XZ 100037b0 f i ClientSession.obj
 0001:000027d0       ??0ClientSession@@QAE@IPADG@Z 100037d0 f   ClientSession.obj
 0001:00002930       ??_GClientSession@@UAEPAXI@Z 10003930 f i ClientSession.obj
 0001:00002930       ??_EClientSession@@UAEPAXI@Z 10003930 f i * CIL library *:* CIL module *
 0001:00002970       ??0IClientSession@@QAE@XZ  10003970 f i ClientSession.obj
 0001:00002990       ??1ClientSession@@UAE@XZ   10003990 f   ClientSession.obj
 0001:000029f0       ?GetClientId@ClientSession@@UAEIXZ 100039f0 f   ClientSession.obj
 0001:00002a10       ?GetClientIp@ClientSession@@UAEPADXZ 10003a10 f   ClientSession.obj
 0001:00002a30       ?GetclientPort@ClientSession@@UAEGXZ 10003a30 f   ClientSession.obj
 0001:00002a50       ?HandleRecdBuffer@ClientSession@@UAEXPADIPAVIServerProtocolEvents@@@Z 10003a50 f   ClientSession.obj
 0001:00002f70       ?AddAccount@ClientSession@@UAEXPAVIAccount@@@Z 10003f70 f   ClientSession.obj
 0001:00002fb0       ?RemoveAccount@ClientSession@@UAE?AV?$_List_iterator@V?$_List_val@U?$_List_simple_types@PAVIAccount@@@std@@@std@@@std@@PAVIAccount@@AAV23@@Z 10003fb0 f   ClientSession.obj
 0001:00003010       ?SetUserName@ClientSession@@UAEXPAD@Z 10004010 f   ClientSession.obj
 0001:00003030       ?GetUserNameA@ClientSession@@UAEPBDXZ 10004030 f   ClientSession.obj
 0001:00003050       ??0ClientSessionMgr@@QAE@PAVIServerProtocol@@@Z 10004050 f   ClientSession.obj
 0001:00003120       ??_EClientSessionMgr@@UAEPAXI@Z 10004120 f i * CIL library *:* CIL module *
 0001:00003120       ??_GClientSessionMgr@@UAEPAXI@Z 10004120 f i ClientSession.obj
 0001:00003150       ??0IClientSessionMgr@@QAE@XZ 10004150 f i ClientSession.obj
 0001:00003170       ??1?$map@IPAVIClientSession@@U?$less@I@std@@V?$allocator@U?$pair@$$CBIPAVIClientSession@@@std@@@3@@std@@QAE@XZ 10004170 f i ClientSession.obj
 0001:00003190       ??1?$map@V?$basic_string@DU?$char_traits@D@std@@V?$allocator@D@2@@std@@V?$list@IV?$allocator@I@std@@@2@U?$less@V?$basic_string@DU?$char_traits@D@std@@V?$allocator@D@2@@std@@@2@V?$allocator@U?$pair@$$CBV?$basic_string@DU?$char_traits@D@std@@V?$allocator@D@2@@std@@V?$list@IV?$allocator@I@std@@@2@@std@@@2@@std@@QAE@XZ 10004190 f i ClientSession.obj
 0001:000031b0       ??1ClientSessionMgr@@UAE@XZ 100041b0 f   ClientSession.obj
 0001:000032d0       ?UpdateSendTime@ClientSessionMgr@@UAE_NI@Z 100042d0 f   ClientSession.obj
 0001:00003360       ?Add@ClientSessionMgr@@UAEXIPADG@Z 10004360 f   ClientSession.obj
 0001:00003430       ?AcquireSessionLock@ClientSessionMgr@@UAEXXZ 10004430 f   ClientSession.obj
 0001:00003460       ?ReleaseSessionLock@ClientSessionMgr@@UAEXXZ 10004460 f   ClientSession.obj
 0001:00003490       ?AddUserName@ClientSessionMgr@@UAEXIV?$basic_string@DU?$char_traits@D@std@@V?$allocator@D@2@@std@@@Z 10004490 f   ClientSession.obj
 0001:00003640       ??1?$pair@$$CBV?$basic_string@DU?$char_traits@D@std@@V?$allocator@D@2@@std@@V?$list@IV?$allocator@I@std@@@2@@std@@QAE@XZ 10004640 f i ClientSession.obj
 0001:00003640       ??1?$pair@V?$basic_string@DU?$char_traits@D@std@@V?$allocator@D@2@@std@@V?$list@IV?$allocator@I@std@@@2@@std@@QAE@XZ 10004640 f i ClientSession.obj
 0001:00003660       ?Remove@ClientSessionMgr@@UAEXI@Z 10004660 f   ClientSession.obj
 0001:000037f0       ?GetClientSessionList@ClientSessionMgr@@UAEPAV?$list@IV?$allocator@I@std@@@std@@V?$basic_string@DU?$char_traits@D@std@@V?$allocator@D@2@@3@@Z 100047f0 f   ClientSession.obj
 0001:00003890       ?GetClientSession@ClientSessionMgr@@UAEPAVIClientSession@@I@Z 10004890 f   ClientSession.obj
 0001:00003910       ?DisconnectClient@ClientSessionMgr@@UAEXI@Z 10004910 f   ClientSession.obj
 0001:00003940       ?IsShutdown@ClientSessionMgr@@UAE_NXZ 10004940 f   ClientSession.obj
 0001:00003960       ?ConnectionReviewer@ClientSessionMgr@@SAKPAX@Z 10004960 f   ClientSession.obj
 0001:00003970       ?SetGroupID@ClientSession@@UAEXH@Z 10004970 f   ClientSession.obj
 0001:00003990       ?GetGroupID@ClientSession@@UAEHXZ 10004990 f   ClientSession.obj
 0001:000039b0       ??D?$_Tree_iterator@V?$_Tree_val@U?$_Tree_simple_types@U?$pair@$$CBIPAVIClientSession@@@std@@@std@@@std@@@std@@QBEAAU?$pair@$$CBIPAVIClientSession@@@1@XZ 100049b0 f i ClientSession.obj
 0001:000039b0       ??D?$_Tree_iterator@V?$_Tree_val@U?$_Tree_simple_types@U?$pair@$$CBV?$basic_string@DU?$char_traits@D@std@@V?$allocator@D@2@@std@@V?$list@IV?$allocator@I@std@@@2@@std@@@std@@@std@@@std@@QBEAAU?$pair@$$CBV?$basic_string@DU?$char_traits@D@std@@V?$allocator@D@2@@std@@V?$list@IV?$allocator@I@std@@@2@@1@XZ 100049b0 f i ClientSession.obj
 0001:000039d0       ??9?$_Tree_const_iterator@V?$_Tree_val@U?$_Tree_simple_types@U?$pair@$$CBIPAVIClientSession@@@std@@@std@@@std@@@std@@QBE_NABV01@@Z 100049d0 f i ClientSession.obj
 0001:000039d0       ??9?$_Tree_const_iterator@V?$_Tree_val@U?$_Tree_simple_types@U?$pair@$$CBV?$basic_string@DU?$char_traits@D@std@@V?$allocator@D@2@@std@@V?$list@IV?$allocator@I@std@@@2@@std@@@std@@@std@@@std@@QBE_NABV01@@Z 100049d0 f i ClientSession.obj
 0001:000039d0       ??9?$_List_const_iterator@V?$_List_val@U?$_List_simple_types@I@std@@@std@@@std@@QBE_NABV01@@Z 100049d0 f i ClientSession.obj
 0001:00003a10       ?find@?$_Tree@V?$_Tmap_traits@V?$basic_string@DU?$char_traits@D@std@@V?$allocator@D@2@@std@@V?$list@IV?$allocator@I@std@@@2@U?$less@V?$basic_string@DU?$char_traits@D@std@@V?$allocator@D@2@@std@@@2@V?$allocator@U?$pair@$$CBV?$basic_string@DU?$char_traits@D@std@@V?$allocator@D@2@@std@@V?$list@IV?$allocator@I@std@@@2@@std@@@2@$0A@@std@@@std@@QAE?AV?$_Tree_iterator@V?$_Tree_val@U?$_Tree_simple_types@U?$pair@$$CBV?$basic_string@DU?$char_traits@D@std@@V?$allocator@D@2@@std@@V?$list@IV?$allocator@I@std@@@2@@std@@@std@@@std@@@2@ABV?$basic_string@DU?$char_traits@D@std@@V?$allocator@D@2@@2@@Z 10004a10 f i ClientSession.obj
 0001:00003ab0       ?erase@?$_Tree@V?$_Tmap_traits@V?$basic_string@DU?$char_traits@D@std@@V?$allocator@D@2@@std@@V?$list@IV?$allocator@I@std@@@2@U?$less@V?$basic_string@DU?$char_traits@D@std@@V?$allocator@D@2@@std@@@2@V?$allocator@U?$pair@$$CBV?$basic_string@DU?$char_traits@D@std@@V?$allocator@D@2@@std@@V?$list@IV?$allocator@I@std@@@2@@std@@@2@$0A@@std@@@std@@QAE?AV?$_Tree_iterator@V?$_Tree_val@U?$_Tree_simple_types@U?$pair@$$CBV?$basic_string@DU?$char_traits@D@std@@V?$allocator@D@2@@std@@V?$list@IV?$allocator@I@std@@@2@@std@@@std@@@std@@@2@V?$_Tree_const_iterator@V?$_Tree_val@U?$_Tree_simple_types@U?$pair@$$CBV?$basic_string@DU?$char_traits@D@std@@V?$allocator@D@2@@std@@V?$list@IV?$allocator@I@std@@@2@@std@@@std@@@std@@@2@@Z 10004ab0 f i ClientSession.obj
 0001:00004230       ?end@?$_Tree@V?$_Tmap_traits@IPAVIClientSession@@U?$less@I@std@@V?$allocator@U?$pair@$$CBIPAVIClientSession@@@std@@@3@$0A@@std@@@std@@QAE?AV?$_Tree_iterator@V?$_Tree_val@U?$_Tree_simple_types@U?$pair@$$CBIPAVIClientSession@@@std@@@std@@@std@@@2@XZ 10005230 f i ClientSession.obj
 0001:00004230       ?end@?$_Tree@V?$_Tmap_traits@V?$basic_string@DU?$char_traits@D@std@@V?$allocator@D@2@@std@@V?$list@IV?$allocator@I@std@@@2@U?$less@V?$basic_string@DU?$char_traits@D@std@@V?$allocator@D@2@@std@@@2@V?$allocator@U?$pair@$$CBV?$basic_string@DU?$char_traits@D@std@@V?$allocator@D@2@@std@@V?$list@IV?$allocator@I@std@@@2@@std@@@2@$0A@@std@@@std@@QAE?AV?$_Tree_iterator@V?$_Tree_val@U?$_Tree_simple_types@U?$pair@$$CBV?$basic_string@DU?$char_traits@D@std@@V?$allocator@D@2@@std@@V?$list@IV?$allocator@I@std@@@2@@std@@@std@@@std@@@2@XZ 10005230 f i ClientSession.obj
 0001:00004290       ??1?$_Tree@V?$_Tmap_traits@V?$basic_string@DU?$char_traits@D@std@@V?$allocator@D@2@@std@@V?$list@IV?$allocator@I@std@@@2@U?$less@V?$basic_string@DU?$char_traits@D@std@@V?$allocator@D@2@@std@@@2@V?$allocator@U?$pair@$$CBV?$basic_string@DU?$char_traits@D@std@@V?$allocator@D@2@@std@@V?$list@IV?$allocator@I@std@@@2@@std@@@2@$0A@@std@@@std@@QAE@XZ 10005290 f i ClientSession.obj
 0001:000042e0       ??0?$map@V?$basic_string@DU?$char_traits@D@std@@V?$allocator@D@2@@std@@V?$list@IV?$allocator@I@std@@@2@U?$less@V?$basic_string@DU?$char_traits@D@std@@V?$allocator@D@2@@std@@@2@V?$allocator@U?$pair@$$CBV?$basic_string@DU?$char_traits@D@std@@V?$allocator@D@2@@std@@V?$list@IV?$allocator@I@std@@@2@@std@@@2@@std@@QAE@XZ 100052e0 f i ClientSession.obj
 0001:00004300       ??E?$_Tree_iterator@V?$_Tree_val@U?$_Tree_simple_types@U?$pair@$$CBIPAVIClientSession@@@std@@@std@@@std@@@std@@QAE?AV01@H@Z 10005300 f i ClientSession.obj
 0001:00004330       ??C?$_Tree_iterator@V?$_Tree_val@U?$_Tree_simple_types@U?$pair@$$CBIPAVIClientSession@@@std@@@std@@@std@@@std@@QBEPAU?$pair@$$CBIPAVIClientSession@@@1@XZ 10005330 f i ClientSession.obj
 0001:00004350       ??0?$_Tree_iterator@V?$_Tree_val@U?$_Tree_simple_types@U?$pair@$$CBIPAVIClientSession@@@std@@@std@@@std@@@std@@QAE@XZ 10005350 f i ClientSession.obj
 0001:00004370       ?find@?$_Tree@V?$_Tmap_traits@IPAVIClientSession@@U?$less@I@std@@V?$allocator@U?$pair@$$CBIPAVIClientSession@@@std@@@3@$0A@@std@@@std@@QAE?AV?$_Tree_iterator@V?$_Tree_val@U?$_Tree_simple_types@U?$pair@$$CBIPAVIClientSession@@@std@@@std@@@std@@@2@ABI@Z 10005370 f i ClientSession.obj
 0001:00004410       ?clear@?$_Tree@V?$_Tmap_traits@IPAVIClientSession@@U?$less@I@std@@V?$allocator@U?$pair@$$CBIPAVIClientSession@@@std@@@3@$0A@@std@@@std@@QAEXXZ 10005410 f i ClientSession.obj
 0001:000044b0       ?erase@?$_Tree@V?$_Tmap_traits@IPAVIClientSession@@U?$less@I@std@@V?$allocator@U?$pair@$$CBIPAVIClientSession@@@std@@@3@$0A@@std@@@std@@QAE?AV?$_Tree_iterator@V?$_Tree_val@U?$_Tree_simple_types@U?$pair@$$CBIPAVIClientSession@@@std@@@std@@@std@@@2@V?$_Tree_const_iterator@V?$_Tree_val@U?$_Tree_simple_types@U?$pair@$$CBIPAVIClientSession@@@std@@@std@@@std@@@2@@Z 100054b0 f i ClientSession.obj
 0001:00004c30       ?begin@?$_Tree@V?$_Tmap_traits@V?$basic_string@DU?$char_traits@D@std@@V?$allocator@D@2@@std@@V?$list@IV?$allocator@I@std@@@2@U?$less@V?$basic_string@DU?$char_traits@D@std@@V?$allocator@D@2@@std@@@2@V?$allocator@U?$pair@$$CBV?$basic_string@DU?$char_traits@D@std@@V?$allocator@D@2@@std@@V?$list@IV?$allocator@I@std@@@2@@std@@@2@$0A@@std@@@std@@QAE?AV?$_Tree_iterator@V?$_Tree_val@U?$_Tree_simple_types@U?$pair@$$CBV?$basic_string@DU?$char_traits@D@std@@V?$allocator@D@2@@std@@V?$list@IV?$allocator@I@std@@@2@@std@@@std@@@std@@@2@XZ 10005c30 f i ClientSession.obj
 0001:00004c30       ?begin@?$_Tree@V?$_Tmap_traits@IPAVIClientSession@@U?$less@I@std@@V?$allocator@U?$pair@$$CBIPAVIClientSession@@@std@@@3@$0A@@std@@@std@@QAE?AV?$_Tree_iterator@V?$_Tree_val@U?$_Tree_simple_types@U?$pair@$$CBIPAVIClientSession@@@std@@@std@@@std@@@2@XZ 10005c30 f i ClientSession.obj
 0001:00004c90       ??1?$_Tree@V?$_Tmap_traits@IPAVIClientSession@@U?$less@I@std@@V?$allocator@U?$pair@$$CBIPAVIClientSession@@@std@@@3@$0A@@std@@@std@@QAE@XZ 10005c90 f i ClientSession.obj
 0001:00004ce0       ??A?$map@IPAVIClientSession@@U?$less@I@std@@V?$allocator@U?$pair@$$CBIPAVIClientSession@@@std@@@3@@std@@QAEAAPAVIClientSession@@ABI@Z 10005ce0 f i ClientSession.obj
 0001:00004d10       ??0?$map@IPAVIClientSession@@U?$less@I@std@@V?$allocator@U?$pair@$$CBIPAVIClientSession@@@std@@@3@@std@@QAE@XZ 10005d10 f i ClientSession.obj
 0001:00004d30       ?remove@?$list@IV?$allocator@I@std@@@std@@QAEXABI@Z 10005d30 f i ClientSession.obj
 0001:00004e20       ?empty@?$list@IV?$allocator@I@std@@@std@@QBE_NXZ 10005e20 f i ClientSession.obj
 0001:00004e50       ??1?$list@PAVIAccount@@V?$allocator@PAVIAccount@@@std@@@std@@QAE@XZ 10005e50 f i ClientSession.obj
 0001:00004e50       ??1?$list@IV?$allocator@I@std@@@std@@QAE@XZ 10005e50 f i ClientSession.obj
 0001:00004ea0       ?push_back@?$list@IV?$allocator@I@std@@@std@@QAEX$$QAI@Z 10005ea0 f i ClientSession.obj
 0001:00004ee0       ??0?$list@IV?$allocator@I@std@@@std@@QAE@XZ 10005ee0 f i ClientSession.obj
 0001:00004ee0       ??0?$list@PAVIAccount@@V?$allocator@PAVIAccount@@@std@@@std@@QAE@XZ 10005ee0 f i ClientSession.obj
 0001:00004f00       ?erase@?$list@PAVIAccount@@V?$allocator@PAVIAccount@@@std@@@std@@QAE?AV?$_List_iterator@V?$_List_val@U?$_List_simple_types@PAVIAccount@@@std@@@std@@@2@V?$_List_const_iterator@V?$_List_val@U?$_List_simple_types@PAVIAccount@@@std@@@std@@@2@@Z 10005f00 f i ClientSession.obj
 0001:00004f00       ?erase@?$list@IV?$allocator@I@std@@@std@@QAE?AV?$_List_iterator@V?$_List_val@U?$_List_simple_types@I@std@@@std@@@2@V?$_List_const_iterator@V?$_List_val@U?$_List_simple_types@I@std@@@std@@@2@@Z 10005f00 f i ClientSession.obj
 0001:00004f50       ?push_back@?$list@PAVIAccount@@V?$allocator@PAVIAccount@@@std@@@std@@QAEXABQAVIAccount@@@Z 10005f50 f i ClientSession.obj
 0001:00004f80       ?compare@?$basic_string@DU?$char_traits@D@std@@V?$allocator@D@2@@std@@QBEHABV12@@Z 10005f80 f i ClientSession.obj
 0001:00004ff0       ?c_str@?$basic_string@DU?$char_traits@D@std@@V?$allocator@D@2@@std@@QBEPBDXZ 10005ff0 f i ClientSession.obj
 0001:00005030       ??4?$basic_string@DU?$char_traits@D@std@@V?$allocator@D@2@@std@@QAEAAV01@PBD@Z 10006030 f i ClientSession.obj
 0001:00005050       ??0?$basic_string@DU?$char_traits@D@std@@V?$allocator@D@2@@std@@QAE@XZ 10006050 f i ClientSession.obj
 0001:000050a0       ??0?$basic_string@DU?$char_traits@D@std@@V?$allocator@D@2@@std@@QAE@ABV01@@Z 100060a0 f i ClientSession.obj
 0001:00005130       ??1?$_List_buy@IV?$allocator@I@std@@@std@@QAE@XZ 10006130 f i ClientSession.obj
 0001:00005130       ??1?$_List_buy@PAVIAccount@@V?$allocator@PAVIAccount@@@std@@@std@@QAE@XZ 10006130 f i ClientSession.obj
 0001:00005150       ?_Nextnode@?$_List_alloc@U?$_List_base_types@IV?$allocator@I@std@@@std@@@std@@SAAAPAU?$_List_node@IPAX@2@PAU32@@Z 10006150 f i ClientSession.obj
 0001:00005150       ?_Left@?$_Tree_comp_alloc@V?$_Tmap_traits@V?$basic_string@DU?$char_traits@D@std@@V?$allocator@D@2@@std@@V?$list@IV?$allocator@I@std@@@2@U?$less@V?$basic_string@DU?$char_traits@D@std@@V?$allocator@D@2@@std@@@2@V?$allocator@U?$pair@$$CBV?$basic_string@DU?$char_traits@D@std@@V?$allocator@D@2@@std@@V?$list@IV?$allocator@I@std@@@2@@std@@@2@$0A@@std@@@std@@SAAAPAU?$_Tree_node@U?$pair@$$CBV?$basic_string@DU?$char_traits@D@std@@V?$allocator@D@2@@std@@V?$list@IV?$allocator@I@std@@@2@@std@@PAX@2@PAU32@@Z 10006150 f i ClientSession.obj
 0001:00005150       ?_Nextnode@?$_List_alloc@U?$_List_base_types@PAVIAccount@@V?$allocator@PAVIAccount@@@std@@@std@@@std@@SAAAPAU?$_List_node@PAVIAccount@@PAX@2@PAU32@@Z 10006150 f i ClientSession.obj
 0001:00005150       ?_Left@?$_Tree_comp_alloc@V?$_Tmap_traits@IPAVIClientSession@@U?$less@I@std@@V?$allocator@U?$pair@$$CBIPAVIClientSession@@@std@@@3@$0A@@std@@@std@@SAAAPAU?$_Tree_node@U?$pair@$$CBIPAVIClientSession@@@std@@PAX@2@PAU32@@Z 10006150 f i ClientSession.obj
 0001:00005150       ?pointer_to@?$pointer_traits@PAU?$pair@$$CBIPAVIClientSession@@@std@@@std@@SAPAU?$pair@$$CBIPAVIClientSession@@@2@AAU32@@Z 10006150 f i ClientSession.obj
 0001:00005170       ??E?$_List_iterator@V?$_List_val@U?$_List_simple_types@I@std@@@std@@@std@@QAE?AV01@H@Z 10006170 f i ClientSession.obj
 0001:000051a0       ??E?$_List_iterator@V?$_List_val@U?$_List_simple_types@I@std@@@std@@@std@@QAEAAV01@XZ 100061a0 f i ClientSession.obj
 0001:000051c0       ??D?$_List_iterator@V?$_List_val@U?$_List_simple_types@I@std@@@std@@@std@@QBEAAIXZ 100061c0 f i ClientSession.obj
 0001:000051e0       ?_Mysize@?$_List_alloc@U?$_List_base_types@PAVIAccount@@V?$allocator@PAVIAccount@@@std@@@std@@@std@@QAEAAIXZ 100061e0 f i ClientSession.obj
 0001:000051e0       ?_Mysize@?$_List_alloc@U?$_List_base_types@IV?$allocator@I@std@@@std@@@std@@QAEAAIXZ 100061e0 f i ClientSession.obj
 0001:000051e0       ?_Mysize@?$_List_alloc@U?$_List_base_types@IV?$allocator@I@std@@@std@@@std@@QBEABIXZ 100061e0 f i ClientSession.obj
 0001:00005200       ??1?$_List_alloc@U?$_List_base_types@PAVIAccount@@V?$allocator@PAVIAccount@@@std@@@std@@@std@@QAE@XZ 10006200 f i ClientSession.obj
 0001:00005200       ??1?$_List_alloc@U?$_List_base_types@IV?$allocator@I@std@@@std@@@std@@QAE@XZ 10006200 f i ClientSession.obj
 0001:00005250       ??0?$_List_buy@PAVIAccount@@V?$allocator@PAVIAccount@@@std@@@std@@QAE@XZ 10006250 f i ClientSession.obj
 0001:00005250       ??0?$_List_buy@IV?$allocator@I@std@@@std@@QAE@XZ 10006250 f i ClientSession.obj
 0001:00005270       ?_Mynode@?$_List_unchecked_const_iterator@V?$_List_val@U?$_List_simple_types@PAVIAccount@@@std@@@std@@U_Iterator_base0@2@@std@@QBEPAU?$_List_node@PAVIAccount@@PAX@2@XZ 10006270 f i ClientSession.obj
 0001:00005270       ?_Mynode@?$_List_unchecked_const_iterator@V?$_List_val@U?$_List_simple_types@I@std@@@std@@U_Iterator_base0@2@@std@@QBEPAU?$_List_node@IPAX@2@XZ 10006270 f i ClientSession.obj
 0001:00005270       ?_Mynode@?$_Tree_unchecked_const_iterator@V?$_Tree_val@U?$_Tree_simple_types@U?$pair@$$CBIPAVIClientSession@@@std@@@std@@@std@@U_Iterator_base0@2@@std@@QBEPAU?$_Tree_node@U?$pair@$$CBIPAVIClientSession@@@std@@PAX@2@XZ 10006270 f i ClientSession.obj
 0001:00005270       ?_Mynode@?$_Tree_unchecked_const_iterator@V?$_Tree_val@U?$_Tree_simple_types@U?$pair@$$CBV?$basic_string@DU?$char_traits@D@std@@V?$allocator@D@2@@std@@V?$list@IV?$allocator@I@std@@@2@@std@@@std@@@std@@U_Iterator_base0@2@@std@@QBEPAU?$_Tree_node@U?$pair@$$CBV?$basic_string@DU?$char_traits@D@std@@V?$allocator@D@2@@std@@V?$list@IV?$allocator@I@std@@@2@@std@@PAX@2@XZ 10006270 f i ClientSession.obj
 0001:00005280       ??0?$_List_iterator@V?$_List_val@U?$_List_simple_types@PAVIAccount@@@std@@@std@@@std@@QAE@PAU?$_List_node@PAVIAccount@@PAX@1@PBV?$_List_val@U?$_List_simple_types@PAVIAccount@@@std@@@1@@Z 10006280 f i ClientSession.obj
 0001:00005280       ??0?$_List_iterator@V?$_List_val@U?$_List_simple_types@I@std@@@std@@@std@@QAE@PAU?$_List_node@IPAX@1@PBV?$_List_val@U?$_List_simple_types@I@std@@@1@@Z 10006280 f i ClientSession.obj
 0001:00005280       ??0?$_Tree_iterator@V?$_Tree_val@U?$_Tree_simple_types@U?$pair@$$CBV?$basic_string@DU?$char_traits@D@std@@V?$allocator@D@2@@std@@V?$list@IV?$allocator@I@std@@@2@@std@@@std@@@std@@@std@@QAE@PAU?$_Tree_node@U?$pair@$$CBV?$basic_string@DU?$char_traits@D@std@@V?$allocator@D@2@@std@@V?$list@IV?$allocator@I@std@@@2@@std@@PAX@1@PBV?$_Tree_val@U?$_Tree_simple_types@U?$pair@$$CBV?$basic_string@DU?$char_traits@D@std@@V?$allocator@D@2@@std@@V?$list@IV?$allocator@I@std@@@2@@std@@@std@@@1@@Z 10006280 f i ClientSession.obj
 0001:00005280       ??0?$_Tree_iterator@V?$_Tree_val@U?$_Tree_simple_types@U?$pair@$$CBIPAVIClientSession@@@std@@@std@@@std@@@std@@QAE@PAU?$_Tree_node@U?$pair@$$CBIPAVIClientSession@@@std@@PAX@1@PBV?$_Tree_val@U?$_Tree_simple_types@U?$pair@$$CBIPAVIClientSession@@@std@@@std@@@1@@Z 10006280 f i ClientSession.obj
 0001:000052a0       ??8?$_Tree_const_iterator@V?$_Tree_val@U?$_Tree_simple_types@U?$pair@$$CBIPAVIClientSession@@@std@@@std@@@std@@@std@@QBE_NABV01@@Z 100062a0 f i ClientSession.obj
 0001:000052a0       ??8?$_Tree_const_iterator@V?$_Tree_val@U?$_Tree_simple_types@U?$pair@$$CBV?$basic_string@DU?$char_traits@D@std@@V?$allocator@D@2@@std@@V?$list@IV?$allocator@I@std@@@2@@std@@@std@@@std@@@std@@QBE_NABV01@@Z 100062a0 f i ClientSession.obj
 0001:000052a0       ??8?$_List_const_iterator@V?$_List_val@U?$_List_simple_types@I@std@@@std@@@std@@QBE_NABV01@@Z 100062a0 f i ClientSession.obj
 0001:000052d0       ??E?$_Tree_const_iterator@V?$_Tree_val@U?$_Tree_simple_types@U?$pair@$$CBIPAVIClientSession@@@std@@@std@@@std@@@std@@QAEAAV01@XZ 100062d0 f i ClientSession.obj
 0001:000052d0       ??E?$_Tree_const_iterator@V?$_Tree_val@U?$_Tree_simple_types@U?$pair@$$CBV?$basic_string@DU?$char_traits@D@std@@V?$allocator@D@2@@std@@V?$list@IV?$allocator@I@std@@@2@@std@@@std@@@std@@@std@@QAEAAV01@XZ 100062d0 f i ClientSession.obj
 0001:000052f0       ??D?$_Tree_const_iterator@V?$_Tree_val@U?$_Tree_simple_types@U?$pair@$$CBIPAVIClientSession@@@std@@@std@@@std@@@std@@QBEABU?$pair@$$CBIPAVIClientSession@@@1@XZ 100062f0 f i ClientSession.obj
 0001:000052f0       ??D?$_Tree_const_iterator@V?$_Tree_val@U?$_Tree_simple_types@U?$pair@$$CBV?$basic_string@DU?$char_traits@D@std@@V?$allocator@D@2@@std@@V?$list@IV?$allocator@I@std@@@2@@std@@@std@@@std@@@std@@QBEABU?$pair@$$CBV?$basic_string@DU?$char_traits@D@std@@V?$allocator@D@2@@std@@V?$list@IV?$allocator@I@std@@@2@@1@XZ 100062f0 f i ClientSession.obj
 0001:00005310       ?deallocate@?$_Wrap_alloc@V?$allocator@U?$_Tree_node@U?$pair@$$CBV?$basic_string@DU?$char_traits@D@std@@V?$allocator@D@2@@std@@V?$list@IV?$allocator@I@std@@@2@@std@@PAX@std@@@std@@@std@@QAEXPAU?$_Tree_node@U?$pair@$$CBV?$basic_string@DU?$char_traits@D@std@@V?$allocator@D@2@@std@@V?$list@IV?$allocator@I@std@@@2@@std@@PAX@2@I@Z 10006310 f i ClientSession.obj
 0001:00005330       ?_Mysize@?$_Tree_comp_alloc@V?$_Tmap_traits@IPAVIClientSession@@U?$less@I@std@@V?$allocator@U?$pair@$$CBIPAVIClientSession@@@std@@@3@$0A@@std@@@std@@QAEAAIXZ 10006330 f i ClientSession.obj
 0001:00005330       ?_Mysize@?$_Tree_comp_alloc@V?$_Tmap_traits@IPAVIClientSession@@U?$less@I@std@@V?$allocator@U?$pair@$$CBIPAVIClientSession@@@std@@@3@$0A@@std@@@std@@QBEABIXZ 10006330 f i ClientSession.obj
 0001:00005330       ?_Mysize@?$_Tree_comp_alloc@V?$_Tmap_traits@V?$basic_string@DU?$char_traits@D@std@@V?$allocator@D@2@@std@@V?$list@IV?$allocator@I@std@@@2@U?$less@V?$basic_string@DU?$char_traits@D@std@@V?$allocator@D@2@@std@@@2@V?$allocator@U?$pair@$$CBV?$basic_string@DU?$char_traits@D@std@@V?$allocator@D@2@@std@@V?$list@IV?$allocator@I@std@@@2@@std@@@2@$0A@@std@@@std@@QAEAAIXZ 10006330 f i ClientSession.obj
 0001:00005350       ?_Myhead@?$_Tree_comp_alloc@V?$_Tmap_traits@IPAVIClientSession@@U?$less@I@std@@V?$allocator@U?$pair@$$CBIPAVIClientSession@@@std@@@3@$0A@@std@@@std@@QBEABQAU?$_Tree_node@U?$pair@$$CBIPAVIClientSession@@@std@@PAX@2@XZ 10006350 f i ClientSession.obj
 0001:00005350       ?_Myhead@?$_Tree_comp_alloc@V?$_Tmap_traits@V?$basic_string@DU?$char_traits@D@std@@V?$allocator@D@2@@std@@V?$list@IV?$allocator@I@std@@@2@U?$less@V?$basic_string@DU?$char_traits@D@std@@V?$allocator@D@2@@std@@@2@V?$allocator@U?$pair@$$CBV?$basic_string@DU?$char_traits@D@std@@V?$allocator@D@2@@std@@V?$list@IV?$allocator@I@std@@@2@@std@@@2@$0A@@std@@@std@@QAEAAPAU?$_Tree_node@U?$pair@$$CBV?$basic_string@DU?$char_traits@D@std@@V?$allocator@D@2@@std@@V?$list@IV?$allocator@I@std@@@2@@std@@PAX@2@XZ 10006350 f i ClientSession.obj
 0001:00005350       ?_Myhead@?$_Tree_comp_alloc@V?$_Tmap_traits@V?$basic_string@DU?$char_traits@D@std@@V?$allocator@D@2@@std@@V?$list@IV?$allocator@I@std@@@2@U?$less@V?$basic_string@DU?$char_traits@D@std@@V?$allocator@D@2@@std@@@2@V?$allocator@U?$pair@$$CBV?$basic_string@DU?$char_traits@D@std@@V?$allocator@D@2@@std@@V?$list@IV?$allocator@I@std@@@2@@std@@@2@$0A@@std@@@std@@QBEABQAU?$_Tree_node@U?$pair@$$CBV?$basic_string@DU?$char_traits@D@std@@V?$allocator@D@2@@std@@V?$list@IV?$allocator@I@std@@@2@@std@@PAX@2@XZ 10006350 f i ClientSession.obj
 0001:00005350       ?_Myhead@?$_Tree_comp_alloc@V?$_Tmap_traits@IPAVIClientSession@@U?$less@I@std@@V?$allocator@U?$pair@$$CBIPAVIClientSession@@@std@@@3@$0A@@std@@@std@@QAEAAPAU?$_Tree_node@U?$pair@$$CBIPAVIClientSession@@@std@@PAX@2@XZ 10006350 f i ClientSession.obj
 0001:00005370       ?_Getal@?$_Tree_comp_alloc@V?$_Tmap_traits@IPAVIClientSession@@U?$less@I@std@@V?$allocator@U?$pair@$$CBIPAVIClientSession@@@std@@@3@$0A@@std@@@std@@QBEABU?$_Wrap_alloc@V?$allocator@U?$_Tree_node@U?$pair@$$CBIPAVIClientSession@@@std@@PAX@std@@@std@@@2@XZ 10006370 f i ClientSession.obj
 0001:00005370       ?_Get_data@?$_Tree_comp_alloc@V?$_Tmap_traits@V?$basic_string@DU?$char_traits@D@std@@V?$allocator@D@2@@std@@V?$list@IV?$allocator@I@std@@@2@U?$less@V?$basic_string@DU?$char_traits@D@std@@V?$allocator@D@2@@std@@@2@V?$allocator@U?$pair@$$CBV?$basic_string@DU?$char_traits@D@std@@V?$allocator@D@2@@std@@V?$list@IV?$allocator@I@std@@@2@@std@@@2@$0A@@std@@@std@@QAEAAV?$_Tree_val@U?$_Tree_simple_types@U?$pair@$$CBV?$basic_string@DU?$char_traits@D@std@@V?$allocator@D@2@@std@@V?$list@IV?$allocator@I@std@@@2@@std@@@std@@@2@XZ 10006370 f i ClientSession.obj
 0001:00005370       ?_Get_data@?$_Tree_comp_alloc@V?$_Tmap_traits@V?$basic_string@DU?$char_traits@D@std@@V?$allocator@D@2@@std@@V?$list@IV?$allocator@I@std@@@2@U?$less@V?$basic_string@DU?$char_traits@D@std@@V?$allocator@D@2@@std@@@2@V?$allocator@U?$pair@$$CBV?$basic_string@DU?$char_traits@D@std@@V?$allocator@D@2@@std@@V?$list@IV?$allocator@I@std@@@2@@std@@@2@$0A@@std@@@std@@QBEABV?$_Tree_val@U?$_Tree_simple_types@U?$pair@$$CBV?$basic_string@DU?$char_traits@D@std@@V?$allocator@D@2@@std@@V?$list@IV?$allocator@I@std@@@2@@std@@@std@@@2@XZ 10006370 f i ClientSession.obj
 0001:00005370       ?_Getal@?$_Tree_comp_alloc@V?$_Tmap_traits@V?$basic_string@DU?$char_traits@D@std@@V?$allocator@D@2@@std@@V?$list@IV?$allocator@I@std@@@2@U?$less@V?$basic_string@DU?$char_traits@D@std@@V?$allocator@D@2@@std@@@2@V?$allocator@U?$pair@$$CBV?$basic_string@DU?$char_traits@D@std@@V?$allocator@D@2@@std@@V?$list@IV?$allocator@I@std@@@2@@std@@@2@$0A@@std@@@std@@QAEAAU?$_Wrap_alloc@V?$allocator@U?$_Tree_node@U?$pair@$$CBV?$basic_string@DU?$char_traits@D@std@@V?$allocator@D@2@@std@@V?$list@IV?$allocator@I@std@@@2@@std@@PAX@std@@@std@@@2@XZ 10006370 f i ClientSession.obj
 0001:00005370       ?_Get_data@?$_Tree_comp_alloc@V?$_Tmap_traits@IPAVIClientSession@@U?$less@I@std@@V?$allocator@U?$pair@$$CBIPAVIClientSession@@@std@@@3@$0A@@std@@@std@@QAEAAV?$_Tree_val@U?$_Tree_simple_types@U?$pair@$$CBIPAVIClientSession@@@std@@@std@@@2@XZ 10006370 f i ClientSession.obj
 0001:00005370       ?_Get_data@?$_Tree_comp_alloc@V?$_Tmap_traits@IPAVIClientSession@@U?$less@I@std@@V?$allocator@U?$pair@$$CBIPAVIClientSession@@@std@@@3@$0A@@std@@@std@@QBEABV?$_Tree_val@U?$_Tree_simple_types@U?$pair@$$CBIPAVIClientSession@@@std@@@std@@@2@XZ 10006370 f i ClientSession.obj
 0001:00005370       ?_Getal@?$_Tree_comp_alloc@V?$_Tmap_traits@V?$basic_string@DU?$char_traits@D@std@@V?$allocator@D@2@@std@@V?$list@IV?$allocator@I@std@@@2@U?$less@V?$basic_string@DU?$char_traits@D@std@@V?$allocator@D@2@@std@@@2@V?$allocator@U?$pair@$$CBV?$basic_string@DU?$char_traits@D@std@@V?$allocator@D@2@@std@@V?$list@IV?$allocator@I@std@@@2@@std@@@2@$0A@@std@@@std@@QBEABU?$_Wrap_alloc@V?$allocator@U?$_Tree_node@U?$pair@$$CBV?$basic_string@DU?$char_traits@D@std@@V?$allocator@D@2@@std@@V?$list@IV?$allocator@I@std@@@2@@std@@PAX@std@@@std@@@2@XZ 10006370 f i ClientSession.obj
 0001:00005370       ?_Getal@?$_Tree_comp_alloc@V?$_Tmap_traits@IPAVIClientSession@@U?$less@I@std@@V?$allocator@U?$pair@$$CBIPAVIClientSession@@@std@@@3@$0A@@std@@@std@@QAEAAU?$_Wrap_alloc@V?$allocator@U?$_Tree_node@U?$pair@$$CBIPAVIClientSession@@@std@@PAX@std@@@std@@@2@XZ 10006370 f i ClientSession.obj
 0001:00005390       ??1?$_Tree_comp_alloc@V?$_Tmap_traits@V?$basic_string@DU?$char_traits@D@std@@V?$allocator@D@2@@std@@V?$list@IV?$allocator@I@std@@@2@U?$less@V?$basic_string@DU?$char_traits@D@std@@V?$allocator@D@2@@std@@@2@V?$allocator@U?$pair@$$CBV?$basic_string@DU?$char_traits@D@std@@V?$allocator@D@2@@std@@V?$list@IV?$allocator@I@std@@@2@@std@@@2@$0A@@std@@@std@@QAE@XZ 10006390 f i ClientSession.obj
 0001:000053e0       ?_Min@?$_Tree_comp_alloc@V?$_Tmap_traits@IPAVIClientSession@@U?$less@I@std@@V?$allocator@U?$pair@$$CBIPAVIClientSession@@@std@@@3@$0A@@std@@@std@@SAPAU?$_Tree_node@U?$pair@$$CBIPAVIClientSession@@@std@@PAX@2@PAU32@@Z 100063e0 f i ClientSession.obj
 0001:000053e0       ?_Min@?$_Tree_comp_alloc@V?$_Tmap_traits@V?$basic_string@DU?$char_traits@D@std@@V?$allocator@D@2@@std@@V?$list@IV?$allocator@I@std@@@2@U?$less@V?$basic_string@DU?$char_traits@D@std@@V?$allocator@D@2@@std@@@2@V?$allocator@U?$pair@$$CBV?$basic_string@DU?$char_traits@D@std@@V?$allocator@D@2@@std@@V?$list@IV?$allocator@I@std@@@2@@std@@@2@$0A@@std@@@std@@SAPAU?$_Tree_node@U?$pair@$$CBV?$basic_string@DU?$char_traits@D@std@@V?$allocator@D@2@@std@@V?$list@IV?$allocator@I@std@@@2@@std@@PAX@2@PAU32@@Z 100063e0 f i ClientSession.obj
 0001:00005400       ?_Max@?$_Tree_comp_alloc@V?$_Tmap_traits@V?$basic_string@DU?$char_traits@D@std@@V?$allocator@D@2@@std@@V?$list@IV?$allocator@I@std@@@2@U?$less@V?$basic_string@DU?$char_traits@D@std@@V?$allocator@D@2@@std@@@2@V?$allocator@U?$pair@$$CBV?$basic_string@DU?$char_traits@D@std@@V?$allocator@D@2@@std@@V?$list@IV?$allocator@I@std@@@2@@std@@@2@$0A@@std@@@std@@SAPAU?$_Tree_node@U?$pair@$$CBV?$basic_string@DU?$char_traits@D@std@@V?$allocator@D@2@@std@@V?$list@IV?$allocator@I@std@@@2@@std@@PAX@2@PAU32@@Z 10006400 f i ClientSession.obj
 0001:00005400       ?_Max@?$_Tree_comp_alloc@V?$_Tmap_traits@IPAVIClientSession@@U?$less@I@std@@V?$allocator@U?$pair@$$CBIPAVIClientSession@@@std@@@3@$0A@@std@@@std@@SAPAU?$_Tree_node@U?$pair@$$CBIPAVIClientSession@@@std@@PAX@2@PAU32@@Z 10006400 f i ClientSession.obj
 0001:00005420       ?_Myval@?$_Tree_comp_alloc@V?$_Tmap_traits@V?$basic_string@DU?$char_traits@D@std@@V?$allocator@D@2@@std@@V?$list@IV?$allocator@I@std@@@2@U?$less@V?$basic_string@DU?$char_traits@D@std@@V?$allocator@D@2@@std@@@2@V?$allocator@U?$pair@$$CBV?$basic_string@DU?$char_traits@D@std@@V?$allocator@D@2@@std@@V?$list@IV?$allocator@I@std@@@2@@std@@@2@$0A@@std@@@std@@SAAAU?$pair@$$CBV?$basic_string@DU?$char_traits@D@std@@V?$allocator@D@2@@std@@V?$list@IV?$allocator@I@std@@@2@@2@PAU?$_Tree_node@U?$pair@$$CBV?$basic_string@DU?$char_traits@D@std@@V?$allocator@D@2@@std@@V?$list@IV?$allocator@I@std@@@2@@std@@PAX@2@@Z 10006420 f i ClientSession.obj
 0001:00005420       ?_Myval@?$_Tree_comp_alloc@V?$_Tmap_traits@IPAVIClientSession@@U?$less@I@std@@V?$allocator@U?$pair@$$CBIPAVIClientSession@@@std@@@3@$0A@@std@@@std@@SAAAU?$pair@$$CBIPAVIClientSession@@@2@PAU?$_Tree_node@U?$pair@$$CBIPAVIClientSession@@@std@@PAX@2@@Z 10006420 f i ClientSession.obj
 0001:00005440       ?_Right@?$_Tree_comp_alloc@V?$_Tmap_traits@IPAVIClientSession@@U?$less@I@std@@V?$allocator@U?$pair@$$CBIPAVIClientSession@@@std@@@3@$0A@@std@@@std@@SAAAPAU?$_Tree_node@U?$pair@$$CBIPAVIClientSession@@@std@@PAX@2@PAU32@@Z 10006440 f i ClientSession.obj
 0001:00005440       ?_Myval@?$_List_alloc@U?$_List_base_types@PAVIAccount@@V?$allocator@PAVIAccount@@@std@@@std@@@std@@SAAAPAVIAccount@@PAU?$_List_node@PAVIAccount@@PAX@2@@Z 10006440 f i ClientSession.obj
 0001:00005440       ?_Right@?$_Tree_comp_alloc@V?$_Tmap_traits@V?$basic_string@DU?$char_traits@D@std@@V?$allocator@D@2@@std@@V?$list@IV?$allocator@I@std@@@2@U?$less@V?$basic_string@DU?$char_traits@D@std@@V?$allocator@D@2@@std@@@2@V?$allocator@U?$pair@$$CBV?$basic_string@DU?$char_traits@D@std@@V?$allocator@D@2@@std@@V?$list@IV?$allocator@I@std@@@2@@std@@@2@$0A@@std@@@std@@SAAAPAU?$_Tree_node@U?$pair@$$CBV?$basic_string@DU?$char_traits@D@std@@V?$allocator@D@2@@std@@V?$list@IV?$allocator@I@std@@@2@@std@@PAX@2@PAU32@@Z 10006440 f i ClientSession.obj
 0001:00005440       ?_Myval@?$_List_alloc@U?$_List_base_types@IV?$allocator@I@std@@@std@@@std@@SAAAIPAU?$_List_node@IPAX@2@@Z 10006440 f i ClientSession.obj
 0001:00005460       ?_Prevnode@?$_List_alloc@U?$_List_base_types@IV?$allocator@I@std@@@std@@@std@@SAAAPAU?$_List_node@IPAX@2@PAU32@@Z 10006460 f i ClientSession.obj
 0001:00005460       ?_Prevnode@?$_List_alloc@U?$_List_base_types@PAVIAccount@@V?$allocator@PAVIAccount@@@std@@@std@@@std@@SAAAPAU?$_List_node@PAVIAccount@@PAX@2@PAU32@@Z 10006460 f i ClientSession.obj
 0001:00005460       ?_Parent@?$_Tree_comp_alloc@V?$_Tmap_traits@IPAVIClientSession@@U?$less@I@std@@V?$allocator@U?$pair@$$CBIPAVIClientSession@@@std@@@3@$0A@@std@@@std@@SAAAPAU?$_Tree_node@U?$pair@$$CBIPAVIClientSession@@@std@@PAX@2@PAU32@@Z 10006460 f i ClientSession.obj
 0001:00005460       ?_Parent@?$_Tree_comp_alloc@V?$_Tmap_traits@V?$basic_string@DU?$char_traits@D@std@@V?$allocator@D@2@@std@@V?$list@IV?$allocator@I@std@@@2@U?$less@V?$basic_string@DU?$char_traits@D@std@@V?$allocator@D@2@@std@@@2@V?$allocator@U?$pair@$$CBV?$basic_string@DU?$char_traits@D@std@@V?$allocator@D@2@@std@@V?$list@IV?$allocator@I@std@@@2@@std@@@2@$0A@@std@@@std@@SAAAPAU?$_Tree_node@U?$pair@$$CBV?$basic_string@DU?$char_traits@D@std@@V?$allocator@D@2@@std@@V?$list@IV?$allocator@I@std@@@2@@std@@PAX@2@PAU32@@Z 10006460 f i ClientSession.obj
 0001:00005480       ?_Isnil@?$_Tree_comp_alloc@V?$_Tmap_traits@V?$basic_string@DU?$char_traits@D@std@@V?$allocator@D@2@@std@@V?$list@IV?$allocator@I@std@@@2@U?$less@V?$basic_string@DU?$char_traits@D@std@@V?$allocator@D@2@@std@@@2@V?$allocator@U?$pair@$$CBV?$basic_string@DU?$char_traits@D@std@@V?$allocator@D@2@@std@@V?$list@IV?$allocator@I@std@@@2@@std@@@2@$0A@@std@@@std@@SAAADPAU?$_Tree_node@U?$pair@$$CBV?$basic_string@DU?$char_traits@D@std@@V?$allocator@D@2@@std@@V?$list@IV?$allocator@I@std@@@2@@std@@PAX@2@@Z 10006480 f i ClientSession.obj
 0001:00005480       ?_Isnil@?$_Tree_comp_alloc@V?$_Tmap_traits@IPAVIClientSession@@U?$less@I@std@@V?$allocator@U?$pair@$$CBIPAVIClientSession@@@std@@@3@$0A@@std@@@std@@SAAADPAU?$_Tree_node@U?$pair@$$CBIPAVIClientSession@@@std@@PAX@2@@Z 10006480 f i ClientSession.obj
 0001:000054a0       ?_Color@?$_Tree_comp_alloc@V?$_Tmap_traits@IPAVIClientSession@@U?$less@I@std@@V?$allocator@U?$pair@$$CBIPAVIClientSession@@@std@@@3@$0A@@std@@@std@@SAAADPAU?$_Tree_node@U?$pair@$$CBIPAVIClientSession@@@std@@PAX@2@@Z 100064a0 f i ClientSession.obj
 0001:000054a0       ?_Color@?$_Tree_comp_alloc@V?$_Tmap_traits@V?$basic_string@DU?$char_traits@D@std@@V?$allocator@D@2@@std@@V?$list@IV?$allocator@I@std@@@2@U?$less@V?$basic_string@DU?$char_traits@D@std@@V?$allocator@D@2@@std@@@2@V?$allocator@U?$pair@$$CBV?$basic_string@DU?$char_traits@D@std@@V?$allocator@D@2@@std@@V?$list@IV?$allocator@I@std@@@2@@std@@@2@$0A@@std@@@std@@SAAADPAU?$_Tree_node@U?$pair@$$CBV?$basic_string@DU?$char_traits@D@std@@V?$allocator@D@2@@std@@V?$list@IV?$allocator@I@std@@@2@@std@@PAX@2@@Z 100064a0 f i ClientSession.obj
 0001:000054c0       ?_Key@?$_Tree@V?$_Tmap_traits@IPAVIClientSession@@U?$less@I@std@@V?$allocator@U?$pair@$$CBIPAVIClientSession@@@std@@@3@$0A@@std@@@std@@IBEABIPAU?$_Tree_node@U?$pair@$$CBIPAVIClientSession@@@std@@PAX@2@@Z 100064c0 f i ClientSession.obj
 0001:000054c0       ?_Key@?$_Tree@V?$_Tmap_traits@V?$basic_string@DU?$char_traits@D@std@@V?$allocator@D@2@@std@@V?$list@IV?$allocator@I@std@@@2@U?$less@V?$basic_string@DU?$char_traits@D@std@@V?$allocator@D@2@@std@@@2@V?$allocator@U?$pair@$$CBV?$basic_string@DU?$char_traits@D@std@@V?$allocator@D@2@@std@@V?$list@IV?$allocator@I@std@@@2@@std@@@2@$0A@@std@@@std@@IBEABV?$basic_string@DU?$char_traits@D@std@@V?$allocator@D@2@@2@PAU?$_Tree_node@U?$pair@$$CBV?$basic_string@DU?$char_traits@D@std@@V?$allocator@D@2@@std@@V?$list@IV?$allocator@I@std@@@2@@std@@PAX@2@@Z 100064c0 f i ClientSession.obj
 0001:000054f0       ?_Tidy@?$_Tree@V?$_Tmap_traits@V?$basic_string@DU?$char_traits@D@std@@V?$allocator@D@2@@std@@V?$list@IV?$allocator@I@std@@@2@U?$less@V?$basic_string@DU?$char_traits@D@std@@V?$allocator@D@2@@std@@@2@V?$allocator@U?$pair@$$CBV?$basic_string@DU?$char_traits@D@std@@V?$allocator@D@2@@std@@V?$list@IV?$allocator@I@std@@@2@@std@@@2@$0A@@std@@@std@@IAEXXZ 100064f0 f i ClientSession.obj
 0001:00005540       ?_Rrotate@?$_Tree@V?$_Tmap_traits@IPAVIClientSession@@U?$less@I@std@@V?$allocator@U?$pair@$$CBIPAVIClientSession@@@std@@@3@$0A@@std@@@std@@IAEXPAU?$_Tree_node@U?$pair@$$CBIPAVIClientSession@@@std@@PAX@2@@Z 10006540 f i ClientSession.obj
 0001:00005540       ?_Rrotate@?$_Tree@V?$_Tmap_traits@V?$basic_string@DU?$char_traits@D@std@@V?$allocator@D@2@@std@@V?$list@IV?$allocator@I@std@@@2@U?$less@V?$basic_string@DU?$char_traits@D@std@@V?$allocator@D@2@@std@@@2@V?$allocator@U?$pair@$$CBV?$basic_string@DU?$char_traits@D@std@@V?$allocator@D@2@@std@@V?$list@IV?$allocator@I@std@@@2@@std@@@2@$0A@@std@@@std@@IAEXPAU?$_Tree_node@U?$pair@$$CBV?$basic_string@DU?$char_traits@D@std@@V?$allocator@D@2@@std@@V?$list@IV?$allocator@I@std@@@2@@std@@PAX@2@@Z 10006540 f i ClientSession.obj
 0001:00005670       ?_Root@?$_Tree@V?$_Tmap_traits@IPAVIClientSession@@U?$less@I@std@@V?$allocator@U?$pair@$$CBIPAVIClientSession@@@std@@@3@$0A@@std@@@std@@IBEAAPAU?$_Tree_node@U?$pair@$$CBIPAVIClientSession@@@std@@PAX@2@XZ 10006670 f i ClientSession.obj
 0001:00005670       ?_Root@?$_Tree@V?$_Tmap_traits@V?$basic_string@DU?$char_traits@D@std@@V?$allocator@D@2@@std@@V?$list@IV?$allocator@I@std@@@2@U?$less@V?$basic_string@DU?$char_traits@D@std@@V?$allocator@D@2@@std@@@2@V?$allocator@U?$pair@$$CBV?$basic_string@DU?$char_traits@D@std@@V?$allocator@D@2@@std@@V?$list@IV?$allocator@I@std@@@2@@std@@@2@$0A@@std@@@std@@IBEAAPAU?$_Tree_node@U?$pair@$$CBV?$basic_string@DU?$char_traits@D@std@@V?$allocator@D@2@@std@@V?$list@IV?$allocator@I@std@@@2@@std@@PAX@2@XZ 10006670 f i ClientSession.obj
 0001:00005690       ?_Rmost@?$_Tree@V?$_Tmap_traits@IPAVIClientSession@@U?$less@I@std@@V?$allocator@U?$pair@$$CBIPAVIClientSession@@@std@@@3@$0A@@std@@@std@@IBEAAPAU?$_Tree_node@U?$pair@$$CBIPAVIClientSession@@@std@@PAX@2@XZ 10006690 f i ClientSession.obj
 0001:00005690       ?_Rmost@?$_Tree@V?$_Tmap_traits@V?$basic_string@DU?$char_traits@D@std@@V?$allocator@D@2@@std@@V?$list@IV?$allocator@I@std@@@2@U?$less@V?$basic_string@DU?$char_traits@D@std@@V?$allocator@D@2@@std@@@2@V?$allocator@U?$pair@$$CBV?$basic_string@DU?$char_traits@D@std@@V?$allocator@D@2@@std@@V?$list@IV?$allocator@I@std@@@2@@std@@@2@$0A@@std@@@std@@IBEAAPAU?$_Tree_node@U?$pair@$$CBV?$basic_string@DU?$char_traits@D@std@@V?$allocator@D@2@@std@@V?$list@IV?$allocator@I@std@@@2@@std@@PAX@2@XZ 10006690 f i ClientSession.obj
 0001:000056b0       ?_Lrotate@?$_Tree@V?$_Tmap_traits@V?$basic_string@DU?$char_traits@D@std@@V?$allocator@D@2@@std@@V?$list@IV?$allocator@I@std@@@2@U?$less@V?$basic_string@DU?$char_traits@D@std@@V?$allocator@D@2@@std@@@2@V?$allocator@U?$pair@$$CBV?$basic_string@DU?$char_traits@D@std@@V?$allocator@D@2@@std@@V?$list@IV?$allocator@I@std@@@2@@std@@@2@$0A@@std@@@std@@IAEXPAU?$_Tree_node@U?$pair@$$CBV?$basic_string@DU?$char_traits@D@std@@V?$allocator@D@2@@std@@V?$list@IV?$allocator@I@std@@@2@@std@@PAX@2@@Z 100066b0 f i ClientSession.obj
 0001:000056b0       ?_Lrotate@?$_Tree@V?$_Tmap_traits@IPAVIClientSession@@U?$less@I@std@@V?$allocator@U?$pair@$$CBIPAVIClientSession@@@std@@@3@$0A@@std@@@std@@IAEXPAU?$_Tree_node@U?$pair@$$CBIPAVIClientSession@@@std@@PAX@2@@Z 100066b0 f i ClientSession.obj
 0001:000057e0       ?_Lmost@?$_Tree@V?$_Tmap_traits@IPAVIClientSession@@U?$less@I@std@@V?$allocator@U?$pair@$$CBIPAVIClientSession@@@std@@@3@$0A@@std@@@std@@IBEAAPAU?$_Tree_node@U?$pair@$$CBIPAVIClientSession@@@std@@PAX@2@XZ 100067e0 f i ClientSession.obj
 0001:000057e0       ?_Lmost@?$_Tree@V?$_Tmap_traits@V?$basic_string@DU?$char_traits@D@std@@V?$allocator@D@2@@std@@V?$list@IV?$allocator@I@std@@@2@U?$less@V?$basic_string@DU?$char_traits@D@std@@V?$allocator@D@2@@std@@@2@V?$allocator@U?$pair@$$CBV?$basic_string@DU?$char_traits@D@std@@V?$allocator@D@2@@std@@V?$list@IV?$allocator@I@std@@@2@@std@@@2@$0A@@std@@@std@@IBEAAPAU?$_Tree_node@U?$pair@$$CBV?$basic_string@DU?$char_traits@D@std@@V?$allocator@D@2@@std@@V?$list@IV?$allocator@I@std@@@2@@std@@PAX@2@XZ 100067e0 f i ClientSession.obj
 0001:00005800       ?lower_bound@?$_Tree@V?$_Tmap_traits@V?$basic_string@DU?$char_traits@D@std@@V?$allocator@D@2@@std@@V?$list@IV?$allocator@I@std@@@2@U?$less@V?$basic_string@DU?$char_traits@D@std@@V?$allocator@D@2@@std@@@2@V?$allocator@U?$pair@$$CBV?$basic_string@DU?$char_traits@D@std@@V?$allocator@D@2@@std@@V?$list@IV?$allocator@I@std@@@2@@std@@@2@$0A@@std@@@std@@QAE?AV?$_Tree_iterator@V?$_Tree_val@U?$_Tree_simple_types@U?$pair@$$CBV?$basic_string@DU?$char_traits@D@std@@V?$allocator@D@2@@std@@V?$list@IV?$allocator@I@std@@@2@@std@@@std@@@std@@@2@ABV?$basic_string@DU?$char_traits@D@std@@V?$allocator@D@2@@2@@Z 10006800 f i ClientSession.obj
 0001:00005830       ??0?$_Tree@V?$_Tmap_traits@V?$basic_string@DU?$char_traits@D@std@@V?$allocator@D@2@@std@@V?$list@IV?$allocator@I@std@@@2@U?$less@V?$basic_string@DU?$char_traits@D@std@@V?$allocator@D@2@@std@@@2@V?$allocator@U?$pair@$$CBV?$basic_string@DU?$char_traits@D@std@@V?$allocator@D@2@@std@@V?$list@IV?$allocator@I@std@@@2@@std@@@2@$0A@@std@@@std@@QAE@ABU?$less@V?$basic_string@DU?$char_traits@D@std@@V?$allocator@D@2@@std@@@1@@Z 10006830 f i ClientSession.obj
 0001:00005850       ??E?$_Tree_iterator@V?$_Tree_val@U?$_Tree_simple_types@U?$pair@$$CBIPAVIClientSession@@@std@@@std@@@std@@@std@@QAEAAV01@XZ 10006850 f i ClientSession.obj
 0001:00005870       ??0?$_Tree_const_iterator@V?$_Tree_val@U?$_Tree_simple_types@U?$pair@$$CBIPAVIClientSession@@@std@@@std@@@std@@@std@@QAE@XZ 10006870 f i ClientSession.obj
 0001:00005890       ?deallocate@?$_Wrap_alloc@V?$allocator@U?$_Tree_node@U?$pair@$$CBIPAVIClientSession@@@std@@PAX@std@@@std@@@std@@QAEXPAU?$_Tree_node@U?$pair@$$CBIPAVIClientSession@@@std@@PAX@2@I@Z 10006890 f i ClientSession.obj
 0001:000058b0       ??1?$_Tree_comp_alloc@V?$_Tmap_traits@IPAVIClientSession@@U?$less@I@std@@V?$allocator@U?$pair@$$CBIPAVIClientSession@@@std@@@3@$0A@@std@@@std@@QAE@XZ 100068b0 f i ClientSession.obj
 0001:00005900       ?_Tidy@?$_Tree@V?$_Tmap_traits@IPAVIClientSession@@U?$less@I@std@@V?$allocator@U?$pair@$$CBIPAVIClientSession@@@std@@@3@$0A@@std@@@std@@IAEXXZ 10006900 f i ClientSession.obj
 0001:00005950       ?_Erase@?$_Tree@V?$_Tmap_traits@IPAVIClientSession@@U?$less@I@std@@V?$allocator@U?$pair@$$CBIPAVIClientSession@@@std@@@3@$0A@@std@@@std@@IAEXPAU?$_Tree_node@U?$pair@$$CBIPAVIClientSession@@@std@@PAX@2@@Z 10006950 f i ClientSession.obj
 0001:000059f0       ?lower_bound@?$_Tree@V?$_Tmap_traits@IPAVIClientSession@@U?$less@I@std@@V?$allocator@U?$pair@$$CBIPAVIClientSession@@@std@@@3@$0A@@std@@@std@@QAE?AV?$_Tree_iterator@V?$_Tree_val@U?$_Tree_simple_types@U?$pair@$$CBIPAVIClientSession@@@std@@@std@@@std@@@2@ABI@Z 100069f0 f i ClientSession.obj
 0001:00005a20       ??0?$_Tree@V?$_Tmap_traits@IPAVIClientSession@@U?$less@I@std@@V?$allocator@U?$pair@$$CBIPAVIClientSession@@@std@@@3@$0A@@std@@@std@@QAE@ABU?$less@I@1@@Z 10006a20 f i ClientSession.obj
 0001:00005a40       ??R?$less@I@std@@QBE_NABI0@Z 10006a40 f i ClientSession.obj
 0001:00005a70       ?_Tidy@?$list@PAVIAccount@@V?$allocator@PAVIAccount@@@std@@@std@@QAEXXZ 10006a70 f i ClientSession.obj
 0001:00005a70       ?_Tidy@?$list@IV?$allocator@I@std@@@std@@QAEXXZ 10006a70 f i ClientSession.obj
 0001:00005a90       ?_Unchecked_end@?$list@PAVIAccount@@V?$allocator@PAVIAccount@@@std@@@std@@QAE?AV?$_List_unchecked_iterator@V?$_List_val@U?$_List_simple_types@PAVIAccount@@@std@@@std@@@2@XZ 10006a90 f i ClientSession.obj
 0001:00005a90       ?_Unchecked_end@?$list@IV?$allocator@I@std@@@std@@QAE?AV?$_List_unchecked_iterator@V?$_List_val@U?$_List_simple_types@I@std@@@std@@@2@XZ 10006a90 f i ClientSession.obj
 0001:00005ac0       ?end@?$list@IV?$allocator@I@std@@@std@@QAE?AV?$_List_iterator@V?$_List_val@U?$_List_simple_types@I@std@@@std@@@2@XZ 10006ac0 f i ClientSession.obj
 0001:00005b20       ?begin@?$list@IV?$allocator@I@std@@@std@@QAE?AV?$_List_iterator@V?$_List_val@U?$_List_simple_types@I@std@@@std@@@2@XZ 10006b20 f i ClientSession.obj
 0001:00005b90       ??E?$_List_const_iterator@V?$_List_val@U?$_List_simple_types@I@std@@@std@@@std@@QAE?AV01@H@Z 10006b90 f i ClientSession.obj
 0001:00005b90       ??E?$_List_const_iterator@V?$_List_val@U?$_List_simple_types@PAVIAccount@@@std@@@std@@@std@@QAE?AV01@H@Z 10006b90 f i ClientSession.obj
 0001:00005bc0       ?_Freenode@?$_List_buy@PAVIAccount@@V?$allocator@PAVIAccount@@@std@@@std@@QAEXPAU?$_List_node@PAVIAccount@@PAX@2@@Z 10006bc0 f i ClientSession.obj
 0001:00005bc0       ?_Freenode@?$_List_buy@IV?$allocator@I@std@@@std@@QAEXPAU?$_List_node@IPAX@2@@Z 10006bc0 f i ClientSession.obj
 0001:00005c60       ?_Unlinknode@?$list@IV?$allocator@I@std@@@std@@QAEPAU?$_List_node@IPAX@2@V?$_List_const_iterator@V?$_List_val@U?$_List_simple_types@I@std@@@std@@@2@@Z 10006c60 f i ClientSession.obj
 0001:00005c60       ?_Unlinknode@?$list@PAVIAccount@@V?$allocator@PAVIAccount@@@std@@@std@@QAEPAU?$_List_node@PAVIAccount@@PAX@2@V?$_List_const_iterator@V?$_List_val@U?$_List_simple_types@PAVIAccount@@@std@@@std@@@2@@Z 10006c60 f i ClientSession.obj
 0001:00005cf0       ?_Make_iter@?$list@IV?$allocator@I@std@@@std@@QBE?AV?$_List_iterator@V?$_List_val@U?$_List_simple_types@I@std@@@std@@@2@V?$_List_const_iterator@V?$_List_val@U?$_List_simple_types@I@std@@@std@@@2@@Z 10006cf0 f i ClientSession.obj
 0001:00005cf0       ?_Make_iter@?$list@PAVIAccount@@V?$allocator@PAVIAccount@@@std@@@std@@QBE?AV?$_List_iterator@V?$_List_val@U?$_List_simple_types@PAVIAccount@@@std@@@std@@@2@V?$_List_const_iterator@V?$_List_val@U?$_List_simple_types@PAVIAccount@@@std@@@std@@@2@@Z 10006cf0 f i ClientSession.obj
 0001:00005d40       ??R?$less@V?$basic_string@DU?$char_traits@D@std@@V?$allocator@D@2@@std@@@std@@QBE_NABV?$basic_string@DU?$char_traits@D@std@@V?$allocator@D@2@@1@0@Z 10006d40 f i ClientSession.obj
 0001:00005d60       ?select_on_container_copy_construction@?$_Wrap_alloc@V?$allocator@U?$_List_node@IPAX@std@@@std@@@std@@QBE?AU12@U_Nil@2@@Z 10006d60 f i ClientSession.obj
 0001:00005d60       ?select_on_container_copy_construction@?$_Wrap_alloc@V?$allocator@D@std@@@std@@QBE?AU12@U_Nil@2@@Z 10006d60 f i ClientSession.obj
 0001:00005d90       ?_Traits_compare@?$basic_string@DU?$char_traits@D@std@@V?$allocator@D@2@@std@@SAHQBDI0I@Z 10006d90 f i ClientSession.obj
 0001:00005e00       ??0?$_List_const_iterator@V?$_List_val@U?$_List_simple_types@PAVIAccount@@@std@@@std@@@std@@QAE@PAU?$_List_node@PAVIAccount@@PAX@1@PBV?$_List_val@U?$_List_simple_types@PAVIAccount@@@std@@@1@@Z 10006e00 f i ClientSession.obj
 0001:00005e00       ??0?$_Tree_const_iterator@V?$_Tree_val@U?$_Tree_simple_types@U?$pair@$$CBIPAVIClientSession@@@std@@@std@@@std@@@std@@QAE@PAU?$_Tree_node@U?$pair@$$CBIPAVIClientSession@@@std@@PAX@1@PBV?$_Tree_val@U?$_Tree_simple_types@U?$pair@$$CBIPAVIClientSession@@@std@@@std@@@1@@Z 10006e00 f i ClientSession.obj
 0001:00005e00       ??0?$_List_unchecked_iterator@V?$_List_val@U?$_List_simple_types@I@std@@@std@@@std@@QAE@PAU?$_List_node@IPAX@1@PBV?$_List_val@U?$_List_simple_types@I@std@@@1@@Z 10006e00 f i ClientSession.obj
 0001:00005e00       ??0?$_List_unchecked_iterator@V?$_List_val@U?$_List_simple_types@PAVIAccount@@@std@@@std@@@std@@QAE@PAU?$_List_node@PAVIAccount@@PAX@1@PBV?$_List_val@U?$_List_simple_types@PAVIAccount@@@std@@@1@@Z 10006e00 f i ClientSession.obj
 0001:00005e00       ??0?$_Tree_const_iterator@V?$_Tree_val@U?$_Tree_simple_types@U?$pair@$$CBV?$basic_string@DU?$char_traits@D@std@@V?$allocator@D@2@@std@@V?$list@IV?$allocator@I@std@@@2@@std@@@std@@@std@@@std@@QAE@PAU?$_Tree_node@U?$pair@$$CBV?$basic_string@DU?$char_traits@D@std@@V?$allocator@D@2@@std@@V?$list@IV?$allocator@I@std@@@2@@std@@PAX@1@PBV?$_Tree_val@U?$_Tree_simple_types@U?$pair@$$CBV?$basic_string@DU?$char_traits@D@std@@V?$allocator@D@2@@std@@V?$list@IV?$allocator@I@std@@@2@@std@@@std@@@1@@Z 10006e00 f i ClientSession.obj
 0001:00005e00       ??0?$_List_const_iterator@V?$_List_val@U?$_List_simple_types@I@std@@@std@@@std@@QAE@PAU?$_List_node@IPAX@1@PBV?$_List_val@U?$_List_simple_types@I@std@@@1@@Z 10006e00 f i ClientSession.obj
 0001:00005e20       ??E?$_List_const_iterator@V?$_List_val@U?$_List_simple_types@PAVIAccount@@@std@@@std@@@std@@QAEAAV01@XZ 10006e20 f i ClientSession.obj
 0001:00005e20       ??E?$_List_const_iterator@V?$_List_val@U?$_List_simple_types@I@std@@@std@@@std@@QAEAAV01@XZ 10006e20 f i ClientSession.obj
 0001:00005e50       ??D?$_List_const_iterator@V?$_List_val@U?$_List_simple_types@I@std@@@std@@@std@@QBEABIXZ 10006e50 f i ClientSession.obj
 0001:00005e70       ?_Freeheadnode@?$_List_alloc@U?$_List_base_types@IV?$allocator@I@std@@@std@@@std@@QAEXPAU?$_List_node@IPAX@2@@Z 10006e70 f i ClientSession.obj
 0001:00005e70       ?_Freeheadnode@?$_List_alloc@U?$_List_base_types@PAVIAccount@@V?$allocator@PAVIAccount@@@std@@@std@@@std@@QAEXPAU?$_List_node@PAVIAccount@@PAX@2@@Z 10006e70 f i ClientSession.obj
 0001:00005ee0       ??0?$_List_alloc@U?$_List_base_types@IV?$allocator@I@std@@@std@@@std@@QAE@XZ 10006ee0 f i ClientSession.obj
 0001:00005ee0       ??0?$_List_alloc@U?$_List_base_types@PAVIAccount@@V?$allocator@PAVIAccount@@@std@@@std@@@std@@QAE@XZ 10006ee0 f i ClientSession.obj
 0001:00005f20       ??E?$_Tree_unchecked_const_iterator@V?$_Tree_val@U?$_Tree_simple_types@U?$pair@$$CBV?$basic_string@DU?$char_traits@D@std@@V?$allocator@D@2@@std@@V?$list@IV?$allocator@I@std@@@2@@std@@@std@@@std@@U_Iterator_base0@2@@std@@QAEAAV01@XZ 10006f20 f i ClientSession.obj
 0001:00005f20       ??E?$_Tree_unchecked_const_iterator@V?$_Tree_val@U?$_Tree_simple_types@U?$pair@$$CBIPAVIClientSession@@@std@@@std@@@std@@U_Iterator_base0@2@@std@@QAEAAV01@XZ 10006f20 f i ClientSession.obj
 0001:00005fe0       ??0?$_Tree_unchecked_const_iterator@V?$_Tree_val@U?$_Tree_simple_types@U?$pair@$$CBIPAVIClientSession@@@std@@@std@@@std@@U_Iterator_base0@2@@std@@QAE@XZ 10006fe0 f i ClientSession.obj
 0001:00006000       ?_Min@?$_Tree_val@U?$_Tree_simple_types@U?$pair@$$CBV?$basic_string@DU?$char_traits@D@std@@V?$allocator@D@2@@std@@V?$list@IV?$allocator@I@std@@@2@@std@@@std@@@std@@SAPAU?$_Tree_node@U?$pair@$$CBV?$basic_string@DU?$char_traits@D@std@@V?$allocator@D@2@@std@@V?$list@IV?$allocator@I@std@@@2@@std@@PAX@2@PAU32@@Z 10007000 f i ClientSession.obj
 0001:00006000       ?_Min@?$_Tree_val@U?$_Tree_simple_types@U?$pair@$$CBIPAVIClientSession@@@std@@@std@@@std@@SAPAU?$_Tree_node@U?$pair@$$CBIPAVIClientSession@@@std@@PAX@2@PAU32@@Z 10007000 f i ClientSession.obj
 0001:00006040       ?_Max@?$_Tree_val@U?$_Tree_simple_types@U?$pair@$$CBIPAVIClientSession@@@std@@@std@@@std@@SAPAU?$_Tree_node@U?$pair@$$CBIPAVIClientSession@@@std@@PAX@2@PAU32@@Z 10007040 f i ClientSession.obj
 0001:00006040       ?_Max@?$_Tree_val@U?$_Tree_simple_types@U?$pair@$$CBV?$basic_string@DU?$char_traits@D@std@@V?$allocator@D@2@@std@@V?$list@IV?$allocator@I@std@@@2@@std@@@std@@@std@@SAPAU?$_Tree_node@U?$pair@$$CBV?$basic_string@DU?$char_traits@D@std@@V?$allocator@D@2@@std@@V?$list@IV?$allocator@I@std@@@2@@std@@PAX@2@PAU32@@Z 10007040 f i ClientSession.obj
 0001:00006080       ?_Myval@?$_Tree_val@U?$_Tree_simple_types@U?$pair@$$CBV?$basic_string@DU?$char_traits@D@std@@V?$allocator@D@2@@std@@V?$list@IV?$allocator@I@std@@@2@@std@@@std@@@std@@SAAAU?$pair@$$CBV?$basic_string@DU?$char_traits@D@std@@V?$allocator@D@2@@std@@V?$list@IV?$allocator@I@std@@@2@@2@PAU?$_Tree_node@U?$pair@$$CBV?$basic_string@DU?$char_traits@D@std@@V?$allocator@D@2@@std@@V?$list@IV?$allocator@I@std@@@2@@std@@PAX@2@@Z 10007080 f i ClientSession.obj
 0001:00006080       ?_Myval@?$_Tree_val@U?$_Tree_simple_types@U?$pair@$$CBIPAVIClientSession@@@std@@@std@@@std@@SAAAU?$pair@$$CBIPAVIClientSession@@@2@PAU?$_Tree_node@U?$pair@$$CBIPAVIClientSession@@@std@@PAX@2@@Z 10007080 f i ClientSession.obj
 0001:00006090       ?_Right@?$_Tree_val@U?$_Tree_simple_types@U?$pair@$$CBV?$basic_string@DU?$char_traits@D@std@@V?$allocator@D@2@@std@@V?$list@IV?$allocator@I@std@@@2@@std@@@std@@@std@@SAAAPAU?$_Tree_node@U?$pair@$$CBV?$basic_string@DU?$char_traits@D@std@@V?$allocator@D@2@@std@@V?$list@IV?$allocator@I@std@@@2@@std@@PAX@2@PAU32@@Z 10007090 f i ClientSession.obj
 0001:00006090       ?_Right@?$_Tree_val@U?$_Tree_simple_types@U?$pair@$$CBIPAVIClientSession@@@std@@@std@@@std@@SAAAPAU?$_Tree_node@U?$pair@$$CBIPAVIClientSession@@@std@@PAX@2@PAU32@@Z 10007090 f i ClientSession.obj
 0001:00006090       ?_Myval@?$_List_val@U?$_List_simple_types@I@std@@@std@@SAAAIPAU?$_List_node@IPAX@2@@Z 10007090 f i ClientSession.obj
 0001:00006090       ?_Myval@?$_List_val@U?$_List_simple_types@PAVIAccount@@@std@@@std@@SAAAPAVIAccount@@PAU?$_List_node@PAVIAccount@@PAX@2@@Z 10007090 f i ClientSession.obj
 0001:000060a0       ?_Parent@?$_Tree_val@U?$_Tree_simple_types@U?$pair@$$CBV?$basic_string@DU?$char_traits@D@std@@V?$allocator@D@2@@std@@V?$list@IV?$allocator@I@std@@@2@@std@@@std@@@std@@SAAAPAU?$_Tree_node@U?$pair@$$CBV?$basic_string@DU?$char_traits@D@std@@V?$allocator@D@2@@std@@V?$list@IV?$allocator@I@std@@@2@@std@@PAX@2@PAU32@@Z 100070a0 f i ClientSession.obj
 0001:000060a0       ?_Prevnode@?$_List_val@U?$_List_simple_types@PAVIAccount@@@std@@@std@@SAAAPAU?$_List_node@PAVIAccount@@PAX@2@PAU32@@Z 100070a0 f i ClientSession.obj
 0001:000060a0       ?_Prevnode@?$_List_val@U?$_List_simple_types@I@std@@@std@@SAAAPAU?$_List_node@IPAX@2@PAU32@@Z 100070a0 f i ClientSession.obj
 0001:000060a0       ?_Parent@?$_Tree_val@U?$_Tree_simple_types@U?$pair@$$CBIPAVIClientSession@@@std@@@std@@@std@@SAAAPAU?$_Tree_node@U?$pair@$$CBIPAVIClientSession@@@std@@PAX@2@PAU32@@Z 100070a0 f i ClientSession.obj
 0001:000060b0       ?_Isnil@?$_Tree_val@U?$_Tree_simple_types@U?$pair@$$CBV?$basic_string@DU?$char_traits@D@std@@V?$allocator@D@2@@std@@V?$list@IV?$allocator@I@std@@@2@@std@@@std@@@std@@SAAADPAU?$_Tree_node@U?$pair@$$CBV?$basic_string@DU?$char_traits@D@std@@V?$allocator@D@2@@std@@V?$list@IV?$allocator@I@std@@@2@@std@@PAX@2@@Z 100070b0 f i ClientSession.obj
 0001:000060b0       ?_Isnil@?$_Tree_val@U?$_Tree_simple_types@U?$pair@$$CBIPAVIClientSession@@@std@@@std@@@std@@SAAADPAU?$_Tree_node@U?$pair@$$CBIPAVIClientSession@@@std@@PAX@2@@Z 100070b0 f i ClientSession.obj
 0001:000060c0       ?_Color@?$_Tree_val@U?$_Tree_simple_types@U?$pair@$$CBIPAVIClientSession@@@std@@@std@@@std@@SAAADPAU?$_Tree_node@U?$pair@$$CBIPAVIClientSession@@@std@@PAX@2@@Z 100070c0 f i ClientSession.obj
 0001:000060c0       ?_Color@?$_Tree_val@U?$_Tree_simple_types@U?$pair@$$CBV?$basic_string@DU?$char_traits@D@std@@V?$allocator@D@2@@std@@V?$list@IV?$allocator@I@std@@@2@@std@@@std@@@std@@SAAADPAU?$_Tree_node@U?$pair@$$CBV?$basic_string@DU?$char_traits@D@std@@V?$allocator@D@2@@std@@V?$list@IV?$allocator@I@std@@@2@@std@@PAX@2@@Z 100070c0 f i ClientSession.obj
 0001:000060d0       ?deallocate@?$allocator@U?$_Tree_node@U?$pair@$$CBV?$basic_string@DU?$char_traits@D@std@@V?$allocator@D@2@@std@@V?$list@IV?$allocator@I@std@@@2@@std@@PAX@std@@@std@@QAEXPAU?$_Tree_node@U?$pair@$$CBV?$basic_string@DU?$char_traits@D@std@@V?$allocator@D@2@@std@@V?$list@IV?$allocator@I@std@@@2@@std@@PAX@2@I@Z 100070d0 f i ClientSession.obj
 0001:000060f0       ?_Freeheadnode@?$_Tree_comp_alloc@V?$_Tmap_traits@V?$basic_string@DU?$char_traits@D@std@@V?$allocator@D@2@@std@@V?$list@IV?$allocator@I@std@@@2@U?$less@V?$basic_string@DU?$char_traits@D@std@@V?$allocator@D@2@@std@@@2@V?$allocator@U?$pair@$$CBV?$basic_string@DU?$char_traits@D@std@@V?$allocator@D@2@@std@@V?$list@IV?$allocator@I@std@@@2@@std@@@2@$0A@@std@@@std@@QAEXPAU?$_Tree_node@U?$pair@$$CBV?$basic_string@DU?$char_traits@D@std@@V?$allocator@D@2@@std@@V?$list@IV?$allocator@I@std@@@2@@std@@PAX@2@@Z 100070f0 f i ClientSession.obj
 0001:000060f0       ?_Freenode0@?$_Tree_comp_alloc@V?$_Tmap_traits@V?$basic_string@DU?$char_traits@D@std@@V?$allocator@D@2@@std@@V?$list@IV?$allocator@I@std@@@2@U?$less@V?$basic_string@DU?$char_traits@D@std@@V?$allocator@D@2@@std@@@2@V?$allocator@U?$pair@$$CBV?$basic_string@DU?$char_traits@D@std@@V?$allocator@D@2@@std@@V?$list@IV?$allocator@I@std@@@2@@std@@@2@$0A@@std@@@std@@QAEXPAU?$_Tree_node@U?$pair@$$CBV?$basic_string@DU?$char_traits@D@std@@V?$allocator@D@2@@std@@V?$list@IV?$allocator@I@std@@@2@@std@@PAX@2@@Z 100070f0 f i ClientSession.obj
 0001:00006190       ??0?$_Tree_comp_alloc@V?$_Tmap_traits@V?$basic_string@DU?$char_traits@D@std@@V?$allocator@D@2@@std@@V?$list@IV?$allocator@I@std@@@2@U?$less@V?$basic_string@DU?$char_traits@D@std@@V?$allocator@D@2@@std@@@2@V?$allocator@U?$pair@$$CBV?$basic_string@DU?$char_traits@D@std@@V?$allocator@D@2@@std@@V?$list@IV?$allocator@I@std@@@2@@std@@@2@$0A@@std@@@std@@QAE@ABU?$less@V?$basic_string@DU?$char_traits@D@std@@V?$allocator@D@2@@std@@@1@@Z 10007190 f i ClientSession.obj
 0001:000061c0       ?_Kfn@?$_Tree@V?$_Tmap_traits@V?$basic_string@DU?$char_traits@D@std@@V?$allocator@D@2@@std@@V?$list@IV?$allocator@I@std@@@2@U?$less@V?$basic_string@DU?$char_traits@D@std@@V?$allocator@D@2@@std@@@2@V?$allocator@U?$pair@$$CBV?$basic_string@DU?$char_traits@D@std@@V?$allocator@D@2@@std@@V?$list@IV?$allocator@I@std@@@2@@std@@@2@$0A@@std@@@std@@IBEABV?$basic_string@DU?$char_traits@D@std@@V?$allocator@D@2@@2@ABU?$pair@$$CBV?$basic_string@DU?$char_traits@D@std@@V?$allocator@D@2@@std@@V?$list@IV?$allocator@I@std@@@2@@2@@Z 100071c0 f i ClientSession.obj
 0001:000061c0       ?_Kfn@?$_Tree@V?$_Tmap_traits@IPAVIClientSession@@U?$less@I@std@@V?$allocator@U?$pair@$$CBIPAVIClientSession@@@std@@@3@$0A@@std@@@std@@IBEABIABU?$pair@$$CBIPAVIClientSession@@@2@@Z 100071c0 f i ClientSession.obj
 0001:000061e0       ?erase@?$_Tree@V?$_Tmap_traits@V?$basic_string@DU?$char_traits@D@std@@V?$allocator@D@2@@std@@V?$list@IV?$allocator@I@std@@@2@U?$less@V?$basic_string@DU?$char_traits@D@std@@V?$allocator@D@2@@std@@@2@V?$allocator@U?$pair@$$CBV?$basic_string@DU?$char_traits@D@std@@V?$allocator@D@2@@std@@V?$list@IV?$allocator@I@std@@@2@@std@@@2@$0A@@std@@@std@@QAE?AV?$_Tree_iterator@V?$_Tree_val@U?$_Tree_simple_types@U?$pair@$$CBV?$basic_string@DU?$char_traits@D@std@@V?$allocator@D@2@@std@@V?$list@IV?$allocator@I@std@@@2@@std@@@std@@@std@@@2@V?$_Tree_const_iterator@V?$_Tree_val@U?$_Tree_simple_types@U?$pair@$$CBV?$basic_string@DU?$char_traits@D@std@@V?$allocator@D@2@@std@@V?$list@IV?$allocator@I@std@@@2@@std@@@std@@@std@@@2@0@Z 100071e0 f i ClientSession.obj
 0001:00006290       ?deallocate@?$allocator@U?$_Tree_node@U?$pair@$$CBIPAVIClientSession@@@std@@PAX@std@@@std@@QAEXPAU?$_Tree_node@U?$pair@$$CBIPAVIClientSession@@@std@@PAX@2@I@Z 10007290 f i ClientSession.obj
 0001:000062b0       ?_Freeheadnode@?$_Tree_comp_alloc@V?$_Tmap_traits@IPAVIClientSession@@U?$less@I@std@@V?$allocator@U?$pair@$$CBIPAVIClientSession@@@std@@@3@$0A@@std@@@std@@QAEXPAU?$_Tree_node@U?$pair@$$CBIPAVIClientSession@@@std@@PAX@2@@Z 100072b0 f i ClientSession.obj
 0001:000062b0       ?_Freenode0@?$_Tree_comp_alloc@V?$_Tmap_traits@IPAVIClientSession@@U?$less@I@std@@V?$allocator@U?$pair@$$CBIPAVIClientSession@@@std@@@3@$0A@@std@@@std@@QAEXPAU?$_Tree_node@U?$pair@$$CBIPAVIClientSession@@@std@@PAX@2@@Z 100072b0 f i ClientSession.obj
 0001:00006350       ??0?$_Tree_comp_alloc@V?$_Tmap_traits@IPAVIClientSession@@U?$less@I@std@@V?$allocator@U?$pair@$$CBIPAVIClientSession@@@std@@@3@$0A@@std@@@std@@QAE@ABU?$less@I@1@@Z 10007350 f i ClientSession.obj
 0001:00006380       ?erase@?$_Tree@V?$_Tmap_traits@IPAVIClientSession@@U?$less@I@std@@V?$allocator@U?$pair@$$CBIPAVIClientSession@@@std@@@3@$0A@@std@@@std@@QAE?AV?$_Tree_iterator@V?$_Tree_val@U?$_Tree_simple_types@U?$pair@$$CBIPAVIClientSession@@@std@@@std@@@std@@@2@V?$_Tree_const_iterator@V?$_Tree_val@U?$_Tree_simple_types@U?$pair@$$CBIPAVIClientSession@@@std@@@std@@@std@@@2@0@Z 10007380 f i ClientSession.obj
 0001:00006430       ?clear@?$list@PAVIAccount@@V?$allocator@PAVIAccount@@@std@@@std@@QAEXXZ 10007430 f i ClientSession.obj
 0001:00006430       ?clear@?$list@IV?$allocator@I@std@@@std@@QAEXXZ 10007430 f i ClientSession.obj
 0001:00006510       ?deallocate@?$_Wrap_alloc@V?$allocator@U?$_List_node@IPAX@std@@@std@@@std@@QAEXPAU?$_List_node@IPAX@2@I@Z 10007510 f i ClientSession.obj
 0001:00006510       ?deallocate@?$_Wrap_alloc@V?$allocator@U?$_List_node@PAVIAccount@@PAX@std@@@std@@@std@@QAEXPAU?$_List_node@PAVIAccount@@PAX@2@I@Z 10007510 f i ClientSession.obj
 0001:00006530       ?select_on_container_copy_construction@?$allocator_traits@V?$allocator@U?$_List_node@IPAX@std@@@std@@@std@@SA?AV?$allocator@U?$_List_node@IPAX@std@@@2@ABV32@@Z 10007530 f i ClientSession.obj
 0001:00006530       ?select_on_container_copy_construction@?$allocator_traits@V?$allocator@D@std@@@std@@SA?AV?$allocator@D@2@ABV32@@Z 10007530 f i ClientSession.obj
 0001:00006550       ??0?$_Tree_unchecked_const_iterator@V?$_Tree_val@U?$_Tree_simple_types@U?$pair@$$CBIPAVIClientSession@@@std@@@std@@@std@@U_Iterator_base0@2@@std@@QAE@PAU?$_Tree_node@U?$pair@$$CBIPAVIClientSession@@@std@@PAX@1@PBV?$_Tree_val@U?$_Tree_simple_types@U?$pair@$$CBIPAVIClientSession@@@std@@@std@@@1@@Z 10007550 f i ClientSession.obj
 0001:00006550       ??0?$_Tree_unchecked_const_iterator@V?$_Tree_val@U?$_Tree_simple_types@U?$pair@$$CBV?$basic_string@DU?$char_traits@D@std@@V?$allocator@D@2@@std@@V?$list@IV?$allocator@I@std@@@2@@std@@@std@@@std@@U_Iterator_base0@2@@std@@QAE@PAU?$_Tree_node@U?$pair@$$CBV?$basic_string@DU?$char_traits@D@std@@V?$allocator@D@2@@std@@V?$list@IV?$allocator@I@std@@@2@@std@@PAX@1@PBV?$_Tree_val@U?$_Tree_simple_types@U?$pair@$$CBV?$basic_string@DU?$char_traits@D@std@@V?$allocator@D@2@@std@@V?$list@IV?$allocator@I@std@@@2@@std@@@std@@@1@@Z 10007550 f i ClientSession.obj
 0001:00006550       ??0?$_List_unchecked_const_iterator@V?$_List_val@U?$_List_simple_types@PAVIAccount@@@std@@@std@@U_Iterator_base0@2@@std@@QAE@PAU?$_List_node@PAVIAccount@@PAX@1@PBV?$_List_val@U?$_List_simple_types@PAVIAccount@@@std@@@1@@Z 10007550 f i ClientSession.obj
 0001:00006550       ??0?$_List_unchecked_const_iterator@V?$_List_val@U?$_List_simple_types@I@std@@@std@@U_Iterator_base0@2@@std@@QAE@PAU?$_List_node@IPAX@1@PBV?$_List_val@U?$_List_simple_types@I@std@@@1@@Z 10007550 f i ClientSession.obj
 0001:00006580       ?_Buyheadnode@?$_List_alloc@U?$_List_base_types@IV?$allocator@I@std@@@std@@@std@@QAEPAU?$_List_node@IPAX@2@XZ 10007580 f i ClientSession.obj
 0001:00006580       ?_Buyheadnode@?$_List_alloc@U?$_List_base_types@PAVIAccount@@V?$allocator@PAVIAccount@@@std@@@std@@@std@@QAEPAU?$_List_node@PAVIAccount@@PAX@2@XZ 10007580 f i ClientSession.obj
 0001:000065a0       ??E?$_Tree_const_iterator@V?$_Tree_val@U?$_Tree_simple_types@U?$pair@$$CBV?$basic_string@DU?$char_traits@D@std@@V?$allocator@D@2@@std@@V?$list@IV?$allocator@I@std@@@2@@std@@@std@@@std@@@std@@QAE?AV01@H@Z 100075a0 f i ClientSession.obj
 0001:000065a0       ??E?$_Tree_const_iterator@V?$_Tree_val@U?$_Tree_simple_types@U?$pair@$$CBIPAVIClientSession@@@std@@@std@@@std@@@std@@QAE?AV01@H@Z 100075a0 f i ClientSession.obj
 0001:000065d0       ?_Construct@?$_Tree_comp_alloc@V?$_Tmap_traits@V?$basic_string@DU?$char_traits@D@std@@V?$allocator@D@2@@std@@V?$list@IV?$allocator@I@std@@@2@U?$less@V?$basic_string@DU?$char_traits@D@std@@V?$allocator@D@2@@std@@@2@V?$allocator@U?$pair@$$CBV?$basic_string@DU?$char_traits@D@std@@V?$allocator@D@2@@std@@V?$list@IV?$allocator@I@std@@@2@@std@@@2@$0A@@std@@@std@@QAEXXZ 100075d0 f i ClientSession.obj
 0001:00006600       ?clear@?$_Tree@V?$_Tmap_traits@V?$basic_string@DU?$char_traits@D@std@@V?$allocator@D@2@@std@@V?$list@IV?$allocator@I@std@@@2@U?$less@V?$basic_string@DU?$char_traits@D@std@@V?$allocator@D@2@@std@@@2@V?$allocator@U?$pair@$$CBV?$basic_string@DU?$char_traits@D@std@@V?$allocator@D@2@@std@@V?$list@IV?$allocator@I@std@@@2@@std@@@2@$0A@@std@@@std@@QAEXXZ 10007600 f i ClientSession.obj
 0001:000066a0       ?_Construct@?$_Tree_comp_alloc@V?$_Tmap_traits@IPAVIClientSession@@U?$less@I@std@@V?$allocator@U?$pair@$$CBIPAVIClientSession@@@std@@@3@$0A@@std@@@std@@QAEXXZ 100076a0 f i ClientSession.obj
 0001:000066d0       ?deallocate@?$allocator@U?$_List_node@IPAX@std@@@std@@QAEXPAU?$_List_node@IPAX@2@I@Z 100076d0 f i ClientSession.obj
 0001:000066d0       ?deallocate@?$allocator@U?$_List_node@PAVIAccount@@PAX@std@@@std@@QAEXPAU?$_List_node@PAVIAccount@@PAX@2@I@Z 100076d0 f i ClientSession.obj
 0001:000066f0       ?_Buynode0@?$_List_alloc@U?$_List_base_types@PAVIAccount@@V?$allocator@PAVIAccount@@@std@@@std@@@std@@QAEPAU?$_List_node@PAVIAccount@@PAX@2@PAU32@0@Z 100076f0 f i ClientSession.obj
 0001:000066f0       ?_Buynode0@?$_List_alloc@U?$_List_base_types@IV?$allocator@I@std@@@std@@@std@@QAEPAU?$_List_node@IPAX@2@PAU32@0@Z 100076f0 f i ClientSession.obj
 0001:00006800       ?_Buyheadnode@?$_Tree_comp_alloc@V?$_Tmap_traits@V?$basic_string@DU?$char_traits@D@std@@V?$allocator@D@2@@std@@V?$list@IV?$allocator@I@std@@@2@U?$less@V?$basic_string@DU?$char_traits@D@std@@V?$allocator@D@2@@std@@@2@V?$allocator@U?$pair@$$CBV?$basic_string@DU?$char_traits@D@std@@V?$allocator@D@2@@std@@V?$list@IV?$allocator@I@std@@@2@@std@@@2@$0A@@std@@@std@@QAEPAU?$_Tree_node@U?$pair@$$CBV?$basic_string@DU?$char_traits@D@std@@V?$allocator@D@2@@std@@V?$list@IV?$allocator@I@std@@@2@@std@@PAX@2@XZ 10007800 f i ClientSession.obj
 0001:00006940       ?_Erase@?$_Tree@V?$_Tmap_traits@V?$basic_string@DU?$char_traits@D@std@@V?$allocator@D@2@@std@@V?$list@IV?$allocator@I@std@@@2@U?$less@V?$basic_string@DU?$char_traits@D@std@@V?$allocator@D@2@@std@@@2@V?$allocator@U?$pair@$$CBV?$basic_string@DU?$char_traits@D@std@@V?$allocator@D@2@@std@@V?$list@IV?$allocator@I@std@@@2@@std@@@2@$0A@@std@@@std@@IAEXPAU?$_Tree_node@U?$pair@$$CBV?$basic_string@DU?$char_traits@D@std@@V?$allocator@D@2@@std@@V?$list@IV?$allocator@I@std@@@2@@std@@PAX@2@@Z 10007940 f i ClientSession.obj
 0001:000069e0       ?_Buyheadnode@?$_Tree_comp_alloc@V?$_Tmap_traits@IPAVIClientSession@@U?$less@I@std@@V?$allocator@U?$pair@$$CBIPAVIClientSession@@@std@@@3@$0A@@std@@@std@@QAEPAU?$_Tree_node@U?$pair@$$CBIPAVIClientSession@@@std@@PAX@2@XZ 100079e0 f i ClientSession.obj
 0001:00006b20       ?allocate@?$_Wrap_alloc@V?$allocator@U?$_List_node@PAVIAccount@@PAX@std@@@std@@@std@@QAEPAU?$_List_node@PAVIAccount@@PAX@2@I@Z 10007b20 f i ClientSession.obj
 0001:00006b20       ?allocate@?$_Wrap_alloc@V?$allocator@U?$_List_node@IPAX@std@@@std@@@std@@QAEPAU?$_List_node@IPAX@2@I@Z 10007b20 f i ClientSession.obj
 0001:00006b40       ?allocate@?$_Wrap_alloc@V?$allocator@U?$_Tree_node@U?$pair@$$CBV?$basic_string@DU?$char_traits@D@std@@V?$allocator@D@2@@std@@V?$list@IV?$allocator@I@std@@@2@@std@@PAX@std@@@std@@@std@@QAEPAU?$_Tree_node@U?$pair@$$CBV?$basic_string@DU?$char_traits@D@std@@V?$allocator@D@2@@std@@V?$list@IV?$allocator@I@std@@@2@@std@@PAX@2@I@Z 10007b40 f i ClientSession.obj
 0001:00006b60       ?allocate@?$_Wrap_alloc@V?$allocator@U?$_Tree_node@U?$pair@$$CBIPAVIClientSession@@@std@@PAX@std@@@std@@@std@@QAEPAU?$_Tree_node@U?$pair@$$CBIPAVIClientSession@@@std@@PAX@2@I@Z 10007b60 f i ClientSession.obj
 0001:00006b80       ?allocate@?$allocator@U?$_List_node@PAVIAccount@@PAX@std@@@std@@QAEPAU?$_List_node@PAVIAccount@@PAX@2@I@Z 10007b80 f i ClientSession.obj
 0001:00006b80       ?allocate@?$allocator@U?$_List_node@IPAX@std@@@std@@QAEPAU?$_List_node@IPAX@2@I@Z 10007b80 f i ClientSession.obj
 0001:00006ba0       ?allocate@?$allocator@U?$_Tree_node@U?$pair@$$CBV?$basic_string@DU?$char_traits@D@std@@V?$allocator@D@2@@std@@V?$list@IV?$allocator@I@std@@@2@@std@@PAX@std@@@std@@QAEPAU?$_Tree_node@U?$pair@$$CBV?$basic_string@DU?$char_traits@D@std@@V?$allocator@D@2@@std@@V?$list@IV?$allocator@I@std@@@2@@std@@PAX@2@I@Z 10007ba0 f i ClientSession.obj
 0001:00006bc0       ?allocate@?$allocator@U?$_Tree_node@U?$pair@$$CBIPAVIClientSession@@@std@@PAX@std@@@std@@QAEPAU?$_Tree_node@U?$pair@$$CBIPAVIClientSession@@@std@@PAX@2@I@Z 10007bc0 f i ClientSession.obj
 0001:00006be0       ??$?0IAAPAVIClientSession@@X$0A@@?$pair@IPAVIClientSession@@@std@@QAE@$$QAIAAPAVIClientSession@@@Z 10007be0 f i ClientSession.obj
 0001:00006c20       ??$insert@AAU?$pair@IPAVIClientSession@@@std@@X@?$map@IPAVIClientSession@@U?$less@I@std@@V?$allocator@U?$pair@$$CBIPAVIClientSession@@@std@@@3@@std@@QAE?AU?$pair@V?$_Tree_iterator@V?$_Tree_val@U?$_Tree_simple_types@U?$pair@$$CBIPAVIClientSession@@@std@@@std@@@std@@@std@@_N@1@AAU?$pair@IPAVIClientSession@@@1@@Z 10007c20 f i ClientSession.obj
 0001:00006c50       ??$?0AAV?$basic_string@DU?$char_traits@D@std@@V?$allocator@D@2@@std@@AAV?$list@IV?$allocator@I@std@@@1@X$0A@@?$pair@V?$basic_string@DU?$char_traits@D@std@@V?$allocator@D@2@@std@@V?$list@IV?$allocator@I@std@@@2@@std@@QAE@AAV?$basic_string@DU?$char_traits@D@std@@V?$allocator@D@2@@1@AAV?$list@IV?$allocator@I@std@@@1@@Z 10007c50 f i ClientSession.obj
 0001:00006cd0       ??$insert@AAU?$pair@V?$basic_string@DU?$char_traits@D@std@@V?$allocator@D@2@@std@@V?$list@IV?$allocator@I@std@@@2@@std@@X@?$map@V?$basic_string@DU?$char_traits@D@std@@V?$allocator@D@2@@std@@V?$list@IV?$allocator@I@std@@@2@U?$less@V?$basic_string@DU?$char_traits@D@std@@V?$allocator@D@2@@std@@@2@V?$allocator@U?$pair@$$CBV?$basic_string@DU?$char_traits@D@std@@V?$allocator@D@2@@std@@V?$list@IV?$allocator@I@std@@@2@@std@@@2@@std@@QAE?AU?$pair@V?$_Tree_iterator@V?$_Tree_val@U?$_Tree_simple_types@U?$pair@$$CBV?$basic_string@DU?$char_traits@D@std@@V?$allocator@D@2@@std@@V?$list@IV?$allocator@I@std@@@2@@std@@@std@@@std@@@std@@_N@1@AAU?$pair@V?$basic_string@DU?$char_traits@D@std@@V?$allocator@D@2@@std@@V?$list@IV?$allocator@I@std@@@2@@1@@Z 10007cd0 f i ClientSession.obj
 0001:00006d00       ??$swap@DX@std@@YAXAAD0@Z  10007d00 f i ClientSession.obj
 0001:00006d40       ??$destroy@U?$pair@$$CBV?$basic_string@DU?$char_traits@D@std@@V?$allocator@D@2@@std@@V?$list@IV?$allocator@I@std@@@2@@std@@@?$_Wrap_alloc@V?$allocator@U?$_Tree_node@U?$pair@$$CBV?$basic_string@DU?$char_traits@D@std@@V?$allocator@D@2@@std@@V?$list@IV?$allocator@I@std@@@2@@std@@PAX@std@@@std@@@std@@QAEXPAU?$pair@$$CBV?$basic_string@DU?$char_traits@D@std@@V?$allocator@D@2@@std@@V?$list@IV?$allocator@I@std@@@2@@1@@Z 10007d40 f i ClientSession.obj
 0001:00006d60       ??$try_emplace@$$V@?$map@IPAVIClientSession@@U?$less@I@std@@V?$allocator@U?$pair@$$CBIPAVIClientSession@@@std@@@3@@std@@QAE?AU?$pair@V?$_Tree_iterator@V?$_Tree_val@U?$_Tree_simple_types@U?$pair@$$CBIPAVIClientSession@@@std@@@std@@@std@@@std@@_N@1@ABI@Z 10007d60 f i ClientSession.obj
 0001:00006d80       ??$_Insert@I@?$list@IV?$allocator@I@std@@@std@@QAEXV?$_List_unchecked_const_iterator@V?$_List_val@U?$_List_simple_types@I@std@@@std@@U_Iterator_base0@2@@1@$$QAI@Z 10007d80 f i ClientSession.obj
 0001:00006d80       ??$_Insert@ABI@?$list@IV?$allocator@I@std@@@std@@QAEXV?$_List_unchecked_const_iterator@V?$_List_val@U?$_List_simple_types@I@std@@@std@@U_Iterator_base0@2@@1@ABI@Z 10007d80 f i ClientSession.obj
 0001:00006d80       ??$_Insert@ABQAVIAccount@@@?$list@PAVIAccount@@V?$allocator@PAVIAccount@@@std@@@std@@QAEXV?$_List_unchecked_const_iterator@V?$_List_val@U?$_List_simple_types@PAVIAccount@@@std@@@std@@U_Iterator_base0@2@@1@ABQAVIAccount@@@Z 10007d80 f i ClientSession.obj
 0001:00006e00       ??$?0U?$_Wrap_alloc@V?$allocator@D@std@@@std@@X@?$_String_alloc@U?$_String_base_types@DV?$allocator@D@std@@@std@@@std@@QAE@$$QAU?$_Wrap_alloc@V?$allocator@D@std@@@1@@Z 10007e00 f i ClientSession.obj
 0001:00006e30       ??$_Lbound@V?$basic_string@DU?$char_traits@D@std@@V?$allocator@D@2@@std@@@?$_Tree@V?$_Tmap_traits@V?$basic_string@DU?$char_traits@D@std@@V?$allocator@D@2@@std@@V?$list@IV?$allocator@I@std@@@2@U?$less@V?$basic_string@DU?$char_traits@D@std@@V?$allocator@D@2@@std@@@2@V?$allocator@U?$pair@$$CBV?$basic_string@DU?$char_traits@D@std@@V?$allocator@D@2@@std@@V?$list@IV?$allocator@I@std@@@2@@std@@@2@$0A@@std@@@std@@IBEPAU?$_Tree_node@U?$pair@$$CBV?$basic_string@DU?$char_traits@D@std@@V?$allocator@D@2@@std@@V?$list@IV?$allocator@I@std@@@2@@std@@PAX@1@ABV?$basic_string@DU?$char_traits@D@std@@V?$allocator@D@2@@1@@Z 10007e30 f i ClientSession.obj
 0001:00006ec0       ??$_Lbound@I@?$_Tree@V?$_Tmap_traits@IPAVIClientSession@@U?$less@I@std@@V?$allocator@U?$pair@$$CBIPAVIClientSession@@@std@@@3@$0A@@std@@@std@@IBEPAU?$_Tree_node@U?$pair@$$CBIPAVIClientSession@@@std@@PAX@1@ABI@Z 10007ec0 f i ClientSession.obj
 0001:00006f50       ??$?MDU?$char_traits@D@std@@V?$allocator@D@1@@std@@YA_NABV?$basic_string@DU?$char_traits@D@std@@V?$allocator@D@2@@0@0@Z 10007f50 f i ClientSession.obj
 0001:00006f80       ??0?$_Wrap_alloc@V?$allocator@D@std@@@std@@QAE@$$QAU01@@Z 10007f80 f i ClientSession.obj
 0001:00006f80       ??$?0V?$allocator@D@std@@@?$_Wrap_alloc@V?$allocator@D@std@@@std@@QAE@$$QAV?$allocator@D@1@@Z 10007f80 f i ClientSession.obj
 0001:00006f80       ??0?$_Wrap_alloc@V?$allocator@U?$_List_node@IPAX@std@@@std@@@std@@QAE@$$QAU01@@Z 10007f80 f i ClientSession.obj
 0001:00006f80       ??$?0V?$allocator@U?$_List_node@IPAX@std@@@std@@@?$_Wrap_alloc@V?$allocator@U?$_List_node@IPAX@std@@@std@@@std@@QAE@$$QAV?$allocator@U?$_List_node@IPAX@std@@@1@@Z 10007f80 f i ClientSession.obj
 0001:00006fb0       ??$?0$$V@?$_Compressed_pair@U?$_Wrap_alloc@V?$allocator@U?$_Tree_node@U?$pair@$$CBV?$basic_string@DU?$char_traits@D@std@@V?$allocator@D@2@@std@@V?$list@IV?$allocator@I@std@@@2@@std@@PAX@std@@@std@@@std@@V?$_Tree_val@U?$_Tree_simple_types@U?$pair@$$CBV?$basic_string@DU?$char_traits@D@std@@V?$allocator@D@2@@std@@V?$list@IV?$allocator@I@std@@@2@@std@@@std@@@2@$00@std@@QAE@U_Zero_then_variadic_args_t@1@@Z 10007fb0 f i ClientSession.obj
 0001:00006fb0       ??$?0$$V@?$_Compressed_pair@U?$_Wrap_alloc@V?$allocator@U?$_Tree_node@U?$pair@$$CBIPAVIClientSession@@@std@@PAX@std@@@std@@@std@@V?$_Tree_val@U?$_Tree_simple_types@U?$pair@$$CBIPAVIClientSession@@@std@@@std@@@2@$00@std@@QAE@U_Zero_then_variadic_args_t@1@@Z 10007fb0 f i ClientSession.obj
 0001:00006fb0       ??$?0$$V@?$_Compressed_pair@U?$_Wrap_alloc@V?$allocator@U?$_List_node@IPAX@std@@@std@@@std@@V?$_List_val@U?$_List_simple_types@I@std@@@2@$00@std@@QAE@U_Zero_then_variadic_args_t@1@@Z 10007fb0 f i ClientSession.obj
 0001:00006fb0       ??$?0$$V@?$_Compressed_pair@U?$_Wrap_alloc@V?$allocator@U?$_List_node@PAVIAccount@@PAX@std@@@std@@@std@@V?$_List_val@U?$_List_simple_types@PAVIAccount@@@std@@@2@$00@std@@QAE@U_Zero_then_variadic_args_t@1@@Z 10007fb0 f i ClientSession.obj
 0001:00006fd0       ??$?0ABU?$less@V?$basic_string@DU?$char_traits@D@std@@V?$allocator@D@2@@std@@@std@@U_Zero_then_variadic_args_t@1@@?$_Compressed_pair@U?$less@V?$basic_string@DU?$char_traits@D@std@@V?$allocator@D@2@@std@@@std@@V?$_Compressed_pair@U?$_Wrap_alloc@V?$allocator@U?$_Tree_node@U?$pair@$$CBV?$basic_string@DU?$char_traits@D@std@@V?$allocator@D@2@@std@@V?$list@IV?$allocator@I@std@@@2@@std@@PAX@std@@@std@@@std@@V?$_Tree_val@U?$_Tree_simple_types@U?$pair@$$CBV?$basic_string@DU?$char_traits@D@std@@V?$allocator@D@2@@std@@V?$list@IV?$allocator@I@std@@@2@@std@@@std@@@2@$00@2@$00@std@@QAE@U_One_then_variadic_args_t@1@ABU?$less@V?$basic_string@DU?$char_traits@D@std@@V?$allocator@D@2@@std@@@1@$$QAU_Zero_then_variadic_args_t@1@@Z 10007fd0 f i ClientSession.obj
 0001:00006fd0       ??$?0ABU?$less@I@std@@U_Zero_then_variadic_args_t@1@@?$_Compressed_pair@U?$less@I@std@@V?$_Compressed_pair@U?$_Wrap_alloc@V?$allocator@U?$_Tree_node@U?$pair@$$CBIPAVIClientSession@@@std@@PAX@std@@@std@@@std@@V?$_Tree_val@U?$_Tree_simple_types@U?$pair@$$CBIPAVIClientSession@@@std@@@std@@@2@$00@2@$00@std@@QAE@U_One_then_variadic_args_t@1@ABU?$less@I@1@$$QAU_Zero_then_variadic_args_t@1@@Z 10007fd0 f i ClientSession.obj
 0001:00007010       ??0?$_List_val@U?$_List_simple_types@PAVIAccount@@@std@@@std@@QAE@XZ 10008010 f i ClientSession.obj
 0001:00007010       ??0?$_Tree_val@U?$_Tree_simple_types@U?$pair@$$CBV?$basic_string@DU?$char_traits@D@std@@V?$allocator@D@2@@std@@V?$list@IV?$allocator@I@std@@@2@@std@@@std@@@std@@QAE@XZ 10008010 f i ClientSession.obj
 0001:00007010       ??0?$_List_val@U?$_List_simple_types@I@std@@@std@@QAE@XZ 10008010 f i ClientSession.obj
 0001:00007010       ??0?$_Tree_val@U?$_Tree_simple_types@U?$pair@$$CBIPAVIClientSession@@@std@@@std@@@std@@QAE@XZ 10008010 f i ClientSession.obj
 0001:00007040       ?_Compare@?$_Tree@V?$_Tmap_traits@V?$basic_string@DU?$char_traits@D@std@@V?$allocator@D@2@@std@@V?$list@IV?$allocator@I@std@@@2@U?$less@V?$basic_string@DU?$char_traits@D@std@@V?$allocator@D@2@@std@@@2@V?$allocator@U?$pair@$$CBV?$basic_string@DU?$char_traits@D@std@@V?$allocator@D@2@@std@@V?$list@IV?$allocator@I@std@@@2@@std@@@2@$0A@@std@@@std@@IBE_NABV?$basic_string@DU?$char_traits@D@std@@V?$allocator@D@2@@2@0@Z 10008040 f i ClientSession.obj
 0001:00007070       ?_Compare@?$_Tree@V?$_Tmap_traits@IPAVIClientSession@@U?$less@I@std@@V?$allocator@U?$pair@$$CBIPAVIClientSession@@@std@@@3@$0A@@std@@@std@@IBE_NABI0@Z 10008070 f i ClientSession.obj
 0001:000070a0       ?_Incsize@?$list@IV?$allocator@I@std@@@std@@QAEXI@Z 100080a0 f i ClientSession.obj
 0001:000070a0       ?_Incsize@?$list@PAVIAccount@@V?$allocator@PAVIAccount@@@std@@@std@@QAEXI@Z 100080a0 f i ClientSession.obj
 0001:000070f0       ??0?$list@IV?$allocator@I@std@@@std@@QAE@ABV01@@Z 100080f0 f i ClientSession.obj
 0001:000071e0       ?max_size@?$list@IV?$allocator@I@std@@@std@@QBEIXZ 100081e0 f i ClientSession.obj
 0001:000071e0       ?max_size@?$list@PAVIAccount@@V?$allocator@PAVIAccount@@@std@@@std@@QBEIXZ 100081e0 f i ClientSession.obj
 0001:00007210       ?end@?$list@IV?$allocator@I@std@@@std@@QBE?AV?$_List_const_iterator@V?$_List_val@U?$_List_simple_types@I@std@@@std@@@2@XZ 10008210 f i ClientSession.obj
 0001:00007270       ?begin@?$list@IV?$allocator@I@std@@@std@@QBE?AV?$_List_const_iterator@V?$_List_val@U?$_List_simple_types@I@std@@@std@@@2@XZ 10008270 f i ClientSession.obj
 0001:000072e0       ?max_size@?$_Wrap_alloc@V?$allocator@U?$_List_node@IPAX@std@@@std@@@std@@QBEIU_Nil@2@@Z 100082e0 f i ClientSession.obj
 0001:000072e0       ?max_size@?$_Wrap_alloc@V?$allocator@U?$_List_node@PAVIAccount@@PAX@std@@@std@@@std@@QBEIU_Nil@2@@Z 100082e0 f i ClientSession.obj
 0001:00007300       ?max_size@?$allocator_traits@V?$allocator@U?$_List_node@PAVIAccount@@PAX@std@@@std@@@std@@SAIABV?$allocator@U?$_List_node@PAVIAccount@@PAX@std@@@2@@Z 10008300 f i ClientSession.obj
 0001:00007300       ?max_size@?$allocator_traits@V?$allocator@U?$_List_node@IPAX@std@@@std@@@std@@SAIABV?$allocator@U?$_List_node@IPAX@std@@@2@@Z 10008300 f i ClientSession.obj
 0001:00007310       ?max_size@?$allocator@U?$_List_node@PAVIAccount@@PAX@std@@@std@@QBEIXZ 10008310 f i ClientSession.obj
 0001:00007310       ?max_size@?$allocator@U?$_List_node@IPAX@std@@@std@@QBEIXZ 10008310 f i ClientSession.obj
 0001:00007320       ??$emplace@AAU?$pair@IPAVIClientSession@@@std@@@?$_Tree@V?$_Tmap_traits@IPAVIClientSession@@U?$less@I@std@@V?$allocator@U?$pair@$$CBIPAVIClientSession@@@std@@@3@$0A@@std@@@std@@QAE?AU?$pair@V?$_Tree_iterator@V?$_Tree_val@U?$_Tree_simple_types@U?$pair@$$CBIPAVIClientSession@@@std@@@std@@@std@@@std@@_N@1@AAU?$pair@IPAVIClientSession@@@1@@Z 10008320 f i ClientSession.obj
 0001:00007370       ??$emplace@AAU?$pair@V?$basic_string@DU?$char_traits@D@std@@V?$allocator@D@2@@std@@V?$list@IV?$allocator@I@std@@@2@@std@@@?$_Tree@V?$_Tmap_traits@V?$basic_string@DU?$char_traits@D@std@@V?$allocator@D@2@@std@@V?$list@IV?$allocator@I@std@@@2@U?$less@V?$basic_string@DU?$char_traits@D@std@@V?$allocator@D@2@@std@@@2@V?$allocator@U?$pair@$$CBV?$basic_string@DU?$char_traits@D@std@@V?$allocator@D@2@@std@@V?$list@IV?$allocator@I@std@@@2@@std@@@2@$0A@@std@@@std@@QAE?AU?$pair@V?$_Tree_iterator@V?$_Tree_val@U?$_Tree_simple_types@U?$pair@$$CBV?$basic_string@DU?$char_traits@D@std@@V?$allocator@D@2@@std@@V?$list@IV?$allocator@I@std@@@2@@std@@@std@@@std@@@std@@_N@1@AAU?$pair@V?$basic_string@DU?$char_traits@D@std@@V?$allocator@D@2@@std@@V?$list@IV?$allocator@I@std@@@2@@1@@Z 10008370 f i ClientSession.obj
 0001:000073c0       ??$destroy@U?$pair@$$CBV?$basic_string@DU?$char_traits@D@std@@V?$allocator@D@2@@std@@V?$list@IV?$allocator@I@std@@@2@@std@@@?$allocator_traits@V?$allocator@U?$_Tree_node@U?$pair@$$CBV?$basic_string@DU?$char_traits@D@std@@V?$allocator@D@2@@std@@V?$list@IV?$allocator@I@std@@@2@@std@@PAX@std@@@std@@@std@@SAXAAV?$allocator@U?$_Tree_node@U?$pair@$$CBV?$basic_string@DU?$char_traits@D@std@@V?$allocator@D@2@@std@@V?$list@IV?$allocator@I@std@@@2@@std@@PAX@std@@@1@PAU?$pair@$$CBV?$basic_string@DU?$char_traits@D@std@@V?$allocator@D@2@@std@@V?$list@IV?$allocator@I@std@@@2@@1@@Z 100083c0 f i ClientSession.obj
 0001:000073e0       ??$_Try_emplace@ABI$$V@?$map@IPAVIClientSession@@U?$less@I@std@@V?$allocator@U?$pair@$$CBIPAVIClientSession@@@std@@@3@@std@@QAE?AU?$pair@V?$_Tree_iterator@V?$_Tree_val@U?$_Tree_simple_types@U?$pair@$$CBIPAVIClientSession@@@std@@@std@@@std@@@std@@_N@1@ABI@Z 100083e0 f i ClientSession.obj
 0001:000074c0       ??$_Buynode@ABI@?$_List_buy@IV?$allocator@I@std@@@std@@QAEPAU?$_List_node@IPAX@1@PAU21@0ABI@Z 100084c0 f i ClientSession.obj
 0001:000074c0       ??$_Buynode@ABQAVIAccount@@@?$_List_buy@PAVIAccount@@V?$allocator@PAVIAccount@@@std@@@std@@QAEPAU?$_List_node@PAVIAccount@@PAX@1@PAU21@0ABQAVIAccount@@@Z 100084c0 f i ClientSession.obj
 0001:000074c0       ??$_Buynode@I@?$_List_buy@IV?$allocator@I@std@@@std@@QAEPAU?$_List_node@IPAX@1@PAU21@0$$QAI@Z 100084c0 f i ClientSession.obj
 0001:00007590       ??$?0U?$_Wrap_alloc@V?$allocator@D@std@@@std@@$$V@?$_Compressed_pair@U?$_Wrap_alloc@V?$allocator@D@std@@@std@@V?$_String_val@U?$_Simple_types@D@std@@@2@$00@std@@QAE@U_One_then_variadic_args_t@1@$$QAU?$_Wrap_alloc@V?$allocator@D@std@@@1@@Z 10008590 f i ClientSession.obj
 0001:000075c0       ??$?0U?$_Wrap_alloc@V?$allocator@U?$_List_node@IPAX@std@@@std@@@std@@X@?$_List_buy@IV?$allocator@I@std@@@std@@QAE@$$QAU?$_Wrap_alloc@V?$allocator@U?$_List_node@IPAX@std@@@std@@@1@@Z 100085c0 f i ClientSession.obj
 0001:000075f0       ??$insert@V?$_List_const_iterator@V?$_List_val@U?$_List_simple_types@I@std@@@std@@@std@@@?$list@IV?$allocator@I@std@@@std@@QAE?AV?$_List_iterator@V?$_List_val@U?$_List_simple_types@I@std@@@std@@@1@V?$_List_const_iterator@V?$_List_val@U?$_List_simple_types@I@std@@@std@@@1@00@Z 100085f0 f i ClientSession.obj
 0001:000076c0       ??F?$_List_iterator@V?$_List_val@U?$_List_simple_types@I@std@@@std@@@std@@QAEAAV01@XZ 100086c0 f i ClientSession.obj
 0001:000076e0       ?_Unchecked@?$_List_const_iterator@V?$_List_val@U?$_List_simple_types@I@std@@@std@@@std@@QBE?AV?$_List_unchecked_const_iterator@V?$_List_val@U?$_List_simple_types@I@std@@@std@@U_Iterator_base0@2@@2@XZ 100086e0 f i ClientSession.obj
 0001:00007710       ??F?$_List_unchecked_const_iterator@V?$_List_val@U?$_List_simple_types@I@std@@@std@@U_Iterator_base0@2@@std@@QAEAAV01@XZ 10008710 f i ClientSession.obj
 0001:00007710       ??F?$_List_const_iterator@V?$_List_val@U?$_List_simple_types@I@std@@@std@@@std@@QAEAAV01@XZ 10008710 f i ClientSession.obj
 0001:00007740       ??$_Buynode@AAU?$pair@IPAVIClientSession@@@std@@@?$_Tree_comp_alloc@V?$_Tmap_traits@IPAVIClientSession@@U?$less@I@std@@V?$allocator@U?$pair@$$CBIPAVIClientSession@@@std@@@3@$0A@@std@@@std@@QAEPAU?$_Tree_node@U?$pair@$$CBIPAVIClientSession@@@std@@PAX@1@AAU?$pair@IPAVIClientSession@@@1@@Z 10008740 f i ClientSession.obj
 0001:00007820       ??$_Insert_nohint@AAU?$pair@$$CBIPAVIClientSession@@@std@@PAU?$_Tree_node@U?$pair@$$CBIPAVIClientSession@@@std@@PAX@2@@?$_Tree@V?$_Tmap_traits@IPAVIClientSession@@U?$less@I@std@@V?$allocator@U?$pair@$$CBIPAVIClientSession@@@std@@@3@$0A@@std@@@std@@IAE?AU?$pair@V?$_Tree_iterator@V?$_Tree_val@U?$_Tree_simple_types@U?$pair@$$CBIPAVIClientSession@@@std@@@std@@@std@@@std@@_N@1@_NAAU?$pair@$$CBIPAVIClientSession@@@1@PAU?$_Tree_node@U?$pair@$$CBIPAVIClientSession@@@std@@PAX@1@@Z 10008820 f i ClientSession.obj
 0001:00007b50       ??$_Buynode@AAU?$pair@V?$basic_string@DU?$char_traits@D@std@@V?$allocator@D@2@@std@@V?$list@IV?$allocator@I@std@@@2@@std@@@?$_Tree_comp_alloc@V?$_Tmap_traits@V?$basic_string@DU?$char_traits@D@std@@V?$allocator@D@2@@std@@V?$list@IV?$allocator@I@std@@@2@U?$less@V?$basic_string@DU?$char_traits@D@std@@V?$allocator@D@2@@std@@@2@V?$allocator@U?$pair@$$CBV?$basic_string@DU?$char_traits@D@std@@V?$allocator@D@2@@std@@V?$list@IV?$allocator@I@std@@@2@@std@@@2@$0A@@std@@@std@@QAEPAU?$_Tree_node@U?$pair@$$CBV?$basic_string@DU?$char_traits@D@std@@V?$allocator@D@2@@std@@V?$list@IV?$allocator@I@std@@@2@@std@@PAX@1@AAU?$pair@V?$basic_string@DU?$char_traits@D@std@@V?$allocator@D@2@@std@@V?$list@IV?$allocator@I@std@@@2@@1@@Z 10008b50 f i ClientSession.obj
 0001:00007c30       ??$_Insert_nohint@AAU?$pair@$$CBV?$basic_string@DU?$char_traits@D@std@@V?$allocator@D@2@@std@@V?$list@IV?$allocator@I@std@@@2@@std@@PAU?$_Tree_node@U?$pair@$$CBV?$basic_string@DU?$char_traits@D@std@@V?$allocator@D@2@@std@@V?$list@IV?$allocator@I@std@@@2@@std@@PAX@2@@?$_Tree@V?$_Tmap_traits@V?$basic_string@DU?$char_traits@D@std@@V?$allocator@D@2@@std@@V?$list@IV?$allocator@I@std@@@2@U?$less@V?$basic_string@DU?$char_traits@D@std@@V?$allocator@D@2@@std@@@2@V?$allocator@U?$pair@$$CBV?$basic_string@DU?$char_traits@D@std@@V?$allocator@D@2@@std@@V?$list@IV?$allocator@I@std@@@2@@std@@@2@$0A@@std@@@std@@IAE?AU?$pair@V?$_Tree_iterator@V?$_Tree_val@U?$_Tree_simple_types@U?$pair@$$CBV?$basic_string@DU?$char_traits@D@std@@V?$allocator@D@2@@std@@V?$list@IV?$allocator@I@std@@@2@@std@@@std@@@std@@@std@@_N@1@_NAAU?$pair@$$CBV?$basic_string@DU?$char_traits@D@std@@V?$allocator@D@2@@std@@V?$list@IV?$allocator@I@std@@@2@@1@PAU?$_Tree_node@U?$pair@$$CBV?$basic_string@DU?$char_traits@D@std@@V?$allocator@D@2@@std@@V?$list@IV?$allocator@I@std@@@2@@std@@PAX@1@@Z 10008c30 f i ClientSession.obj
 0001:00007f60       ??$destroy@U?$pair@$$CBV?$basic_string@DU?$char_traits@D@std@@V?$allocator@D@2@@std@@V?$list@IV?$allocator@I@std@@@2@@std@@@?$allocator@U?$_Tree_node@U?$pair@$$CBV?$basic_string@DU?$char_traits@D@std@@V?$allocator@D@2@@std@@V?$list@IV?$allocator@I@std@@@2@@std@@PAX@std@@@std@@QAEXPAU?$pair@$$CBV?$basic_string@DU?$char_traits@D@std@@V?$allocator@D@2@@std@@V?$list@IV?$allocator@I@std@@@2@@1@@Z 10008f60 f i ClientSession.obj
 0001:00007f80       ??$forward_as_tuple@ABI@std@@YA?AV?$tuple@ABI@0@ABI@Z 10008f80 f i ClientSession.obj
 0001:00007fd0       ??$forward_as_tuple@$$V@std@@YA?AV?$tuple@$$V@0@XZ 10008fd0 f i ClientSession.obj
 0001:00007fe0       ??$emplace_hint@ABUpiecewise_construct_t@std@@V?$tuple@ABI@2@V?$tuple@$$V@2@@?$_Tree@V?$_Tmap_traits@IPAVIClientSession@@U?$less@I@std@@V?$allocator@U?$pair@$$CBIPAVIClientSession@@@std@@@3@$0A@@std@@@std@@QAE?AV?$_Tree_iterator@V?$_Tree_val@U?$_Tree_simple_types@U?$pair@$$CBIPAVIClientSession@@@std@@@std@@@std@@@1@V?$_Tree_const_iterator@V?$_Tree_val@U?$_Tree_simple_types@U?$pair@$$CBIPAVIClientSession@@@std@@@std@@@std@@@1@ABUpiecewise_construct_t@1@$$QAV?$tuple@ABI@1@$$QAV?$tuple@$$V@1@@Z 10008fe0 f i ClientSession.obj
 0001:00008050       ??$?0V?$_Tree_iterator@V?$_Tree_val@U?$_Tree_simple_types@U?$pair@$$CBIPAVIClientSession@@@std@@@std@@@std@@@std@@_NX$0A@@?$pair@V?$_Tree_iterator@V?$_Tree_val@U?$_Tree_simple_types@U?$pair@$$CBIPAVIClientSession@@@std@@@std@@@std@@@std@@_N@std@@QAE@$$QAV?$_Tree_iterator@V?$_Tree_val@U?$_Tree_simple_types@U?$pair@$$CBIPAVIClientSession@@@std@@@std@@@std@@@1@$$QA_N@Z 10009050 f i ClientSession.obj
 0001:00008050       ??$?0AAV?$_Tree_iterator@V?$_Tree_val@U?$_Tree_simple_types@U?$pair@$$CBIPAVIClientSession@@@std@@@std@@@std@@@std@@_NX$0A@@?$pair@V?$_Tree_iterator@V?$_Tree_val@U?$_Tree_simple_types@U?$pair@$$CBIPAVIClientSession@@@std@@@std@@@std@@@std@@_N@std@@QAE@AAV?$_Tree_iterator@V?$_Tree_val@U?$_Tree_simple_types@U?$pair@$$CBIPAVIClientSession@@@std@@@std@@@std@@@1@$$QA_N@Z 10009050 f i ClientSession.obj
 0001:00008050       ??$?0AAV?$_Tree_iterator@V?$_Tree_val@U?$_Tree_simple_types@U?$pair@$$CBV?$basic_string@DU?$char_traits@D@std@@V?$allocator@D@2@@std@@V?$list@IV?$allocator@I@std@@@2@@std@@@std@@@std@@@std@@_NX$0A@@?$pair@V?$_Tree_iterator@V?$_Tree_val@U?$_Tree_simple_types@U?$pair@$$CBV?$basic_string@DU?$char_traits@D@std@@V?$allocator@D@2@@std@@V?$list@IV?$allocator@I@std@@@2@@std@@@std@@@std@@@std@@_N@std@@QAE@AAV?$_Tree_iterator@V?$_Tree_val@U?$_Tree_simple_types@U?$pair@$$CBV?$basic_string@DU?$char_traits@D@std@@V?$allocator@D@2@@std@@V?$list@IV?$allocator@I@std@@@2@@std@@@std@@@std@@@1@$$QA_N@Z 10009050 f i ClientSession.obj
 0001:00008050       ??$?0V?$_Tree_iterator@V?$_Tree_val@U?$_Tree_simple_types@U?$pair@$$CBV?$basic_string@DU?$char_traits@D@std@@V?$allocator@D@2@@std@@V?$list@IV?$allocator@I@std@@@2@@std@@@std@@@std@@@std@@_NX$0A@@?$pair@V?$_Tree_iterator@V?$_Tree_val@U?$_Tree_simple_types@U?$pair@$$CBV?$basic_string@DU?$char_traits@D@std@@V?$allocator@D@2@@std@@V?$list@IV?$allocator@I@std@@@2@@std@@@std@@@std@@@std@@_N@std@@QAE@$$QAV?$_Tree_iterator@V?$_Tree_val@U?$_Tree_simple_types@U?$pair@$$CBV?$basic_string@DU?$char_traits@D@std@@V?$allocator@D@2@@std@@V?$list@IV?$allocator@I@std@@@2@@std@@@std@@@std@@@1@$$QA_N@Z 10009050 f i ClientSession.obj
 0001:00008090       ??$?0U?$_Wrap_alloc@V?$allocator@U?$_List_node@IPAX@std@@@std@@@std@@X@?$_List_alloc@U?$_List_base_types@IV?$allocator@I@std@@@std@@@std@@QAE@$$QAU?$_Wrap_alloc@V?$allocator@U?$_List_node@IPAX@std@@@std@@@1@@Z 10009090 f i ClientSession.obj
 0001:000080e0       ??$_Insert_range@V?$_List_const_iterator@V?$_List_val@U?$_List_simple_types@I@std@@@std@@@std@@@?$list@IV?$allocator@I@std@@@std@@QAEXV?$_List_unchecked_const_iterator@V?$_List_val@U?$_List_simple_types@I@std@@@std@@U_Iterator_base0@2@@1@V?$_List_const_iterator@V?$_List_val@U?$_List_simple_types@I@std@@@std@@@1@1Uforward_iterator_tag@1@@Z 100090e0 f i ClientSession.obj
 0001:000081d0       ??_G?$pair@$$CBV?$basic_string@DU?$char_traits@D@std@@V?$allocator@D@2@@std@@V?$list@IV?$allocator@I@std@@@2@@std@@QAEPAXI@Z 100091d0 f i ClientSession.obj
 0001:00008200       ??F?$_Tree_iterator@V?$_Tree_val@U?$_Tree_simple_types@U?$pair@$$CBIPAVIClientSession@@@std@@@std@@@std@@@std@@QAEAAV01@XZ 10009200 f i ClientSession.obj
 0001:00008200       ??F?$_Tree_iterator@V?$_Tree_val@U?$_Tree_simple_types@U?$pair@$$CBV?$basic_string@DU?$char_traits@D@std@@V?$allocator@D@2@@std@@V?$list@IV?$allocator@I@std@@@2@@std@@@std@@@std@@@std@@QAEAAV01@XZ 10009200 f i ClientSession.obj
 0001:00008220       ?_Buynode0@?$_Tree_comp_alloc@V?$_Tmap_traits@V?$basic_string@DU?$char_traits@D@std@@V?$allocator@D@2@@std@@V?$list@IV?$allocator@I@std@@@2@U?$less@V?$basic_string@DU?$char_traits@D@std@@V?$allocator@D@2@@std@@@2@V?$allocator@U?$pair@$$CBV?$basic_string@DU?$char_traits@D@std@@V?$allocator@D@2@@std@@V?$list@IV?$allocator@I@std@@@2@@std@@@2@$0A@@std@@@std@@QAEPAU?$_Tree_node@U?$pair@$$CBV?$basic_string@DU?$char_traits@D@std@@V?$allocator@D@2@@std@@V?$list@IV?$allocator@I@std@@@2@@std@@PAX@2@XZ 10009220 f i ClientSession.obj
 0001:00008360       ?_Destroy_if_not_nil@?$_Tree@V?$_Tmap_traits@V?$basic_string@DU?$char_traits@D@std@@V?$allocator@D@2@@std@@V?$list@IV?$allocator@I@std@@@2@U?$less@V?$basic_string@DU?$char_traits@D@std@@V?$allocator@D@2@@std@@@2@V?$allocator@U?$pair@$$CBV?$basic_string@DU?$char_traits@D@std@@V?$allocator@D@2@@std@@V?$list@IV?$allocator@I@std@@@2@@std@@@2@$0A@@std@@@std@@IAEXPAU?$_Tree_node@U?$pair@$$CBV?$basic_string@DU?$char_traits@D@std@@V?$allocator@D@2@@std@@V?$list@IV?$allocator@I@std@@@2@@std@@PAX@2@@Z 10009360 f i ClientSession.obj
 0001:000083b0       ?_Buynode0@?$_Tree_comp_alloc@V?$_Tmap_traits@IPAVIClientSession@@U?$less@I@std@@V?$allocator@U?$pair@$$CBIPAVIClientSession@@@std@@@3@$0A@@std@@@std@@QAEPAU?$_Tree_node@U?$pair@$$CBIPAVIClientSession@@@std@@PAX@2@XZ 100093b0 f i ClientSession.obj
 0001:000084f0       ?_Destroy_if_not_nil@?$_Tree@V?$_Tmap_traits@IPAVIClientSession@@U?$less@I@std@@V?$allocator@U?$pair@$$CBIPAVIClientSession@@@std@@@3@$0A@@std@@@std@@IAEXPAU?$_Tree_node@U?$pair@$$CBIPAVIClientSession@@@std@@PAX@2@@Z 100094f0 f i ClientSession.obj
 0001:00008540       ?_Unchecked_erase@?$list@IV?$allocator@I@std@@@std@@QAEXV?$_List_unchecked_const_iterator@V?$_List_val@U?$_List_simple_types@I@std@@@std@@U_Iterator_base0@2@@2@@Z 10009540 f i ClientSession.obj
 0001:000085e0       ??F?$_Tree_const_iterator@V?$_Tree_val@U?$_Tree_simple_types@U?$pair@$$CBIPAVIClientSession@@@std@@@std@@@std@@@std@@QAEAAV01@XZ 100095e0 f i ClientSession.obj
 0001:000085e0       ??F?$_Tree_const_iterator@V?$_Tree_val@U?$_Tree_simple_types@U?$pair@$$CBV?$basic_string@DU?$char_traits@D@std@@V?$allocator@D@2@@std@@V?$list@IV?$allocator@I@std@@@2@@std@@@std@@@std@@@std@@QAEAAV01@XZ 100095e0 f i ClientSession.obj
 0001:00008600       ??F?$_Tree_unchecked_const_iterator@V?$_Tree_val@U?$_Tree_simple_types@U?$pair@$$CBIPAVIClientSession@@@std@@@std@@@std@@U_Iterator_base0@2@@std@@QAEAAV01@XZ 10009600 f i ClientSession.obj
 0001:00008600       ??F?$_Tree_unchecked_const_iterator@V?$_Tree_val@U?$_Tree_simple_types@U?$pair@$$CBV?$basic_string@DU?$char_traits@D@std@@V?$allocator@D@2@@std@@V?$list@IV?$allocator@I@std@@@2@@std@@@std@@@std@@U_Iterator_base0@2@@std@@QAEAAV01@XZ 10009600 f i ClientSession.obj
 0001:000086f0       ??$construct@U?$pair@$$CBIPAVIClientSession@@@std@@AAU?$pair@IPAVIClientSession@@@2@@?$_Wrap_alloc@V?$allocator@U?$_Tree_node@U?$pair@$$CBIPAVIClientSession@@@std@@PAX@std@@@std@@@std@@QAEXPAU?$pair@$$CBIPAVIClientSession@@@1@AAU?$pair@IPAVIClientSession@@@1@@Z 100096f0 f i ClientSession.obj
 0001:00008720       ??$_Insert_at@AAU?$pair@$$CBIPAVIClientSession@@@std@@PAU?$_Tree_node@U?$pair@$$CBIPAVIClientSession@@@std@@PAX@2@@?$_Tree@V?$_Tmap_traits@IPAVIClientSession@@U?$less@I@std@@V?$allocator@U?$pair@$$CBIPAVIClientSession@@@std@@@3@$0A@@std@@@std@@IAE?AV?$_Tree_iterator@V?$_Tree_val@U?$_Tree_simple_types@U?$pair@$$CBIPAVIClientSession@@@std@@@std@@@std@@@1@_NPAU?$_Tree_node@U?$pair@$$CBIPAVIClientSession@@@std@@PAX@1@AAU?$pair@$$CBIPAVIClientSession@@@1@1@Z 10009720 f i ClientSession.obj
 0001:00008b60       ??$construct@U?$pair@$$CBV?$basic_string@DU?$char_traits@D@std@@V?$allocator@D@2@@std@@V?$list@IV?$allocator@I@std@@@2@@std@@AAU?$pair@V?$basic_string@DU?$char_traits@D@std@@V?$allocator@D@2@@std@@V?$list@IV?$allocator@I@std@@@2@@2@@?$_Wrap_alloc@V?$allocator@U?$_Tree_node@U?$pair@$$CBV?$basic_string@DU?$char_traits@D@std@@V?$allocator@D@2@@std@@V?$list@IV?$allocator@I@std@@@2@@std@@PAX@std@@@std@@@std@@QAEXPAU?$pair@$$CBV?$basic_string@DU?$char_traits@D@std@@V?$allocator@D@2@@std@@V?$list@IV?$allocator@I@std@@@2@@1@AAU?$pair@V?$basic_string@DU?$char_traits@D@std@@V?$allocator@D@2@@std@@V?$list@IV?$allocator@I@std@@@2@@1@@Z 10009b60 f i ClientSession.obj
 0001:00008b90       ??$_Insert_at@AAU?$pair@$$CBV?$basic_string@DU?$char_traits@D@std@@V?$allocator@D@2@@std@@V?$list@IV?$allocator@I@std@@@2@@std@@PAU?$_Tree_node@U?$pair@$$CBV?$basic_string@DU?$char_traits@D@std@@V?$allocator@D@2@@std@@V?$list@IV?$allocator@I@std@@@2@@std@@PAX@2@@?$_Tree@V?$_Tmap_traits@V?$basic_string@DU?$char_traits@D@std@@V?$allocator@D@2@@std@@V?$list@IV?$allocator@I@std@@@2@U?$less@V?$basic_string@DU?$char_traits@D@std@@V?$allocator@D@2@@std@@@2@V?$allocator@U?$pair@$$CBV?$basic_string@DU?$char_traits@D@std@@V?$allocator@D@2@@std@@V?$list@IV?$allocator@I@std@@@2@@std@@@2@$0A@@std@@@std@@IAE?AV?$_Tree_iterator@V?$_Tree_val@U?$_Tree_simple_types@U?$pair@$$CBV?$basic_string@DU?$char_traits@D@std@@V?$allocator@D@2@@std@@V?$list@IV?$allocator@I@std@@@2@@std@@@std@@@std@@@1@_NPAU?$_Tree_node@U?$pair@$$CBV?$basic_string@DU?$char_traits@D@std@@V?$allocator@D@2@@std@@V?$list@IV?$allocator@I@std@@@2@@std@@PAX@1@AAU?$pair@$$CBV?$basic_string@DU?$char_traits@D@std@@V?$allocator@D@2@@std@@V?$list@IV?$allocator@I@std@@@2@@1@1@Z 10009b90 f i ClientSession.obj
 0001:00008fd0       ??$?0ABI$0A@@?$tuple@ABI@std@@QAE@ABI@Z 10009fd0 f i ClientSession.obj
 0001:00009000       ??$_Buynode@ABUpiecewise_construct_t@std@@V?$tuple@ABI@2@V?$tuple@$$V@2@@?$_Tree_comp_alloc@V?$_Tmap_traits@IPAVIClientSession@@U?$less@I@std@@V?$allocator@U?$pair@$$CBIPAVIClientSession@@@std@@@3@$0A@@std@@@std@@QAEPAU?$_Tree_node@U?$pair@$$CBIPAVIClientSession@@@std@@PAX@1@ABUpiecewise_construct_t@1@$$QAV?$tuple@ABI@1@$$QAV?$tuple@$$V@1@@Z 1000a000 f i ClientSession.obj
 0001:00009100       ??$_Insert_hint@AAU?$pair@$$CBIPAVIClientSession@@@std@@PAU?$_Tree_node@U?$pair@$$CBIPAVIClientSession@@@std@@PAX@2@@?$_Tree@V?$_Tmap_traits@IPAVIClientSession@@U?$less@I@std@@V?$allocator@U?$pair@$$CBIPAVIClientSession@@@std@@@3@$0A@@std@@@std@@IAE?AV?$_Tree_iterator@V?$_Tree_val@U?$_Tree_simple_types@U?$pair@$$CBIPAVIClientSession@@@std@@@std@@@std@@@1@V?$_Tree_const_iterator@V?$_Tree_val@U?$_Tree_simple_types@U?$pair@$$CBIPAVIClientSession@@@std@@@std@@@std@@@1@AAU?$pair@$$CBIPAVIClientSession@@@1@PAU?$_Tree_node@U?$pair@$$CBIPAVIClientSession@@@std@@PAX@1@@Z 1000a100 f i ClientSession.obj
 0001:00009b70       ??$?0U?$_Wrap_alloc@V?$allocator@U?$_List_node@IPAX@std@@@std@@@std@@$$V@?$_Compressed_pair@U?$_Wrap_alloc@V?$allocator@U?$_List_node@IPAX@std@@@std@@@std@@V?$_List_val@U?$_List_simple_types@I@std@@@2@$00@std@@QAE@U_One_then_variadic_args_t@1@$$QAU?$_Wrap_alloc@V?$allocator@U?$_List_node@IPAX@std@@@std@@@1@@Z 1000ab70 f i ClientSession.obj
 0001:00009ba0       ?max_size@?$_Tree@V?$_Tmap_traits@V?$basic_string@DU?$char_traits@D@std@@V?$allocator@D@2@@std@@V?$list@IV?$allocator@I@std@@@2@U?$less@V?$basic_string@DU?$char_traits@D@std@@V?$allocator@D@2@@std@@@2@V?$allocator@U?$pair@$$CBV?$basic_string@DU?$char_traits@D@std@@V?$allocator@D@2@@std@@V?$list@IV?$allocator@I@std@@@2@@std@@@2@$0A@@std@@@std@@QBEIXZ 1000aba0 f i ClientSession.obj
 0001:00009bd0       ?max_size@?$_Tree@V?$_Tmap_traits@IPAVIClientSession@@U?$less@I@std@@V?$allocator@U?$pair@$$CBIPAVIClientSession@@@std@@@3@$0A@@std@@@std@@QBEIXZ 1000abd0 f i ClientSession.obj
 0001:00009c00       ?size@?$_Tree@V?$_Tmap_traits@IPAVIClientSession@@U?$less@I@std@@V?$allocator@U?$pair@$$CBIPAVIClientSession@@@std@@@3@$0A@@std@@@std@@QBEIXZ 1000ac00 f i ClientSession.obj
 0001:00009c20       ?max_size@?$_Wrap_alloc@V?$allocator@U?$_Tree_node@U?$pair@$$CBV?$basic_string@DU?$char_traits@D@std@@V?$allocator@D@2@@std@@V?$list@IV?$allocator@I@std@@@2@@std@@PAX@std@@@std@@@std@@QBEIU_Nil@2@@Z 1000ac20 f i ClientSession.obj
 0001:00009c40       ?max_size@?$_Wrap_alloc@V?$allocator@U?$_Tree_node@U?$pair@$$CBIPAVIClientSession@@@std@@PAX@std@@@std@@@std@@QBEIU_Nil@2@@Z 1000ac40 f i ClientSession.obj
 0001:00009c60       ?max_size@?$allocator_traits@V?$allocator@U?$_Tree_node@U?$pair@$$CBV?$basic_string@DU?$char_traits@D@std@@V?$allocator@D@2@@std@@V?$list@IV?$allocator@I@std@@@2@@std@@PAX@std@@@std@@@std@@SAIABV?$allocator@U?$_Tree_node@U?$pair@$$CBV?$basic_string@DU?$char_traits@D@std@@V?$allocator@D@2@@std@@V?$list@IV?$allocator@I@std@@@2@@std@@PAX@std@@@2@@Z 1000ac60 f i ClientSession.obj
 0001:00009c70       ?max_size@?$allocator_traits@V?$allocator@U?$_Tree_node@U?$pair@$$CBIPAVIClientSession@@@std@@PAX@std@@@std@@@std@@SAIABV?$allocator@U?$_Tree_node@U?$pair@$$CBIPAVIClientSession@@@std@@PAX@std@@@2@@Z 1000ac70 f i ClientSession.obj
 0001:00009c80       ?max_size@?$allocator@U?$_Tree_node@U?$pair@$$CBV?$basic_string@DU?$char_traits@D@std@@V?$allocator@D@2@@std@@V?$list@IV?$allocator@I@std@@@2@@std@@PAX@std@@@std@@QBEIXZ 1000ac80 f i ClientSession.obj
 0001:00009c90       ?max_size@?$allocator@U?$_Tree_node@U?$pair@$$CBIPAVIClientSession@@@std@@PAX@std@@@std@@QBEIXZ 1000ac90 f i ClientSession.obj
 0001:00009ca0       ??$construct@U?$pair@$$CBIPAVIClientSession@@@std@@AAU?$pair@IPAVIClientSession@@@2@@?$allocator_traits@V?$allocator@U?$_Tree_node@U?$pair@$$CBIPAVIClientSession@@@std@@PAX@std@@@std@@@std@@SAXAAV?$allocator@U?$_Tree_node@U?$pair@$$CBIPAVIClientSession@@@std@@PAX@std@@@1@PAU?$pair@$$CBIPAVIClientSession@@@1@AAU?$pair@IPAVIClientSession@@@1@@Z 1000aca0 f i ClientSession.obj
 0001:00009cc0       ??$_Buynode_if_nil@AAU?$pair@$$CBIPAVIClientSession@@@std@@@?$_Tree@V?$_Tmap_traits@IPAVIClientSession@@U?$less@I@std@@V?$allocator@U?$pair@$$CBIPAVIClientSession@@@std@@@3@$0A@@std@@@std@@IAEPAU?$_Tree_node@U?$pair@$$CBIPAVIClientSession@@@std@@PAX@1@PAU21@AAU?$pair@$$CBIPAVIClientSession@@@1@@Z 1000acc0 f i ClientSession.obj
 0001:00009cc0       ??$_Buynode_if_nil@AAU?$pair@$$CBV?$basic_string@DU?$char_traits@D@std@@V?$allocator@D@2@@std@@V?$list@IV?$allocator@I@std@@@2@@std@@@?$_Tree@V?$_Tmap_traits@V?$basic_string@DU?$char_traits@D@std@@V?$allocator@D@2@@std@@V?$list@IV?$allocator@I@std@@@2@U?$less@V?$basic_string@DU?$char_traits@D@std@@V?$allocator@D@2@@std@@@2@V?$allocator@U?$pair@$$CBV?$basic_string@DU?$char_traits@D@std@@V?$allocator@D@2@@std@@V?$list@IV?$allocator@I@std@@@2@@std@@@2@$0A@@std@@@std@@IAEPAU?$_Tree_node@U?$pair@$$CBV?$basic_string@DU?$char_traits@D@std@@V?$allocator@D@2@@std@@V?$list@IV?$allocator@I@std@@@2@@std@@PAX@1@PAU21@AAU?$pair@$$CBV?$basic_string@DU?$char_traits@D@std@@V?$allocator@D@2@@std@@V?$list@IV?$allocator@I@std@@@2@@1@@Z 1000acc0 f i ClientSession.obj
 0001:00009cd0       ??$construct@U?$pair@$$CBV?$basic_string@DU?$char_traits@D@std@@V?$allocator@D@2@@std@@V?$list@IV?$allocator@I@std@@@2@@std@@AAU?$pair@V?$basic_string@DU?$char_traits@D@std@@V?$allocator@D@2@@std@@V?$list@IV?$allocator@I@std@@@2@@2@@?$allocator_traits@V?$allocator@U?$_Tree_node@U?$pair@$$CBV?$basic_string@DU?$char_traits@D@std@@V?$allocator@D@2@@std@@V?$list@IV?$allocator@I@std@@@2@@std@@PAX@std@@@std@@@std@@SAXAAV?$allocator@U?$_Tree_node@U?$pair@$$CBV?$basic_string@DU?$char_traits@D@std@@V?$allocator@D@2@@std@@V?$list@IV?$allocator@I@std@@@2@@std@@PAX@std@@@1@PAU?$pair@$$CBV?$basic_string@DU?$char_traits@D@std@@V?$allocator@D@2@@std@@V?$list@IV?$allocator@I@std@@@2@@1@AAU?$pair@V?$basic_string@DU?$char_traits@D@std@@V?$allocator@D@2@@std@@V?$list@IV?$allocator@I@std@@@2@@1@@Z 1000acd0 f i ClientSession.obj
 0001:00009cf0       ??$?0ABI@?$_Tuple_val@ABI@std@@QAE@ABI@Z 1000acf0 f i ClientSession.obj
 0001:00009d20       ??$construct@U?$pair@$$CBIPAVIClientSession@@@std@@ABUpiecewise_construct_t@2@V?$tuple@ABI@2@V?$tuple@$$V@2@@?$_Wrap_alloc@V?$allocator@U?$_Tree_node@U?$pair@$$CBIPAVIClientSession@@@std@@PAX@std@@@std@@@std@@QAEXPAU?$pair@$$CBIPAVIClientSession@@@1@ABUpiecewise_construct_t@1@$$QAV?$tuple@ABI@1@$$QAV?$tuple@$$V@1@@Z 1000ad20 f i ClientSession.obj
 0001:00009d70       ??$construct@U?$pair@$$CBIPAVIClientSession@@@std@@AAU?$pair@IPAVIClientSession@@@2@@?$allocator@U?$_Tree_node@U?$pair@$$CBIPAVIClientSession@@@std@@PAX@std@@@std@@QAEXPAU?$pair@$$CBIPAVIClientSession@@@1@AAU?$pair@IPAVIClientSession@@@1@@Z 1000ad70 f i ClientSession.obj
 0001:00009e00       ??$construct@U?$pair@$$CBV?$basic_string@DU?$char_traits@D@std@@V?$allocator@D@2@@std@@V?$list@IV?$allocator@I@std@@@2@@std@@AAU?$pair@V?$basic_string@DU?$char_traits@D@std@@V?$allocator@D@2@@std@@V?$list@IV?$allocator@I@std@@@2@@2@@?$allocator@U?$_Tree_node@U?$pair@$$CBV?$basic_string@DU?$char_traits@D@std@@V?$allocator@D@2@@std@@V?$list@IV?$allocator@I@std@@@2@@std@@PAX@std@@@std@@QAEXPAU?$pair@$$CBV?$basic_string@DU?$char_traits@D@std@@V?$allocator@D@2@@std@@V?$list@IV?$allocator@I@std@@@2@@1@AAU?$pair@V?$basic_string@DU?$char_traits@D@std@@V?$allocator@D@2@@std@@V?$list@IV?$allocator@I@std@@@2@@1@@Z 1000ae00 f i ClientSession.obj
 0001:00009e90       ??$construct@U?$pair@$$CBIPAVIClientSession@@@std@@ABUpiecewise_construct_t@2@V?$tuple@ABI@2@V?$tuple@$$V@2@@?$allocator_traits@V?$allocator@U?$_Tree_node@U?$pair@$$CBIPAVIClientSession@@@std@@PAX@std@@@std@@@std@@SAXAAV?$allocator@U?$_Tree_node@U?$pair@$$CBIPAVIClientSession@@@std@@PAX@std@@@1@PAU?$pair@$$CBIPAVIClientSession@@@1@ABUpiecewise_construct_t@1@$$QAV?$tuple@ABI@1@$$QAV?$tuple@$$V@1@@Z 1000ae90 f i ClientSession.obj
 0001:00009ed0       ??$?0IPAVIClientSession@@X$0A@@?$pair@$$CBIPAVIClientSession@@@std@@QAE@ABU?$pair@IPAVIClientSession@@@1@@Z 1000aed0 f i ClientSession.obj
 0001:00009f00       ??$?0V?$basic_string@DU?$char_traits@D@std@@V?$allocator@D@2@@std@@V?$list@IV?$allocator@I@std@@@1@X$0A@@?$pair@$$CBV?$basic_string@DU?$char_traits@D@std@@V?$allocator@D@2@@std@@V?$list@IV?$allocator@I@std@@@2@@std@@QAE@ABU?$pair@V?$basic_string@DU?$char_traits@D@std@@V?$allocator@D@2@@std@@V?$list@IV?$allocator@I@std@@@2@@1@@Z 1000af00 f i ClientSession.obj
 0001:00009f70       ??$construct@U?$pair@$$CBIPAVIClientSession@@@std@@ABUpiecewise_construct_t@2@V?$tuple@ABI@2@V?$tuple@$$V@2@@?$allocator@U?$_Tree_node@U?$pair@$$CBIPAVIClientSession@@@std@@PAX@std@@@std@@QAEXPAU?$pair@$$CBIPAVIClientSession@@@1@ABUpiecewise_construct_t@1@$$QAV?$tuple@ABI@1@$$QAV?$tuple@$$V@1@@Z 1000af70 f i ClientSession.obj
 0001:0000a030       ??0?$tuple@ABI@std@@QAE@$$QAV01@@Z 1000b030 f i ClientSession.obj
 0001:0000a060       ??$?0ABI$$Z$$V@?$pair@$$CBIPAVIClientSession@@@std@@QAE@Upiecewise_construct_t@1@V?$tuple@ABI@1@V?$tuple@$$V@1@@Z 1000b060 f i ClientSession.obj
 0001:0000a090       ??$?0V?$tuple@ABI@std@@V?$tuple@$$V@1@$0A@$$Z$S@?$pair@$$CBIPAVIClientSession@@@std@@QAE@AAV?$tuple@ABI@1@AAV?$tuple@$$V@1@U?$integer_sequence@I$0A@@1@U?$integer_sequence@I$S@1@@Z 1000b090 f i ClientSession.obj
 0001:0000a0d0       ??$get@$0A@ABI@std@@YAABI$$QAV?$tuple@ABI@0@@Z 1000b0d0 f i ClientSession.obj
 0001:0000a0f0       ??1IServerProtocol@@UAE@XZ 1000b0f0 f i ServerProtocolImpl.obj
 0001:0000a110       ??_EIServerProtocol@@UAEPAXI@Z 1000b110 f i * CIL library *:* CIL module *
 0001:0000a110       ??_GIServerProtocol@@UAEPAXI@Z 1000b110 f i ServerProtocolImpl.obj
 0001:0000a140       ??0ServerProtocol@@QAE@XZ  1000b140 f   ServerProtocolImpl.obj
 0001:0000a230       ??_GServerProtocol@@UAEPAXI@Z 1000b230 f i ServerProtocolImpl.obj
 0001:0000a230       ??_EServerProtocol@@UAEPAXI@Z 1000b230 f i * CIL library *:* CIL module *
 0001:0000a260       ??0IServerProtocol@@QAE@XZ 1000b260 f i ServerProtocolImpl.obj
 0001:0000a280       ??1ServerProtocol@@UAE@XZ  1000b280 f   ServerProtocolImpl.obj
 0001:0000a320       ?Start@ServerProtocol@@UAE_NGII@Z 1000b320 f   ServerProtocolImpl.obj
 0001:0000a370       ?Send@ServerProtocol@@UAE_NIPAXI_K@Z 1000b370 f   ServerProtocolImpl.obj
 0001:0000a3d0       ?Shutdown@ServerProtocol@@UAEXXZ 1000b3d0 f   ServerProtocolImpl.obj
 0001:0000a3f0       ?CreateServerProtocol@@YGPAVIServerProtocol@@XZ 1000b3f0 f   ServerProtocolImpl.obj
 0001:0000a460       ?ReleaseServerProtocol@@YGXPAVIServerProtocol@@@Z 1000b460 f   ServerProtocolImpl.obj
 0001:0000a4a0       ?OnConnect@ServerProtocol@@UAEXI_NPADG@Z 1000b4a0 f   ServerProtocolImpl.obj
 0001:0000a4e0       ?OnReceive@ServerProtocol@@UAEXIPADI@Z 1000b4e0 f   ServerProtocolImpl.obj
 0001:0000a530       ?OnSend@ServerProtocol@@UAEXIIW4SocketError@@@Z 1000b530 f   ServerProtocolImpl.obj
 0001:0000a580       ?GetClientSession@ServerProtocol@@QAEPAVIClientSession@@I@Z 1000b580 f   ServerProtocolImpl.obj
 0001:0000a5b0       ?DisconnectClient@ServerProtocol@@UAEXI@Z 1000b5b0 f   ServerProtocolImpl.obj
 0001:0000a5e0       _DllMain@12                1000b5e0 f   dllmain.obj
 0001:0000a5f5       ??0CAtlBaseModule@ATL@@QAE@XZ 1000b5f5 f   atls:atlbase.obj
 0001:0000a648       ??0_ATL_BASE_MODULE70@ATL@@QAE@XZ 1000b648 f i atls:atlbase.obj
 0001:0000a66b       ??1CAtlBaseModule@ATL@@QAE@XZ 1000b66b f   atls:atlbase.obj
 0001:0000a681       ?RemoveAll@?$CSimpleArray@PAUHINSTANCE__@@V?$CSimpleArrayEqualHelper@PAUHINSTANCE__@@@ATL@@@ATL@@QAEXXZ 1000b681 f i atls:atlbase.obj
 0001:0000a69e       ??3@YAXPAX@Z               1000b69e f   MSVCRT:delete_scalar.obj
 0001:0000a6a3       @__security_check_cookie@4 1000b6a3 f   MSVCRT:_secchk_.obj
 0001:0000a774       ??$__crt_fast_encode_pointer@P6GHPAU_RTL_CONDITION_VARIABLE@@PAU_RTL_CRITICAL_SECTION@@K@Z@@YAP6GHPAU_RTL_CONDITION_VARIABLE@@PAU_RTL_CRITICAL_SECTION@@K@ZQ6GH01K@Z@Z 1000b774 f i MSVCRT:thread_safe_statics.obj
 0001:0000a774       ??$__crt_fast_encode_pointer@P6GXPAU_RTL_CONDITION_VARIABLE@@@Z@@YAP6GXPAU_RTL_CONDITION_VARIABLE@@@ZQ6GX0@Z@Z 1000b774 f i MSVCRT:thread_safe_statics.obj
 0001:0000a7ad       ??2@YAPAXI@Z               1000b7ad f   MSVCRT:new_scalar.obj
 0001:0000a824       ___scrt_acquire_startup_lock 1000b824 f   MSVCRT:utility.obj
 0001:0000a859       ___scrt_dllmain_after_initialize_c 1000b859 f   MSVCRT:utility.obj
 0001:0000a884       ___scrt_dllmain_before_initialize_c 1000b884 f   MSVCRT:utility.obj
 0001:0000a892       ___scrt_dllmain_crt_thread_attach 1000b892 f   MSVCRT:utility.obj
 0001:0000a8b1       ___scrt_dllmain_crt_thread_detach 1000b8b1 f   MSVCRT:utility.obj
 0001:0000a8be       ___scrt_dllmain_exception_filter 1000b8be f   MSVCRT:utility.obj
 0001:0000a8f1       ___scrt_dllmain_uninitialize_c 1000b8f1 f   MSVCRT:utility.obj
 0001:0000a914       ___scrt_dllmain_uninitialize_critical 1000b914 f   MSVCRT:utility.obj
 0001:0000a921       ___scrt_initialize_crt     1000b921 f   MSVCRT:utility.obj
 0001:0000a95a       ___scrt_initialize_onexit_tables 1000b95a f   MSVCRT:utility.obj
 0001:0000a9f1       ___scrt_is_nonwritable_in_current_image 1000b9f1 f   MSVCRT:utility.obj
 0001:0000aa7b       ___scrt_release_startup_lock 1000ba7b f   MSVCRT:utility.obj
 0001:0000aa98       ___scrt_uninitialize_crt   1000ba98 f   MSVCRT:utility.obj
 0001:0000aac0       __onexit                   1000bac0 f   MSVCRT:utility.obj
 0001:0000aafb       _atexit                    1000bafb f   MSVCRT:utility.obj
 0001:0000ab10       ??3@YAXPAXI@Z              1000bb10 f   MSVCRT:delete_scalar_size.obj
 0001:0000ab1e       ??_Etype_info@@UAEPAXI@Z   1000bb1e f i MSVCRT:std_type_info_static.obj
 0001:0000ab1e       ??_Gtype_info@@UAEPAXI@Z   1000bb1e f i MSVCRT:std_type_info_static.obj
 0001:0000ae49       __DllMainCRTStartup@12     1000be49 f   MSVCRT:dll_dllmain.obj
 0001:0000ae6c       ___raise_securityfailure   1000be6c f   MSVCRT:gs_report.obj
 0001:0000ae94       ___report_gsfailure        1000be94 f   MSVCRT:gs_report.obj
 0001:0000af8f       ___scrt_fastfail           1000bf8f f   MSVCRT:utility_desktop.obj
 0001:0000b0aa       @_guard_check_icall@4      1000c0aa f i MSVCRT:checkcfg.obj
 0001:0000b0b0       ??0bad_alloc@std@@QAE@ABV01@@Z 1000c0b0 f i MSVCRT:throw_bad_alloc.obj
 0001:0000b0cb       ??0bad_alloc@std@@QAE@XZ   1000c0cb f i MSVCRT:throw_bad_alloc.obj
 0001:0000b0e3       ??0bad_array_new_length@std@@QAE@ABV01@@Z 1000c0e3 f i MSVCRT:throw_bad_alloc.obj
 0001:0000b0fe       ??0bad_array_new_length@std@@QAE@XZ 1000c0fe f i MSVCRT:throw_bad_alloc.obj
 0001:0000b116       ??1bad_alloc@std@@UAE@XZ   1000c116 f i MSVCRT:throw_bad_alloc.obj
 0001:0000b116       ??1bad_array_new_length@std@@UAE@XZ 1000c116 f i MSVCRT:throw_bad_alloc.obj
 0001:0000b127       ??_Ebad_array_new_length@std@@UAEPAXI@Z 1000c127 f i MSVCRT:throw_bad_alloc.obj
 0001:0000b127       ??_Ebad_alloc@std@@UAEPAXI@Z 1000c127 f i MSVCRT:throw_bad_alloc.obj
 0001:0000b127       ??_Gbad_array_new_length@std@@UAEPAXI@Z 1000c127 f i MSVCRT:throw_bad_alloc.obj
 0001:0000b127       ??_Gbad_alloc@std@@UAEPAXI@Z 1000c127 f i MSVCRT:throw_bad_alloc.obj
 0001:0000b154       ?__scrt_throw_std_bad_alloc@@YAXXZ 1000c154 f   MSVCRT:throw_bad_alloc.obj
 0001:0000b171       ?__scrt_throw_std_bad_array_new_length@@YAXXZ 1000c171 f   MSVCRT:throw_bad_alloc.obj
 0001:0000b18e       ___isa_available_init      1000c18e f   MSVCRT:_cpu_disp_.obj
 0001:0000b328       __get_startup_argv_mode    1000c328 f   MSVCRT:argv_mode.obj
 0001:0000b32c       ___scrt_is_ucrt_dll_in_use 1000c32c f   MSVCRT:ucrt_detection.obj
 0001:0000b340       __SEH_prolog4              1000c340 f   MSVCRT:_sehprolg4_.obj
 0001:0000b386       __SEH_epilog4              1000c386 f   MSVCRT:_sehprolg4_.obj
 0001:0000b39b       __except_handler4          1000c39b f   MSVCRT:_chandler4gs_.obj
 0001:0000b3be       ___security_init_cookie    1000c3be f   MSVCRT:gs_support.obj
 0001:0000b45a       ?__scrt_initialize_type_info@@YAXXZ 1000c45a f   MSVCRT:tncleanup.obj
 0001:0000b466       ?__scrt_uninitialize_type_info@@YAXXZ 1000c466 f   MSVCRT:tncleanup.obj
 0001:0000b472       ___local_stdio_printf_options 1000c472 f i MSVCRT:default_local_stdio_options.obj
 0001:0000b478       ___local_stdio_scanf_options 1000c478 f i MSVCRT:default_local_stdio_options.obj
 0001:0000b47e       ___scrt_initialize_default_local_stdio_options 1000c47e f   MSVCRT:default_local_stdio_options.obj
 0001:0000b49b       ___scrt_get_dyn_tls_init_callback 1000c49b f   MSVCRT:dyn_tls_init.obj
 0001:0000b4a1       __RTC_Initialize           1000c4a1 f   MSVCRT:_initsect_.obj
 0001:0000b4cc       __RTC_Terminate            1000c4cc f   MSVCRT:_initsect_.obj
 0001:0000b4f7       @_guard_check_icall_nop@4  1000c4f7 f i MSVCRT:guard_support.obj
 0001:0000b4f8       ___std_exception_destroy   1000c4f8 f   vcruntime:VCRUNTIME140.dll
 0001:0000b4fe       __purecall                 1000c4fe f   vcruntime:VCRUNTIME140.dll
 0001:0000b504       _memset                    1000c504 f   vcruntime:VCRUNTIME140.dll
 0001:0000b50a       ___vcrt_InitializeCriticalSectionEx 1000c50a f   vcruntime:VCRUNTIME140.dll
 0001:0000b510       __CxxThrowException@8      1000c510 f   vcruntime:VCRUNTIME140.dll
 0001:0000b516       __except_handler4_common   1000c516 f   vcruntime:VCRUNTIME140.dll
 0001:0000b51c       ___std_type_info_destroy_list 1000c51c f   vcruntime:VCRUNTIME140.dll
 0001:0000b522       _free                      1000c522 f   ucrt:api-ms-win-crt-heap-l1-1-0.dll
 0001:0000b528       _malloc                    1000c528 f   ucrt:api-ms-win-crt-heap-l1-1-0.dll
 0001:0000b52e       __callnewh                 1000c52e f   ucrt:api-ms-win-crt-heap-l1-1-0.dll
 0001:0000b534       __seh_filter_dll           1000c534 f   ucrt:api-ms-win-crt-runtime-l1-1-0.dll
 0001:0000b53a       __configure_narrow_argv    1000c53a f   ucrt:api-ms-win-crt-runtime-l1-1-0.dll
 0001:0000b540       __initialize_narrow_environment 1000c540 f   ucrt:api-ms-win-crt-runtime-l1-1-0.dll
 0001:0000b546       __initialize_onexit_table  1000c546 f   ucrt:api-ms-win-crt-runtime-l1-1-0.dll
 0001:0000b54c       __register_onexit_function 1000c54c f   ucrt:api-ms-win-crt-runtime-l1-1-0.dll
 0001:0000b552       __execute_onexit_table     1000c552 f   ucrt:api-ms-win-crt-runtime-l1-1-0.dll
 0001:0000b558       __crt_atexit               1000c558 f   ucrt:api-ms-win-crt-runtime-l1-1-0.dll
 0001:0000b55e       __cexit                    1000c55e f   ucrt:api-ms-win-crt-runtime-l1-1-0.dll
 0001:0000b564       __initterm                 1000c564 f   ucrt:api-ms-win-crt-runtime-l1-1-0.dll
 0001:0000b56a       __initterm_e               1000c56a f   ucrt:api-ms-win-crt-runtime-l1-1-0.dll
 0001:0000b570       _IsProcessorFeaturePresent@4 1000c570 f   kernel32:KERNEL32.dll
 0001:0000b576       ___scrt_stub_for_acrt_uninitialize_critical 1000c576 f   MSVCRT:ucrt_stubs.obj
 0001:0000b576       ___scrt_stub_for_acrt_thread_attach 1000c576 f   MSVCRT:ucrt_stubs.obj
 0001:0000b576       ___scrt_stub_for_acrt_thread_detach 1000c576 f   MSVCRT:ucrt_stubs.obj
 0001:0000b576       ___acrt_initialize         1000c576 f   MSVCRT:ucrt_stubs.obj
 0001:0000b576       ___vcrt_thread_detach      1000c576 f   MSVCRT:ucrt_stubs.obj
 0001:0000b576       ___acrt_thread_detach      1000c576 f   MSVCRT:ucrt_stubs.obj
 0001:0000b576       ___acrt_thread_attach      1000c576 f   MSVCRT:ucrt_stubs.obj
 0001:0000b576       ___acrt_uninitialize       1000c576 f   MSVCRT:ucrt_stubs.obj
 0001:0000b576       ___scrt_stub_for_acrt_initialize 1000c576 f   MSVCRT:ucrt_stubs.obj
 0001:0000b576       ___vcrt_thread_attach      1000c576 f   MSVCRT:ucrt_stubs.obj
 0001:0000b576       ___vcrt_uninitialize_critical 1000c576 f   MSVCRT:ucrt_stubs.obj
 0001:0000b576       ___scrt_stub_for_acrt_uninitialize 1000c576 f   MSVCRT:ucrt_stubs.obj
 0001:0000b576       ___vcrt_uninitialize       1000c576 f   MSVCRT:ucrt_stubs.obj
 0001:0000b576       ___acrt_uninitialize_critical 1000c576 f   MSVCRT:ucrt_stubs.obj
 0001:0000b576       ___vcrt_initialize         1000c576 f   MSVCRT:ucrt_stubs.obj
 0001:0000b579       ___scrt_stub_for_is_c_termination_complete 1000c579 f   MSVCRT:ucrt_stubs.obj
 0001:0000b579       __is_c_termination_complete 1000c579 f   MSVCRT:ucrt_stubs.obj
 0001:0000b580       __chkstk                   1000c580 f   MSVCRT:chkstk.obj
 0001:0000b580       __alloca_probe             1000c580 f   MSVCRT:chkstk.obj
 0001:0000b5ae       ___CxxFrameHandler3        1000c5ae f   vcruntime:VCRUNTIME140.dll
 0001:0000b5b4       _memcmp                    1000c5b4 f   vcruntime:VCRUNTIME140.dll
 0001:0000b5ba       _memcpy                    1000c5ba f   vcruntime:VCRUNTIME140.dll
 0002:00000000       __imp__IsDebuggerPresent@0 1000d000     kernel32:KERNEL32.dll
 0002:00000004       __imp__OutputDebugStringW@4 1000d004     kernel32:KERNEL32.dll
 0002:00000008       __imp__CloseHandle@4       1000d008     kernel32:KERNEL32.dll
 0002:0000000c       __imp__CreateEventW@16     1000d00c     kernel32:KERNEL32.dll
 0002:00000010       __imp__GetModuleHandleW@4  1000d010     kernel32:KERNEL32.dll
 0002:00000014       __imp__GetProcAddress@8    1000d014     kernel32:KERNEL32.dll
 0002:00000018       __imp__UnhandledExceptionFilter@4 1000d018     kernel32:KERNEL32.dll
 0002:0000001c       __imp__InitializeCriticalSection@4 1000d01c     kernel32:KERNEL32.dll
 0002:00000020       __imp__InitializeCriticalSectionEx@12 1000d020     kernel32:KERNEL32.dll
 0002:00000024       __imp__WaitForSingleObject@8 1000d024     kernel32:KERNEL32.dll
 0002:00000028       __imp__Sleep@4             1000d028     kernel32:KERNEL32.dll
 0002:0000002c       __imp__GetLastError@0      1000d02c     kernel32:KERNEL32.dll
 0002:00000030       __imp__CreateThread@24     1000d030     kernel32:KERNEL32.dll
 0002:00000034       __imp__DeleteCriticalSection@4 1000d034     kernel32:KERNEL32.dll
 0002:00000038       __imp__EnterCriticalSection@4 1000d038     kernel32:KERNEL32.dll
 0002:0000003c       __imp__LeaveCriticalSection@4 1000d03c     kernel32:KERNEL32.dll
 0002:00000040       __imp__SetUnhandledExceptionFilter@4 1000d040     kernel32:KERNEL32.dll
 0002:00000044       __imp__GetCurrentProcess@0 1000d044     kernel32:KERNEL32.dll
 0002:00000048       __imp__GetSystemTimeAsFileTime@4 1000d048     kernel32:KERNEL32.dll
 0002:0000004c       __imp__GetCurrentThreadId@0 1000d04c     kernel32:KERNEL32.dll
 0002:00000050       __imp__GetCurrentProcessId@0 1000d050     kernel32:KERNEL32.dll
 0002:00000054       __imp__QueryPerformanceCounter@4 1000d054     kernel32:KERNEL32.dll
 0002:00000058       __imp__TerminateProcess@8  1000d058     kernel32:KERNEL32.dll
 0002:0000005c       __imp__IsProcessorFeaturePresent@4 1000d05c     kernel32:KERNEL32.dll
 0002:00000060       __imp__InitializeSListHead@4 1000d060     kernel32:KERNEL32.dll
 0002:00000064       \177KERNEL32_NULL_THUNK_DATA 1000d064     kernel32:KERNEL32.dll
 0002:00000068       __imp_?_Xout_of_range@std@@YAXPBD@Z 1000d068     msvcprt:MSVCP140.dll
 0002:0000006c       __imp_?_Xbad_alloc@std@@YAXXZ 1000d06c     msvcprt:MSVCP140.dll
 0002:00000070       __imp_?_Xlength_error@std@@YAXPBD@Z 1000d070     msvcprt:MSVCP140.dll
 0002:00000074       \177MSVCP140_NULL_THUNK_DATA 1000d074     msvcprt:MSVCP140.dll
 0002:00000078       __imp_?CreateClientSocket@@YGPAVSocket@@XZ 1000d078     Socket:Socket.dll
 0002:0000007c       __imp_?CreateServerSocket@@YGPAVSocket@@XZ 1000d07c     Socket:Socket.dll
 0002:00000080       __imp_?ReleaseServerSocket@@YGXPAVSocket@@@Z 1000d080     Socket:Socket.dll
 0002:00000084       __imp_?ReleaseClientSocket@@YGXPAVSocket@@@Z 1000d084     Socket:Socket.dll
 0002:00000088       \177Socket_NULL_THUNK_DATA 1000d088     Socket:Socket.dll
 0002:0000008c       __imp_?AcquireLock@@YGXPAU_RTL_CRITICAL_SECTION@@@Z 1000d08c     Utilities:Utilities.dll
 0002:00000090       __imp_?ReleaseLock@@YGXPAU_RTL_CRITICAL_SECTION@@@Z 1000d090     Utilities:Utilities.dll
 0002:00000094       \177Utilities_NULL_THUNK_DATA 1000d094     Utilities:Utilities.dll
 0002:00000098       __imp____std_exception_destroy 1000d098     vcruntime:VCRUNTIME140.dll
 0002:0000009c       __imp____std_exception_copy 1000d09c     vcruntime:VCRUNTIME140.dll
 0002:000000a0       __imp____vcrt_InitializeCriticalSectionEx 1000d0a0     vcruntime:VCRUNTIME140.dll
 0002:000000a4       __imp___purecall           1000d0a4     vcruntime:VCRUNTIME140.dll
 0002:000000a8       __imp__memset              1000d0a8     vcruntime:VCRUNTIME140.dll
 0002:000000ac       __imp__memmove             1000d0ac     vcruntime:VCRUNTIME140.dll
 0002:000000b0       __imp____CxxFrameHandler3  1000d0b0     vcruntime:VCRUNTIME140.dll
 0002:000000b4       __imp__memcmp              1000d0b4     vcruntime:VCRUNTIME140.dll
 0002:000000b8       __imp___CxxThrowException@8 1000d0b8     vcruntime:VCRUNTIME140.dll
 0002:000000bc       __imp__memcpy              1000d0bc     vcruntime:VCRUNTIME140.dll
 0002:000000c0       __imp____std_type_info_destroy_list 1000d0c0     vcruntime:VCRUNTIME140.dll
 0002:000000c4       __imp___except_handler4_common 1000d0c4     vcruntime:VCRUNTIME140.dll
 0002:000000c8       \177VCRUNTIME140_NULL_THUNK_DATA 1000d0c8     vcruntime:VCRUNTIME140.dll
 0002:000000cc       __imp__free                1000d0cc     ucrt:api-ms-win-crt-heap-l1-1-0.dll
 0002:000000d0       __imp___callnewh           1000d0d0     ucrt:api-ms-win-crt-heap-l1-1-0.dll
 0002:000000d4       __imp__malloc              1000d0d4     ucrt:api-ms-win-crt-heap-l1-1-0.dll
 0002:000000d8       \177api-ms-win-crt-heap-l1-1-0_NULL_THUNK_DATA 1000d0d8     ucrt:api-ms-win-crt-heap-l1-1-0.dll
 0002:000000dc       __imp___initterm           1000d0dc     ucrt:api-ms-win-crt-runtime-l1-1-0.dll
 0002:000000e0       __imp___cexit              1000d0e0     ucrt:api-ms-win-crt-runtime-l1-1-0.dll
 0002:000000e4       __imp___crt_atexit         1000d0e4     ucrt:api-ms-win-crt-runtime-l1-1-0.dll
 0002:000000e8       __imp___initterm_e         1000d0e8     ucrt:api-ms-win-crt-runtime-l1-1-0.dll
 0002:000000ec       __imp___register_onexit_function 1000d0ec     ucrt:api-ms-win-crt-runtime-l1-1-0.dll
 0002:000000f0       __imp___initialize_onexit_table 1000d0f0     ucrt:api-ms-win-crt-runtime-l1-1-0.dll
 0002:000000f4       __imp___errno              1000d0f4     ucrt:api-ms-win-crt-runtime-l1-1-0.dll
 0002:000000f8       __imp___configure_narrow_argv 1000d0f8     ucrt:api-ms-win-crt-runtime-l1-1-0.dll
 0002:000000fc       __imp___seh_filter_dll     1000d0fc     ucrt:api-ms-win-crt-runtime-l1-1-0.dll
 0002:00000100       __imp___execute_onexit_table 1000d100     ucrt:api-ms-win-crt-runtime-l1-1-0.dll
 0002:00000104       __imp___invalid_parameter_noinfo_noreturn 1000d104     ucrt:api-ms-win-crt-runtime-l1-1-0.dll
 0002:00000108       __imp___initialize_narrow_environment 1000d108     ucrt:api-ms-win-crt-runtime-l1-1-0.dll
 0002:0000010c       \177api-ms-win-crt-runtime-l1-1-0_NULL_THUNK_DATA 1000d10c     ucrt:api-ms-win-crt-runtime-l1-1-0.dll
 0002:00000110       __imp___time64             1000d110     ucrt:api-ms-win-crt-time-l1-1-0.dll
 0002:00000114       \177api-ms-win-crt-time-l1-1-0_NULL_THUNK_DATA 1000d114     ucrt:api-ms-win-crt-time-l1-1-0.dll
 0002:00000118       __imp_?trace@log@stl@@YA_NIIPBDZZ 1000d118     xlogger:xLogger.dll
 0002:0000011c       \177xLogger_NULL_THUNK_DATA 1000d11c     xlogger:xLogger.dll
 0002:00000120       ___guard_check_icall_fptr  1000d120     MSVCRT:guard_support.obj
 0002:00000124       ___xc_a                    1000d124     MSVCRT:initializers.obj
 0002:0000012c       ___xc_z                    1000d12c     MSVCRT:initializers.obj
 0002:00000130       ___xi_a                    1000d130     MSVCRT:initializers.obj
 0002:00000138       ___xi_z                    1000d138     MSVCRT:initializers.obj
 0002:0000013c       ___xl_a                    1000d13c     MSVCRT:tlssup.obj
 0002:00000140       ___xl_z                    1000d140     MSVCRT:tlssup.obj
 0002:00000144       ___xp_a                    1000d144     MSVCRT:initializers.obj
 0002:00000148       ___xp_z                    1000d148     MSVCRT:initializers.obj
 0002:0000014c       ___xt_a                    1000d14c     MSVCRT:initializers.obj
 0002:00000150       ___xt_z                    1000d150     MSVCRT:initializers.obj
 0002:00000160       _GUID_ATLVer110            1000d160     atls:atlbase.obj
 0002:00000170       ??_C@_1IC@ONKHOIDK@?$AAE?$AAR?$AAR?$AAO?$AAR?$AA?5?$AA?3?$AA?5?$AAU?$AAn?$AAa?$AAb?$AAl?$AAe?$AA?5?$AAt?$AAo?$AA?5?$AAi?$AAn?$AAi?$AAt?$AAi?$AAa?$AAl?$AAi?$AAz?$AAe?$AA?5?$AAc?$AAr?$AAi@ 1000d170     atls:atlbase.obj
 0002:000001f4       ??_C@_1BK@MGMFAEKH@?$AAk?$AAe?$AAr?$AAn?$AAe?$AAl?$AA3?$AA2?$AA?4?$AAd?$AAl?$AAl?$AA?$AA@ 1000d1f4     MSVCRT:thread_safe_statics.obj
 0002:00000210       ??_C@_0BM@HLJJNPAH@InitializeConditionVariable?$AA@ 1000d210     MSVCRT:thread_safe_statics.obj
 0002:0000022c       ??_C@_0BJ@JEBJOJFJ@SleepConditionVariableCS?$AA@ 1000d22c     MSVCRT:thread_safe_statics.obj
 0002:00000248       ??_C@_0BJ@PGPPEPCC@WakeAllConditionVariable?$AA@ 1000d248     MSVCRT:thread_safe_statics.obj
 0002:00000268       ??_7type_info@@6B@         1000d268     MSVCRT:std_type_info_static.obj
 0002:0000026c       __pRawDllMain              1000d26c     MSVCRT:dll_dllmain.obj
 0002:0000026c       __pDefaultRawDllMain       1000d26c     MSVCRT:dll_dllmain.obj
 0002:0000027c       ??_7exception@std@@6B@     1000d27c     MSVCRT:throw_bad_alloc.obj
 0002:00000288       ??_7bad_alloc@std@@6B@     1000d288     MSVCRT:throw_bad_alloc.obj
 0002:00000290       ??_C@_0P@GHFPNOJB@bad?5allocation?$AA@ 1000d290     MSVCRT:throw_bad_alloc.obj
 0002:000002a4       ??_7bad_array_new_length@std@@6B@ 1000d2a4     MSVCRT:throw_bad_alloc.obj
 0002:000002ac       ??_C@_0BF@KINCDENJ@bad?5array?5new?5length?$AA@ 1000d2ac     MSVCRT:throw_bad_alloc.obj
 0002:000002c4       ??_C@_0BC@EOODALEL@Unknown?5exception?$AA@ 1000d2c4     ClientProtocolImpl.obj
 0002:00000b78       ??_C@_0BA@JFNIOLAK@string?5too?5long?$AA@ 1000db78     ClientProtocolImpl.obj
 0002:00000b88       ??_C@_0BI@CFPLBAOH@invalid?5string?5position?$AA@ 1000db88     ClientProtocolImpl.obj
 0002:00000ba4       ??_7ClientProtocol@@6BISocketEvents@@@ 1000dba4     ClientProtocolImpl.obj
 0002:00000bb4       ??_7ClientProtocol@@6BIClientProtocol@@@ 1000dbb4     ClientProtocolImpl.obj
 0002:00000be0       ??_7ISocketEvents@@6B@     1000dbe0     ClientProtocolImpl.obj
 0002:00000bf0       ??_7IClientProtocol@@6B@   1000dbf0     ClientProtocolImpl.obj
 0002:00000c18       ??_C@_0BB@MOGOBHAF@list?$DMT?$DO?5too?5long?$AA@ 1000dc18     ClientSession.obj
 0002:00000c2c       ??_C@_0BE@JONHPENG@map?1set?$DMT?$DO?5too?5long?$AA@ 1000dc2c     ClientSession.obj
 0002:00000c44       ??_7ClientSession@@6B@     1000dc44     ClientSession.obj
 0002:00000c78       ??_7IClientSession@@6B@    1000dc78     ClientSession.obj
 0002:00000cac       ??_7IClientSessionMgr@@6B@ 1000dcac     ClientSession.obj
 0002:00000cdc       ??_7ClientSessionMgr@@6B@  1000dcdc     ClientSession.obj
 0002:00000d08       ?npos@?$basic_string@DU?$char_traits@D@std@@V?$allocator@D@2@@std@@2IB 1000dd08     ClientSession.obj
 0002:00000d10       ??_7ServerProtocol@@6BISocketEvents@@@ 1000dd10     ServerProtocolImpl.obj
 0002:00000d20       ??_7ServerProtocol@@6BIServerProtocol@@@ 1000dd20     ServerProtocolImpl.obj
 0002:00000d40       ??_7IServerProtocol@@6B@   1000dd40     ServerProtocolImpl.obj
 0002:00000dd0       __load_config_used         1000ddd0     MSVCRT:loadcfg.obj
 0002:00000e2c       __tls_used                 1000de2c     MSVCRT:tlssup.obj
 0002:00000e44       ??_R4type_info@@6B@        1000de44     MSVCRT:std_type_info_static.obj
 0002:00000e58       ??_R3type_info@@8          1000de58     MSVCRT:std_type_info_static.obj
 0002:00000e68       ??_R2type_info@@8          1000de68     MSVCRT:std_type_info_static.obj
 0002:00000e70       ??_R1A@?0A@EA@type_info@@8 1000de70     MSVCRT:std_type_info_static.obj
 0002:00000e8c       ??_R4bad_alloc@std@@6B@    1000de8c     MSVCRT:throw_bad_alloc.obj
 0002:00000ea0       ??_R3bad_alloc@std@@8      1000dea0     MSVCRT:throw_bad_alloc.obj
 0002:00000eb0       ??_R2bad_alloc@std@@8      1000deb0     MSVCRT:throw_bad_alloc.obj
 0002:00000ebc       ??_R1A@?0A@EA@bad_alloc@std@@8 1000debc     MSVCRT:throw_bad_alloc.obj
 0002:00000ed8       ??_R4bad_array_new_length@std@@6B@ 1000ded8     MSVCRT:throw_bad_alloc.obj
 0002:00000eec       ??_R3bad_array_new_length@std@@8 1000deec     MSVCRT:throw_bad_alloc.obj
 0002:00000efc       ??_R2bad_array_new_length@std@@8 1000defc     MSVCRT:throw_bad_alloc.obj
 0002:00000f0c       ??_R1A@?0A@EA@bad_array_new_length@std@@8 1000df0c     MSVCRT:throw_bad_alloc.obj
 0002:00000f28       ??_R4exception@std@@6B@    1000df28     ClientProtocolImpl.obj
 0002:00000f3c       ??_R3IClientProtocol@@8    1000df3c     ClientProtocolImpl.obj
 0002:00000f4c       ??_R1A@?0A@EA@exception@std@@8 1000df4c     ClientProtocolImpl.obj
 0002:00000f68       ??_R1A@?0A@EA@IClientProtocol@@8 1000df68     ClientProtocolImpl.obj
 0002:00000f84       ??_R4IClientProtocol@@6B@  1000df84     ClientProtocolImpl.obj
 0002:00000f98       ??_R2exception@std@@8      1000df98     ClientProtocolImpl.obj
 0002:00000fa0       ??_R3ISocketEvents@@8      1000dfa0     ClientProtocolImpl.obj
 0002:00000fb0       ??_R4ClientProtocol@@6BISocketEvents@@@ 1000dfb0     ClientProtocolImpl.obj
 0002:00000fc4       ??_R4ClientProtocol@@6BIClientProtocol@@@ 1000dfc4     ClientProtocolImpl.obj
 0002:00000fd8       ??_R2ISocketEvents@@8      1000dfd8     ClientProtocolImpl.obj
 0002:00000fe0       ??_R2ClientProtocol@@8     1000dfe0     ClientProtocolImpl.obj
 0002:00000ff0       ??_R2IClientProtocol@@8    1000dff0     ClientProtocolImpl.obj
 0002:00000ff8       ??_R4ISocketEvents@@6B@    1000dff8     ClientProtocolImpl.obj
 0002:0000100c       ??_R3exception@std@@8      1000e00c     ClientProtocolImpl.obj
 0002:0000101c       ??_R3ClientProtocol@@8     1000e01c     ClientProtocolImpl.obj
 0002:0000102c       ??_R13?0A@EN@ISocketEvents@@8 1000e02c     ClientProtocolImpl.obj
 0002:00001048       ??_R1A@?0A@EA@ISocketEvents@@8 1000e048     ClientProtocolImpl.obj
 0002:00001064       ??_R1A@?0A@EA@ClientProtocol@@8 1000e064     ClientProtocolImpl.obj
 0002:00001080       ??_R3ClientSessionMgr@@8   1000e080     ClientSession.obj
 0002:00001090       ??_R1A@?0A@EA@ClientSessionMgr@@8 1000e090     ClientSession.obj
 0002:000010ac       ??_R4IClientSessionMgr@@6B@ 1000e0ac     ClientSession.obj
 0002:000010c0       ??_R2ClientSessionMgr@@8   1000e0c0     ClientSession.obj
 0002:000010cc       ??_R2IClientSessionMgr@@8  1000e0cc     ClientSession.obj
 0002:000010d4       ??_R4ClientSessionMgr@@6B@ 1000e0d4     ClientSession.obj
 0002:000010e8       ??_R1A@?0A@EA@IClientSessionMgr@@8 1000e0e8     ClientSession.obj
 0002:00001104       ??_R1A@?0A@EA@IClientSession@@8 1000e104     ClientSession.obj
 0002:00001120       ??_R2IClientSession@@8     1000e120     ClientSession.obj
 0002:00001128       ??_R3IClientSessionMgr@@8  1000e128     ClientSession.obj
 0002:00001138       ??_R2ClientSession@@8      1000e138     ClientSession.obj
 0002:00001144       ??_R3IClientSession@@8     1000e144     ClientSession.obj
 0002:00001154       ??_R1A@?0A@EA@ClientSession@@8 1000e154     ClientSession.obj
 0002:00001170       ??_R3ClientSession@@8      1000e170     ClientSession.obj
 0002:00001180       ??_R4ClientSession@@6B@    1000e180     ClientSession.obj
 0002:00001194       ??_R4IClientSession@@6B@   1000e194     ClientSession.obj
 0002:000011a8       ??_R4IServerProtocol@@6B@  1000e1a8     ServerProtocolImpl.obj
 0002:000011bc       ??_R13?0A@EA@ISocketEvents@@8 1000e1bc     ServerProtocolImpl.obj
 0002:000011d8       ??_R1A@?0A@EA@IServerProtocol@@8 1000e1d8     ServerProtocolImpl.obj
 0002:000011f4       ??_R3IServerProtocol@@8    1000e1f4     ServerProtocolImpl.obj
 0002:00001204       ??_R2ServerProtocol@@8     1000e204     ServerProtocolImpl.obj
 0002:00001214       ??_R4ServerProtocol@@6BIServerProtocol@@@ 1000e214     ServerProtocolImpl.obj
 0002:00001228       ??_R3ServerProtocol@@8     1000e228     ServerProtocolImpl.obj
 0002:00001238       ??_R2IServerProtocol@@8    1000e238     ServerProtocolImpl.obj
 0002:00001240       ??_R1A@?0A@EA@ServerProtocol@@8 1000e240     ServerProtocolImpl.obj
 0002:0000125c       ??_R4ServerProtocol@@6BISocketEvents@@@ 1000e25c     ServerProtocolImpl.obj
 0002:00001270       ___safe_se_handler_table   1000e270     <linker-defined>
 0002:0000169c       ___rtc_iaa                 1000e69c     MSVCRT:_initsect_.obj
 0002:000016a0       ___rtc_izz                 1000e6a0     MSVCRT:_initsect_.obj
 0002:000016a4       ___rtc_taa                 1000e6a4     MSVCRT:_initsect_.obj
 0002:000016a8       ___rtc_tzz                 1000e6a8     MSVCRT:_initsect_.obj
 0002:00001f9c       __TI2?AVbad_alloc@std@@    1000ef9c     MSVCRT:throw_bad_alloc.obj
 0002:00001fac       __CTA2?AVbad_alloc@std@@   1000efac     MSVCRT:throw_bad_alloc.obj
 0002:00001fb8       __CT??_R0?AVbad_alloc@std@@@8??0bad_alloc@std@@QAE@ABV01@@Z12 1000efb8     MSVCRT:throw_bad_alloc.obj
 0002:00001fd4       __TI3?AVbad_array_new_length@std@@ 1000efd4     MSVCRT:throw_bad_alloc.obj
 0002:00001fe4       __CTA3?AVbad_array_new_length@std@@ 1000efe4     MSVCRT:throw_bad_alloc.obj
 0002:00001ff4       __CT??_R0?AVbad_array_new_length@std@@@8??0bad_array_new_length@std@@QAE@ABV01@@Z12 1000eff4     MSVCRT:throw_bad_alloc.obj
 0002:00002010       __TI1?AVexception@std@@    1000f010     ClientProtocolImpl.obj
 0002:00002020       __CTA1?AVexception@std@@   1000f020     ClientProtocolImpl.obj
 0002:00002028       __CT??_R0?AVexception@std@@@8??0exception@std@@QAE@ABV01@@Z12 1000f028     ClientProtocolImpl.obj
 0002:00002174       __IMPORT_DESCRIPTOR_Socket 1000f174     Socket:Socket.dll
 0002:00002188       __IMPORT_DESCRIPTOR_xLogger 1000f188     xlogger:xLogger.dll
 0002:0000219c       __IMPORT_DESCRIPTOR_Utilities 1000f19c     Utilities:Utilities.dll
 0002:000021b0       __IMPORT_DESCRIPTOR_KERNEL32 1000f1b0     kernel32:KERNEL32.dll
 0002:000021c4       __IMPORT_DESCRIPTOR_MSVCP140 1000f1c4     msvcprt:MSVCP140.dll
 0002:000021d8       __IMPORT_DESCRIPTOR_VCRUNTIME140 1000f1d8     vcruntime:VCRUNTIME140.dll
 0002:000021ec       __IMPORT_DESCRIPTOR_api-ms-win-crt-runtime-l1-1-0 1000f1ec     ucrt:api-ms-win-crt-runtime-l1-1-0.dll
 0002:00002200       __IMPORT_DESCRIPTOR_api-ms-win-crt-time-l1-1-0 1000f200     ucrt:api-ms-win-crt-time-l1-1-0.dll
 0002:00002214       __IMPORT_DESCRIPTOR_api-ms-win-crt-heap-l1-1-0 1000f214     ucrt:api-ms-win-crt-heap-l1-1-0.dll
 0002:00002228       __NULL_IMPORT_DESCRIPTOR   1000f228     Socket:Socket.dll
 0003:00000000       __Init_global_epoch        10010000     MSVCRT:thread_safe_statics.obj
 0003:00000004       ___scrt_native_dllmain_reason 10010004     MSVCRT:utility.obj
 0003:00000008       ___security_cookie_complement 10010008     MSVCRT:gs_cookie.obj
 0003:0000000c       ___security_cookie         1001000c     MSVCRT:gs_cookie.obj
 0003:00000010       ___isa_enabled             10010010     MSVCRT:_cpu_disp_.obj
 0003:00000020       ___scrt_ucrt_dll_is_in_use 10010020     MSVCRT:ucrt_stubs.obj
 0003:00000030       __fltused                  10010030     MSVCRT:fltused.obj
 0003:00000034       ??_R0?AVtype_info@@@8      10010034     MSVCRT:std_type_info_static.obj
 0003:0000004c       ??_R0?AVbad_alloc@std@@@8  1001004c     MSVCRT:throw_bad_alloc.obj
 0003:00000068       ??_R0?AVbad_array_new_length@std@@@8 10010068     MSVCRT:throw_bad_alloc.obj
 0003:00000090       ??_R0?AVIClientProtocol@@@8 10010090     ClientProtocolImpl.obj
 0003:000000b0       ??_R0?AVISocketEvents@@@8  100100b0     ClientProtocolImpl.obj
 0003:000000cc       ??_R0?AVClientProtocol@@@8 100100cc     ClientProtocolImpl.obj
 0003:000000ec       ??_R0?AVexception@std@@@8  100100ec     ClientProtocolImpl.obj
 0003:00000108       ??_R0?AVIClientSession@@@8 10010108     ClientSession.obj
 0003:00000128       ??_R0?AVIClientSessionMgr@@@8 10010128     ClientSession.obj
 0003:00000148       ??_R0?AVClientSession@@@8  10010148     ClientSession.obj
 0003:00000164       ??_R0?AVClientSessionMgr@@@8 10010164     ClientSession.obj
 0003:00000184       ??_R0?AVServerProtocol@@@8 10010184     ServerProtocolImpl.obj
 0003:000001a4       ??_R0?AVIServerProtocol@@@8 100101a4     ServerProtocolImpl.obj
 0003:000001c8       ?_AtlBaseModule@ATL@@3VCAtlBaseModule@1@A 100101c8     atls:atlbase.obj
 0003:00000200       ___@@_PchSym_@00@UwwUexgllohUexHoryhUhsrkUzgonuxUhixUzgoUzgohUlyqBiUrDIGUhgwzucOlyq@D30CF1FEFB9F8AE1 10010200     atls:stdafx.obj
 0003:0000022c       ___scrt_current_native_startup_state 1001022c     MSVCRT:utility.obj
 0003:00000230       ___scrt_native_startup_lock 10010230     MSVCRT:utility.obj
 0003:00000574       ___scrt_debugger_hook_flag 10010574     MSVCRT:utility_desktop.obj
 0003:00000578       __tls_index                10010578     MSVCRT:tlssup.obj
 0003:0000057c       ___isa_available           1001057c     MSVCRT:_cpu_disp_.obj
 0003:00000580       ___favor                   10010580     MSVCRT:_cpu_disp_.obj
 0003:00000588       ?__type_info_root_node@@3U__type_info_node@@A 10010588     MSVCRT:tncleanup.obj
 0003:00000590       ?_OptionsStorage@?1??__local_stdio_printf_options@@9@4_KA 10010590     MSVCRT:default_local_stdio_options.obj
 0003:00000598       ?_OptionsStorage@?1??__local_stdio_scanf_options@@9@4_KA 10010598     MSVCRT:default_local_stdio_options.obj
 0003:000005a4       ?m_bInitFailed@CAtlBaseModule@ATL@@2_NA 100105a4     ClientProtocolImpl.obj
 0003:000005ac       ___dyn_tls_init_callback   100105ac     <common>
 0004:00000000       __tls_start                10011000     MSVCRT:tlssup.obj
 0004:00000004       __Init_thread_epoch        10011004     MSVCRT:thread_safe_statics.obj
 0004:00000008       __tls_end                  10011008     MSVCRT:tlssup.obj

 entry point at        0001:0000ae49

 Static symbols

 0000:fffeb000       .debug$S                   10000000     kernel32:KERNEL32.dll
 0000:fffeb000       .debug$S                   10000000     ucrt:api-ms-win-crt-heap-l1-1-0.dll
 0000:fffeb000       .debug$S                   10000000     ucrt:api-ms-win-crt-heap-l1-1-0.dll
 0000:fffeb000       .debug$S                   10000000     ucrt:api-ms-win-crt-heap-l1-1-0.dll
 0000:fffeb000       .debug$S                   10000000     ucrt:api-ms-win-crt-heap-l1-1-0.dll
 0000:fffeb000       .debug$S                   10000000     ucrt:api-ms-win-crt-runtime-l1-1-0.dll
 0000:fffeb000       .debug$S                   10000000     ucrt:api-ms-win-crt-runtime-l1-1-0.dll
 0000:fffeb000       .debug$S                   10000000     ucrt:api-ms-win-crt-runtime-l1-1-0.dll
 0000:fffeb000       .debug$S                   10000000     ucrt:api-ms-win-crt-runtime-l1-1-0.dll
 0000:fffeb000       .debug$S                   10000000     ucrt:api-ms-win-crt-runtime-l1-1-0.dll
 0000:fffeb000       .debug$S                   10000000     ucrt:api-ms-win-crt-runtime-l1-1-0.dll
 0000:fffeb000       .debug$S                   10000000     ucrt:api-ms-win-crt-runtime-l1-1-0.dll
 0000:fffeb000       .debug$S                   10000000     ucrt:api-ms-win-crt-runtime-l1-1-0.dll
 0000:fffeb000       .debug$S                   10000000     ucrt:api-ms-win-crt-runtime-l1-1-0.dll
 0000:fffeb000       .debug$S                   10000000     ucrt:api-ms-win-crt-runtime-l1-1-0.dll
 0000:fffeb000       .debug$S                   10000000     ucrt:api-ms-win-crt-runtime-l1-1-0.dll
 0000:fffeb000       .debug$S                   10000000     ucrt:api-ms-win-crt-runtime-l1-1-0.dll
 0000:fffeb000       .debug$S                   10000000     ucrt:api-ms-win-crt-runtime-l1-1-0.dll
 0000:fffeb000       .debug$S                   10000000     ucrt:api-ms-win-crt-runtime-l1-1-0.dll
 0000:fffeb000       .debug$S                   10000000     ucrt:api-ms-win-crt-runtime-l1-1-0.dll
 0000:fffeb000       .debug$S                   10000000     ucrt:api-ms-win-crt-time-l1-1-0.dll
 0000:fffeb000       .debug$S                   10000000     vcruntime:VCRUNTIME140.dll
 0000:fffeb000       .debug$S                   10000000     vcruntime:VCRUNTIME140.dll
 0000:fffeb000       .debug$S                   10000000     vcruntime:VCRUNTIME140.dll
 0000:fffeb000       .debug$S                   10000000     vcruntime:VCRUNTIME140.dll
 0000:fffeb000       .debug$S                   10000000     vcruntime:VCRUNTIME140.dll
 0000:fffeb000       .debug$S                   10000000     vcruntime:VCRUNTIME140.dll
 0000:fffeb000       .debug$S                   10000000     vcruntime:VCRUNTIME140.dll
 0000:fffeb000       .debug$S                   10000000     vcruntime:VCRUNTIME140.dll
 0000:fffeb000       .debug$S                   10000000     vcruntime:VCRUNTIME140.dll
 0000:fffeb000       .debug$S                   10000000     vcruntime:VCRUNTIME140.dll
 0000:fffeb000       .debug$S                   10000000     vcruntime:VCRUNTIME140.dll
 0000:fffeb000       .debug$S                   10000000     vcruntime:VCRUNTIME140.dll
 0000:fffeb000       .debug$S                   10000000     vcruntime:VCRUNTIME140.dll
 0000:fffeb000       .debug$S                   10000000     kernel32:KERNEL32.dll
 0000:fffeb000       .debug$S                   10000000     kernel32:KERNEL32.dll
 0000:fffeb000       .debug$S                   10000000     kernel32:KERNEL32.dll
 0000:fffeb000       .debug$S                   10000000     kernel32:KERNEL32.dll
 0000:fffeb000       .debug$S                   10000000     kernel32:KERNEL32.dll
 0000:fffeb000       .debug$S                   10000000     kernel32:KERNEL32.dll
 0000:fffeb000       .debug$S                   10000000     kernel32:KERNEL32.dll
 0000:fffeb000       .debug$S                   10000000     ProtocolLib.exp
 0000:fffeb000       .debug$S                   10000000     Socket:Socket.dll
 0000:fffeb000       .debug$S                   10000000     Socket:Socket.dll
 0000:fffeb000       .debug$S                   10000000     Socket:Socket.dll
 0000:fffeb000       .debug$S                   10000000     Socket:Socket.dll
 0000:fffeb000       .debug$S                   10000000     xlogger:xLogger.dll
 0000:fffeb000       .debug$S                   10000000     Utilities:Utilities.dll
 0000:fffeb000       .debug$S                   10000000     kernel32:KERNEL32.dll
 0000:fffeb000       .debug$S                   10000000     msvcprt:MSVCP140.dll
 0000:fffeb000       .debug$S                   10000000     msvcprt:MSVCP140.dll
 0000:fffeb000       .debug$S                   10000000     msvcprt:MSVCP140.dll
 0002:ffff3000       .idata$6                   10000000     user32:USER32.dll
 0000:fffeb000       .debug$S                   10000000     user32:USER32.dll
 0000:fffeb000       .debug$S                   10000000     kernel32:KERNEL32.dll
 0000:fffeb000       .debug$S                   10000000     kernel32:KERNEL32.dll
 0000:fffeb000       .debug$S                   10000000     kernel32:KERNEL32.dll
 0000:fffeb000       .debug$S                   10000000     kernel32:KERNEL32.dll
 0000:fffeb000       .debug$S                   10000000     kernel32:KERNEL32.dll
 0000:fffeb000       .debug$S                   10000000     kernel32:KERNEL32.dll
 0000:fffeb000       .debug$S                   10000000     kernel32:KERNEL32.dll
 0000:fffeb000       .debug$S                   10000000     kernel32:KERNEL32.dll
 0000:fffeb000       .debug$S                   10000000     kernel32:KERNEL32.dll
 0000:fffeb000       .debug$S                   10000000     kernel32:KERNEL32.dll
 0000:fffeb000       .debug$S                   10000000     kernel32:KERNEL32.dll
 0000:fffeb000       .debug$S                   10000000     kernel32:KERNEL32.dll
 0000:fffeb000       .debug$S                   10000000     kernel32:KERNEL32.dll
 0000:fffeb000       .debug$S                   10000000     kernel32:KERNEL32.dll
 0000:fffeb000       .debug$S                   10000000     kernel32:KERNEL32.dll
 0000:fffeb000       .debug$S                   10000000     kernel32:KERNEL32.dll
 0000:fffeb000       .debug$S                   10000000     kernel32:KERNEL32.dll
 0000:fffeb000       .debug$S                   10000000     kernel32:KERNEL32.dll
 0000:fffeb000       .debug$S                   10000000     kernel32:KERNEL32.dll
 0000:fffeb000       .debug$S                   10000000     kernel32:KERNEL32.dll
 0000:fffeb000       .debug$S                   10000000     kernel32:KERNEL32.dll
 0000:fffeb000       .debug$S                   10000000     kernel32:KERNEL32.dll
 0000:fffeb000       .debug$S                   10000000     kernel32:KERNEL32.dll
 0000:fffeb000       .debug$S                   10000000     kernel32:KERNEL32.dll
 0000:fffeb000       .debug$S                   10000000     kernel32:KERNEL32.dll
 0000:fffeb000       .debug$S                   10000000     kernel32:KERNEL32.dll
 0000:fffeb000       .debug$S                   10000000     kernel32:KERNEL32.dll
 0000:fffeb000       .debug$S                   10000000     kernel32:KERNEL32.dll
 0000:fffeb000       .debug$S                   10000000     Utilities:Utilities.dll
 0001:00000000       ??__E_AtlBaseModule@ATL@@YAXXZ 10001000 f   atls:atlbase.obj
 0001:00000520       ?GetMessageObject@@YAPAXI@Z 10001520 f   ClientProtocolImpl.obj
 0001:00000888       $LN57                      10001888     ClientProtocolImpl.obj
 0001:00001def       __catch$?_Copy@?$basic_string@DU?$char_traits@D@std@@V?$allocator@D@2@@std@@QAEXII@Z$0 10002def f i ClientProtocolImpl.obj
 0001:00001e1d       __catch$?_Copy@?$basic_string@DU?$char_traits@D@std@@V?$allocator@D@2@@std@@QAEXII@Z$1 10002e1d f i ClientProtocolImpl.obj
 0001:000022b0       ?GetMessageObject@@YAPAXI@Z 100032b0 f   ClientSession.obj
 0001:00002618       $LN57                      10003618     ClientSession.obj
 0001:000067ac       __catch$?_Buynode0@?$_List_alloc@U?$_List_base_types@PAVIAccount@@V?$allocator@PAVIAccount@@@std@@@std@@@std@@QAEPAU?$_List_node@PAVIAccount@@PAX@2@PAU32@0@Z$0 100077ac f i ClientSession.obj
 0001:000067ac       __catch$?_Buynode0@?$_List_alloc@U?$_List_base_types@IV?$allocator@I@std@@@std@@@std@@QAEPAU?$_List_node@IPAX@2@PAU32@0@Z$0 100077ac f i ClientSession.obj
 0001:000068d9       __catch$?_Buyheadnode@?$_Tree_comp_alloc@V?$_Tmap_traits@V?$basic_string@DU?$char_traits@D@std@@V?$allocator@D@2@@std@@V?$list@IV?$allocator@I@std@@@2@U?$less@V?$basic_string@DU?$char_traits@D@std@@V?$allocator@D@2@@std@@@2@V?$allocator@U?$pair@$$CBV?$basic_string@DU?$char_traits@D@std@@V?$allocator@D@2@@std@@V?$list@IV?$allocator@I@std@@@2@@std@@@2@$0A@@std@@@std@@QAEPAU?$_Tree_node@U?$pair@$$CBV?$basic_string@DU?$char_traits@D@std@@V?$allocator@D@2@@std@@V?$list@IV?$allocator@I@std@@@2@@std@@PAX@2@XZ$0 100078d9 f i ClientSession.obj
 0001:00006ab9       __catch$?_Buyheadnode@?$_Tree_comp_alloc@V?$_Tmap_traits@IPAVIClientSession@@U?$less@I@std@@V?$allocator@U?$pair@$$CBIPAVIClientSession@@@std@@@3@$0A@@std@@@std@@QAEPAU?$_Tree_node@U?$pair@$$CBIPAVIClientSession@@@std@@PAX@2@XZ$0 10007ab9 f i ClientSession.obj
 0001:0000718c       __catch$??0?$list@IV?$allocator@I@std@@@std@@QAE@ABV01@@Z$0 1000818c f i ClientSession.obj
 0001:00007543       __catch$??$_Buynode@I@?$_List_buy@IV?$allocator@I@std@@@std@@QAEPAU?$_List_node@IPAX@1@PAU21@0$$QAI@Z$0 10008543 f i ClientSession.obj
 0001:00007543       __catch$??$_Buynode@ABQAVIAccount@@@?$_List_buy@PAVIAccount@@V?$allocator@PAVIAccount@@@std@@@std@@QAEPAU?$_List_node@PAVIAccount@@PAX@1@PAU21@0ABQAVIAccount@@@Z$0 10008543 f i ClientSession.obj
 0001:00007543       __catch$??$_Buynode@ABI@?$_List_buy@IV?$allocator@I@std@@@std@@QAEPAU?$_List_node@IPAX@1@PAU21@0ABI@Z$0 10008543 f i ClientSession.obj
 0001:000077d9       __catch$??$_Buynode@AAU?$pair@IPAVIClientSession@@@std@@@?$_Tree_comp_alloc@V?$_Tmap_traits@IPAVIClientSession@@U?$less@I@std@@V?$allocator@U?$pair@$$CBIPAVIClientSession@@@std@@@3@$0A@@std@@@std@@QAEPAU?$_Tree_node@U?$pair@$$CBIPAVIClientSession@@@std@@PAX@1@AAU?$pair@IPAVIClientSession@@@1@@Z$0 100087d9 f i ClientSession.obj
 0001:00007b0d       __catch$??$_Insert_nohint@AAU?$pair@$$CBIPAVIClientSession@@@std@@PAU?$_Tree_node@U?$pair@$$CBIPAVIClientSession@@@std@@PAX@2@@?$_Tree@V?$_Tmap_traits@IPAVIClientSession@@U?$less@I@std@@V?$allocator@U?$pair@$$CBIPAVIClientSession@@@std@@@3@$0A@@std@@@std@@IAE?AU?$pair@V?$_Tree_iterator@V?$_Tree_val@U?$_Tree_simple_types@U?$pair@$$CBIPAVIClientSession@@@std@@@std@@@std@@@std@@_N@1@_NAAU?$pair@$$CBIPAVIClientSession@@@1@PAU?$_Tree_node@U?$pair@$$CBIPAVIClientSession@@@std@@PAX@1@@Z$0 10008b0d f i ClientSession.obj
 0001:00007be9       __catch$??$_Buynode@AAU?$pair@V?$basic_string@DU?$char_traits@D@std@@V?$allocator@D@2@@std@@V?$list@IV?$allocator@I@std@@@2@@std@@@?$_Tree_comp_alloc@V?$_Tmap_traits@V?$basic_string@DU?$char_traits@D@std@@V?$allocator@D@2@@std@@V?$list@IV?$allocator@I@std@@@2@U?$less@V?$basic_string@DU?$char_traits@D@std@@V?$allocator@D@2@@std@@@2@V?$allocator@U?$pair@$$CBV?$basic_string@DU?$char_traits@D@std@@V?$allocator@D@2@@std@@V?$list@IV?$allocator@I@std@@@2@@std@@@2@$0A@@std@@@std@@QAEPAU?$_Tree_node@U?$pair@$$CBV?$basic_string@DU?$char_traits@D@std@@V?$allocator@D@2@@std@@V?$list@IV?$allocator@I@std@@@2@@std@@PAX@1@AAU?$pair@V?$basic_string@DU?$char_traits@D@std@@V?$allocator@D@2@@std@@V?$list@IV?$allocator@I@std@@@2@@1@@Z$0 10008be9 f i ClientSession.obj
 0001:00007f1d       __catch$??$_Insert_nohint@AAU?$pair@$$CBV?$basic_string@DU?$char_traits@D@std@@V?$allocator@D@2@@std@@V?$list@IV?$allocator@I@std@@@2@@std@@PAU?$_Tree_node@U?$pair@$$CBV?$basic_string@DU?$char_traits@D@std@@V?$allocator@D@2@@std@@V?$list@IV?$allocator@I@std@@@2@@std@@PAX@2@@?$_Tree@V?$_Tmap_traits@V?$basic_string@DU?$char_traits@D@std@@V?$allocator@D@2@@std@@V?$list@IV?$allocator@I@std@@@2@U?$less@V?$basic_string@DU?$char_traits@D@std@@V?$allocator@D@2@@std@@@2@V?$allocator@U?$pair@$$CBV?$basic_string@DU?$char_traits@D@std@@V?$allocator@D@2@@std@@V?$list@IV?$allocator@I@std@@@2@@std@@@2@$0A@@std@@@std@@IAE?AU?$pair@V?$_Tree_iterator@V?$_Tree_val@U?$_Tree_simple_types@U?$pair@$$CBV?$basic_string@DU?$char_traits@D@std@@V?$allocator@D@2@@std@@V?$list@IV?$allocator@I@std@@@2@@std@@@std@@@std@@@std@@_N@1@_NAAU?$pair@$$CBV?$basic_string@DU?$char_traits@D@std@@V?$allocator@D@2@@std@@V?$list@IV?$allocator@I@std@@@2@@1@PAU?$_Tree_node@U?$pair@$$CBV?$basic_string@DU?$char_traits@D@std@@V?$allocator@D@2@@std@@V?$list@IV?$allocator@I@std@@@2@@std@@PAX@1@@Z$0 10008f1d f i ClientSession.obj
 0001:0000815c       __catch$??$_Insert_range@V?$_List_const_iterator@V?$_List_val@U?$_List_simple_types@I@std@@@std@@@std@@@?$list@IV?$allocator@I@std@@@std@@QAEXV?$_List_unchecked_const_iterator@V?$_List_val@U?$_List_simple_types@I@std@@@std@@U_Iterator_base0@2@@1@V?$_List_const_iterator@V?$_List_val@U?$_List_simple_types@I@std@@@std@@@1@1Uforward_iterator_tag@1@@Z$0 1000915c f i ClientSession.obj
 0001:00008308       __catch$?_Buynode0@?$_Tree_comp_alloc@V?$_Tmap_traits@V?$basic_string@DU?$char_traits@D@std@@V?$allocator@D@2@@std@@V?$list@IV?$allocator@I@std@@@2@U?$less@V?$basic_string@DU?$char_traits@D@std@@V?$allocator@D@2@@std@@@2@V?$allocator@U?$pair@$$CBV?$basic_string@DU?$char_traits@D@std@@V?$allocator@D@2@@std@@V?$list@IV?$allocator@I@std@@@2@@std@@@2@$0A@@std@@@std@@QAEPAU?$_Tree_node@U?$pair@$$CBV?$basic_string@DU?$char_traits@D@std@@V?$allocator@D@2@@std@@V?$list@IV?$allocator@I@std@@@2@@std@@PAX@2@XZ$0 10009308 f i ClientSession.obj
 0001:00008498       __catch$?_Buynode0@?$_Tree_comp_alloc@V?$_Tmap_traits@IPAVIClientSession@@U?$less@I@std@@V?$allocator@U?$pair@$$CBIPAVIClientSession@@@std@@@3@$0A@@std@@@std@@QAEPAU?$_Tree_node@U?$pair@$$CBIPAVIClientSession@@@std@@PAX@2@XZ$0 10009498 f i ClientSession.obj
 0001:000090b3       __catch$??$_Buynode@ABUpiecewise_construct_t@std@@V?$tuple@ABI@2@V?$tuple@$$V@2@@?$_Tree_comp_alloc@V?$_Tmap_traits@IPAVIClientSession@@U?$less@I@std@@V?$allocator@U?$pair@$$CBIPAVIClientSession@@@std@@@3@$0A@@std@@@std@@QAEPAU?$_Tree_node@U?$pair@$$CBIPAVIClientSession@@@std@@PAX@1@ABUpiecewise_construct_t@1@$$QAV?$tuple@ABI@1@$$QAV?$tuple@$$V@1@@Z$0 1000a0b3 f i ClientSession.obj
 0001:00009af4       __catch$??$_Insert_hint@AAU?$pair@$$CBIPAVIClientSession@@@std@@PAU?$_Tree_node@U?$pair@$$CBIPAVIClientSession@@@std@@PAX@2@@?$_Tree@V?$_Tmap_traits@IPAVIClientSession@@U?$less@I@std@@V?$allocator@U?$pair@$$CBIPAVIClientSession@@@std@@@3@$0A@@std@@@std@@IAE?AV?$_Tree_iterator@V?$_Tree_val@U?$_Tree_simple_types@U?$pair@$$CBIPAVIClientSession@@@std@@@std@@@std@@@1@V?$_Tree_const_iterator@V?$_Tree_val@U?$_Tree_simple_types@U?$pair@$$CBIPAVIClientSession@@@std@@@std@@@std@@@1@AAU?$pair@$$CBIPAVIClientSession@@@1@PAU?$_Tree_node@U?$pair@$$CBIPAVIClientSession@@@std@@PAX@1@@Z$0 1000aaf4 f i ClientSession.obj
 0001:0000a6b4       ?__scrt_initialize_thread_safe_statics@@YAHXZ 1000b6b4 f   MSVCRT:thread_safe_statics.obj
 0001:0000a791       ?__scrt_uninitialize_thread_safe_statics@@YAXXZ 1000b791 f   MSVCRT:thread_safe_statics.obj
 0001:0000a7e0       ?find_pe_section@@YAPAU_IMAGE_SECTION_HEADER@@QAEI@Z 1000b7e0 f   MSVCRT:utility.obj
 0001:0000ab41       ?dllmain_crt_dispatch@@YGHQAUHINSTANCE__@@KQAX@Z 1000bb41 f   MSVCRT:dll_dllmain.obj
 0001:0000ab94       ?dllmain_crt_process_attach@@YAHQAUHINSTANCE__@@QAX@Z 1000bb94 f   MSVCRT:dll_dllmain.obj
 0001:0000aca6       ?dllmain_crt_process_detach@@YAH_N@Z 1000bca6 f   MSVCRT:dll_dllmain.obj
 0001:0000ad23       ?dllmain_dispatch@@YAHQAUHINSTANCE__@@KQAX@Z 1000bd23 f   MSVCRT:dll_dllmain.obj
 0001:0000ae1f       ?dllmain_raw@@YGHQAUHINSTANCE__@@KQAX@Z 1000be1f f   MSVCRT:dll_dllmain.obj
 0001:0000b340       $$000000                   1000c340     MSVCRT:_sehprolg4_.obj
 0001:0000b580       $$000000                   1000c580     MSVCRT:chkstk.obj
 0001:0000b5c0       __unwindfunclet$??0ClientProtocol@@QAE@XZ$0 1000c5c0 f   ClientProtocolImpl.obj
 0001:0000b5c8       __ehhandler$??0ClientProtocol@@QAE@XZ 1000c5c8 f   ClientProtocolImpl.obj
 0001:0000b5f0       __ehhandler$?end@?$list@IV?$allocator@I@std@@@std@@QBE?AV?$_List_const_iterator@V?$_List_val@U?$_List_simple_types@I@std@@@std@@@2@XZ 1000c5f0 f   ClientSession.obj
 0001:0000b5f0       __ehhandler$?_Make_iter@?$list@IV?$allocator@I@std@@@std@@QBE?AV?$_List_iterator@V?$_List_val@U?$_List_simple_types@I@std@@@std@@@2@V?$_List_const_iterator@V?$_List_val@U?$_List_simple_types@I@std@@@std@@@2@@Z 1000c5f0 f   ClientSession.obj
 0001:0000b5f0       __ehhandler$??1?$basic_string@DU?$char_traits@D@std@@V?$allocator@D@2@@std@@QAE@XZ 1000c5f0 f   ClientProtocolImpl.obj
 0001:0000b5f0       __ehhandler$?begin@?$_Tree@V?$_Tmap_traits@V?$basic_string@DU?$char_traits@D@std@@V?$allocator@D@2@@std@@V?$list@IV?$allocator@I@std@@@2@U?$less@V?$basic_string@DU?$char_traits@D@std@@V?$allocator@D@2@@std@@@2@V?$allocator@U?$pair@$$CBV?$basic_string@DU?$char_traits@D@std@@V?$allocator@D@2@@std@@V?$list@IV?$allocator@I@std@@@2@@std@@@2@$0A@@std@@@std@@QAE?AV?$_Tree_iterator@V?$_Tree_val@U?$_Tree_simple_types@U?$pair@$$CBV?$basic_string@DU?$char_traits@D@std@@V?$allocator@D@2@@std@@V?$list@IV?$allocator@I@std@@@2@@std@@@std@@@std@@@2@XZ 1000c5f0 f   ClientSession.obj
 0001:0000b5f0       __ehhandler$?end@?$_Tree@V?$_Tmap_traits@V?$basic_string@DU?$char_traits@D@std@@V?$allocator@D@2@@std@@V?$list@IV?$allocator@I@std@@@2@U?$less@V?$basic_string@DU?$char_traits@D@std@@V?$allocator@D@2@@std@@@2@V?$allocator@U?$pair@$$CBV?$basic_string@DU?$char_traits@D@std@@V?$allocator@D@2@@std@@V?$list@IV?$allocator@I@std@@@2@@std@@@2@$0A@@std@@@std@@QAE?AV?$_Tree_iterator@V?$_Tree_val@U?$_Tree_simple_types@U?$pair@$$CBV?$basic_string@DU?$char_traits@D@std@@V?$allocator@D@2@@std@@V?$list@IV?$allocator@I@std@@@2@@std@@@std@@@std@@@2@XZ 1000c5f0 f   ClientSession.obj
 0001:0000b5f0       __ehhandler$??1?$_Tree@V?$_Tmap_traits@V?$basic_string@DU?$char_traits@D@std@@V?$allocator@D@2@@std@@V?$list@IV?$allocator@I@std@@@2@U?$less@V?$basic_string@DU?$char_traits@D@std@@V?$allocator@D@2@@std@@@2@V?$allocator@U?$pair@$$CBV?$basic_string@DU?$char_traits@D@std@@V?$allocator@D@2@@std@@V?$list@IV?$allocator@I@std@@@2@@std@@@2@$0A@@std@@@std@@QAE@XZ 1000c5f0 f   ClientSession.obj
 0001:0000b5f0       __ehhandler$?begin@?$list@IV?$allocator@I@std@@@std@@QBE?AV?$_List_const_iterator@V?$_List_val@U?$_List_simple_types@I@std@@@std@@@2@XZ 1000c5f0 f   ClientSession.obj
 0001:0000b5f0       __ehhandler$?end@?$_Tree@V?$_Tmap_traits@IPAVIClientSession@@U?$less@I@std@@V?$allocator@U?$pair@$$CBIPAVIClientSession@@@std@@@3@$0A@@std@@@std@@QAE?AV?$_Tree_iterator@V?$_Tree_val@U?$_Tree_simple_types@U?$pair@$$CBIPAVIClientSession@@@std@@@std@@@std@@@2@XZ 1000c5f0 f   ClientSession.obj
 0001:0000b5f0       __ehhandler$?begin@?$_Tree@V?$_Tmap_traits@IPAVIClientSession@@U?$less@I@std@@V?$allocator@U?$pair@$$CBIPAVIClientSession@@@std@@@3@$0A@@std@@@std@@QAE?AV?$_Tree_iterator@V?$_Tree_val@U?$_Tree_simple_types@U?$pair@$$CBIPAVIClientSession@@@std@@@std@@@std@@@2@XZ 1000c5f0 f   ClientSession.obj
 0001:0000b5f0       __ehhandler$??1?$_Tree@V?$_Tmap_traits@IPAVIClientSession@@U?$less@I@std@@V?$allocator@U?$pair@$$CBIPAVIClientSession@@@std@@@3@$0A@@std@@@std@@QAE@XZ 1000c5f0 f   ClientSession.obj
 0001:0000b5f0       __ehhandler$??1?$list@IV?$allocator@I@std@@@std@@QAE@XZ 1000c5f0 f   ClientSession.obj
 0001:0000b5f0       __ehhandler$??1?$list@PAVIAccount@@V?$allocator@PAVIAccount@@@std@@@std@@QAE@XZ 1000c5f0 f   ClientSession.obj
 0001:0000b5f0       __ehhandler$?compare@?$basic_string@DU?$char_traits@D@std@@V?$allocator@D@2@@std@@QBEHABV12@@Z 1000c5f0 f   ClientSession.obj
 0001:0000b5f0       __ehhandler$?c_str@?$basic_string@DU?$char_traits@D@std@@V?$allocator@D@2@@std@@QBEPBDXZ 1000c5f0 f   ClientSession.obj
 0001:0000b5f0       __ehhandler$??0?$basic_string@DU?$char_traits@D@std@@V?$allocator@D@2@@std@@QAE@XZ 1000c5f0 f   ClientSession.obj
 0001:0000b5f0       __ehhandler$??1ClientProtocol@@UAE@XZ 1000c5f0 f   ClientProtocolImpl.obj
 0001:0000b5f0       __ehhandler$?_Make_iter@?$list@PAVIAccount@@V?$allocator@PAVIAccount@@@std@@@std@@QBE?AV?$_List_iterator@V?$_List_val@U?$_List_simple_types@PAVIAccount@@@std@@@std@@@2@V?$_List_const_iterator@V?$_List_val@U?$_List_simple_types@PAVIAccount@@@std@@@std@@@2@@Z 1000c5f0 f   ClientSession.obj
 0001:0000b5f0       __ehhandler$??1?$_List_alloc@U?$_List_base_types@IV?$allocator@I@std@@@std@@@std@@QAE@XZ 1000c5f0 f   ClientSession.obj
 0001:0000b5f0       __ehhandler$??1?$_Tree_comp_alloc@V?$_Tmap_traits@V?$basic_string@DU?$char_traits@D@std@@V?$allocator@D@2@@std@@V?$list@IV?$allocator@I@std@@@2@U?$less@V?$basic_string@DU?$char_traits@D@std@@V?$allocator@D@2@@std@@@2@V?$allocator@U?$pair@$$CBV?$basic_string@DU?$char_traits@D@std@@V?$allocator@D@2@@std@@V?$list@IV?$allocator@I@std@@@2@@std@@@2@$0A@@std@@@std@@QAE@XZ 1000c5f0 f   ClientSession.obj
 0001:0000b5f0       __ehhandler$??1?$_Tree_comp_alloc@V?$_Tmap_traits@IPAVIClientSession@@U?$less@I@std@@V?$allocator@U?$pair@$$CBIPAVIClientSession@@@std@@@3@$0A@@std@@@std@@QAE@XZ 1000c5f0 f   ClientSession.obj
 0001:0000b5f0       __ehhandler$?end@?$list@IV?$allocator@I@std@@@std@@QAE?AV?$_List_iterator@V?$_List_val@U?$_List_simple_types@I@std@@@std@@@2@XZ 1000c5f0 f   ClientSession.obj
 0001:0000b5f0       __ehhandler$?begin@?$list@IV?$allocator@I@std@@@std@@QAE?AV?$_List_iterator@V?$_List_val@U?$_List_simple_types@I@std@@@std@@@2@XZ 1000c5f0 f   ClientSession.obj
 0001:0000b5f0       __ehhandler$??1?$_List_alloc@U?$_List_base_types@PAVIAccount@@V?$allocator@PAVIAccount@@@std@@@std@@@std@@QAE@XZ 1000c5f0 f   ClientSession.obj
 0001:0000b610       __unwindfunclet$?Connect@ClientProtocol@@UAE_NPADGI@Z$0 1000c610 f   ClientProtocolImpl.obj
 0001:0000b618       __ehhandler$?Connect@ClientProtocol@@UAE_NPADGI@Z 1000c618 f   ClientProtocolImpl.obj
 0001:0000b640       __unwindfunclet$?CreateClientProtocol@@YGPAVIClientProtocol@@XZ$0 1000c640 f   ClientProtocolImpl.obj
 0001:0000b652       __ehhandler$?CreateClientProtocol@@YGPAVIClientProtocol@@XZ 1000c652 f   ClientProtocolImpl.obj
 0001:0000b670       __unwindfunclet$??0?$basic_string@DU?$char_traits@D@std@@V?$allocator@D@2@@std@@QAE@PBD@Z$0 1000c670 f   ClientProtocolImpl.obj
 0001:0000b678       __ehhandler$??0?$basic_string@DU?$char_traits@D@std@@V?$allocator@D@2@@std@@QAE@PBD@Z 1000c678 f   ClientProtocolImpl.obj
 0001:0000b6a0       __ehhandler$?_Copy@?$basic_string@DU?$char_traits@D@std@@V?$allocator@D@2@@std@@QAEXII@Z 1000c6a0 f   ClientProtocolImpl.obj
 0001:0000b6c0       __unwindfunclet$??0ClientSession@@QAE@IPADG@Z$0 1000c6c0 f   ClientSession.obj
 0001:0000b6c8       __unwindfunclet$??0ClientSession@@QAE@IPADG@Z$1 1000c6c8 f   ClientSession.obj
 0001:0000b6d6       __ehhandler$??0ClientSession@@QAE@IPADG@Z 1000c6d6 f   ClientSession.obj
 0001:0000b700       __unwindfunclet$??0ClientSessionMgr@@QAE@PAVIServerProtocol@@@Z$0 1000c700 f   ClientSession.obj
 0001:0000b708       __unwindfunclet$??0ClientSessionMgr@@QAE@PAVIServerProtocol@@@Z$1 1000c708 f   ClientSession.obj
 0001:0000b713       __ehhandler$??0ClientSessionMgr@@QAE@PAVIServerProtocol@@@Z 1000c713 f   ClientSession.obj
 0001:0000b730       __ehhandler$??1ClientSessionMgr@@UAE@XZ 1000c730 f   ClientSession.obj
 0001:0000b750       __unwindfunclet$?Add@ClientSessionMgr@@UAEXIPADG@Z$0 1000c750 f   ClientSession.obj
 0001:0000b762       __ehhandler$?Add@ClientSessionMgr@@UAEXIPADG@Z 1000c762 f   ClientSession.obj
 0001:0000b780       __unwindfunclet$?AddUserName@ClientSessionMgr@@UAEXIV?$basic_string@DU?$char_traits@D@std@@V?$allocator@D@2@@std@@@Z$0 1000c780 f   ClientSession.obj
 0001:0000b788       __unwindfunclet$?AddUserName@ClientSessionMgr@@UAEXIV?$basic_string@DU?$char_traits@D@std@@V?$allocator@D@2@@std@@@Z$1 1000c788 f   ClientSession.obj
 0001:0000b790       __unwindfunclet$?AddUserName@ClientSessionMgr@@UAEXIV?$basic_string@DU?$char_traits@D@std@@V?$allocator@D@2@@std@@@Z$2 1000c790 f   ClientSession.obj
 0001:0000b798       __ehhandler$?AddUserName@ClientSessionMgr@@UAEXIV?$basic_string@DU?$char_traits@D@std@@V?$allocator@D@2@@std@@@Z 1000c798 f   ClientSession.obj
 0001:0000b7c0       __unwindfunclet$?Remove@ClientSessionMgr@@UAEXI@Z$0 1000c7c0 f   ClientSession.obj
 0001:0000b7c8       __ehhandler$?Remove@ClientSessionMgr@@UAEXI@Z 1000c7c8 f   ClientSession.obj
 0001:0000b7f0       __unwindfunclet$?GetClientSessionList@ClientSessionMgr@@UAEPAV?$list@IV?$allocator@I@std@@@std@@V?$basic_string@DU?$char_traits@D@std@@V?$allocator@D@2@@3@@Z$0 1000c7f0 f   ClientSession.obj
 0001:0000b7f8       __ehhandler$?GetClientSessionList@ClientSessionMgr@@UAEPAV?$list@IV?$allocator@I@std@@@std@@V?$basic_string@DU?$char_traits@D@std@@V?$allocator@D@2@@3@@Z 1000c7f8 f   ClientSession.obj
 0001:0000b820       __ehhandler$?clear@?$_Tree@V?$_Tmap_traits@V?$basic_string@DU?$char_traits@D@std@@V?$allocator@D@2@@std@@V?$list@IV?$allocator@I@std@@@2@U?$less@V?$basic_string@DU?$char_traits@D@std@@V?$allocator@D@2@@std@@@2@V?$allocator@U?$pair@$$CBV?$basic_string@DU?$char_traits@D@std@@V?$allocator@D@2@@std@@V?$list@IV?$allocator@I@std@@@2@@std@@@2@$0A@@std@@@std@@QAEXXZ 1000c820 f   ClientSession.obj
 0001:0000b820       __ehhandler$?clear@?$_Tree@V?$_Tmap_traits@IPAVIClientSession@@U?$less@I@std@@V?$allocator@U?$pair@$$CBIPAVIClientSession@@@std@@@3@$0A@@std@@@std@@QAEXXZ 1000c820 f   ClientSession.obj
 0001:0000b840       __unwindfunclet$??0?$basic_string@DU?$char_traits@D@std@@V?$allocator@D@2@@std@@QAE@ABV01@@Z$0 1000c840 f   ClientSession.obj
 0001:0000b848       __ehhandler$??0?$basic_string@DU?$char_traits@D@std@@V?$allocator@D@2@@std@@QAE@ABV01@@Z 1000c848 f   ClientSession.obj
 0001:0000b870       __ehhandler$??1ServerProtocol@@UAE@XZ 1000c870 f   ServerProtocolImpl.obj
 0001:0000b870       __ehhandler$?clear@?$list@PAVIAccount@@V?$allocator@PAVIAccount@@@std@@@std@@QAEXXZ 1000c870 f   ClientSession.obj
 0001:0000b870       __ehhandler$?clear@?$list@IV?$allocator@I@std@@@std@@QAEXXZ 1000c870 f   ClientSession.obj
 0001:0000b890       __ehhandler$?_Buynode0@?$_List_alloc@U?$_List_base_types@IV?$allocator@I@std@@@std@@@std@@QAEPAU?$_List_node@IPAX@2@PAU32@0@Z 1000c890 f   ClientSession.obj
 0001:0000b890       __ehhandler$?_Buynode0@?$_List_alloc@U?$_List_base_types@PAVIAccount@@V?$allocator@PAVIAccount@@@std@@@std@@@std@@QAEPAU?$_List_node@PAVIAccount@@PAX@2@PAU32@0@Z 1000c890 f   ClientSession.obj
 0001:0000b8b0       __ehhandler$?_Buyheadnode@?$_Tree_comp_alloc@V?$_Tmap_traits@V?$basic_string@DU?$char_traits@D@std@@V?$allocator@D@2@@std@@V?$list@IV?$allocator@I@std@@@2@U?$less@V?$basic_string@DU?$char_traits@D@std@@V?$allocator@D@2@@std@@@2@V?$allocator@U?$pair@$$CBV?$basic_string@DU?$char_traits@D@std@@V?$allocator@D@2@@std@@V?$list@IV?$allocator@I@std@@@2@@std@@@2@$0A@@std@@@std@@QAEPAU?$_Tree_node@U?$pair@$$CBV?$basic_string@DU?$char_traits@D@std@@V?$allocator@D@2@@std@@V?$list@IV?$allocator@I@std@@@2@@std@@PAX@2@XZ 1000c8b0 f   ClientSession.obj
 0001:0000b8d0       __ehhandler$?_Buyheadnode@?$_Tree_comp_alloc@V?$_Tmap_traits@IPAVIClientSession@@U?$less@I@std@@V?$allocator@U?$pair@$$CBIPAVIClientSession@@@std@@@3@$0A@@std@@@std@@QAEPAU?$_Tree_node@U?$pair@$$CBIPAVIClientSession@@@std@@PAX@2@XZ 1000c8d0 f   ClientSession.obj
 0001:0000b8f0       __unwindfunclet$??$?0AAV?$basic_string@DU?$char_traits@D@std@@V?$allocator@D@2@@std@@AAV?$list@IV?$allocator@I@std@@@1@X$0A@@?$pair@V?$basic_string@DU?$char_traits@D@std@@V?$allocator@D@2@@std@@V?$list@IV?$allocator@I@std@@@2@@std@@QAE@AAV?$basic_string@DU?$char_traits@D@std@@V?$allocator@D@2@@1@AAV?$list@IV?$allocator@I@std@@@1@@Z$0 1000c8f0 f   ClientSession.obj
 0001:0000b8f0       __unwindfunclet$??$?0V?$basic_string@DU?$char_traits@D@std@@V?$allocator@D@2@@std@@V?$list@IV?$allocator@I@std@@@1@X$0A@@?$pair@$$CBV?$basic_string@DU?$char_traits@D@std@@V?$allocator@D@2@@std@@V?$list@IV?$allocator@I@std@@@2@@std@@QAE@ABU?$pair@V?$basic_string@DU?$char_traits@D@std@@V?$allocator@D@2@@std@@V?$list@IV?$allocator@I@std@@@2@@1@@Z$0 1000c8f0 f   ClientSession.obj
 0001:0000b8f8       __ehhandler$??$?0V?$basic_string@DU?$char_traits@D@std@@V?$allocator@D@2@@std@@V?$list@IV?$allocator@I@std@@@1@X$0A@@?$pair@$$CBV?$basic_string@DU?$char_traits@D@std@@V?$allocator@D@2@@std@@V?$list@IV?$allocator@I@std@@@2@@std@@QAE@ABU?$pair@V?$basic_string@DU?$char_traits@D@std@@V?$allocator@D@2@@std@@V?$list@IV?$allocator@I@std@@@2@@1@@Z 1000c8f8 f   ClientSession.obj
 0001:0000b8f8       __ehhandler$??$?0AAV?$basic_string@DU?$char_traits@D@std@@V?$allocator@D@2@@std@@AAV?$list@IV?$allocator@I@std@@@1@X$0A@@?$pair@V?$basic_string@DU?$char_traits@D@std@@V?$allocator@D@2@@std@@V?$list@IV?$allocator@I@std@@@2@@std@@QAE@AAV?$basic_string@DU?$char_traits@D@std@@V?$allocator@D@2@@1@AAV?$list@IV?$allocator@I@std@@@1@@Z 1000c8f8 f   ClientSession.obj
 0001:0000b920       __unwindfunclet$??0?$list@IV?$allocator@I@std@@@std@@QAE@ABV01@@Z$2 1000c920 f   ClientSession.obj
 0001:0000b928       __ehhandler$??0?$list@IV?$allocator@I@std@@@std@@QAE@ABV01@@Z 1000c928 f   ClientSession.obj
 0001:0000b950       __ehhandler$??$_Buynode@I@?$_List_buy@IV?$allocator@I@std@@@std@@QAEPAU?$_List_node@IPAX@1@PAU21@0$$QAI@Z 1000c950 f   ClientSession.obj
 0001:0000b950       __ehhandler$??$_Buynode@ABQAVIAccount@@@?$_List_buy@PAVIAccount@@V?$allocator@PAVIAccount@@@std@@@std@@QAEPAU?$_List_node@PAVIAccount@@PAX@1@PAU21@0ABQAVIAccount@@@Z 1000c950 f   ClientSession.obj
 0001:0000b950       __ehhandler$??$_Buynode@ABI@?$_List_buy@IV?$allocator@I@std@@@std@@QAEPAU?$_List_node@IPAX@1@PAU21@0ABI@Z 1000c950 f   ClientSession.obj
 0001:0000b970       __ehhandler$??$_Buynode@AAU?$pair@IPAVIClientSession@@@std@@@?$_Tree_comp_alloc@V?$_Tmap_traits@IPAVIClientSession@@U?$less@I@std@@V?$allocator@U?$pair@$$CBIPAVIClientSession@@@std@@@3@$0A@@std@@@std@@QAEPAU?$_Tree_node@U?$pair@$$CBIPAVIClientSession@@@std@@PAX@1@AAU?$pair@IPAVIClientSession@@@1@@Z 1000c970 f   ClientSession.obj
 0001:0000b990       __ehhandler$??$_Insert_nohint@AAU?$pair@$$CBIPAVIClientSession@@@std@@PAU?$_Tree_node@U?$pair@$$CBIPAVIClientSession@@@std@@PAX@2@@?$_Tree@V?$_Tmap_traits@IPAVIClientSession@@U?$less@I@std@@V?$allocator@U?$pair@$$CBIPAVIClientSession@@@std@@@3@$0A@@std@@@std@@IAE?AU?$pair@V?$_Tree_iterator@V?$_Tree_val@U?$_Tree_simple_types@U?$pair@$$CBIPAVIClientSession@@@std@@@std@@@std@@@std@@_N@1@_NAAU?$pair@$$CBIPAVIClientSession@@@1@PAU?$_Tree_node@U?$pair@$$CBIPAVIClientSession@@@std@@PAX@1@@Z 1000c990 f   ClientSession.obj
 0001:0000b9b0       __ehhandler$??$_Buynode@AAU?$pair@V?$basic_string@DU?$char_traits@D@std@@V?$allocator@D@2@@std@@V?$list@IV?$allocator@I@std@@@2@@std@@@?$_Tree_comp_alloc@V?$_Tmap_traits@V?$basic_string@DU?$char_traits@D@std@@V?$allocator@D@2@@std@@V?$list@IV?$allocator@I@std@@@2@U?$less@V?$basic_string@DU?$char_traits@D@std@@V?$allocator@D@2@@std@@@2@V?$allocator@U?$pair@$$CBV?$basic_string@DU?$char_traits@D@std@@V?$allocator@D@2@@std@@V?$list@IV?$allocator@I@std@@@2@@std@@@2@$0A@@std@@@std@@QAEPAU?$_Tree_node@U?$pair@$$CBV?$basic_string@DU?$char_traits@D@std@@V?$allocator@D@2@@std@@V?$list@IV?$allocator@I@std@@@2@@std@@PAX@1@AAU?$pair@V?$basic_string@DU?$char_traits@D@std@@V?$allocator@D@2@@std@@V?$list@IV?$allocator@I@std@@@2@@1@@Z 1000c9b0 f   ClientSession.obj
 0001:0000b9d0       __ehhandler$??$_Insert_nohint@AAU?$pair@$$CBV?$basic_string@DU?$char_traits@D@std@@V?$allocator@D@2@@std@@V?$list@IV?$allocator@I@std@@@2@@std@@PAU?$_Tree_node@U?$pair@$$CBV?$basic_string@DU?$char_traits@D@std@@V?$allocator@D@2@@std@@V?$list@IV?$allocator@I@std@@@2@@std@@PAX@2@@?$_Tree@V?$_Tmap_traits@V?$basic_string@DU?$char_traits@D@std@@V?$allocator@D@2@@std@@V?$list@IV?$allocator@I@std@@@2@U?$less@V?$basic_string@DU?$char_traits@D@std@@V?$allocator@D@2@@std@@@2@V?$allocator@U?$pair@$$CBV?$basic_string@DU?$char_traits@D@std@@V?$allocator@D@2@@std@@V?$list@IV?$allocator@I@std@@@2@@std@@@2@$0A@@std@@@std@@IAE?AU?$pair@V?$_Tree_iterator@V?$_Tree_val@U?$_Tree_simple_types@U?$pair@$$CBV?$basic_string@DU?$char_traits@D@std@@V?$allocator@D@2@@std@@V?$list@IV?$allocator@I@std@@@2@@std@@@std@@@std@@@std@@_N@1@_NAAU?$pair@$$CBV?$basic_string@DU?$char_traits@D@std@@V?$allocator@D@2@@std@@V?$list@IV?$allocator@I@std@@@2@@1@PAU?$_Tree_node@U?$pair@$$CBV?$basic_string@DU?$char_traits@D@std@@V?$allocator@D@2@@std@@V?$list@IV?$allocator@I@std@@@2@@std@@PAX@1@@Z 1000c9d0 f   ClientSession.obj
 0001:0000b9f0       __ehhandler$??$forward_as_tuple@ABI@std@@YA?AV?$tuple@ABI@0@ABI@Z 1000c9f0 f   ClientSession.obj
 0001:0000ba10       __ehhandler$??$_Insert_range@V?$_List_const_iterator@V?$_List_val@U?$_List_simple_types@I@std@@@std@@@std@@@?$list@IV?$allocator@I@std@@@std@@QAEXV?$_List_unchecked_const_iterator@V?$_List_val@U?$_List_simple_types@I@std@@@std@@U_Iterator_base0@2@@1@V?$_List_const_iterator@V?$_List_val@U?$_List_simple_types@I@std@@@std@@@1@1Uforward_iterator_tag@1@@Z 1000ca10 f   ClientSession.obj
 0001:0000ba30       __ehhandler$?_Buynode0@?$_Tree_comp_alloc@V?$_Tmap_traits@V?$basic_string@DU?$char_traits@D@std@@V?$allocator@D@2@@std@@V?$list@IV?$allocator@I@std@@@2@U?$less@V?$basic_string@DU?$char_traits@D@std@@V?$allocator@D@2@@std@@@2@V?$allocator@U?$pair@$$CBV?$basic_string@DU?$char_traits@D@std@@V?$allocator@D@2@@std@@V?$list@IV?$allocator@I@std@@@2@@std@@@2@$0A@@std@@@std@@QAEPAU?$_Tree_node@U?$pair@$$CBV?$basic_string@DU?$char_traits@D@std@@V?$allocator@D@2@@std@@V?$list@IV?$allocator@I@std@@@2@@std@@PAX@2@XZ 1000ca30 f   ClientSession.obj
 0001:0000ba50       __ehhandler$?_Buynode0@?$_Tree_comp_alloc@V?$_Tmap_traits@IPAVIClientSession@@U?$less@I@std@@V?$allocator@U?$pair@$$CBIPAVIClientSession@@@std@@@3@$0A@@std@@@std@@QAEPAU?$_Tree_node@U?$pair@$$CBIPAVIClientSession@@@std@@PAX@2@XZ 1000ca50 f   ClientSession.obj
 0001:0000ba70       __ehhandler$??$_Buynode@ABUpiecewise_construct_t@std@@V?$tuple@ABI@2@V?$tuple@$$V@2@@?$_Tree_comp_alloc@V?$_Tmap_traits@IPAVIClientSession@@U?$less@I@std@@V?$allocator@U?$pair@$$CBIPAVIClientSession@@@std@@@3@$0A@@std@@@std@@QAEPAU?$_Tree_node@U?$pair@$$CBIPAVIClientSession@@@std@@PAX@1@ABUpiecewise_construct_t@1@$$QAV?$tuple@ABI@1@$$QAV?$tuple@$$V@1@@Z 1000ca70 f   ClientSession.obj
 0001:0000ba90       __ehhandler$??$_Insert_hint@AAU?$pair@$$CBIPAVIClientSession@@@std@@PAU?$_Tree_node@U?$pair@$$CBIPAVIClientSession@@@std@@PAX@2@@?$_Tree@V?$_Tmap_traits@IPAVIClientSession@@U?$less@I@std@@V?$allocator@U?$pair@$$CBIPAVIClientSession@@@std@@@3@$0A@@std@@@std@@IAE?AV?$_Tree_iterator@V?$_Tree_val@U?$_Tree_simple_types@U?$pair@$$CBIPAVIClientSession@@@std@@@std@@@std@@@1@V?$_Tree_const_iterator@V?$_Tree_val@U?$_Tree_simple_types@U?$pair@$$CBIPAVIClientSession@@@std@@@std@@@std@@@1@AAU?$pair@$$CBIPAVIClientSession@@@1@PAU?$_Tree_node@U?$pair@$$CBIPAVIClientSession@@@std@@PAX@1@@Z 1000ca90 f   ClientSession.obj
 0001:0000bab0       __unwindfunclet$??$construct@U?$pair@$$CBIPAVIClientSession@@@std@@AAU?$pair@IPAVIClientSession@@@2@@?$allocator@U?$_Tree_node@U?$pair@$$CBIPAVIClientSession@@@std@@PAX@std@@@std@@QAEXPAU?$pair@$$CBIPAVIClientSession@@@1@AAU?$pair@IPAVIClientSession@@@1@@Z$0 1000cab0 f   ClientSession.obj
 0001:0000bab0       __unwindfunclet$??$construct@U?$pair@$$CBV?$basic_string@DU?$char_traits@D@std@@V?$allocator@D@2@@std@@V?$list@IV?$allocator@I@std@@@2@@std@@AAU?$pair@V?$basic_string@DU?$char_traits@D@std@@V?$allocator@D@2@@std@@V?$list@IV?$allocator@I@std@@@2@@2@@?$allocator@U?$_Tree_node@U?$pair@$$CBV?$basic_string@DU?$char_traits@D@std@@V?$allocator@D@2@@std@@V?$list@IV?$allocator@I@std@@@2@@std@@PAX@std@@@std@@QAEXPAU?$pair@$$CBV?$basic_string@DU?$char_traits@D@std@@V?$allocator@D@2@@std@@V?$list@IV?$allocator@I@std@@@2@@1@AAU?$pair@V?$basic_string@DU?$char_traits@D@std@@V?$allocator@D@2@@std@@V?$list@IV?$allocator@I@std@@@2@@1@@Z$0 1000cab0 f   ClientSession.obj
 0001:0000bac1       __ehhandler$??$construct@U?$pair@$$CBIPAVIClientSession@@@std@@AAU?$pair@IPAVIClientSession@@@2@@?$allocator@U?$_Tree_node@U?$pair@$$CBIPAVIClientSession@@@std@@PAX@std@@@std@@QAEXPAU?$pair@$$CBIPAVIClientSession@@@1@AAU?$pair@IPAVIClientSession@@@1@@Z 1000cac1 f   ClientSession.obj
 0001:0000bac1       __ehhandler$??$construct@U?$pair@$$CBV?$basic_string@DU?$char_traits@D@std@@V?$allocator@D@2@@std@@V?$list@IV?$allocator@I@std@@@2@@std@@AAU?$pair@V?$basic_string@DU?$char_traits@D@std@@V?$allocator@D@2@@std@@V?$list@IV?$allocator@I@std@@@2@@2@@?$allocator@U?$_Tree_node@U?$pair@$$CBV?$basic_string@DU?$char_traits@D@std@@V?$allocator@D@2@@std@@V?$list@IV?$allocator@I@std@@@2@@std@@PAX@std@@@std@@QAEXPAU?$pair@$$CBV?$basic_string@DU?$char_traits@D@std@@V?$allocator@D@2@@std@@V?$list@IV?$allocator@I@std@@@2@@1@AAU?$pair@V?$basic_string@DU?$char_traits@D@std@@V?$allocator@D@2@@std@@V?$list@IV?$allocator@I@std@@@2@@1@@Z 1000cac1 f   ClientSession.obj
 0001:0000bae0       __unwindfunclet$??$construct@U?$pair@$$CBIPAVIClientSession@@@std@@ABUpiecewise_construct_t@2@V?$tuple@ABI@2@V?$tuple@$$V@2@@?$allocator@U?$_Tree_node@U?$pair@$$CBIPAVIClientSession@@@std@@PAX@std@@@std@@QAEXPAU?$pair@$$CBIPAVIClientSession@@@1@ABUpiecewise_construct_t@1@$$QAV?$tuple@ABI@1@$$QAV?$tuple@$$V@1@@Z$0 1000cae0 f   ClientSession.obj
 0001:0000baf1       __ehhandler$??$construct@U?$pair@$$CBIPAVIClientSession@@@std@@ABUpiecewise_construct_t@2@V?$tuple@ABI@2@V?$tuple@$$V@2@@?$allocator@U?$_Tree_node@U?$pair@$$CBIPAVIClientSession@@@std@@PAX@std@@@std@@QAEXPAU?$pair@$$CBIPAVIClientSession@@@1@ABUpiecewise_construct_t@1@$$QAV?$tuple@ABI@1@$$QAV?$tuple@$$V@1@@Z 1000caf1 f   ClientSession.obj
 0001:0000bb10       __unwindfunclet$??0ServerProtocol@@QAE@XZ$0 1000cb10 f   ServerProtocolImpl.obj
 0001:0000bb18       __unwindfunclet$??0ServerProtocol@@QAE@XZ$1 1000cb18 f   ServerProtocolImpl.obj
 0001:0000bb27       __ehhandler$??0ServerProtocol@@QAE@XZ 1000cb27 f   ServerProtocolImpl.obj
 0001:0000bb50       __unwindfunclet$?CreateServerProtocol@@YGPAVIServerProtocol@@XZ$0 1000cb50 f   ServerProtocolImpl.obj
 0001:0000bb5f       __ehhandler$?CreateServerProtocol@@YGPAVIServerProtocol@@XZ 1000cb5f f   ServerProtocolImpl.obj
 0001:0000bb80       ??__F_AtlBaseModule@ATL@@YAXXZ 1000cb80 f   atls:atlbase.obj
 0002:00000128       ?_AtlBaseModule$initializer$@ATL@@3P6AXXZA 1000d128     atls:atlbase.obj
 0002:00000134       ?__scrt_initialize_tss_var@@3P6AHXZA 1000d134     MSVCRT:thread_safe_statics.obj
 0002:00000270       _GS_ExceptionPointers      1000d270     MSVCRT:gs_report.obj
 0002:000002d8       $SG4294967283              1000d2d8     ClientProtocolImpl.obj
 0002:000002e8       $SG4294967282              1000d2e8     ClientProtocolImpl.obj
 0002:000002f4       $SG4294967281              1000d2f4     ClientProtocolImpl.obj
 0002:000002ff       ?piecewise_construct@std@@3Upiecewise_construct_t@1@B 1000d2ff     ClientSession.obj
 0002:00000300       $SG4294967280              1000d300     ClientProtocolImpl.obj
 0002:00000314       $SG4294967279              1000d314     ClientProtocolImpl.obj
 0002:00000328       $SG4294967278              1000d328     ClientProtocolImpl.obj
 0002:0000033c       $SG4294967277              1000d33c     ClientProtocolImpl.obj
 0002:00000350       $SG4294967276              1000d350     ClientProtocolImpl.obj
 0002:00000360       $SG4294967275              1000d360     ClientProtocolImpl.obj
 0002:00000374       $SG4294967274              1000d374     ClientProtocolImpl.obj
 0002:00000388       $SG4294967273              1000d388     ClientProtocolImpl.obj
 0002:00000398       $SG4294967272              1000d398     ClientProtocolImpl.obj
 0002:000003a8       $SG4294967271              1000d3a8     ClientProtocolImpl.obj
 0002:000003bc       $SG4294967270              1000d3bc     ClientProtocolImpl.obj
 0002:000003d0       $SG4294967269              1000d3d0     ClientProtocolImpl.obj
 0002:000003e0       $SG4294967268              1000d3e0     ClientProtocolImpl.obj
 0002:000003f0       $SG4294967267              1000d3f0     ClientProtocolImpl.obj
 0002:00000400       $SG4294967266              1000d400     ClientProtocolImpl.obj
 0002:00000410       $SG4294967265              1000d410     ClientProtocolImpl.obj
 0002:0000041c       $SG4294967264              1000d41c     ClientProtocolImpl.obj
 0002:0000042c       $SG4294967263              1000d42c     ClientProtocolImpl.obj
 0002:00000440       $SG4294967262              1000d440     ClientProtocolImpl.obj
 0002:00000450       $SG4294967261              1000d450     ClientProtocolImpl.obj
 0002:00000460       $SG4294967216              1000d460     ClientProtocolImpl.obj
 0002:00000464       $SG4294967215              1000d464     ClientProtocolImpl.obj
 0002:00000468       $SG4294967214              1000d468     ClientProtocolImpl.obj
 0002:0000046c       $SG4294967213              1000d46c     ClientProtocolImpl.obj
 0002:00000470       $SG4294967212              1000d470     ClientProtocolImpl.obj
 0002:00000474       $SG4294967211              1000d474     ClientProtocolImpl.obj
 0002:00000480       $SG4294967210              1000d480     ClientProtocolImpl.obj
 0002:0000048c       $SG4294967209              1000d48c     ClientProtocolImpl.obj
 0002:00000494       $SG4294967208              1000d494     ClientProtocolImpl.obj
 0002:0000049c       $SG4294967207              1000d49c     ClientProtocolImpl.obj
 0002:000004a4       $SG4294967206              1000d4a4     ClientProtocolImpl.obj
 0002:000004bc       $SG4294967205              1000d4bc     ClientProtocolImpl.obj
 0002:000004c8       $SG4294967204              1000d4c8     ClientProtocolImpl.obj
 0002:000004d4       $SG4294967203              1000d4d4     ClientProtocolImpl.obj
 0002:000004e0       $SG4294967202              1000d4e0     ClientProtocolImpl.obj
 0002:000004e8       $SG4294967201              1000d4e8     ClientProtocolImpl.obj
 0002:000004ec       $SG4294967200              1000d4ec     ClientProtocolImpl.obj
 0002:000004f8       $SG4294967199              1000d4f8     ClientProtocolImpl.obj
 0002:00000500       $SG4294967198              1000d500     ClientProtocolImpl.obj
 0002:0000050c       $SG4294967197              1000d50c     ClientProtocolImpl.obj
 0002:00000514       $SG4294967142              1000d514     ClientProtocolImpl.obj
 0002:00000528       $SG4294967141              1000d528     ClientProtocolImpl.obj
 0002:00000540       $SG4294967048              1000d540     ClientProtocolImpl.obj
 0002:00000554       $SG4294967047              1000d554     ClientProtocolImpl.obj
 0002:0000056c       $SG4294967046              1000d56c     ClientProtocolImpl.obj
 0002:00000574       $SG4294967045              1000d574     ClientProtocolImpl.obj
 0002:0000057c       $SG4294967044              1000d57c     ClientProtocolImpl.obj
 0002:00000584       $SG4294967043              1000d584     ClientProtocolImpl.obj
 0002:00000588       $SG4294967042              1000d588     ClientProtocolImpl.obj
 0002:0000058c       $SG4294967041              1000d58c     ClientProtocolImpl.obj
 0002:00000590       $SG4294967040              1000d590     ClientProtocolImpl.obj
 0002:000005cc       $SG4294960263              1000d5cc     ClientSession.obj
 0002:000005e0       $SG4294960262              1000d5e0     ClientSession.obj
 0002:000005f8       $SG4294960261              1000d5f8     ClientSession.obj
 0002:00000600       $SG4294960260              1000d600     ClientSession.obj
 0002:00000608       $SG4294960259              1000d608     ClientSession.obj
 0002:00000610       $SG4294960258              1000d610     ClientSession.obj
 0002:00000614       $SG4294960257              1000d614     ClientSession.obj
 0002:00000618       $SG4294960256              1000d618     ClientSession.obj
 0002:0000061c       $SG4294960255              1000d61c     ClientSession.obj
 0002:0000062c       $SG4294960254              1000d62c     ClientSession.obj
 0002:00000638       $SG4294960253              1000d638     ClientSession.obj
 0002:00000644       $SG4294960252              1000d644     ClientSession.obj
 0002:00000658       $SG4294960251              1000d658     ClientSession.obj
 0002:0000066c       $SG4294960250              1000d66c     ClientSession.obj
 0002:00000680       $SG4294960249              1000d680     ClientSession.obj
 0002:00000694       $SG4294960248              1000d694     ClientSession.obj
 0002:000006a4       $SG4294960247              1000d6a4     ClientSession.obj
 0002:000006b8       $SG4294960246              1000d6b8     ClientSession.obj
 0002:000006cc       $SG4294960245              1000d6cc     ClientSession.obj
 0002:000006dc       $SG4294960244              1000d6dc     ClientSession.obj
 0002:000006ec       $SG4294960243              1000d6ec     ClientSession.obj
 0002:00000700       $SG4294960242              1000d700     ClientSession.obj
 0002:00000714       $SG4294960241              1000d714     ClientSession.obj
 0002:00000724       $SG4294960240              1000d724     ClientSession.obj
 0002:00000734       $SG4294960239              1000d734     ClientSession.obj
 0002:00000744       $SG4294960238              1000d744     ClientSession.obj
 0002:00000754       $SG4294960237              1000d754     ClientSession.obj
 0002:00000760       $SG4294960236              1000d760     ClientSession.obj
 0002:00000770       $SG4294960235              1000d770     ClientSession.obj
 0002:00000784       $SG4294960234              1000d784     ClientSession.obj
 0002:00000794       $SG4294960233              1000d794     ClientSession.obj
 0002:000007a4       $SG4294960188              1000d7a4     ClientSession.obj
 0002:000007a8       $SG4294960187              1000d7a8     ClientSession.obj
 0002:000007ac       $SG4294960186              1000d7ac     ClientSession.obj
 0002:000007b0       $SG4294960185              1000d7b0     ClientSession.obj
 0002:000007b4       $SG4294960184              1000d7b4     ClientSession.obj
 0002:000007b8       $SG4294960183              1000d7b8     ClientSession.obj
 0002:000007c4       $SG4294960182              1000d7c4     ClientSession.obj
 0002:000007d0       $SG4294960181              1000d7d0     ClientSession.obj
 0002:000007d8       $SG4294960180              1000d7d8     ClientSession.obj
 0002:000007e0       $SG4294960179              1000d7e0     ClientSession.obj
 0002:000007e8       $SG4294960178              1000d7e8     ClientSession.obj
 0002:00000800       $SG4294960177              1000d800     ClientSession.obj
 0002:0000080c       $SG4294960176              1000d80c     ClientSession.obj
 0002:00000818       $SG4294960175              1000d818     ClientSession.obj
 0002:00000824       $SG4294960174              1000d824     ClientSession.obj
 0002:0000082c       $SG4294960173              1000d82c     ClientSession.obj
 0002:00000830       $SG4294960172              1000d830     ClientSession.obj
 0002:0000083c       $SG4294960171              1000d83c     ClientSession.obj
 0002:00000844       $SG4294960170              1000d844     ClientSession.obj
 0002:00000850       $SG4294960169              1000d850     ClientSession.obj
 0002:00000858       $SG4294960116              1000d858     ClientSession.obj
 0002:0000086c       $SG4294960115              1000d86c     ClientSession.obj
 0002:00000884       $SG4294960106              1000d884     ClientSession.obj
 0002:000008c0       $SG4294952572              1000d8c0     ServerProtocolImpl.obj
 0002:000008d4       $SG4294952571              1000d8d4     ServerProtocolImpl.obj
 0002:000008ec       $SG4294952570              1000d8ec     ServerProtocolImpl.obj
 0002:000008f4       $SG4294952569              1000d8f4     ServerProtocolImpl.obj
 0002:000008fc       $SG4294952568              1000d8fc     ServerProtocolImpl.obj
 0002:00000904       $SG4294952567              1000d904     ServerProtocolImpl.obj
 0002:00000908       $SG4294952566              1000d908     ServerProtocolImpl.obj
 0002:0000090c       $SG4294952565              1000d90c     ServerProtocolImpl.obj
 0002:00000910       $SG4294952564              1000d910     ServerProtocolImpl.obj
 0002:00000920       $SG4294952563              1000d920     ServerProtocolImpl.obj
 0002:0000092c       $SG4294952562              1000d92c     ServerProtocolImpl.obj
 0002:00000938       $SG4294952561              1000d938     ServerProtocolImpl.obj
 0002:0000094c       $SG4294952560              1000d94c     ServerProtocolImpl.obj
 0002:00000960       $SG4294952559              1000d960     ServerProtocolImpl.obj
 0002:00000974       $SG4294952558              1000d974     ServerProtocolImpl.obj
 0002:00000988       $SG4294952557              1000d988     ServerProtocolImpl.obj
 0002:00000998       $SG4294952556              1000d998     ServerProtocolImpl.obj
 0002:000009ac       $SG4294952555              1000d9ac     ServerProtocolImpl.obj
 0002:000009c0       $SG4294952554              1000d9c0     ServerProtocolImpl.obj
 0002:000009d0       $SG4294952553              1000d9d0     ServerProtocolImpl.obj
 0002:000009e0       $SG4294952552              1000d9e0     ServerProtocolImpl.obj
 0002:000009f4       $SG4294952551              1000d9f4     ServerProtocolImpl.obj
 0002:00000a08       $SG4294952550              1000da08     ServerProtocolImpl.obj
 0002:00000a18       $SG4294952549              1000da18     ServerProtocolImpl.obj
 0002:00000a28       $SG4294952548              1000da28     ServerProtocolImpl.obj
 0002:00000a38       $SG4294952547              1000da38     ServerProtocolImpl.obj
 0002:00000a48       $SG4294952546              1000da48     ServerProtocolImpl.obj
 0002:00000a54       $SG4294952545              1000da54     ServerProtocolImpl.obj
 0002:00000a64       $SG4294952544              1000da64     ServerProtocolImpl.obj
 0002:00000a78       $SG4294952543              1000da78     ServerProtocolImpl.obj
 0002:00000a88       $SG4294952542              1000da88     ServerProtocolImpl.obj
 0002:00000a98       $SG4294952497              1000da98     ServerProtocolImpl.obj
 0002:00000a9c       $SG4294952496              1000da9c     ServerProtocolImpl.obj
 0002:00000aa0       $SG4294952495              1000daa0     ServerProtocolImpl.obj
 0002:00000aa4       $SG4294952494              1000daa4     ServerProtocolImpl.obj
 0002:00000aa8       $SG4294952493              1000daa8     ServerProtocolImpl.obj
 0002:00000aac       $SG4294952492              1000daac     ServerProtocolImpl.obj
 0002:00000ab8       $SG4294952491              1000dab8     ServerProtocolImpl.obj
 0002:00000ac4       $SG4294952490              1000dac4     ServerProtocolImpl.obj
 0002:00000acc       $SG4294952489              1000dacc     ServerProtocolImpl.obj
 0002:00000ad4       $SG4294952488              1000dad4     ServerProtocolImpl.obj
 0002:00000adc       $SG4294952487              1000dadc     ServerProtocolImpl.obj
 0002:00000af4       $SG4294952486              1000daf4     ServerProtocolImpl.obj
 0002:00000b00       $SG4294952485              1000db00     ServerProtocolImpl.obj
 0002:00000b0c       $SG4294952484              1000db0c     ServerProtocolImpl.obj
 0002:00000b18       $SG4294952483              1000db18     ServerProtocolImpl.obj
 0002:00000b20       $SG4294952482              1000db20     ServerProtocolImpl.obj
 0002:00000b24       $SG4294952481              1000db24     ServerProtocolImpl.obj
 0002:00000b30       $SG4294952480              1000db30     ServerProtocolImpl.obj
 0002:00000b38       $SG4294952479              1000db38     ServerProtocolImpl.obj
 0002:00000b44       $SG4294952478              1000db44     ServerProtocolImpl.obj
 0002:00000b4c       $SG4294952425              1000db4c     ServerProtocolImpl.obj
 0002:00000b60       $SG4294952424              1000db60     ServerProtocolImpl.obj
 0002:000016b0       __ehfuncinfo$??0ClientProtocol@@QAE@XZ 1000e6b0     ClientProtocolImpl.obj
 0002:000016d4       __unwindtable$??0ClientProtocol@@QAE@XZ 1000e6d4     ClientProtocolImpl.obj
 0002:000016dc       __ehfuncinfo$?end@?$list@IV?$allocator@I@std@@@std@@QAE?AV?$_List_iterator@V?$_List_val@U?$_List_simple_types@I@std@@@std@@@2@XZ 1000e6dc     ClientSession.obj
 0002:000016dc       __ehfuncinfo$??1?$_Tree_comp_alloc@V?$_Tmap_traits@IPAVIClientSession@@U?$less@I@std@@V?$allocator@U?$pair@$$CBIPAVIClientSession@@@std@@@3@$0A@@std@@@std@@QAE@XZ 1000e6dc     ClientSession.obj
 0002:000016dc       __ehfuncinfo$??1?$_Tree_comp_alloc@V?$_Tmap_traits@V?$basic_string@DU?$char_traits@D@std@@V?$allocator@D@2@@std@@V?$list@IV?$allocator@I@std@@@2@U?$less@V?$basic_string@DU?$char_traits@D@std@@V?$allocator@D@2@@std@@@2@V?$allocator@U?$pair@$$CBV?$basic_string@DU?$char_traits@D@std@@V?$allocator@D@2@@std@@V?$list@IV?$allocator@I@std@@@2@@std@@@2@$0A@@std@@@std@@QAE@XZ 1000e6dc     ClientSession.obj
 0002:000016dc       __ehfuncinfo$??1?$_List_alloc@U?$_List_base_types@IV?$allocator@I@std@@@std@@@std@@QAE@XZ 1000e6dc     ClientSession.obj
 0002:000016dc       __ehfuncinfo$?begin@?$list@IV?$allocator@I@std@@@std@@QAE?AV?$_List_iterator@V?$_List_val@U?$_List_simple_types@I@std@@@std@@@2@XZ 1000e6dc     ClientSession.obj
 0002:000016dc       __ehfuncinfo$??1?$_List_alloc@U?$_List_base_types@PAVIAccount@@V?$allocator@PAVIAccount@@@std@@@std@@@std@@QAE@XZ 1000e6dc     ClientSession.obj
 0002:000016dc       __ehfuncinfo$?_Make_iter@?$list@PAVIAccount@@V?$allocator@PAVIAccount@@@std@@@std@@QBE?AV?$_List_iterator@V?$_List_val@U?$_List_simple_types@PAVIAccount@@@std@@@std@@@2@V?$_List_const_iterator@V?$_List_val@U?$_List_simple_types@PAVIAccount@@@std@@@std@@@2@@Z 1000e6dc     ClientSession.obj
 0002:000016dc       __ehfuncinfo$?c_str@?$basic_string@DU?$char_traits@D@std@@V?$allocator@D@2@@std@@QBEPBDXZ 1000e6dc     ClientSession.obj
 0002:000016dc       __ehfuncinfo$?compare@?$basic_string@DU?$char_traits@D@std@@V?$allocator@D@2@@std@@QBEHABV12@@Z 1000e6dc     ClientSession.obj
 0002:000016dc       __ehfuncinfo$??1?$list@PAVIAccount@@V?$allocator@PAVIAccount@@@std@@@std@@QAE@XZ 1000e6dc     ClientSession.obj
 0002:000016dc       __ehfuncinfo$??1?$list@IV?$allocator@I@std@@@std@@QAE@XZ 1000e6dc     ClientSession.obj
 0002:000016dc       __ehfuncinfo$??1?$_Tree@V?$_Tmap_traits@IPAVIClientSession@@U?$less@I@std@@V?$allocator@U?$pair@$$CBIPAVIClientSession@@@std@@@3@$0A@@std@@@std@@QAE@XZ 1000e6dc     ClientSession.obj
 0002:000016dc       __ehfuncinfo$?begin@?$_Tree@V?$_Tmap_traits@IPAVIClientSession@@U?$less@I@std@@V?$allocator@U?$pair@$$CBIPAVIClientSession@@@std@@@3@$0A@@std@@@std@@QAE?AV?$_Tree_iterator@V?$_Tree_val@U?$_Tree_simple_types@U?$pair@$$CBIPAVIClientSession@@@std@@@std@@@std@@@2@XZ 1000e6dc     ClientSession.obj
 0002:000016dc       __ehfuncinfo$?end@?$_Tree@V?$_Tmap_traits@IPAVIClientSession@@U?$less@I@std@@V?$allocator@U?$pair@$$CBIPAVIClientSession@@@std@@@3@$0A@@std@@@std@@QAE?AV?$_Tree_iterator@V?$_Tree_val@U?$_Tree_simple_types@U?$pair@$$CBIPAVIClientSession@@@std@@@std@@@std@@@2@XZ 1000e6dc     ClientSession.obj
 0002:000016dc       __ehfuncinfo$?clear@?$_Tree@V?$_Tmap_traits@IPAVIClientSession@@U?$less@I@std@@V?$allocator@U?$pair@$$CBIPAVIClientSession@@@std@@@3@$0A@@std@@@std@@QAEXXZ 1000e6dc     ClientSession.obj
 0002:000016dc       __ehfuncinfo$??1?$_Tree@V?$_Tmap_traits@V?$basic_string@DU?$char_traits@D@std@@V?$allocator@D@2@@std@@V?$list@IV?$allocator@I@std@@@2@U?$less@V?$basic_string@DU?$char_traits@D@std@@V?$allocator@D@2@@std@@@2@V?$allocator@U?$pair@$$CBV?$basic_string@DU?$char_traits@D@std@@V?$allocator@D@2@@std@@V?$list@IV?$allocator@I@std@@@2@@std@@@2@$0A@@std@@@std@@QAE@XZ 1000e6dc     ClientSession.obj
 0002:000016dc       __ehfuncinfo$?end@?$_Tree@V?$_Tmap_traits@V?$basic_string@DU?$char_traits@D@std@@V?$allocator@D@2@@std@@V?$list@IV?$allocator@I@std@@@2@U?$less@V?$basic_string@DU?$char_traits@D@std@@V?$allocator@D@2@@std@@@2@V?$allocator@U?$pair@$$CBV?$basic_string@DU?$char_traits@D@std@@V?$allocator@D@2@@std@@V?$list@IV?$allocator@I@std@@@2@@std@@@2@$0A@@std@@@std@@QAE?AV?$_Tree_iterator@V?$_Tree_val@U?$_Tree_simple_types@U?$pair@$$CBV?$basic_string@DU?$char_traits@D@std@@V?$allocator@D@2@@std@@V?$list@IV?$allocator@I@std@@@2@@std@@@std@@@std@@@2@XZ 1000e6dc     ClientSession.obj
 0002:000016dc       __ehfuncinfo$?begin@?$_Tree@V?$_Tmap_traits@V?$basic_string@DU?$char_traits@D@std@@V?$allocator@D@2@@std@@V?$list@IV?$allocator@I@std@@@2@U?$less@V?$basic_string@DU?$char_traits@D@std@@V?$allocator@D@2@@std@@@2@V?$allocator@U?$pair@$$CBV?$basic_string@DU?$char_traits@D@std@@V?$allocator@D@2@@std@@V?$list@IV?$allocator@I@std@@@2@@std@@@2@$0A@@std@@@std@@QAE?AV?$_Tree_iterator@V?$_Tree_val@U?$_Tree_simple_types@U?$pair@$$CBV?$basic_string@DU?$char_traits@D@std@@V?$allocator@D@2@@std@@V?$list@IV?$allocator@I@std@@@2@@std@@@std@@@std@@@2@XZ 1000e6dc     ClientSession.obj
 0002:000016dc       __ehfuncinfo$?clear@?$list@IV?$allocator@I@std@@@std@@QAEXXZ 1000e6dc     ClientSession.obj
 0002:000016dc       __ehfuncinfo$?_Make_iter@?$list@IV?$allocator@I@std@@@std@@QBE?AV?$_List_iterator@V?$_List_val@U?$_List_simple_types@I@std@@@std@@@2@V?$_List_const_iterator@V?$_List_val@U?$_List_simple_types@I@std@@@std@@@2@@Z 1000e6dc     ClientSession.obj
 0002:000016dc       __ehfuncinfo$?clear@?$list@PAVIAccount@@V?$allocator@PAVIAccount@@@std@@@std@@QAEXXZ 1000e6dc     ClientSession.obj
 0002:000016dc       __ehfuncinfo$?clear@?$_Tree@V?$_Tmap_traits@V?$basic_string@DU?$char_traits@D@std@@V?$allocator@D@2@@std@@V?$list@IV?$allocator@I@std@@@2@U?$less@V?$basic_string@DU?$char_traits@D@std@@V?$allocator@D@2@@std@@@2@V?$allocator@U?$pair@$$CBV?$basic_string@DU?$char_traits@D@std@@V?$allocator@D@2@@std@@V?$list@IV?$allocator@I@std@@@2@@std@@@2@$0A@@std@@@std@@QAEXXZ 1000e6dc     ClientSession.obj
 0002:000016dc       __ehfuncinfo$??1ServerProtocol@@UAE@XZ 1000e6dc     ServerProtocolImpl.obj
 0002:000016dc       __ehfuncinfo$??$forward_as_tuple@ABI@std@@YA?AV?$tuple@ABI@0@ABI@Z 1000e6dc     ClientSession.obj
 0002:000016dc       __ehfuncinfo$?begin@?$list@IV?$allocator@I@std@@@std@@QBE?AV?$_List_const_iterator@V?$_List_val@U?$_List_simple_types@I@std@@@std@@@2@XZ 1000e6dc     ClientSession.obj
 0002:000016dc       __ehfuncinfo$??1ClientSessionMgr@@UAE@XZ 1000e6dc     ClientSession.obj
 0002:000016dc       __ehfuncinfo$??1?$basic_string@DU?$char_traits@D@std@@V?$allocator@D@2@@std@@QAE@XZ 1000e6dc     ClientProtocolImpl.obj
 0002:000016dc       __ehfuncinfo$??1ClientProtocol@@UAE@XZ 1000e6dc     ClientProtocolImpl.obj
 0002:000016dc       __ehfuncinfo$??0?$basic_string@DU?$char_traits@D@std@@V?$allocator@D@2@@std@@QAE@XZ 1000e6dc     ClientSession.obj
 0002:000016dc       __ehfuncinfo$?end@?$list@IV?$allocator@I@std@@@std@@QBE?AV?$_List_const_iterator@V?$_List_val@U?$_List_simple_types@I@std@@@std@@@2@XZ 1000e6dc     ClientSession.obj
 0002:00001700       __ehfuncinfo$?Connect@ClientProtocol@@UAE_NPADGI@Z 1000e700     ClientProtocolImpl.obj
 0002:00001724       __unwindtable$?Connect@ClientProtocol@@UAE_NPADGI@Z 1000e724     ClientProtocolImpl.obj
 0002:0000172c       __ehfuncinfo$?CreateClientProtocol@@YGPAVIClientProtocol@@XZ 1000e72c     ClientProtocolImpl.obj
 0002:00001750       __unwindtable$?CreateClientProtocol@@YGPAVIClientProtocol@@XZ 1000e750     ClientProtocolImpl.obj
 0002:00001758       __ehfuncinfo$??0?$basic_string@DU?$char_traits@D@std@@V?$allocator@D@2@@std@@QAE@PBD@Z 1000e758     ClientProtocolImpl.obj
 0002:0000177c       __unwindtable$??0?$basic_string@DU?$char_traits@D@std@@V?$allocator@D@2@@std@@QAE@PBD@Z 1000e77c     ClientProtocolImpl.obj
 0002:00001784       __ehfuncinfo$?_Copy@?$basic_string@DU?$char_traits@D@std@@V?$allocator@D@2@@std@@QAEXII@Z 1000e784     ClientProtocolImpl.obj
 0002:000017a8       __unwindtable$?_Copy@?$basic_string@DU?$char_traits@D@std@@V?$allocator@D@2@@std@@QAEXII@Z 1000e7a8     ClientProtocolImpl.obj
 0002:000017c8       __tryblocktable$?_Copy@?$basic_string@DU?$char_traits@D@std@@V?$allocator@D@2@@std@@QAEXII@Z 1000e7c8     ClientProtocolImpl.obj
 0002:000017f0       __catchsym$?_Copy@?$basic_string@DU?$char_traits@D@std@@V?$allocator@D@2@@std@@QAEXII@Z$4 1000e7f0     ClientProtocolImpl.obj
 0002:00001800       __catchsym$?_Copy@?$basic_string@DU?$char_traits@D@std@@V?$allocator@D@2@@std@@QAEXII@Z$5 1000e800     ClientProtocolImpl.obj
 0002:00001810       __ehfuncinfo$??0ClientSession@@QAE@IPADG@Z 1000e810     ClientSession.obj
 0002:00001834       __unwindtable$??0ClientSession@@QAE@IPADG@Z 1000e834     ClientSession.obj
 0002:00001844       __ehfuncinfo$??0ClientSessionMgr@@QAE@PAVIServerProtocol@@@Z 1000e844     ClientSession.obj
 0002:00001868       __unwindtable$??0ClientSessionMgr@@QAE@PAVIServerProtocol@@@Z 1000e868     ClientSession.obj
 0002:00001878       __ehfuncinfo$?Add@ClientSessionMgr@@UAEXIPADG@Z 1000e878     ClientSession.obj
 0002:0000189c       __unwindtable$?Add@ClientSessionMgr@@UAEXIPADG@Z 1000e89c     ClientSession.obj
 0002:000018a4       __ehfuncinfo$?AddUserName@ClientSessionMgr@@UAEXIV?$basic_string@DU?$char_traits@D@std@@V?$allocator@D@2@@std@@@Z 1000e8a4     ClientSession.obj
 0002:000018c8       __unwindtable$?AddUserName@ClientSessionMgr@@UAEXIV?$basic_string@DU?$char_traits@D@std@@V?$allocator@D@2@@std@@@Z 1000e8c8     ClientSession.obj
 0002:000018e0       __ehfuncinfo$?Remove@ClientSessionMgr@@UAEXI@Z 1000e8e0     ClientSession.obj
 0002:00001904       __unwindtable$?Remove@ClientSessionMgr@@UAEXI@Z 1000e904     ClientSession.obj
 0002:0000190c       __ehfuncinfo$?GetClientSessionList@ClientSessionMgr@@UAEPAV?$list@IV?$allocator@I@std@@@std@@V?$basic_string@DU?$char_traits@D@std@@V?$allocator@D@2@@3@@Z 1000e90c     ClientSession.obj
 0002:00001930       __unwindtable$?GetClientSessionList@ClientSessionMgr@@UAEPAV?$list@IV?$allocator@I@std@@@std@@V?$basic_string@DU?$char_traits@D@std@@V?$allocator@D@2@@3@@Z 1000e930     ClientSession.obj
 0002:00001938       __ehfuncinfo$??0?$basic_string@DU?$char_traits@D@std@@V?$allocator@D@2@@std@@QAE@ABV01@@Z 1000e938     ClientSession.obj
 0002:0000195c       __unwindtable$??0?$basic_string@DU?$char_traits@D@std@@V?$allocator@D@2@@std@@QAE@ABV01@@Z 1000e95c     ClientSession.obj
 0002:00001964       __ehfuncinfo$?_Buynode0@?$_List_alloc@U?$_List_base_types@PAVIAccount@@V?$allocator@PAVIAccount@@@std@@@std@@@std@@QAEPAU?$_List_node@PAVIAccount@@PAX@2@PAU32@0@Z 1000e964     ClientSession.obj
 0002:00001964       __ehfuncinfo$?_Buynode0@?$_List_alloc@U?$_List_base_types@IV?$allocator@I@std@@@std@@@std@@QAEPAU?$_List_node@IPAX@2@PAU32@0@Z 1000e964     ClientSession.obj
 0002:00001988       __unwindtable$?_Buynode0@?$_List_alloc@U?$_List_base_types@IV?$allocator@I@std@@@std@@@std@@QAEPAU?$_List_node@IPAX@2@PAU32@0@Z 1000e988     ClientSession.obj
 0002:00001988       __unwindtable$?_Buynode0@?$_List_alloc@U?$_List_base_types@PAVIAccount@@V?$allocator@PAVIAccount@@@std@@@std@@@std@@QAEPAU?$_List_node@PAVIAccount@@PAX@2@PAU32@0@Z 1000e988     ClientSession.obj
 0002:00001998       __tryblocktable$?_Buynode0@?$_List_alloc@U?$_List_base_types@PAVIAccount@@V?$allocator@PAVIAccount@@@std@@@std@@@std@@QAEPAU?$_List_node@PAVIAccount@@PAX@2@PAU32@0@Z 1000e998     ClientSession.obj
 0002:00001998       __tryblocktable$?_Buynode0@?$_List_alloc@U?$_List_base_types@IV?$allocator@I@std@@@std@@@std@@QAEPAU?$_List_node@IPAX@2@PAU32@0@Z 1000e998     ClientSession.obj
 0002:000019ac       __catchsym$?_Buynode0@?$_List_alloc@U?$_List_base_types@IV?$allocator@I@std@@@std@@@std@@QAEPAU?$_List_node@IPAX@2@PAU32@0@Z$2 1000e9ac     ClientSession.obj
 0002:000019ac       __catchsym$?_Buynode0@?$_List_alloc@U?$_List_base_types@PAVIAccount@@V?$allocator@PAVIAccount@@@std@@@std@@@std@@QAEPAU?$_List_node@PAVIAccount@@PAX@2@PAU32@0@Z$2 1000e9ac     ClientSession.obj
 0002:000019bc       __ehfuncinfo$?_Buyheadnode@?$_Tree_comp_alloc@V?$_Tmap_traits@V?$basic_string@DU?$char_traits@D@std@@V?$allocator@D@2@@std@@V?$list@IV?$allocator@I@std@@@2@U?$less@V?$basic_string@DU?$char_traits@D@std@@V?$allocator@D@2@@std@@@2@V?$allocator@U?$pair@$$CBV?$basic_string@DU?$char_traits@D@std@@V?$allocator@D@2@@std@@V?$list@IV?$allocator@I@std@@@2@@std@@@2@$0A@@std@@@std@@QAEPAU?$_Tree_node@U?$pair@$$CBV?$basic_string@DU?$char_traits@D@std@@V?$allocator@D@2@@std@@V?$list@IV?$allocator@I@std@@@2@@std@@PAX@2@XZ 1000e9bc     ClientSession.obj
 0002:000019e0       __unwindtable$?_Buyheadnode@?$_Tree_comp_alloc@V?$_Tmap_traits@V?$basic_string@DU?$char_traits@D@std@@V?$allocator@D@2@@std@@V?$list@IV?$allocator@I@std@@@2@U?$less@V?$basic_string@DU?$char_traits@D@std@@V?$allocator@D@2@@std@@@2@V?$allocator@U?$pair@$$CBV?$basic_string@DU?$char_traits@D@std@@V?$allocator@D@2@@std@@V?$list@IV?$allocator@I@std@@@2@@std@@@2@$0A@@std@@@std@@QAEPAU?$_Tree_node@U?$pair@$$CBV?$basic_string@DU?$char_traits@D@std@@V?$allocator@D@2@@std@@V?$list@IV?$allocator@I@std@@@2@@std@@PAX@2@XZ 1000e9e0     ClientSession.obj
 0002:000019f0       __tryblocktable$?_Buyheadnode@?$_Tree_comp_alloc@V?$_Tmap_traits@V?$basic_string@DU?$char_traits@D@std@@V?$allocator@D@2@@std@@V?$list@IV?$allocator@I@std@@@2@U?$less@V?$basic_string@DU?$char_traits@D@std@@V?$allocator@D@2@@std@@@2@V?$allocator@U?$pair@$$CBV?$basic_string@DU?$char_traits@D@std@@V?$allocator@D@2@@std@@V?$list@IV?$allocator@I@std@@@2@@std@@@2@$0A@@std@@@std@@QAEPAU?$_Tree_node@U?$pair@$$CBV?$basic_string@DU?$char_traits@D@std@@V?$allocator@D@2@@std@@V?$list@IV?$allocator@I@std@@@2@@std@@PAX@2@XZ 1000e9f0     ClientSession.obj
 0002:00001a04       __catchsym$?_Buyheadnode@?$_Tree_comp_alloc@V?$_Tmap_traits@V?$basic_string@DU?$char_traits@D@std@@V?$allocator@D@2@@std@@V?$list@IV?$allocator@I@std@@@2@U?$less@V?$basic_string@DU?$char_traits@D@std@@V?$allocator@D@2@@std@@@2@V?$allocator@U?$pair@$$CBV?$basic_string@DU?$char_traits@D@std@@V?$allocator@D@2@@std@@V?$list@IV?$allocator@I@std@@@2@@std@@@2@$0A@@std@@@std@@QAEPAU?$_Tree_node@U?$pair@$$CBV?$basic_string@DU?$char_traits@D@std@@V?$allocator@D@2@@std@@V?$list@IV?$allocator@I@std@@@2@@std@@PAX@2@XZ$2 1000ea04     ClientSession.obj
 0002:00001a14       __ehfuncinfo$?_Buyheadnode@?$_Tree_comp_alloc@V?$_Tmap_traits@IPAVIClientSession@@U?$less@I@std@@V?$allocator@U?$pair@$$CBIPAVIClientSession@@@std@@@3@$0A@@std@@@std@@QAEPAU?$_Tree_node@U?$pair@$$CBIPAVIClientSession@@@std@@PAX@2@XZ 1000ea14     ClientSession.obj
 0002:00001a38       __unwindtable$?_Buyheadnode@?$_Tree_comp_alloc@V?$_Tmap_traits@IPAVIClientSession@@U?$less@I@std@@V?$allocator@U?$pair@$$CBIPAVIClientSession@@@std@@@3@$0A@@std@@@std@@QAEPAU?$_Tree_node@U?$pair@$$CBIPAVIClientSession@@@std@@PAX@2@XZ 1000ea38     ClientSession.obj
 0002:00001a48       __tryblocktable$?_Buyheadnode@?$_Tree_comp_alloc@V?$_Tmap_traits@IPAVIClientSession@@U?$less@I@std@@V?$allocator@U?$pair@$$CBIPAVIClientSession@@@std@@@3@$0A@@std@@@std@@QAEPAU?$_Tree_node@U?$pair@$$CBIPAVIClientSession@@@std@@PAX@2@XZ 1000ea48     ClientSession.obj
 0002:00001a5c       __catchsym$?_Buyheadnode@?$_Tree_comp_alloc@V?$_Tmap_traits@IPAVIClientSession@@U?$less@I@std@@V?$allocator@U?$pair@$$CBIPAVIClientSession@@@std@@@3@$0A@@std@@@std@@QAEPAU?$_Tree_node@U?$pair@$$CBIPAVIClientSession@@@std@@PAX@2@XZ$2 1000ea5c     ClientSession.obj
 0002:00001a6c       __ehfuncinfo$??$?0V?$basic_string@DU?$char_traits@D@std@@V?$allocator@D@2@@std@@V?$list@IV?$allocator@I@std@@@1@X$0A@@?$pair@$$CBV?$basic_string@DU?$char_traits@D@std@@V?$allocator@D@2@@std@@V?$list@IV?$allocator@I@std@@@2@@std@@QAE@ABU?$pair@V?$basic_string@DU?$char_traits@D@std@@V?$allocator@D@2@@std@@V?$list@IV?$allocator@I@std@@@2@@1@@Z 1000ea6c     ClientSession.obj
 0002:00001a6c       __ehfuncinfo$??$?0AAV?$basic_string@DU?$char_traits@D@std@@V?$allocator@D@2@@std@@AAV?$list@IV?$allocator@I@std@@@1@X$0A@@?$pair@V?$basic_string@DU?$char_traits@D@std@@V?$allocator@D@2@@std@@V?$list@IV?$allocator@I@std@@@2@@std@@QAE@AAV?$basic_string@DU?$char_traits@D@std@@V?$allocator@D@2@@1@AAV?$list@IV?$allocator@I@std@@@1@@Z 1000ea6c     ClientSession.obj
 0002:00001a90       __unwindtable$??$?0AAV?$basic_string@DU?$char_traits@D@std@@V?$allocator@D@2@@std@@AAV?$list@IV?$allocator@I@std@@@1@X$0A@@?$pair@V?$basic_string@DU?$char_traits@D@std@@V?$allocator@D@2@@std@@V?$list@IV?$allocator@I@std@@@2@@std@@QAE@AAV?$basic_string@DU?$char_traits@D@std@@V?$allocator@D@2@@1@AAV?$list@IV?$allocator@I@std@@@1@@Z 1000ea90     ClientSession.obj
 0002:00001a90       __unwindtable$??$?0V?$basic_string@DU?$char_traits@D@std@@V?$allocator@D@2@@std@@V?$list@IV?$allocator@I@std@@@1@X$0A@@?$pair@$$CBV?$basic_string@DU?$char_traits@D@std@@V?$allocator@D@2@@std@@V?$list@IV?$allocator@I@std@@@2@@std@@QAE@ABU?$pair@V?$basic_string@DU?$char_traits@D@std@@V?$allocator@D@2@@std@@V?$list@IV?$allocator@I@std@@@2@@1@@Z 1000ea90     ClientSession.obj
 0002:00001a98       __ehfuncinfo$??0?$list@IV?$allocator@I@std@@@std@@QAE@ABV01@@Z 1000ea98     ClientSession.obj
 0002:00001abc       __unwindtable$??0?$list@IV?$allocator@I@std@@@std@@QAE@ABV01@@Z 1000eabc     ClientSession.obj
 0002:00001ad4       __tryblocktable$??0?$list@IV?$allocator@I@std@@@std@@QAE@ABV01@@Z 1000ead4     ClientSession.obj
 0002:00001ae8       __catchsym$??0?$list@IV?$allocator@I@std@@@std@@QAE@ABV01@@Z$3 1000eae8     ClientSession.obj
 0002:00001af8       __ehfuncinfo$??$_Buynode@I@?$_List_buy@IV?$allocator@I@std@@@std@@QAEPAU?$_List_node@IPAX@1@PAU21@0$$QAI@Z 1000eaf8     ClientSession.obj
 0002:00001af8       __ehfuncinfo$??$_Buynode@ABQAVIAccount@@@?$_List_buy@PAVIAccount@@V?$allocator@PAVIAccount@@@std@@@std@@QAEPAU?$_List_node@PAVIAccount@@PAX@1@PAU21@0ABQAVIAccount@@@Z 1000eaf8     ClientSession.obj
 0002:00001af8       __ehfuncinfo$??$_Buynode@ABI@?$_List_buy@IV?$allocator@I@std@@@std@@QAEPAU?$_List_node@IPAX@1@PAU21@0ABI@Z 1000eaf8     ClientSession.obj
 0002:00001b1c       __unwindtable$??$_Buynode@ABI@?$_List_buy@IV?$allocator@I@std@@@std@@QAEPAU?$_List_node@IPAX@1@PAU21@0ABI@Z 1000eb1c     ClientSession.obj
 0002:00001b1c       __unwindtable$??$_Buynode@I@?$_List_buy@IV?$allocator@I@std@@@std@@QAEPAU?$_List_node@IPAX@1@PAU21@0$$QAI@Z 1000eb1c     ClientSession.obj
 0002:00001b1c       __unwindtable$??$_Buynode@ABQAVIAccount@@@?$_List_buy@PAVIAccount@@V?$allocator@PAVIAccount@@@std@@@std@@QAEPAU?$_List_node@PAVIAccount@@PAX@1@PAU21@0ABQAVIAccount@@@Z 1000eb1c     ClientSession.obj
 0002:00001b2c       __tryblocktable$??$_Buynode@I@?$_List_buy@IV?$allocator@I@std@@@std@@QAEPAU?$_List_node@IPAX@1@PAU21@0$$QAI@Z 1000eb2c     ClientSession.obj
 0002:00001b2c       __tryblocktable$??$_Buynode@ABI@?$_List_buy@IV?$allocator@I@std@@@std@@QAEPAU?$_List_node@IPAX@1@PAU21@0ABI@Z 1000eb2c     ClientSession.obj
 0002:00001b2c       __tryblocktable$??$_Buynode@ABQAVIAccount@@@?$_List_buy@PAVIAccount@@V?$allocator@PAVIAccount@@@std@@@std@@QAEPAU?$_List_node@PAVIAccount@@PAX@1@PAU21@0ABQAVIAccount@@@Z 1000eb2c     ClientSession.obj
 0002:00001b40       __catchsym$??$_Buynode@I@?$_List_buy@IV?$allocator@I@std@@@std@@QAEPAU?$_List_node@IPAX@1@PAU21@0$$QAI@Z$2 1000eb40     ClientSession.obj
 0002:00001b40       __catchsym$??$_Buynode@ABI@?$_List_buy@IV?$allocator@I@std@@@std@@QAEPAU?$_List_node@IPAX@1@PAU21@0ABI@Z$2 1000eb40     ClientSession.obj
 0002:00001b40       __catchsym$??$_Buynode@ABQAVIAccount@@@?$_List_buy@PAVIAccount@@V?$allocator@PAVIAccount@@@std@@@std@@QAEPAU?$_List_node@PAVIAccount@@PAX@1@PAU21@0ABQAVIAccount@@@Z$2 1000eb40     ClientSession.obj
 0002:00001b50       __ehfuncinfo$??$_Buynode@AAU?$pair@IPAVIClientSession@@@std@@@?$_Tree_comp_alloc@V?$_Tmap_traits@IPAVIClientSession@@U?$less@I@std@@V?$allocator@U?$pair@$$CBIPAVIClientSession@@@std@@@3@$0A@@std@@@std@@QAEPAU?$_Tree_node@U?$pair@$$CBIPAVIClientSession@@@std@@PAX@1@AAU?$pair@IPAVIClientSession@@@1@@Z 1000eb50     ClientSession.obj
 0002:00001b74       __unwindtable$??$_Buynode@AAU?$pair@IPAVIClientSession@@@std@@@?$_Tree_comp_alloc@V?$_Tmap_traits@IPAVIClientSession@@U?$less@I@std@@V?$allocator@U?$pair@$$CBIPAVIClientSession@@@std@@@3@$0A@@std@@@std@@QAEPAU?$_Tree_node@U?$pair@$$CBIPAVIClientSession@@@std@@PAX@1@AAU?$pair@IPAVIClientSession@@@1@@Z 1000eb74     ClientSession.obj
 0002:00001b84       __tryblocktable$??$_Buynode@AAU?$pair@IPAVIClientSession@@@std@@@?$_Tree_comp_alloc@V?$_Tmap_traits@IPAVIClientSession@@U?$less@I@std@@V?$allocator@U?$pair@$$CBIPAVIClientSession@@@std@@@3@$0A@@std@@@std@@QAEPAU?$_Tree_node@U?$pair@$$CBIPAVIClientSession@@@std@@PAX@1@AAU?$pair@IPAVIClientSession@@@1@@Z 1000eb84     ClientSession.obj
 0002:00001b98       __catchsym$??$_Buynode@AAU?$pair@IPAVIClientSession@@@std@@@?$_Tree_comp_alloc@V?$_Tmap_traits@IPAVIClientSession@@U?$less@I@std@@V?$allocator@U?$pair@$$CBIPAVIClientSession@@@std@@@3@$0A@@std@@@std@@QAEPAU?$_Tree_node@U?$pair@$$CBIPAVIClientSession@@@std@@PAX@1@AAU?$pair@IPAVIClientSession@@@1@@Z$2 1000eb98     ClientSession.obj
 0002:00001ba8       __ehfuncinfo$??$_Insert_nohint@AAU?$pair@$$CBIPAVIClientSession@@@std@@PAU?$_Tree_node@U?$pair@$$CBIPAVIClientSession@@@std@@PAX@2@@?$_Tree@V?$_Tmap_traits@IPAVIClientSession@@U?$less@I@std@@V?$allocator@U?$pair@$$CBIPAVIClientSession@@@std@@@3@$0A@@std@@@std@@IAE?AU?$pair@V?$_Tree_iterator@V?$_Tree_val@U?$_Tree_simple_types@U?$pair@$$CBIPAVIClientSession@@@std@@@std@@@std@@@std@@_N@1@_NAAU?$pair@$$CBIPAVIClientSession@@@1@PAU?$_Tree_node@U?$pair@$$CBIPAVIClientSession@@@std@@PAX@1@@Z 1000eba8     ClientSession.obj
 0002:00001bcc       __unwindtable$??$_Insert_nohint@AAU?$pair@$$CBIPAVIClientSession@@@std@@PAU?$_Tree_node@U?$pair@$$CBIPAVIClientSession@@@std@@PAX@2@@?$_Tree@V?$_Tmap_traits@IPAVIClientSession@@U?$less@I@std@@V?$allocator@U?$pair@$$CBIPAVIClientSession@@@std@@@3@$0A@@std@@@std@@IAE?AU?$pair@V?$_Tree_iterator@V?$_Tree_val@U?$_Tree_simple_types@U?$pair@$$CBIPAVIClientSession@@@std@@@std@@@std@@@std@@_N@1@_NAAU?$pair@$$CBIPAVIClientSession@@@1@PAU?$_Tree_node@U?$pair@$$CBIPAVIClientSession@@@std@@PAX@1@@Z 1000ebcc     ClientSession.obj
 0002:00001bdc       __tryblocktable$??$_Insert_nohint@AAU?$pair@$$CBIPAVIClientSession@@@std@@PAU?$_Tree_node@U?$pair@$$CBIPAVIClientSession@@@std@@PAX@2@@?$_Tree@V?$_Tmap_traits@IPAVIClientSession@@U?$less@I@std@@V?$allocator@U?$pair@$$CBIPAVIClientSession@@@std@@@3@$0A@@std@@@std@@IAE?AU?$pair@V?$_Tree_iterator@V?$_Tree_val@U?$_Tree_simple_types@U?$pair@$$CBIPAVIClientSession@@@std@@@std@@@std@@@std@@_N@1@_NAAU?$pair@$$CBIPAVIClientSession@@@1@PAU?$_Tree_node@U?$pair@$$CBIPAVIClientSession@@@std@@PAX@1@@Z 1000ebdc     ClientSession.obj
 0002:00001bf0       __catchsym$??$_Insert_nohint@AAU?$pair@$$CBIPAVIClientSession@@@std@@PAU?$_Tree_node@U?$pair@$$CBIPAVIClientSession@@@std@@PAX@2@@?$_Tree@V?$_Tmap_traits@IPAVIClientSession@@U?$less@I@std@@V?$allocator@U?$pair@$$CBIPAVIClientSession@@@std@@@3@$0A@@std@@@std@@IAE?AU?$pair@V?$_Tree_iterator@V?$_Tree_val@U?$_Tree_simple_types@U?$pair@$$CBIPAVIClientSession@@@std@@@std@@@std@@@std@@_N@1@_NAAU?$pair@$$CBIPAVIClientSession@@@1@PAU?$_Tree_node@U?$pair@$$CBIPAVIClientSession@@@std@@PAX@1@@Z$2 1000ebf0     ClientSession.obj
 0002:00001c00       __ehfuncinfo$??$_Buynode@AAU?$pair@V?$basic_string@DU?$char_traits@D@std@@V?$allocator@D@2@@std@@V?$list@IV?$allocator@I@std@@@2@@std@@@?$_Tree_comp_alloc@V?$_Tmap_traits@V?$basic_string@DU?$char_traits@D@std@@V?$allocator@D@2@@std@@V?$list@IV?$allocator@I@std@@@2@U?$less@V?$basic_string@DU?$char_traits@D@std@@V?$allocator@D@2@@std@@@2@V?$allocator@U?$pair@$$CBV?$basic_string@DU?$char_traits@D@std@@V?$allocator@D@2@@std@@V?$list@IV?$allocator@I@std@@@2@@std@@@2@$0A@@std@@@std@@QAEPAU?$_Tree_node@U?$pair@$$CBV?$basic_string@DU?$char_traits@D@std@@V?$allocator@D@2@@std@@V?$list@IV?$allocator@I@std@@@2@@std@@PAX@1@AAU?$pair@V?$basic_string@DU?$char_traits@D@std@@V?$allocator@D@2@@std@@V?$list@IV?$allocator@I@std@@@2@@1@@Z 1000ec00     ClientSession.obj
 0002:00001c24       __unwindtable$??$_Buynode@AAU?$pair@V?$basic_string@DU?$char_traits@D@std@@V?$allocator@D@2@@std@@V?$list@IV?$allocator@I@std@@@2@@std@@@?$_Tree_comp_alloc@V?$_Tmap_traits@V?$basic_string@DU?$char_traits@D@std@@V?$allocator@D@2@@std@@V?$list@IV?$allocator@I@std@@@2@U?$less@V?$basic_string@DU?$char_traits@D@std@@V?$allocator@D@2@@std@@@2@V?$allocator@U?$pair@$$CBV?$basic_string@DU?$char_traits@D@std@@V?$allocator@D@2@@std@@V?$list@IV?$allocator@I@std@@@2@@std@@@2@$0A@@std@@@std@@QAEPAU?$_Tree_node@U?$pair@$$CBV?$basic_string@DU?$char_traits@D@std@@V?$allocator@D@2@@std@@V?$list@IV?$allocator@I@std@@@2@@std@@PAX@1@AAU?$pair@V?$basic_string@DU?$char_traits@D@std@@V?$allocator@D@2@@std@@V?$list@IV?$allocator@I@std@@@2@@1@@Z 1000ec24     ClientSession.obj
 0002:00001c34       __tryblocktable$??$_Buynode@AAU?$pair@V?$basic_string@DU?$char_traits@D@std@@V?$allocator@D@2@@std@@V?$list@IV?$allocator@I@std@@@2@@std@@@?$_Tree_comp_alloc@V?$_Tmap_traits@V?$basic_string@DU?$char_traits@D@std@@V?$allocator@D@2@@std@@V?$list@IV?$allocator@I@std@@@2@U?$less@V?$basic_string@DU?$char_traits@D@std@@V?$allocator@D@2@@std@@@2@V?$allocator@U?$pair@$$CBV?$basic_string@DU?$char_traits@D@std@@V?$allocator@D@2@@std@@V?$list@IV?$allocator@I@std@@@2@@std@@@2@$0A@@std@@@std@@QAEPAU?$_Tree_node@U?$pair@$$CBV?$basic_string@DU?$char_traits@D@std@@V?$allocator@D@2@@std@@V?$list@IV?$allocator@I@std@@@2@@std@@PAX@1@AAU?$pair@V?$basic_string@DU?$char_traits@D@std@@V?$allocator@D@2@@std@@V?$list@IV?$allocator@I@std@@@2@@1@@Z 1000ec34     ClientSession.obj
 0002:00001c48       __catchsym$??$_Buynode@AAU?$pair@V?$basic_string@DU?$char_traits@D@std@@V?$allocator@D@2@@std@@V?$list@IV?$allocator@I@std@@@2@@std@@@?$_Tree_comp_alloc@V?$_Tmap_traits@V?$basic_string@DU?$char_traits@D@std@@V?$allocator@D@2@@std@@V?$list@IV?$allocator@I@std@@@2@U?$less@V?$basic_string@DU?$char_traits@D@std@@V?$allocator@D@2@@std@@@2@V?$allocator@U?$pair@$$CBV?$basic_string@DU?$char_traits@D@std@@V?$allocator@D@2@@std@@V?$list@IV?$allocator@I@std@@@2@@std@@@2@$0A@@std@@@std@@QAEPAU?$_Tree_node@U?$pair@$$CBV?$basic_string@DU?$char_traits@D@std@@V?$allocator@D@2@@std@@V?$list@IV?$allocator@I@std@@@2@@std@@PAX@1@AAU?$pair@V?$basic_string@DU?$char_traits@D@std@@V?$allocator@D@2@@std@@V?$list@IV?$allocator@I@std@@@2@@1@@Z$2 1000ec48     ClientSession.obj
 0002:00001c58       __ehfuncinfo$??$_Insert_nohint@AAU?$pair@$$CBV?$basic_string@DU?$char_traits@D@std@@V?$allocator@D@2@@std@@V?$list@IV?$allocator@I@std@@@2@@std@@PAU?$_Tree_node@U?$pair@$$CBV?$basic_string@DU?$char_traits@D@std@@V?$allocator@D@2@@std@@V?$list@IV?$allocator@I@std@@@2@@std@@PAX@2@@?$_Tree@V?$_Tmap_traits@V?$basic_string@DU?$char_traits@D@std@@V?$allocator@D@2@@std@@V?$list@IV?$allocator@I@std@@@2@U?$less@V?$basic_string@DU?$char_traits@D@std@@V?$allocator@D@2@@std@@@2@V?$allocator@U?$pair@$$CBV?$basic_string@DU?$char_traits@D@std@@V?$allocator@D@2@@std@@V?$list@IV?$allocator@I@std@@@2@@std@@@2@$0A@@std@@@std@@IAE?AU?$pair@V?$_Tree_iterator@V?$_Tree_val@U?$_Tree_simple_types@U?$pair@$$CBV?$basic_string@DU?$char_traits@D@std@@V?$allocator@D@2@@std@@V?$list@IV?$allocator@I@std@@@2@@std@@@std@@@std@@@std@@_N@1@_NAAU?$pair@$$CBV?$basic_string@DU?$char_traits@D@std@@V?$allocator@D@2@@std@@V?$list@IV?$allocator@I@std@@@2@@1@PAU?$_Tree_node@U?$pair@$$CBV?$basic_string@DU?$char_traits@D@std@@V?$allocator@D@2@@std@@V?$list@IV?$allocator@I@std@@@2@@std@@PAX@1@@Z 1000ec58     ClientSession.obj
 0002:00001c7c       __unwindtable$??$_Insert_nohint@AAU?$pair@$$CBV?$basic_string@DU?$char_traits@D@std@@V?$allocator@D@2@@std@@V?$list@IV?$allocator@I@std@@@2@@std@@PAU?$_Tree_node@U?$pair@$$CBV?$basic_string@DU?$char_traits@D@std@@V?$allocator@D@2@@std@@V?$list@IV?$allocator@I@std@@@2@@std@@PAX@2@@?$_Tree@V?$_Tmap_traits@V?$basic_string@DU?$char_traits@D@std@@V?$allocator@D@2@@std@@V?$list@IV?$allocator@I@std@@@2@U?$less@V?$basic_string@DU?$char_traits@D@std@@V?$allocator@D@2@@std@@@2@V?$allocator@U?$pair@$$CBV?$basic_string@DU?$char_traits@D@std@@V?$allocator@D@2@@std@@V?$list@IV?$allocator@I@std@@@2@@std@@@2@$0A@@std@@@std@@IAE?AU?$pair@V?$_Tree_iterator@V?$_Tree_val@U?$_Tree_simple_types@U?$pair@$$CBV?$basic_string@DU?$char_traits@D@std@@V?$allocator@D@2@@std@@V?$list@IV?$allocator@I@std@@@2@@std@@@std@@@std@@@std@@_N@1@_NAAU?$pair@$$CBV?$basic_string@DU?$char_traits@D@std@@V?$allocator@D@2@@std@@V?$list@IV?$allocator@I@std@@@2@@1@PAU?$_Tree_node@U?$pair@$$CBV?$basic_string@DU?$char_traits@D@std@@V?$allocator@D@2@@std@@V?$list@IV?$allocator@I@std@@@2@@std@@PAX@1@@Z 1000ec7c     ClientSession.obj
 0002:00001c8c       __tryblocktable$??$_Insert_nohint@AAU?$pair@$$CBV?$basic_string@DU?$char_traits@D@std@@V?$allocator@D@2@@std@@V?$list@IV?$allocator@I@std@@@2@@std@@PAU?$_Tree_node@U?$pair@$$CBV?$basic_string@DU?$char_traits@D@std@@V?$allocator@D@2@@std@@V?$list@IV?$allocator@I@std@@@2@@std@@PAX@2@@?$_Tree@V?$_Tmap_traits@V?$basic_string@DU?$char_traits@D@std@@V?$allocator@D@2@@std@@V?$list@IV?$allocator@I@std@@@2@U?$less@V?$basic_string@DU?$char_traits@D@std@@V?$allocator@D@2@@std@@@2@V?$allocator@U?$pair@$$CBV?$basic_string@DU?$char_traits@D@std@@V?$allocator@D@2@@std@@V?$list@IV?$allocator@I@std@@@2@@std@@@2@$0A@@std@@@std@@IAE?AU?$pair@V?$_Tree_iterator@V?$_Tree_val@U?$_Tree_simple_types@U?$pair@$$CBV?$basic_string@DU?$char_traits@D@std@@V?$allocator@D@2@@std@@V?$list@IV?$allocator@I@std@@@2@@std@@@std@@@std@@@std@@_N@1@_NAAU?$pair@$$CBV?$basic_string@DU?$char_traits@D@std@@V?$allocator@D@2@@std@@V?$list@IV?$allocator@I@std@@@2@@1@PAU?$_Tree_node@U?$pair@$$CBV?$basic_string@DU?$char_traits@D@std@@V?$allocator@D@2@@std@@V?$list@IV?$allocator@I@std@@@2@@std@@PAX@1@@Z 1000ec8c     ClientSession.obj
 0002:00001ca0       __catchsym$??$_Insert_nohint@AAU?$pair@$$CBV?$basic_string@DU?$char_traits@D@std@@V?$allocator@D@2@@std@@V?$list@IV?$allocator@I@std@@@2@@std@@PAU?$_Tree_node@U?$pair@$$CBV?$basic_string@DU?$char_traits@D@std@@V?$allocator@D@2@@std@@V?$list@IV?$allocator@I@std@@@2@@std@@PAX@2@@?$_Tree@V?$_Tmap_traits@V?$basic_string@DU?$char_traits@D@std@@V?$allocator@D@2@@std@@V?$list@IV?$allocator@I@std@@@2@U?$less@V?$basic_string@DU?$char_traits@D@std@@V?$allocator@D@2@@std@@@2@V?$allocator@U?$pair@$$CBV?$basic_string@DU?$char_traits@D@std@@V?$allocator@D@2@@std@@V?$list@IV?$allocator@I@std@@@2@@std@@@2@$0A@@std@@@std@@IAE?AU?$pair@V?$_Tree_iterator@V?$_Tree_val@U?$_Tree_simple_types@U?$pair@$$CBV?$basic_string@DU?$char_traits@D@std@@V?$allocator@D@2@@std@@V?$list@IV?$allocator@I@std@@@2@@std@@@std@@@std@@@std@@_N@1@_NAAU?$pair@$$CBV?$basic_string@DU?$char_traits@D@std@@V?$allocator@D@2@@std@@V?$list@IV?$allocator@I@std@@@2@@1@PAU?$_Tree_node@U?$pair@$$CBV?$basic_string@DU?$char_traits@D@std@@V?$allocator@D@2@@std@@V?$list@IV?$allocator@I@std@@@2@@std@@PAX@1@@Z$2 1000eca0     ClientSession.obj
 0002:00001cb0       __ehfuncinfo$??$_Insert_range@V?$_List_const_iterator@V?$_List_val@U?$_List_simple_types@I@std@@@std@@@std@@@?$list@IV?$allocator@I@std@@@std@@QAEXV?$_List_unchecked_const_iterator@V?$_List_val@U?$_List_simple_types@I@std@@@std@@U_Iterator_base0@2@@1@V?$_List_const_iterator@V?$_List_val@U?$_List_simple_types@I@std@@@std@@@1@1Uforward_iterator_tag@1@@Z 1000ecb0     ClientSession.obj
 0002:00001cd4       __unwindtable$??$_Insert_range@V?$_List_const_iterator@V?$_List_val@U?$_List_simple_types@I@std@@@std@@@std@@@?$list@IV?$allocator@I@std@@@std@@QAEXV?$_List_unchecked_const_iterator@V?$_List_val@U?$_List_simple_types@I@std@@@std@@U_Iterator_base0@2@@1@V?$_List_const_iterator@V?$_List_val@U?$_List_simple_types@I@std@@@std@@@1@1Uforward_iterator_tag@1@@Z 1000ecd4     ClientSession.obj
 0002:00001ce4       __tryblocktable$??$_Insert_range@V?$_List_const_iterator@V?$_List_val@U?$_List_simple_types@I@std@@@std@@@std@@@?$list@IV?$allocator@I@std@@@std@@QAEXV?$_List_unchecked_const_iterator@V?$_List_val@U?$_List_simple_types@I@std@@@std@@U_Iterator_base0@2@@1@V?$_List_const_iterator@V?$_List_val@U?$_List_simple_types@I@std@@@std@@@1@1Uforward_iterator_tag@1@@Z 1000ece4     ClientSession.obj
 0002:00001cf8       __catchsym$??$_Insert_range@V?$_List_const_iterator@V?$_List_val@U?$_List_simple_types@I@std@@@std@@@std@@@?$list@IV?$allocator@I@std@@@std@@QAEXV?$_List_unchecked_const_iterator@V?$_List_val@U?$_List_simple_types@I@std@@@std@@U_Iterator_base0@2@@1@V?$_List_const_iterator@V?$_List_val@U?$_List_simple_types@I@std@@@std@@@1@1Uforward_iterator_tag@1@@Z$2 1000ecf8     ClientSession.obj
 0002:00001d08       __ehfuncinfo$?_Buynode0@?$_Tree_comp_alloc@V?$_Tmap_traits@V?$basic_string@DU?$char_traits@D@std@@V?$allocator@D@2@@std@@V?$list@IV?$allocator@I@std@@@2@U?$less@V?$basic_string@DU?$char_traits@D@std@@V?$allocator@D@2@@std@@@2@V?$allocator@U?$pair@$$CBV?$basic_string@DU?$char_traits@D@std@@V?$allocator@D@2@@std@@V?$list@IV?$allocator@I@std@@@2@@std@@@2@$0A@@std@@@std@@QAEPAU?$_Tree_node@U?$pair@$$CBV?$basic_string@DU?$char_traits@D@std@@V?$allocator@D@2@@std@@V?$list@IV?$allocator@I@std@@@2@@std@@PAX@2@XZ 1000ed08     ClientSession.obj
 0002:00001d2c       __unwindtable$?_Buynode0@?$_Tree_comp_alloc@V?$_Tmap_traits@V?$basic_string@DU?$char_traits@D@std@@V?$allocator@D@2@@std@@V?$list@IV?$allocator@I@std@@@2@U?$less@V?$basic_string@DU?$char_traits@D@std@@V?$allocator@D@2@@std@@@2@V?$allocator@U?$pair@$$CBV?$basic_string@DU?$char_traits@D@std@@V?$allocator@D@2@@std@@V?$list@IV?$allocator@I@std@@@2@@std@@@2@$0A@@std@@@std@@QAEPAU?$_Tree_node@U?$pair@$$CBV?$basic_string@DU?$char_traits@D@std@@V?$allocator@D@2@@std@@V?$list@IV?$allocator@I@std@@@2@@std@@PAX@2@XZ 1000ed2c     ClientSession.obj
 0002:00001d3c       __tryblocktable$?_Buynode0@?$_Tree_comp_alloc@V?$_Tmap_traits@V?$basic_string@DU?$char_traits@D@std@@V?$allocator@D@2@@std@@V?$list@IV?$allocator@I@std@@@2@U?$less@V?$basic_string@DU?$char_traits@D@std@@V?$allocator@D@2@@std@@@2@V?$allocator@U?$pair@$$CBV?$basic_string@DU?$char_traits@D@std@@V?$allocator@D@2@@std@@V?$list@IV?$allocator@I@std@@@2@@std@@@2@$0A@@std@@@std@@QAEPAU?$_Tree_node@U?$pair@$$CBV?$basic_string@DU?$char_traits@D@std@@V?$allocator@D@2@@std@@V?$list@IV?$allocator@I@std@@@2@@std@@PAX@2@XZ 1000ed3c     ClientSession.obj
 0002:00001d50       __catchsym$?_Buynode0@?$_Tree_comp_alloc@V?$_Tmap_traits@V?$basic_string@DU?$char_traits@D@std@@V?$allocator@D@2@@std@@V?$list@IV?$allocator@I@std@@@2@U?$less@V?$basic_string@DU?$char_traits@D@std@@V?$allocator@D@2@@std@@@2@V?$allocator@U?$pair@$$CBV?$basic_string@DU?$char_traits@D@std@@V?$allocator@D@2@@std@@V?$list@IV?$allocator@I@std@@@2@@std@@@2@$0A@@std@@@std@@QAEPAU?$_Tree_node@U?$pair@$$CBV?$basic_string@DU?$char_traits@D@std@@V?$allocator@D@2@@std@@V?$list@IV?$allocator@I@std@@@2@@std@@PAX@2@XZ$2 1000ed50     ClientSession.obj
 0002:00001d60       __ehfuncinfo$?_Buynode0@?$_Tree_comp_alloc@V?$_Tmap_traits@IPAVIClientSession@@U?$less@I@std@@V?$allocator@U?$pair@$$CBIPAVIClientSession@@@std@@@3@$0A@@std@@@std@@QAEPAU?$_Tree_node@U?$pair@$$CBIPAVIClientSession@@@std@@PAX@2@XZ 1000ed60     ClientSession.obj
 0002:00001d84       __unwindtable$?_Buynode0@?$_Tree_comp_alloc@V?$_Tmap_traits@IPAVIClientSession@@U?$less@I@std@@V?$allocator@U?$pair@$$CBIPAVIClientSession@@@std@@@3@$0A@@std@@@std@@QAEPAU?$_Tree_node@U?$pair@$$CBIPAVIClientSession@@@std@@PAX@2@XZ 1000ed84     ClientSession.obj
 0002:00001d94       __tryblocktable$?_Buynode0@?$_Tree_comp_alloc@V?$_Tmap_traits@IPAVIClientSession@@U?$less@I@std@@V?$allocator@U?$pair@$$CBIPAVIClientSession@@@std@@@3@$0A@@std@@@std@@QAEPAU?$_Tree_node@U?$pair@$$CBIPAVIClientSession@@@std@@PAX@2@XZ 1000ed94     ClientSession.obj
 0002:00001da8       __catchsym$?_Buynode0@?$_Tree_comp_alloc@V?$_Tmap_traits@IPAVIClientSession@@U?$less@I@std@@V?$allocator@U?$pair@$$CBIPAVIClientSession@@@std@@@3@$0A@@std@@@std@@QAEPAU?$_Tree_node@U?$pair@$$CBIPAVIClientSession@@@std@@PAX@2@XZ$2 1000eda8     ClientSession.obj
 0002:00001db8       __ehfuncinfo$??$_Buynode@ABUpiecewise_construct_t@std@@V?$tuple@ABI@2@V?$tuple@$$V@2@@?$_Tree_comp_alloc@V?$_Tmap_traits@IPAVIClientSession@@U?$less@I@std@@V?$allocator@U?$pair@$$CBIPAVIClientSession@@@std@@@3@$0A@@std@@@std@@QAEPAU?$_Tree_node@U?$pair@$$CBIPAVIClientSession@@@std@@PAX@1@ABUpiecewise_construct_t@1@$$QAV?$tuple@ABI@1@$$QAV?$tuple@$$V@1@@Z 1000edb8     ClientSession.obj
 0002:00001ddc       __unwindtable$??$_Buynode@ABUpiecewise_construct_t@std@@V?$tuple@ABI@2@V?$tuple@$$V@2@@?$_Tree_comp_alloc@V?$_Tmap_traits@IPAVIClientSession@@U?$less@I@std@@V?$allocator@U?$pair@$$CBIPAVIClientSession@@@std@@@3@$0A@@std@@@std@@QAEPAU?$_Tree_node@U?$pair@$$CBIPAVIClientSession@@@std@@PAX@1@ABUpiecewise_construct_t@1@$$QAV?$tuple@ABI@1@$$QAV?$tuple@$$V@1@@Z 1000eddc     ClientSession.obj
 0002:00001dec       __tryblocktable$??$_Buynode@ABUpiecewise_construct_t@std@@V?$tuple@ABI@2@V?$tuple@$$V@2@@?$_Tree_comp_alloc@V?$_Tmap_traits@IPAVIClientSession@@U?$less@I@std@@V?$allocator@U?$pair@$$CBIPAVIClientSession@@@std@@@3@$0A@@std@@@std@@QAEPAU?$_Tree_node@U?$pair@$$CBIPAVIClientSession@@@std@@PAX@1@ABUpiecewise_construct_t@1@$$QAV?$tuple@ABI@1@$$QAV?$tuple@$$V@1@@Z 1000edec     ClientSession.obj
 0002:00001e00       __catchsym$??$_Buynode@ABUpiecewise_construct_t@std@@V?$tuple@ABI@2@V?$tuple@$$V@2@@?$_Tree_comp_alloc@V?$_Tmap_traits@IPAVIClientSession@@U?$less@I@std@@V?$allocator@U?$pair@$$CBIPAVIClientSession@@@std@@@3@$0A@@std@@@std@@QAEPAU?$_Tree_node@U?$pair@$$CBIPAVIClientSession@@@std@@PAX@1@ABUpiecewise_construct_t@1@$$QAV?$tuple@ABI@1@$$QAV?$tuple@$$V@1@@Z$2 1000ee00     ClientSession.obj
 0002:00001e10       __ehfuncinfo$??$_Insert_hint@AAU?$pair@$$CBIPAVIClientSession@@@std@@PAU?$_Tree_node@U?$pair@$$CBIPAVIClientSession@@@std@@PAX@2@@?$_Tree@V?$_Tmap_traits@IPAVIClientSession@@U?$less@I@std@@V?$allocator@U?$pair@$$CBIPAVIClientSession@@@std@@@3@$0A@@std@@@std@@IAE?AV?$_Tree_iterator@V?$_Tree_val@U?$_Tree_simple_types@U?$pair@$$CBIPAVIClientSession@@@std@@@std@@@std@@@1@V?$_Tree_const_iterator@V?$_Tree_val@U?$_Tree_simple_types@U?$pair@$$CBIPAVIClientSession@@@std@@@std@@@std@@@1@AAU?$pair@$$CBIPAVIClientSession@@@1@PAU?$_Tree_node@U?$pair@$$CBIPAVIClientSession@@@std@@PAX@1@@Z 1000ee10     ClientSession.obj
 0002:00001e34       __unwindtable$??$_Insert_hint@AAU?$pair@$$CBIPAVIClientSession@@@std@@PAU?$_Tree_node@U?$pair@$$CBIPAVIClientSession@@@std@@PAX@2@@?$_Tree@V?$_Tmap_traits@IPAVIClientSession@@U?$less@I@std@@V?$allocator@U?$pair@$$CBIPAVIClientSession@@@std@@@3@$0A@@std@@@std@@IAE?AV?$_Tree_iterator@V?$_Tree_val@U?$_Tree_simple_types@U?$pair@$$CBIPAVIClientSession@@@std@@@std@@@std@@@1@V?$_Tree_const_iterator@V?$_Tree_val@U?$_Tree_simple_types@U?$pair@$$CBIPAVIClientSession@@@std@@@std@@@std@@@1@AAU?$pair@$$CBIPAVIClientSession@@@1@PAU?$_Tree_node@U?$pair@$$CBIPAVIClientSession@@@std@@PAX@1@@Z 1000ee34     ClientSession.obj
 0002:00001e44       __tryblocktable$??$_Insert_hint@AAU?$pair@$$CBIPAVIClientSession@@@std@@PAU?$_Tree_node@U?$pair@$$CBIPAVIClientSession@@@std@@PAX@2@@?$_Tree@V?$_Tmap_traits@IPAVIClientSession@@U?$less@I@std@@V?$allocator@U?$pair@$$CBIPAVIClientSession@@@std@@@3@$0A@@std@@@std@@IAE?AV?$_Tree_iterator@V?$_Tree_val@U?$_Tree_simple_types@U?$pair@$$CBIPAVIClientSession@@@std@@@std@@@std@@@1@V?$_Tree_const_iterator@V?$_Tree_val@U?$_Tree_simple_types@U?$pair@$$CBIPAVIClientSession@@@std@@@std@@@std@@@1@AAU?$pair@$$CBIPAVIClientSession@@@1@PAU?$_Tree_node@U?$pair@$$CBIPAVIClientSession@@@std@@PAX@1@@Z 1000ee44     ClientSession.obj
 0002:00001e58       __catchsym$??$_Insert_hint@AAU?$pair@$$CBIPAVIClientSession@@@std@@PAU?$_Tree_node@U?$pair@$$CBIPAVIClientSession@@@std@@PAX@2@@?$_Tree@V?$_Tmap_traits@IPAVIClientSession@@U?$less@I@std@@V?$allocator@U?$pair@$$CBIPAVIClientSession@@@std@@@3@$0A@@std@@@std@@IAE?AV?$_Tree_iterator@V?$_Tree_val@U?$_Tree_simple_types@U?$pair@$$CBIPAVIClientSession@@@std@@@std@@@std@@@1@V?$_Tree_const_iterator@V?$_Tree_val@U?$_Tree_simple_types@U?$pair@$$CBIPAVIClientSession@@@std@@@std@@@std@@@1@AAU?$pair@$$CBIPAVIClientSession@@@1@PAU?$_Tree_node@U?$pair@$$CBIPAVIClientSession@@@std@@PAX@1@@Z$2 1000ee58     ClientSession.obj
 0002:00001e68       __ehfuncinfo$??$construct@U?$pair@$$CBV?$basic_string@DU?$char_traits@D@std@@V?$allocator@D@2@@std@@V?$list@IV?$allocator@I@std@@@2@@std@@AAU?$pair@V?$basic_string@DU?$char_traits@D@std@@V?$allocator@D@2@@std@@V?$list@IV?$allocator@I@std@@@2@@2@@?$allocator@U?$_Tree_node@U?$pair@$$CBV?$basic_string@DU?$char_traits@D@std@@V?$allocator@D@2@@std@@V?$list@IV?$allocator@I@std@@@2@@std@@PAX@std@@@std@@QAEXPAU?$pair@$$CBV?$basic_string@DU?$char_traits@D@std@@V?$allocator@D@2@@std@@V?$list@IV?$allocator@I@std@@@2@@1@AAU?$pair@V?$basic_string@DU?$char_traits@D@std@@V?$allocator@D@2@@std@@V?$list@IV?$allocator@I@std@@@2@@1@@Z 1000ee68     ClientSession.obj
 0002:00001e68       __ehfuncinfo$??$construct@U?$pair@$$CBIPAVIClientSession@@@std@@AAU?$pair@IPAVIClientSession@@@2@@?$allocator@U?$_Tree_node@U?$pair@$$CBIPAVIClientSession@@@std@@PAX@std@@@std@@QAEXPAU?$pair@$$CBIPAVIClientSession@@@1@AAU?$pair@IPAVIClientSession@@@1@@Z 1000ee68     ClientSession.obj
 0002:00001e8c       __unwindtable$??$construct@U?$pair@$$CBIPAVIClientSession@@@std@@AAU?$pair@IPAVIClientSession@@@2@@?$allocator@U?$_Tree_node@U?$pair@$$CBIPAVIClientSession@@@std@@PAX@std@@@std@@QAEXPAU?$pair@$$CBIPAVIClientSession@@@1@AAU?$pair@IPAVIClientSession@@@1@@Z 1000ee8c     ClientSession.obj
 0002:00001e8c       __unwindtable$??$construct@U?$pair@$$CBV?$basic_string@DU?$char_traits@D@std@@V?$allocator@D@2@@std@@V?$list@IV?$allocator@I@std@@@2@@std@@AAU?$pair@V?$basic_string@DU?$char_traits@D@std@@V?$allocator@D@2@@std@@V?$list@IV?$allocator@I@std@@@2@@2@@?$allocator@U?$_Tree_node@U?$pair@$$CBV?$basic_string@DU?$char_traits@D@std@@V?$allocator@D@2@@std@@V?$list@IV?$allocator@I@std@@@2@@std@@PAX@std@@@std@@QAEXPAU?$pair@$$CBV?$basic_string@DU?$char_traits@D@std@@V?$allocator@D@2@@std@@V?$list@IV?$allocator@I@std@@@2@@1@AAU?$pair@V?$basic_string@DU?$char_traits@D@std@@V?$allocator@D@2@@std@@V?$list@IV?$allocator@I@std@@@2@@1@@Z 1000ee8c     ClientSession.obj
 0002:00001e94       __ehfuncinfo$??$construct@U?$pair@$$CBIPAVIClientSession@@@std@@ABUpiecewise_construct_t@2@V?$tuple@ABI@2@V?$tuple@$$V@2@@?$allocator@U?$_Tree_node@U?$pair@$$CBIPAVIClientSession@@@std@@PAX@std@@@std@@QAEXPAU?$pair@$$CBIPAVIClientSession@@@1@ABUpiecewise_construct_t@1@$$QAV?$tuple@ABI@1@$$QAV?$tuple@$$V@1@@Z 1000ee94     ClientSession.obj
 0002:00001eb8       __unwindtable$??$construct@U?$pair@$$CBIPAVIClientSession@@@std@@ABUpiecewise_construct_t@2@V?$tuple@ABI@2@V?$tuple@$$V@2@@?$allocator@U?$_Tree_node@U?$pair@$$CBIPAVIClientSession@@@std@@PAX@std@@@std@@QAEXPAU?$pair@$$CBIPAVIClientSession@@@1@ABUpiecewise_construct_t@1@$$QAV?$tuple@ABI@1@$$QAV?$tuple@$$V@1@@Z 1000eeb8     ClientSession.obj
 0002:00001ec0       __ehfuncinfo$??0ServerProtocol@@QAE@XZ 1000eec0     ServerProtocolImpl.obj
 0002:00001ee4       __unwindtable$??0ServerProtocol@@QAE@XZ 1000eee4     ServerProtocolImpl.obj
 0002:00001ef4       __ehfuncinfo$?CreateServerProtocol@@YGPAVIServerProtocol@@XZ 1000eef4     ServerProtocolImpl.obj
 0002:00001f18       __unwindtable$?CreateServerProtocol@@YGPAVIServerProtocol@@XZ 1000ef18     ServerProtocolImpl.obj
 0002:00001f20       __sehtable$___scrt_is_nonwritable_in_current_image 1000ef20     MSVCRT:utility.obj
 0002:00001f40       __sehtable$?dllmain_crt_process_attach@@YAHQAUHINSTANCE__@@QAX@Z 1000ef40     MSVCRT:dll_dllmain.obj
 0002:00001f60       __sehtable$?dllmain_crt_process_detach@@YAH_N@Z 1000ef60     MSVCRT:dll_dllmain.obj
 0002:00001f80       __sehtable$?dllmain_dispatch@@YAHQAUHINSTANCE__@@KQAX@Z 1000ef80     MSVCRT:dll_dllmain.obj
 0002:00002050       .edata                     1000f050     ProtocolLib.exp
 0002:00002078       rgpv                       1000f078     ProtocolLib.exp
 0002:00002088       rgszName                   1000f088     ProtocolLib.exp
 0002:00002098       rgwOrd                     1000f098     ProtocolLib.exp
 0002:000020a0       szName                     1000f0a0     ProtocolLib.exp
 0002:000020b0       $N00001                    1000f0b0     ProtocolLib.exp
 0002:000020e0       $N00002                    1000f0e0     ProtocolLib.exp
 0002:00002110       $N00003                    1000f110     ProtocolLib.exp
 0002:00002142       $N00004                    1000f142     ProtocolLib.exp
 0002:00002400       .idata$6                   1000f400     Socket:Socket.dll
 0002:0000242a       .idata$6                   1000f42a     xlogger:xLogger.dll
 0002:00002496       .idata$6                   1000f496     Utilities:Utilities.dll
 0002:00002564       .idata$6                   1000f564     kernel32:KERNEL32.dll
 0002:000025cc       .idata$6                   1000f5cc     msvcprt:MSVCP140.dll
 0002:000026a2       .idata$6                   1000f6a2     vcruntime:VCRUNTIME140.dll
 0002:000027dc       .idata$6                   1000f7dc     ucrt:api-ms-win-crt-runtime-l1-1-0.dll
 0002:000027fe       .idata$6                   1000f7fe     ucrt:api-ms-win-crt-time-l1-1-0.dll
 0002:0000281e       .idata$6                   1000f81e     ucrt:api-ms-win-crt-heap-l1-1-0.dll
 0003:00000204       ?_Tss_mutex@@3U_RTL_CRITICAL_SECTION@@A 10010204     MSVCRT:thread_safe_statics.obj
 0003:0000021c       ?_Tss_cv@@3U_RTL_CONDITION_VARIABLE@@A 1001021c     MSVCRT:thread_safe_statics.obj
 0003:00000220       ?_Tss_event@@3PAXA         10010220     MSVCRT:thread_safe_statics.obj
 0003:00000224       ?encoded_sleep_condition_variable_cs@@3P6GHPAU_RTL_CONDITION_VARIABLE@@PAU_RTL_CRITICAL_SECTION@@K@ZA 10010224     MSVCRT:thread_safe_statics.obj
 0003:00000228       ?encoded_wake_all_condition_variable@@3P6GXPAU_RTL_CONDITION_VARIABLE@@@ZA 10010228     MSVCRT:thread_safe_statics.obj
 0003:00000234       ?module_local_atexit_table@@3U_onexit_table_t@@A 10010234     MSVCRT:utility.obj
 0003:00000240       ?module_local_at_quick_exit_table@@3U_onexit_table_t@@A 10010240     MSVCRT:utility.obj
 0003:0000024c       ?is_initialized_as_dll@@3_NA 1001024c     MSVCRT:utility.obj
 0003:00000250       ?__proc_attached@@3HA      10010250     MSVCRT:dll_dllmain.obj
 0003:00000258       _GS_ExceptionRecord        10010258     MSVCRT:gs_report.obj
 0003:000002a8       _GS_ContextRecord          100102a8     MSVCRT:gs_report.obj
 0003:000005a0       ?count@?1??GetMessageObject@@YAPAXI@Z@4HA 100105a0     ClientProtocolImpl.obj
 0003:000005a8       ?count@?1??GetMessageObject@@YAPAXI@Z@4HA 100105a8     ClientSession.obj
 0005:00000000       __guard_fids__             10012000     MSVCRT:thread_safe_statics.obj
 0005:00000004       __guard_fids_?__scrt_initialize_thread_safe_statics@@YAHXZ 10012004     MSVCRT:thread_safe_statics.obj
 0005:00000008       __guard_fids__             10012008     MSVCRT:std_type_info_static.obj
 0005:0000000c       __guard_fids_?dllmain_crt_process_attach@@YAHQAUHINSTANCE__@@QAX@Z 1001200c     MSVCRT:dll_dllmain.obj
 0005:00000014       __guard_fids_?dllmain_dispatch@@YAHQAUHINSTANCE__@@KQAX@Z 10012014     MSVCRT:dll_dllmain.obj
 0005:00000018       __guard_fids__             10012018     MSVCRT:throw_bad_alloc.obj
 0005:00000020       __guard_fids__             10012020     MSVCRT:throw_bad_alloc.obj
 0005:00000028       __guard_fids__             10012028     MSVCRT:throw_bad_alloc.obj
 0005:00000030       __guard_fids__             10012030     MSVCRT:throw_bad_alloc.obj
 0005:00000034       __guard_fids__             10012034     MSVCRT:throw_bad_alloc.obj
 0005:00000038       __guard_fids__             10012038     MSVCRT:throw_bad_alloc.obj
 0005:0000003c       __guard_fids__             1001203c     MSVCRT:throw_bad_alloc.obj
 0005:00000040       __guard_fids___except_handler4 10012040     MSVCRT:_chandler4gs_.obj
 0005:00000044       __guard_fids__             10012044     MSVCRT:guard_support.obj
 0006:000000a0       $R000000                   100130a0     ProtocolLib1.res
 0006:000003c8       $R000328                   100133c8     ProtocolLib1.res
