 Database

 Timestamp is 58f8864d (Thu Apr 20 15:28:37 2017)

 Preferred load address is 10000000

 Start         Length     Name                   Class
 0001:00000000 00000050H .text$di                CODE
 0001:00000050 00011970H .text$mn                CODE
 0001:000119c0 00001010H .text$x                 CODE
 0001:000129d0 00000026H .text$yd                CODE
 0002:00000000 00000160H .idata$5                DATA
 0002:00000160 00000004H .00cfg                  DATA
 0002:00000164 00000004H .CRT$XCA                DATA
 0002:00000168 00000004H .CRT$XCL                DATA
 0002:0000016c 00000008H .CRT$XCU                DATA
 0002:00000174 00000004H .CRT$XCZ                DATA
 0002:00000178 00000004H .CRT$XIA                DATA
 0002:0000017c 00000004H .CRT$XIC                DATA
 0002:00000180 00000004H .CRT$XIZ                DATA
 0002:00000184 00000004H .CRT$XLA                DATA
 0002:00000188 00000004H .CRT$XLZ                DATA
 0002:0000018c 00000004H .CRT$XPA                DATA
 0002:00000190 00000004H .CRT$XPZ                DATA
 0002:00000194 00000004H .CRT$XTA                DATA
 0002:00000198 00000008H .CRT$XTZ                DATA
 0002:000001a0 0000180cH .rdata                  DATA
 0002:000019ac 00000018H .rdata$T                DATA
 0002:000019c4 0000045cH .rdata$r                DATA
 0002:00001e20 000000e4H .rdata$sxdata           DATA
 0002:00001f04 000003a0H .rdata$zzzdbg           DATA
 0002:000022a4 00000004H .rtc$IAA                DATA
 0002:000022a8 00000004H .rtc$IZZ                DATA
 0002:000022ac 00000004H .rtc$TAA                DATA
 0002:000022b0 00000008H .rtc$TZZ                DATA
 0002:000022b8 000016e8H .xdata$x                DATA
 0002:00003994 00000000H ATL$__a                 DATA
 0002:00003994 00000000H ATL$__z                 DATA
 0002:000039a0 00000148H .edata                  DATA
 0002:00003ae8 000000dcH .idata$2                DATA
 0002:00003bc4 00000014H .idata$3                DATA
 0002:00003bd8 00000160H .idata$4                DATA
 0002:00003d38 00000696H .idata$6                DATA
 0003:00000000 00000034H .data                   DATA
 0003:00000034 000001b4H .data$r                 DATA
 0003:000001e8 000003f4H .bss                    DATA
 0004:00000000 00000064H .gfids$y                DATA
 0005:00000000 00000004H .tls                    DATA
 0005:00000004 00000004H .tls$                   DATA
 0005:00000008 00000001H .tls$ZZZ                DATA
 0006:00000000 000000a0H .rsrc$01                DATA
 0006:000000a0 000004a8H .rsrc$02                DATA

  Address         Publics by Value              Rva+Base       Lib:Object

 0000:00000000       ___guard_fids_count        00000000     <absolute>
 0000:00000000       ___guard_longjmp_table     00000000     <absolute>
 0000:00000000       ___guard_iat_table         00000000     <absolute>
 0000:00000000       ___guard_iat_count         00000000     <absolute>
 0000:00000000       ___dynamic_value_reloc_table 00000000     <absolute>
 0000:00000000       ___guard_fids_table        00000000     <absolute>
 0000:00000000       ___guard_longjmp_count     00000000     <absolute>
 0000:0000002c       __tls_array                0000002c     <absolute>
 0000:00000039       ___safe_se_handler_count   00000039     <absolute>
 0000:00000100       ___guard_flags             00000100     <absolute>
 0000:00000000       ___ImageBase               10000000     <linker-defined>
 0001:00000160       _IsEqualGUID               10001160 f i DatabaseImpl.obj
 0001:000001a0       _==                        100011a0 f i DatabaseImpl.obj
 0001:000001d0       _HRESULT_FROM_WIN32        100011d0 f i DatabaseImpl.obj
 0001:00000210       ___local_stdio_printf_options 10001210 f i DatabaseImpl.obj
 0001:00000220       __vsnprintf_l              10001220 f i DatabaseImpl.obj
 0001:00000280       __vsnprintf                10001280 f i DatabaseImpl.obj
 0001:000002a0       __vsprintf_s_l             100012a0 f i DatabaseImpl.obj
 0001:000002f0       _sprintf_s                 100012f0 f i DatabaseImpl.obj
 0001:00000330       __snprintf                 10001330 f i DatabaseImpl.obj
 0001:00000370       ?CheckError@_com_util@@YAXJ@Z 10001370 f i DatabaseImpl.obj
 0001:00000400       ??0?$_String_const_iterator@V?$_String_val@U?$_Simple_types@D@std@@@std@@@std@@QAE@XZ 10001400 f i DatabaseImpl.obj
 0001:00000400       ??0_bstr_t@@QAE@XZ         10001400 f i DatabaseImpl.obj
 0001:00000400       ??0?$_com_ptr_t@V?$_com_IIID@U_Connection@@$1?_GUID_00001550_0000_0010_8000_00aa006d2ea4@@3U__s_GUID@@B@@@@QAE@XZ 10001400 f i DatabaseImpl.obj
 0001:00000400       ??0?$_com_ptr_t@V?$_com_IIID@U_Command@@$1?_GUID_986761e8_7269_4890_aa65_ad7c03697a6d@@3U__s_GUID@@B@@@@QAE@XZ 10001400 f i DatabaseImpl.obj
 0001:00000400       ??0?$_com_ptr_t@V?$_com_IIID@U_Recordset@@$1?_GUID_00001556_0000_0010_8000_00aa006d2ea4@@3U__s_GUID@@B@@@@QAE@XZ 10001400 f i DatabaseImpl.obj
 0001:00000400       ??0?$_Tree_unchecked_const_iterator@V?$_Tree_val@U?$_Tree_simple_types@U?$pair@$$CBV?$basic_string@DU?$char_traits@D@std@@V?$allocator@D@2@@std@@P6AXPADPAH@Z@std@@@std@@@std@@U_Iterator_base0@2@@std@@QAE@XZ 10001400 f i DatabaseImpl.obj
 0001:00000420       ??0_bstr_t@@QAE@ABV0@@Z    10001420 f i DatabaseImpl.obj
 0001:00000450       ??0_bstr_t@@QAE@PBD@Z      10001450 f i DatabaseImpl.obj
 0001:000004f0       ??0_bstr_t@@QAE@PB_W@Z     100014f0 f i DatabaseImpl.obj
 0001:00000590       ??0_bstr_t@@QAE@PA_W_N@Z   10001590 f i DatabaseImpl.obj
 0001:00000630       ??1_bstr_t@@QAE@XZ         10001630 f i DatabaseImpl.obj
 0001:00000650       ??4_bstr_t@@QAEAAV0@PB_W@Z 10001650 f i DatabaseImpl.obj
 0001:00000700       ??Y_bstr_t@@QAEAAV0@ABV0@@Z 10001700 f i DatabaseImpl.obj
 0001:000007b0       ??H_bstr_t@@QBE?AV0@ABV0@@Z 100017b0 f i DatabaseImpl.obj
 0001:00000840       ??B_bstr_t@@QBEPA_WXZ      10001840 f i DatabaseImpl.obj
 0001:00000840       ??B_bstr_t@@QBEPB_WXZ      10001840 f i DatabaseImpl.obj
 0001:00000870       ??B_bstr_t@@QBEPADXZ       10001870 f i DatabaseImpl.obj
 0001:00000870       ??B_bstr_t@@QBEPBDXZ       10001870 f i DatabaseImpl.obj
 0001:000008a0       ?length@_bstr_t@@QBEIXZ    100018a0 f i DatabaseImpl.obj
 0001:000008d0       ?_AddRef@_bstr_t@@AAEXXZ   100018d0 f i DatabaseImpl.obj
 0001:000008f0       ?_Free@_bstr_t@@AAEXXZ     100018f0 f i DatabaseImpl.obj
 0001:00000920       ??0Data_t@_bstr_t@@QAE@PBD@Z 10001920 f i DatabaseImpl.obj
 0001:00000960       ??0Data_t@_bstr_t@@QAE@PB_W@Z 10001960 f i DatabaseImpl.obj
 0001:000009b0       ??0Data_t@_bstr_t@@QAE@PA_W_N@Z 100019b0 f i DatabaseImpl.obj
 0001:00000a20       ??0Data_t@_bstr_t@@QAE@ABV1@0@Z 10001a20 f i DatabaseImpl.obj
 0001:00000b40       ?AddRef@Data_t@_bstr_t@@QAEKXZ 10001b40 f i DatabaseImpl.obj
 0001:00000b60       ?Release@Data_t@_bstr_t@@QAEKXZ 10001b60 f i DatabaseImpl.obj
 0001:00000bb0       ??_GData_t@_bstr_t@@AAEPAXI@Z 10001bb0 f i DatabaseImpl.obj
 0001:00000be0       ?_Get_second@?$_Compressed_pair@U?$_Wrap_alloc@V?$allocator@U?$_Tree_node@U?$pair@$$CBV?$basic_string@DU?$char_traits@D@std@@V?$allocator@D@2@@std@@P6AXPADPAH@Z@std@@PAX@std@@@std@@@std@@V?$_Tree_val@U?$_Tree_simple_types@U?$pair@$$CBV?$basic_string@DU?$char_traits@D@std@@V?$allocator@D@2@@std@@P6AXPADPAH@Z@std@@@std@@@2@$00@std@@QAEAAV?$_Tree_val@U?$_Tree_simple_types@U?$pair@$$CBV?$basic_string@DU?$char_traits@D@std@@V?$allocator@D@2@@std@@P6AXPADPAH@Z@std@@@std@@@2@XZ 10001be0 f i DatabaseImpl.obj
 0001:00000be0       ?_Get_first@?$_Compressed_pair@U?$less@V?$basic_string@DU?$char_traits@D@std@@V?$allocator@D@2@@std@@@std@@V?$_Compressed_pair@U?$_Wrap_alloc@V?$allocator@U?$_Tree_node@U?$pair@$$CBV?$basic_string@DU?$char_traits@D@std@@V?$allocator@D@2@@std@@P6AXPADPAH@Z@std@@PAX@std@@@std@@@std@@V?$_Tree_val@U?$_Tree_simple_types@U?$pair@$$CBV?$basic_string@DU?$char_traits@D@std@@V?$allocator@D@2@@std@@P6AXPADPAH@Z@std@@@std@@@2@$00@2@$00@std@@QBEABU?$less@V?$basic_string@DU?$char_traits@D@std@@V?$allocator@D@2@@std@@@2@XZ 10001be0 f i DatabaseImpl.obj
 0001:00000be0       ?_Get_second@?$_Compressed_pair@U?$_Wrap_alloc@V?$allocator@UPARAM@Parameter@@@std@@@std@@V?$_Vector_val@U?$_Simple_types@UPARAM@Parameter@@@std@@@2@$00@std@@QBEABV?$_Vector_val@U?$_Simple_types@UPARAM@Parameter@@@std@@@2@XZ 10001be0 f i DatabaseImpl.obj
 0001:00000be0       ?_Get_first@?$_Compressed_pair@U?$_Wrap_alloc@V?$allocator@UPARAM@Parameter@@@std@@@std@@V?$_Vector_val@U?$_Simple_types@UPARAM@Parameter@@@std@@@2@$00@std@@QBEABU?$_Wrap_alloc@V?$allocator@UPARAM@Parameter@@@std@@@2@XZ 10001be0 f i DatabaseImpl.obj
 0001:00000be0       ?_Get_first@?$_Compressed_pair@U?$_Wrap_alloc@V?$allocator@D@std@@@std@@V?$_String_val@U?$_Simple_types@D@std@@@2@$00@std@@QAEAAU?$_Wrap_alloc@V?$allocator@D@std@@@2@XZ 10001be0 f i DatabaseImpl.obj
 0001:00000be0       ?_Get_second@?$_Compressed_pair@U?$_Wrap_alloc@V?$allocator@UPARAM@Parameter@@@std@@@std@@V?$_Vector_val@U?$_Simple_types@UPARAM@Parameter@@@std@@@2@$00@std@@QAEAAV?$_Vector_val@U?$_Simple_types@UPARAM@Parameter@@@std@@@2@XZ 10001be0 f i DatabaseImpl.obj
 0001:00000be0       ?_Get_second@?$_Compressed_pair@U?$less@V?$basic_string@DU?$char_traits@D@std@@V?$allocator@D@2@@std@@@std@@V?$_Compressed_pair@U?$_Wrap_alloc@V?$allocator@U?$_Tree_node@U?$pair@$$CBV?$basic_string@DU?$char_traits@D@std@@V?$allocator@D@2@@std@@P6AXPADPAH@Z@std@@PAX@std@@@std@@@std@@V?$_Tree_val@U?$_Tree_simple_types@U?$pair@$$CBV?$basic_string@DU?$char_traits@D@std@@V?$allocator@D@2@@std@@P6AXPADPAH@Z@std@@@std@@@2@$00@2@$00@std@@QBEABV?$_Compressed_pair@U?$_Wrap_alloc@V?$allocator@U?$_Tree_node@U?$pair@$$CBV?$basic_string@DU?$char_traits@D@std@@V?$allocator@D@2@@std@@P6AXPADPAH@Z@std@@PAX@std@@@std@@@std@@V?$_Tree_val@U?$_Tree_simple_types@U?$pair@$$CBV?$basic_string@DU?$char_traits@D@std@@V?$allocator@D@2@@std@@P6AXPADPAH@Z@std@@@std@@@2@$00@2@XZ 10001be0 f i DatabaseImpl.obj
 0001:00000be0       ?_Get_first@?$_Compressed_pair@U?$_Wrap_alloc@V?$allocator@UPARAM@Parameter@@@std@@@std@@V?$_Vector_val@U?$_Simple_types@UPARAM@Parameter@@@std@@@2@$00@std@@QAEAAU?$_Wrap_alloc@V?$allocator@UPARAM@Parameter@@@std@@@2@XZ 10001be0 f i DatabaseImpl.obj
 0001:00000be0       ??0?$allocator@U?$_Tree_node@U?$pair@$$CBV?$basic_string@DU?$char_traits@D@std@@V?$allocator@D@2@@std@@P6AXPADPAH@Z@std@@PAX@std@@@std@@QAE@XZ 10001be0 f i DatabaseImpl.obj
 0001:00000be0       ?_Get_second@?$_Compressed_pair@U?$_Wrap_alloc@V?$allocator@D@std@@@std@@V?$_String_val@U?$_Simple_types@D@std@@@2@$00@std@@QBEABV?$_String_val@U?$_Simple_types@D@std@@@2@XZ 10001be0 f i DatabaseImpl.obj
 0001:00000be0       ?_Get_first@?$_Compressed_pair@U?$_Wrap_alloc@V?$allocator@D@std@@@std@@V?$_String_val@U?$_Simple_types@D@std@@@2@$00@std@@QBEABU?$_Wrap_alloc@V?$allocator@D@std@@@2@XZ 10001be0 f i DatabaseImpl.obj
 0001:00000be0       ?_Get_first@?$_Compressed_pair@U?$less@V?$basic_string@DU?$char_traits@D@std@@V?$allocator@D@2@@std@@@std@@V?$_Compressed_pair@U?$_Wrap_alloc@V?$allocator@U?$_Tree_node@U?$pair@$$CBV?$basic_string@DU?$char_traits@D@std@@V?$allocator@D@2@@std@@P6AXPADPAH@Z@std@@PAX@std@@@std@@@std@@V?$_Tree_val@U?$_Tree_simple_types@U?$pair@$$CBV?$basic_string@DU?$char_traits@D@std@@V?$allocator@D@2@@std@@P6AXPADPAH@Z@std@@@std@@@2@$00@2@$00@std@@QAEAAU?$less@V?$basic_string@DU?$char_traits@D@std@@V?$allocator@D@2@@std@@@2@XZ 10001be0 f i DatabaseImpl.obj
 0001:00000be0       ??0IUnknown@@QAE@XZ        10001be0 f i DatabaseImpl.obj
 0001:00000be0       ??0?$tuple@$$V@std@@QAE@XZ 10001be0 f i DatabaseImpl.obj
 0001:00000be0       ??0?$allocator@UPARAM@Parameter@@@std@@QAE@XZ 10001be0 f i DatabaseImpl.obj
 0001:00000be0       ??0_Bxty@?$_String_val@U?$_Simple_types@D@std@@@std@@QAE@XZ 10001be0 f i DatabaseImpl.obj
 0001:00000be0       ?_Get_second@?$_Compressed_pair@U?$_Wrap_alloc@V?$allocator@D@std@@@std@@V?$_String_val@U?$_Simple_types@D@std@@@2@$00@std@@QAEAAV?$_String_val@U?$_Simple_types@D@std@@@2@XZ 10001be0 f i DatabaseImpl.obj
 0001:00000be0       ??0?$allocator@D@std@@QAE@XZ 10001be0 f i DatabaseImpl.obj
 0001:00000be0       ?_Get_first@?$_Compressed_pair@U?$_Wrap_alloc@V?$allocator@U?$_Tree_node@U?$pair@$$CBV?$basic_string@DU?$char_traits@D@std@@V?$allocator@D@2@@std@@P6AXPADPAH@Z@std@@PAX@std@@@std@@@std@@V?$_Tree_val@U?$_Tree_simple_types@U?$pair@$$CBV?$basic_string@DU?$char_traits@D@std@@V?$allocator@D@2@@std@@P6AXPADPAH@Z@std@@@std@@@2@$00@std@@QBEABU?$_Wrap_alloc@V?$allocator@U?$_Tree_node@U?$pair@$$CBV?$basic_string@DU?$char_traits@D@std@@V?$allocator@D@2@@std@@P6AXPADPAH@Z@std@@PAX@std@@@std@@@2@XZ 10001be0 f i DatabaseImpl.obj
 0001:00000be0       ?_Get_first@?$_Compressed_pair@U?$_Wrap_alloc@V?$allocator@U?$_Tree_node@U?$pair@$$CBV?$basic_string@DU?$char_traits@D@std@@V?$allocator@D@2@@std@@P6AXPADPAH@Z@std@@PAX@std@@@std@@@std@@V?$_Tree_val@U?$_Tree_simple_types@U?$pair@$$CBV?$basic_string@DU?$char_traits@D@std@@V?$allocator@D@2@@std@@P6AXPADPAH@Z@std@@@std@@@2@$00@std@@QAEAAU?$_Wrap_alloc@V?$allocator@U?$_Tree_node@U?$pair@$$CBV?$basic_string@DU?$char_traits@D@std@@V?$allocator@D@2@@std@@P6AXPADPAH@Z@std@@PAX@std@@@std@@@2@XZ 10001be0 f i DatabaseImpl.obj
 0001:00000be0       ?_Get_second@?$_Compressed_pair@U?$less@V?$basic_string@DU?$char_traits@D@std@@V?$allocator@D@2@@std@@@std@@V?$_Compressed_pair@U?$_Wrap_alloc@V?$allocator@U?$_Tree_node@U?$pair@$$CBV?$basic_string@DU?$char_traits@D@std@@V?$allocator@D@2@@std@@P6AXPADPAH@Z@std@@PAX@std@@@std@@@std@@V?$_Tree_val@U?$_Tree_simple_types@U?$pair@$$CBV?$basic_string@DU?$char_traits@D@std@@V?$allocator@D@2@@std@@P6AXPADPAH@Z@std@@@std@@@2@$00@2@$00@std@@QAEAAV?$_Compressed_pair@U?$_Wrap_alloc@V?$allocator@U?$_Tree_node@U?$pair@$$CBV?$basic_string@DU?$char_traits@D@std@@V?$allocator@D@2@@std@@P6AXPADPAH@Z@std@@PAX@std@@@std@@@std@@V?$_Tree_val@U?$_Tree_simple_types@U?$pair@$$CBV?$basic_string@DU?$char_traits@D@std@@V?$allocator@D@2@@std@@P6AXPADPAH@Z@std@@@std@@@2@$00@2@XZ 10001be0 f i DatabaseImpl.obj
 0001:00000be0       ?GetWString@Data_t@_bstr_t@@QAEAAPA_WXZ 10001be0 f i DatabaseImpl.obj
 0001:00000be0       ?_Get_second@?$_Compressed_pair@U?$_Wrap_alloc@V?$allocator@U?$_Tree_node@U?$pair@$$CBV?$basic_string@DU?$char_traits@D@std@@V?$allocator@D@2@@std@@P6AXPADPAH@Z@std@@PAX@std@@@std@@@std@@V?$_Tree_val@U?$_Tree_simple_types@U?$pair@$$CBV?$basic_string@DU?$char_traits@D@std@@V?$allocator@D@2@@std@@P6AXPADPAH@Z@std@@@std@@@2@$00@std@@QBEABV?$_Tree_val@U?$_Tree_simple_types@U?$pair@$$CBV?$basic_string@DU?$char_traits@D@std@@V?$allocator@D@2@@std@@P6AXPADPAH@Z@std@@@std@@@2@XZ 10001be0 f i DatabaseImpl.obj
 0001:00000bf0       ?GetString@Data_t@_bstr_t@@QBEPBDXZ 10001bf0 f i DatabaseImpl.obj
 0001:00000c20       ?Length@Data_t@_bstr_t@@QBEIXZ 10001c20 f i DatabaseImpl.obj
 0001:00000c50       ??2Data_t@_bstr_t@@SAPAXI@Z 10001c50 f i DatabaseImpl.obj
 0001:00000c70       ??1Data_t@_bstr_t@@AAE@XZ  10001c70 f i DatabaseImpl.obj
 0001:00000c90       ?_Free@Data_t@_bstr_t@@AAEXXZ 10001c90 f i DatabaseImpl.obj
 0001:00000cf0       ??0_variant_t@@QAE@XZ      10001cf0 f i DatabaseImpl.obj
 0001:00000d10       ??0_variant_t@@QAE@AAUtagVARIANT@@_N@Z 10001d10 f i DatabaseImpl.obj
 0001:00000d70       ??0_variant_t@@QAE@M@Z     10001d70 f i DatabaseImpl.obj
 0001:00000da0       ??0_variant_t@@QAE@NG@Z    10001da0 f i DatabaseImpl.obj
 0001:00000e10       ??0_variant_t@@QAE@ABV_bstr_t@@@Z 10001e10 f i DatabaseImpl.obj
 0001:00000e80       ??0_variant_t@@QAE@PBD@Z   10001e80 f i DatabaseImpl.obj
 0001:00000eb0       ??0_variant_t@@QAE@PAUIDispatch@@_N@Z 10001eb0 f i DatabaseImpl.obj
 0001:00000f00       ??0_variant_t@@QAE@ABUtagDEC@@@Z 10001f00 f i DatabaseImpl.obj
 0001:00000f40       ??0_variant_t@@QAE@D@Z     10001f40 f i DatabaseImpl.obj
 0001:00000f70       ??0_variant_t@@QAE@K@Z     10001f70 f i DatabaseImpl.obj
 0001:00000fa0       ??0_variant_t@@QAE@H@Z     10001fa0 f i DatabaseImpl.obj
 0001:00000fd0       ??0_variant_t@@QAE@I@Z     10001fd0 f i DatabaseImpl.obj
 0001:00001000       ??B_variant_t@@QBENXZ      10002000 f i DatabaseImpl.obj
 0001:00001090       ??4_variant_t@@QAEAAV0@ABV0@@Z 10002090 f i DatabaseImpl.obj
 0001:000010c0       ?ChangeType@_variant_t@@QAEXGPBV1@@Z 100020c0 f i DatabaseImpl.obj
 0001:00001110       ??1_variant_t@@QAE@XZ      10002110 f i DatabaseImpl.obj
 0001:00001130       ?Error@_com_error@@QBEJXZ  10002130 f i DatabaseImpl.obj
 0001:00001150       ?WCode@_com_error@@QBEGXZ  10002150 f i DatabaseImpl.obj
 0001:00001170       ?Description@_com_error@@QBE?AV_bstr_t@@XZ 10002170 f i DatabaseImpl.obj
 0001:000011e0       ?Source@_com_error@@QBE?AV_bstr_t@@XZ 100021e0 f i DatabaseImpl.obj
 0001:00001250       ?ErrorMessage@_com_error@@QBEPBDXZ 10002250 f i DatabaseImpl.obj
 0001:00001390       ?HRESULTToWCode@_com_error@@SAGJ@Z 10002390 f i DatabaseImpl.obj
 0001:000013d0       ??2@YAPAXIPAX@Z            100023d0 f i DatabaseImpl.obj
 0001:000013e0       ??$__vcrt_va_start_verify_argument_type@QBD@@YAXXZ 100023e0 f i DatabaseImpl.obj
 0001:000013e0       ??$_Destroy_range1@V?$allocator@UPARAM@Parameter@@@std@@PAUPARAM@Parameter@@@std@@YAXPAUPARAM@Parameter@@0AAU?$_Wrap_alloc@V?$allocator@UPARAM@Parameter@@@std@@@0@U?$integral_constant@_N$00@0@@Z 100023e0 f i DatabaseImpl.obj
 0001:000013e0       ??3@YAXPAX0@Z              100023e0 f i DatabaseImpl.obj
 0001:000013e0       ??$_Pocca@U?$_Wrap_alloc@V?$allocator@D@std@@@std@@@std@@YAXAAU?$_Wrap_alloc@V?$allocator@D@std@@@0@ABU10@U?$integral_constant@_N$0A@@0@@Z 100023e0 f i DatabaseImpl.obj
 0001:000013f0       ??1exception@std@@UAE@XZ   100023f0 f i DatabaseImpl.obj
 0001:00001420       ?what@exception@std@@UBEPBDXZ 10002420 f i DatabaseImpl.obj
 0001:00001450       ??_Eexception@std@@UAEPAXI@Z 10002450 f i * CIL library *:* CIL module *
 0001:00001450       ??_Gexception@std@@UAEPAXI@Z 10002450 f i DatabaseImpl.obj
 0001:00001480       ?compare@?$char_traits@D@std@@SAHPBD0I@Z 10002480 f i DatabaseImpl.obj
 0001:000014c0       ?length@?$char_traits@D@std@@SAIPBD@Z 100024c0 f i DatabaseImpl.obj
 0001:00001510       ?copy@?$char_traits@D@std@@SAPADPADPBDI@Z 10002510 f i DatabaseImpl.obj
 0001:00001540       ?move@?$char_traits@D@std@@SAPADPADPBDI@Z 10002540 f i DatabaseImpl.obj
 0001:00001580       ?assign@?$char_traits@D@std@@SAXAADABD@Z 10002580 f i DatabaseImpl.obj
 0001:00001590       ??1_Bxty@?$_String_val@U?$_Simple_types@D@std@@@std@@QAE@XZ 10002590 f i DatabaseImpl.obj
 0001:00001590       ?_Orphan_all@_Container_base0@std@@QAEXXZ 10002590 f i DatabaseImpl.obj
 0001:000015a0       ?_Compat@?$_String_const_iterator@V?$_String_val@U?$_Simple_types@D@std@@@std@@@std@@QBEXABV12@@Z 100025a0 f i DatabaseImpl.obj
 0001:000015a0       ?_Compat@?$_Vector_const_iterator@V?$_Vector_val@U?$_Simple_types@UPARAM@Parameter@@@std@@@std@@@std@@QBEXABV12@@Z 100025a0 f i DatabaseImpl.obj
 0001:000015a0       ??$destroy@PAD@?$allocator@D@std@@QAEXPAPAD@Z 100025a0 f i DatabaseImpl.obj
 0001:000015a0       ??$destroy@PAU?$_Tree_node@U?$pair@$$CBV?$basic_string@DU?$char_traits@D@std@@V?$allocator@D@2@@std@@P6AXPADPAH@Z@std@@PAX@std@@@?$allocator@U?$_Tree_node@U?$pair@$$CBV?$basic_string@DU?$char_traits@D@std@@V?$allocator@D@2@@std@@P6AXPADPAH@Z@std@@PAX@std@@@std@@QAEXPAPAU?$_Tree_node@U?$pair@$$CBV?$basic_string@DU?$char_traits@D@std@@V?$allocator@D@2@@std@@P6AXPADPAH@Z@std@@PAX@1@@Z 100025a0 f i DatabaseImpl.obj
 0001:000015a0       ?_Adopt@_Iterator_base0@std@@QAEXPBX@Z 100025a0 f i DatabaseImpl.obj
 0001:000015b0       ?_Allocate@std@@YAPAXII_N@Z 100025b0 f i DatabaseImpl.obj
 0001:00001670       ?_Deallocate@std@@YAXPAXII@Z 10002670 f i DatabaseImpl.obj
 0001:00001710       ??1IParameter@@UAE@XZ      10002710 f i DatabaseImpl.obj
 0001:00001730       ??_EIParameter@@UAEPAXI@Z  10002730 f i * CIL library *:* CIL module *
 0001:00001730       ??_GIParameter@@UAEPAXI@Z  10002730 f i DatabaseImpl.obj
 0001:00001760       ??1ITable@@UAE@XZ          10002760 f i DatabaseImpl.obj
 0001:00001780       ??_EITable@@UAEPAXI@Z      10002780 f i * CIL library *:* CIL module *
 0001:00001780       ??_GITable@@UAEPAXI@Z      10002780 f i DatabaseImpl.obj
 0001:000017b0       ??1IDatabase@@UAE@XZ       100027b0 f i DatabaseImpl.obj
 0001:000017d0       ??_GIDatabase@@UAEPAXI@Z   100027d0 f i DatabaseImpl.obj
 0001:000017d0       ??_EIDatabase@@UAEPAXI@Z   100027d0 f i * CIL library *:* CIL module *
 0001:00001800       ?_AtlInitializeCriticalSectionEx@ATL@@YAHPAU_RTL_CRITICAL_SECTION@@KK@Z 10002800 f i DatabaseImpl.obj
 0001:00001820       ?Init@CComCriticalSection@ATL@@QAEJXZ 10002820 f i DatabaseImpl.obj
 0001:00001860       ??0COleDateTime@ATL@@QAE@ABUtagVARIANT@@@Z 10002860 f i DatabaseImpl.obj
 0001:00001890       ??0COleDateTime@ATL@@QAE@N@Z 10002890 f i DatabaseImpl.obj
 0001:000018c0       ??4COleDateTime@ATL@@QAEAAV01@ABUtagVARIANT@@@Z 100028c0 f i DatabaseImpl.obj
 0001:00001940       ??BCOleDateTime@ATL@@QBENXZ 10002940 f i DatabaseImpl.obj
 0001:00001960       ??0?$tuple@$$V@std@@QAE@ABV01@@Z 10002960 f i DatabaseImpl.obj
 0001:00001960       ??0?$allocator@D@std@@QAE@ABV01@@Z 10002960 f i DatabaseImpl.obj
 0001:00001960       ??$?0U_Exact_args_t@std@@$0A@@?$tuple@$$V@std@@QAE@U_Exact_args_t@1@@Z 10002960 f i DatabaseImpl.obj
 0001:00001970       ?Append@_DynaCollection@@QAEJPAUIDispatch@@@Z 10002970 f i DatabaseImpl.obj
 0001:000019b0       ?GetValue@Field20@@QAE?AV_variant_t@@XZ 100029b0 f i DatabaseImpl.obj
 0001:00001a20       ?GetItem@Fields15@@QAE?AV?$_com_ptr_t@V?$_com_IIID@UField@@$1?_GUID_00001569_0000_0010_8000_00aa006d2ea4@@3U__s_GUID@@B@@@@ABV_variant_t@@@Z 10002a20 f i DatabaseImpl.obj
 0001:00001ac0       ?PutPrecision@_Parameter@@QAEXE@Z 10002ac0 f i DatabaseImpl.obj
 0001:00001b00       ?PutNumericScale@_Parameter@@QAEXE@Z 10002b00 f i DatabaseImpl.obj
 0001:00001b40       ?PutRefActiveConnection@Command15@@QAEXPAU_Connection@@@Z 10002b40 f i DatabaseImpl.obj
 0001:00001b80       ?PutCommandText@Command15@@QAEXV_bstr_t@@@Z 10002b80 f i DatabaseImpl.obj
 0001:00001c10       ?Execute@Command15@@QAE?AV?$_com_ptr_t@V?$_com_IIID@U_Recordset@@$1?_GUID_00001556_0000_0010_8000_00aa006d2ea4@@3U__s_GUID@@B@@@@PAUtagVARIANT@@0J@Z 10002c10 f i DatabaseImpl.obj
 0001:00001c80       ?CreateParameter@Command15@@QAE?AV?$_com_ptr_t@V?$_com_IIID@U_Parameter@@$1?_GUID_0000150c_0000_0010_8000_00aa006d2ea4@@3U__s_GUID@@B@@@@V_bstr_t@@W4DataTypeEnum@@W4ParameterDirectionEnum@@JABV_variant_t@@@Z 10002c80 f i DatabaseImpl.obj
 0001:00001d70       ?GetParameters@Command15@@QAE?AV?$_com_ptr_t@V?$_com_IIID@UParameters@@$1?_GUID_0000150d_0000_0010_8000_00aa006d2ea4@@3U__s_GUID@@B@@@@XZ 10002d70 f i DatabaseImpl.obj
 0001:00001de0       ?PutCommandType@Command15@@QAEXW4CommandTypeEnum@@@Z 10002de0 f i DatabaseImpl.obj
 0001:00001e20       ?Close@Connection15@@QAEJXZ 10002e20 f i DatabaseImpl.obj
 0001:00001e60       ?BeginTrans@Connection15@@QAEJXZ 10002e60 f i DatabaseImpl.obj
 0001:00001eb0       ?CommitTrans@Connection15@@QAEJXZ 10002eb0 f i DatabaseImpl.obj
 0001:00001ef0       ?RollbackTrans@Connection15@@QAEJXZ 10002ef0 f i DatabaseImpl.obj
 0001:00001f30       ?Open@Connection15@@QAEJV_bstr_t@@00J@Z 10002f30 f i DatabaseImpl.obj
 0001:00001ff0       ?GetEndOfFile@Recordset15@@QAEFXZ 10002ff0 f i DatabaseImpl.obj
 0001:00002040       ?GetFields@Recordset15@@QAE?AV?$_com_ptr_t@V?$_com_IIID@UFields@@$1?_GUID_00001564_0000_0010_8000_00aa006d2ea4@@3U__s_GUID@@B@@@@XZ 10003040 f i DatabaseImpl.obj
 0001:000020b0       ?MoveNext@Recordset15@@QAEJXZ 100030b0 f i DatabaseImpl.obj
 0001:000020f0       ?MovePrevious@Recordset15@@QAEJXZ 100030f0 f i DatabaseImpl.obj
 0001:00002130       ?MoveFirst@Recordset15@@QAEJXZ 10003130 f i DatabaseImpl.obj
 0001:00002170       ?MoveLast@Recordset15@@QAEJXZ 10003170 f i DatabaseImpl.obj
 0001:000021b0       ?Open@Recordset15@@QAEJABV_variant_t@@0W4CursorTypeEnum@@W4LockTypeEnum@@J@Z 100031b0 f i DatabaseImpl.obj
 0001:00002270       ?NextRecordset@Recordset15@@QAE?AV?$_com_ptr_t@V?$_com_IIID@U_Recordset@@$1?_GUID_00001556_0000_0010_8000_00aa006d2ea4@@3U__s_GUID@@B@@@@PAUtagVARIANT@@@Z 10003270 f i DatabaseImpl.obj
 0001:000022e0       ??_GParameter@@UAEPAXI@Z   100032e0 f i DatabaseImpl.obj
 0001:000022e0       ??_EParameter@@UAEPAXI@Z   100032e0 f i * CIL library *:* CIL module *
 0001:00002310       ??0IParameter@@QAE@XZ      10003310 f i DatabaseImpl.obj
 0001:00002330       ??1Table@@UAE@XZ           10003330 f i DatabaseImpl.obj
 0001:00002360       ??_GTable@@UAEPAXI@Z       10003360 f i DatabaseImpl.obj
 0001:00002360       ??_ETable@@UAEPAXI@Z       10003360 f i * CIL library *:* CIL module *
 0001:000023a0       ??0ITable@@QAE@XZ          100033a0 f i DatabaseImpl.obj
 0001:000023c0       ??1Database@@UAE@XZ        100033c0 f i DatabaseImpl.obj
 0001:00002430       ??_EDatabase@@UAEPAXI@Z    10003430 f i * CIL library *:* CIL module *
 0001:00002430       ??_GDatabase@@UAEPAXI@Z    10003430 f i DatabaseImpl.obj
 0001:00002470       ??0IDatabase@@QAE@XZ       10003470 f i DatabaseImpl.obj
 0001:00002490       ??1?$map@V?$basic_string@DU?$char_traits@D@std@@V?$allocator@D@2@@std@@P6AXPADPAH@ZU?$less@V?$basic_string@DU?$char_traits@D@std@@V?$allocator@D@2@@std@@@2@V?$allocator@U?$pair@$$CBV?$basic_string@DU?$char_traits@D@std@@V?$allocator@D@2@@std@@P6AXPADPAH@Z@std@@@2@@std@@QAE@XZ 10003490 f i DatabaseImpl.obj
 0001:000024b0       ??0CConnEvent@@QAE@XZ      100034b0 f i DatabaseImpl.obj
 0001:000024e0       ??1CConnEvent@@QAE@XZ      100034e0 f i DatabaseImpl.obj
 0001:00002500       ??0ConnectionEventsVt@@QAE@XZ 10003500 f i DatabaseImpl.obj
 0001:00002520       ??0CRstEvent@@QAE@XZ       10003520 f i DatabaseImpl.obj
 0001:00002550       ??1CRstEvent@@QAE@XZ       10003550 f i DatabaseImpl.obj
 0001:00002570       ??0RecordsetEventsVt@@QAE@XZ 10003570 f i DatabaseImpl.obj
 0001:00002590       ?callback_Db_Conn_close@@YAXPAXPADPAHP6AX12@Z@Z 10003590 f   DatabaseImpl.obj
 0001:000025b0       ?ErrorHandler@@YAXAAV_com_error@@PAD@Z 100035b0 f   DatabaseImpl.obj
 0001:00002850       ?set_p_mDatabase@CRstEvent@@QAEXPAVDatabase@@@Z 10003850 f   DatabaseImpl.obj
 0001:00002850       ?set_p_mDatabase@CConnEvent@@QAEXPAVDatabase@@@Z 10003850 f   DatabaseImpl.obj
 0001:00002870       ?raw_InfoMessage@CConnEvent@@UAGJPAUError@@PAW4EventStatusEnum@@PAU_Connection@@@Z 10003870 f   DatabaseImpl.obj
 0001:00002a40       ?raw_BeginTransComplete@CConnEvent@@UAGJJPAUError@@PAW4EventStatusEnum@@PAU_Connection@@@Z 10003a40 f   DatabaseImpl.obj
 0001:00002bf0       ?raw_CommitTransComplete@CConnEvent@@UAGJPAUError@@PAW4EventStatusEnum@@PAU_Connection@@@Z 10003bf0 f   DatabaseImpl.obj
 0001:00002da0       ?raw_RollbackTransComplete@CConnEvent@@UAGJPAUError@@PAW4EventStatusEnum@@PAU_Connection@@@Z 10003da0 f   DatabaseImpl.obj
 0001:00002f50       ?raw_WillExecute@CConnEvent@@UAGJPAPA_WPAW4CursorTypeEnum@@PAW4LockTypeEnum@@PAJPAW4EventStatusEnum@@PAU_Command@@PAU_Recordset@@PAU_Connection@@@Z 10003f50 f   DatabaseImpl.obj
 0001:00003090       ?raw_ExecuteComplete@CConnEvent@@UAGJJPAUError@@PAW4EventStatusEnum@@PAU_Command@@PAU_Recordset@@PAU_Connection@@@Z 10004090 f   DatabaseImpl.obj
 0001:00003240       ?raw_WillConnect@CConnEvent@@UAGJPAPA_W00PAJPAW4EventStatusEnum@@PAU_Connection@@@Z 10004240 f   DatabaseImpl.obj
 0001:00003380       ?raw_ConnectComplete@CConnEvent@@UAGJPAUError@@PAW4EventStatusEnum@@PAU_Connection@@@Z 10004380 f   DatabaseImpl.obj
 0001:00003530       ?raw_Disconnect@CConnEvent@@UAGJPAW4EventStatusEnum@@PAU_Connection@@@Z 10004530 f   DatabaseImpl.obj
 0001:00003670       ?raw_WillChangeField@CRstEvent@@UAGJJUtagVARIANT@@PAW4EventStatusEnum@@PAU_Recordset@@@Z 10004670 f   DatabaseImpl.obj
 0001:000037b0       ?raw_FieldChangeComplete@CRstEvent@@UAGJJUtagVARIANT@@PAUError@@PAW4EventStatusEnum@@PAU_Recordset@@@Z 100047b0 f   DatabaseImpl.obj
 0001:00003960       ?raw_WillChangeRecord@CRstEvent@@UAGJW4EventReasonEnum@@JPAW4EventStatusEnum@@PAU_Recordset@@@Z 10004960 f   DatabaseImpl.obj
 0001:00003aa0       ?raw_RecordChangeComplete@CRstEvent@@UAGJW4EventReasonEnum@@JPAUError@@PAW4EventStatusEnum@@PAU_Recordset@@@Z 10004aa0 f   DatabaseImpl.obj
 0001:00003c50       ?raw_WillChangeRecordset@CRstEvent@@UAGJW4EventReasonEnum@@PAW4EventStatusEnum@@PAU_Recordset@@@Z 10004c50 f   DatabaseImpl.obj
 0001:00003d90       ?raw_RecordsetChangeComplete@CRstEvent@@UAGJW4EventReasonEnum@@PAUError@@PAW4EventStatusEnum@@PAU_Recordset@@@Z 10004d90 f   DatabaseImpl.obj
 0001:00003f40       ?raw_WillMove@CRstEvent@@UAGJW4EventReasonEnum@@PAW4EventStatusEnum@@PAU_Recordset@@@Z 10004f40 f   DatabaseImpl.obj
 0001:00004080       ?raw_MoveComplete@CRstEvent@@UAGJW4EventReasonEnum@@PAUError@@PAW4EventStatusEnum@@PAU_Recordset@@@Z 10005080 f   DatabaseImpl.obj
 0001:00004230       ?raw_EndOfRecordset@CRstEvent@@UAGJPAFPAW4EventStatusEnum@@PAU_Recordset@@@Z 10005230 f   DatabaseImpl.obj
 0001:00004370       ?raw_FetchProgress@CRstEvent@@UAGJJJPAW4EventStatusEnum@@PAU_Recordset@@@Z 10005370 f   DatabaseImpl.obj
 0001:000044b0       ?raw_FetchComplete@CRstEvent@@UAGJPAUError@@PAW4EventStatusEnum@@PAU_Recordset@@@Z 100054b0 f   DatabaseImpl.obj
 0001:00004660       ?QueryInterface@CRstEvent@@UAGJABU_GUID@@PAPAX@Z 10005660 f   DatabaseImpl.obj
 0001:000046d0       ?AddRef@CRstEvent@@UAGKXZ  100056d0 f   DatabaseImpl.obj
 0001:000046d0       ?AddRef@CConnEvent@@UAGKXZ 100056d0 f   DatabaseImpl.obj
 0001:00004700       ?Release@CRstEvent@@UAGKXZ 10005700 f   DatabaseImpl.obj
 0001:00004760       ??_GCRstEvent@@QAEPAXI@Z   10005760 f i DatabaseImpl.obj
 0001:00004790       ?QueryInterface@CConnEvent@@UAGJABU_GUID@@PAPAX@Z 10005790 f   DatabaseImpl.obj
 0001:00004800       ?Release@CConnEvent@@UAGKXZ 10005800 f   DatabaseImpl.obj
 0001:00004860       ??_GCConnEvent@@QAEPAXI@Z  10005860 f i DatabaseImpl.obj
 0001:00004890       ??0Database@@QAE@XZ        10005890 f   DatabaseImpl.obj
 0001:00004990       ?GetErrorErrStr@Database@@UAEXPADI@Z 10005990 f   DatabaseImpl.obj
 0001:000049e0       ?GetErrorErrStr@Table@@UAEXPADI@Z 100059e0 f   DatabaseImpl.obj
 0001:00004a30       ?Open@Database@@UAE_NPBD00@Z 10005a30 f   DatabaseImpl.obj
 0001:00004df0       ?ExitDataBaseLib@Database@@UAEXXZ 10005df0 f   DatabaseImpl.obj
 0001:00004e10       ?CloseDBConnection@Database@@UAEXXZ 10005e10 f   DatabaseImpl.obj
 0001:00004ec0       ?fnc_Event_Status@Database@@UAEXV?$basic_string@DU?$char_traits@D@std@@V?$allocator@D@2@@std@@H@Z 10005ec0 f   DatabaseImpl.obj
 0001:00005030       ?callback@Database@@UAEXPAXP6AXPADPAH@Z1@Z 10006030 f   DatabaseImpl.obj
 0001:000050b0       ?fnc_BeginTransaction@Database@@UAE_NXZ 100060b0 f   DatabaseImpl.obj
 0001:00005170       ?fnc_CommitTransaction@Database@@UAE_NXZ 10006170 f   DatabaseImpl.obj
 0001:00005230       ?fnc_RollBackTransaction@Database@@UAE_NXZ 10006230 f   DatabaseImpl.obj
 0001:000052f0       ?OpenTable@Database@@UAE_NPADAAVITable@@@Z 100062f0 f   DatabaseImpl.obj
 0001:000054f0       ?ReConnect@Database@@UAE_NXZ 100064f0 f   DatabaseImpl.obj
 0001:000055e0       ?Execute@Database@@UAE_NPADAAVITable@@AAVIParameter@@@Z 100065e0 f   DatabaseImpl.obj
 0001:00005660       ?ExecuteIn@Database@@QAEHPADAAVITable@@AAVIParameter@@@Z 10006660 f   DatabaseImpl.obj
 0001:00006a60       ?Execute@Database@@UAE_NPADAAVITable@@AAVIParameter@@H@Z 10007a60 f   DatabaseImpl.obj
 0001:00008590       ??0Table@@QAE@XZ           10009590 f   DatabaseImpl.obj
 0001:00008610       ??4Table@@QAEXV?$_com_ptr_t@V?$_com_IIID@U_Recordset@@$1?_GUID_00001556_0000_0010_8000_00aa006d2ea4@@3U__s_GUID@@B@@@@@Z 10009610 f   DatabaseImpl.obj
 0001:00008640       ?IsEOF@Table@@UAE_NXZ      10009640 f   DatabaseImpl.obj
 0001:00008750       ?Get@Table@@UAE_NPADPAV?$basic_string@DU?$char_traits@D@std@@V?$allocator@D@2@@std@@@Z 10009750 f   DatabaseImpl.obj
 0001:00008b90       ?Get@Table@@UAE_NPAD0I@Z   10009b90 f   DatabaseImpl.obj
 0001:00008da0       ?Get@Table@@UAE_NPADAAI@Z  10009da0 f   DatabaseImpl.obj
 0001:00008f70       ?Get@Table@@UAE_NPADAA_N@Z 10009f70 f   DatabaseImpl.obj
 0001:00009150       ?Get@Table@@UAE_NPADAA_K@Z 1000a150 f   DatabaseImpl.obj
 0001:00009320       ?GetDateTime@Table@@UAE_NPADAAN@Z 1000a320 f   DatabaseImpl.obj
 0001:000094f0       ?Get@Table@@UAE_NPADAAH@Z  1000a4f0 f   DatabaseImpl.obj
 0001:000096c0       ?Get@Table@@UAE_NPADAAM@Z  1000a6c0 f   DatabaseImpl.obj
 0001:00009890       ?Get@Table@@UAE_NPADAAN@Z  1000a890 f   DatabaseImpl.obj
 0001:00009a70       ?Get@Table@@UAE_NPADAAK@Z  1000aa70 f   DatabaseImpl.obj
 0001:00009c40       ?Get@Table@@UAE_NPADAAD@Z  1000ac40 f   DatabaseImpl.obj
 0001:00009e00       ?MoveNext@Table@@UAE_NXZ   1000ae00 f   DatabaseImpl.obj
 0001:00009ec0       ?MovePrev@Table@@UAE_NXZ   1000aec0 f   DatabaseImpl.obj
 0001:00009f80       ?MoveFirst@Table@@UAE_NXZ  1000af80 f   DatabaseImpl.obj
 0001:0000a040       ?MoveLast@Table@@UAE_NXZ   1000b040 f   DatabaseImpl.obj
 0001:0000a100       ?MoveNextRecord@Table@@UAE_NXZ 1000b100 f   DatabaseImpl.obj
 0001:0000a1d0       ??0Parameter@@QAE@XZ       1000b1d0 f   DatabaseImpl.obj
 0001:0000a200       ??1Parameter@@UAE@XZ       1000b200 f   DatabaseImpl.obj
 0001:0000a2e0       ?CopyFieldName@Parameter@@AAEXPADPAPAD@Z 1000b2e0 f   DatabaseImpl.obj
 0001:0000a3b0       ?CopyCharString@Parameter@@AAEXPADPAPADI@Z 1000b3b0 f   DatabaseImpl.obj
 0001:0000a400       ?AddParam@Parameter@@UAEXPADK@Z 1000b400 f   DatabaseImpl.obj
 0001:0000a440       ?AddParam@Parameter@@UAEXPADD@Z 1000b440 f   DatabaseImpl.obj
 0001:0000a490       ?AddParam@Parameter@@UAEXPADI@Z 1000b490 f   DatabaseImpl.obj
 0001:0000a4d0       ?AddParam@Parameter@@UAEXPADH@Z 1000b4d0 f   DatabaseImpl.obj
 0001:0000a510       ?AddParam@Parameter@@UAEXPAD_K@Z 1000b510 f   DatabaseImpl.obj
 0001:0000a560       ?AddParam@Parameter@@UAEXPADM@Z 1000b560 f   DatabaseImpl.obj
 0001:0000a5a0       ?AddParam@Parameter@@UAEXPADN@Z 1000b5a0 f   DatabaseImpl.obj
 0001:0000a5e0       ?AddParam@Parameter@@UAEXPAD0I@Z 1000b5e0 f   DatabaseImpl.obj
 0001:0000a680       ?AddParam@Parameter@@UAEXPADDH@Z 1000b680 f   DatabaseImpl.obj
 0001:0000a6d0       ?AddParam@Parameter@@UAEXPADIH@Z 1000b6d0 f   DatabaseImpl.obj
 0001:0000a720       ?AddParam@Parameter@@UAEXPADHH@Z 1000b720 f   DatabaseImpl.obj
 0001:0000a770       ?AddParam@Parameter@@UAEXPAD_KH@Z 1000b770 f   DatabaseImpl.obj
 0001:0000a7c0       ?AddParam@Parameter@@UAEXPADMH@Z 1000b7c0 f   DatabaseImpl.obj
 0001:0000a810       ?AddParam@Parameter@@UAEXPADNH@Z 1000b810 f   DatabaseImpl.obj
 0001:0000a860       ?AddParam@Parameter@@UAEXPAD0IH@Z 1000b860 f   DatabaseImpl.obj
 0001:0000a910       ?AddDateTimeParam@Parameter@@UAEXPADN@Z 1000b910 f   DatabaseImpl.obj
 0001:0000a950       ?CreateDatabase@@YAPAVIDatabase@@XZ 1000b950 f   DatabaseImpl.obj
 0001:0000a9c0       ?ReleaseParameter@@YAXPAVIParameter@@@Z 1000b9c0 f   DatabaseImpl.obj
 0001:0000a9c0       ?ReleaseTable@@YAXPAVITable@@@Z 1000b9c0 f   DatabaseImpl.obj
 0001:0000a9c0       ?ReleaseDatabase@@YAXPAVIDatabase@@@Z 1000b9c0 f   DatabaseImpl.obj
 0001:0000aa00       ?CreateTable@@YAPAVITable@@XZ 1000ba00 f   DatabaseImpl.obj
 0001:0000aa70       ?CreateParameter@@YAPAVIParameter@@XZ 1000ba70 f   DatabaseImpl.obj
 0001:0000aae0       ??C?$_Tree_iterator@V?$_Tree_val@U?$_Tree_simple_types@U?$pair@$$CBV?$basic_string@DU?$char_traits@D@std@@V?$allocator@D@2@@std@@P6AXPADPAH@Z@std@@@std@@@std@@@std@@QBEPAU?$pair@$$CBV?$basic_string@DU?$char_traits@D@std@@V?$allocator@D@2@@std@@P6AXPADPAH@Z@1@XZ 1000bae0 f i DatabaseImpl.obj
 0001:0000ab00       ??0?$_Tree_iterator@V?$_Tree_val@U?$_Tree_simple_types@U?$pair@$$CBV?$basic_string@DU?$char_traits@D@std@@V?$allocator@D@2@@std@@P6AXPADPAH@Z@std@@@std@@@std@@@std@@QAE@XZ 1000bb00 f i DatabaseImpl.obj
 0001:0000ab20       ??9?$_Tree_const_iterator@V?$_Tree_val@U?$_Tree_simple_types@U?$pair@$$CBV?$basic_string@DU?$char_traits@D@std@@V?$allocator@D@2@@std@@P6AXPADPAH@Z@std@@@std@@@std@@@std@@QBE_NABV01@@Z 1000bb20 f i DatabaseImpl.obj
 0001:0000ab60       ?find@?$_Tree@V?$_Tmap_traits@V?$basic_string@DU?$char_traits@D@std@@V?$allocator@D@2@@std@@P6AXPADPAH@ZU?$less@V?$basic_string@DU?$char_traits@D@std@@V?$allocator@D@2@@std@@@2@V?$allocator@U?$pair@$$CBV?$basic_string@DU?$char_traits@D@std@@V?$allocator@D@2@@std@@P6AXPADPAH@Z@std@@@2@$0A@@std@@@std@@QAE?AV?$_Tree_iterator@V?$_Tree_val@U?$_Tree_simple_types@U?$pair@$$CBV?$basic_string@DU?$char_traits@D@std@@V?$allocator@D@2@@std@@P6AXPADPAH@Z@std@@@std@@@std@@@2@ABV?$basic_string@DU?$char_traits@D@std@@V?$allocator@D@2@@2@@Z 1000bb60 f i DatabaseImpl.obj
 0001:0000ac00       ?size@?$_Tree@V?$_Tmap_traits@V?$basic_string@DU?$char_traits@D@std@@V?$allocator@D@2@@std@@P6AXPADPAH@ZU?$less@V?$basic_string@DU?$char_traits@D@std@@V?$allocator@D@2@@std@@@2@V?$allocator@U?$pair@$$CBV?$basic_string@DU?$char_traits@D@std@@V?$allocator@D@2@@std@@P6AXPADPAH@Z@std@@@2@$0A@@std@@@std@@QBEIXZ 1000bc00 f i DatabaseImpl.obj
 0001:0000ac20       ?end@?$_Tree@V?$_Tmap_traits@V?$basic_string@DU?$char_traits@D@std@@V?$allocator@D@2@@std@@P6AXPADPAH@ZU?$less@V?$basic_string@DU?$char_traits@D@std@@V?$allocator@D@2@@std@@@2@V?$allocator@U?$pair@$$CBV?$basic_string@DU?$char_traits@D@std@@V?$allocator@D@2@@std@@P6AXPADPAH@Z@std@@@2@$0A@@std@@@std@@QAE?AV?$_Tree_iterator@V?$_Tree_val@U?$_Tree_simple_types@U?$pair@$$CBV?$basic_string@DU?$char_traits@D@std@@V?$allocator@D@2@@std@@P6AXPADPAH@Z@std@@@std@@@std@@@2@XZ 1000bc20 f i DatabaseImpl.obj
 0001:0000ac80       ??1?$_Tree@V?$_Tmap_traits@V?$basic_string@DU?$char_traits@D@std@@V?$allocator@D@2@@std@@P6AXPADPAH@ZU?$less@V?$basic_string@DU?$char_traits@D@std@@V?$allocator@D@2@@std@@@2@V?$allocator@U?$pair@$$CBV?$basic_string@DU?$char_traits@D@std@@V?$allocator@D@2@@std@@P6AXPADPAH@Z@std@@@2@$0A@@std@@@std@@QAE@XZ 1000bc80 f i DatabaseImpl.obj
 0001:0000acd0       ??A?$map@V?$basic_string@DU?$char_traits@D@std@@V?$allocator@D@2@@std@@P6AXPADPAH@ZU?$less@V?$basic_string@DU?$char_traits@D@std@@V?$allocator@D@2@@std@@@2@V?$allocator@U?$pair@$$CBV?$basic_string@DU?$char_traits@D@std@@V?$allocator@D@2@@std@@P6AXPADPAH@Z@std@@@2@@std@@QAEAAP6AXPADPAH@Z$$QAV?$basic_string@DU?$char_traits@D@std@@V?$allocator@D@2@@1@@Z 1000bcd0 f i DatabaseImpl.obj
 0001:0000ad10       ??0?$map@V?$basic_string@DU?$char_traits@D@std@@V?$allocator@D@2@@std@@P6AXPADPAH@ZU?$less@V?$basic_string@DU?$char_traits@D@std@@V?$allocator@D@2@@std@@@2@V?$allocator@U?$pair@$$CBV?$basic_string@DU?$char_traits@D@std@@V?$allocator@D@2@@std@@P6AXPADPAH@Z@std@@@2@@std@@QAE@XZ 1000bd10 f i DatabaseImpl.obj
 0001:0000ad30       ??9?$_String_const_iterator@V?$_String_val@U?$_Simple_types@D@std@@@std@@@std@@QBE_NABV01@@Z 1000bd30 f i DatabaseImpl.obj
 0001:0000ad30       ??9?$_Vector_const_iterator@V?$_Vector_val@U?$_Simple_types@UPARAM@Parameter@@@std@@@std@@@std@@QBE_NABV01@@Z 1000bd30 f i DatabaseImpl.obj
 0001:0000ad70       ??E?$_Vector_iterator@V?$_Vector_val@U?$_Simple_types@UPARAM@Parameter@@@std@@@std@@@std@@QAE?AV01@H@Z 1000bd70 f i DatabaseImpl.obj
 0001:0000ada0       ??C?$_Vector_iterator@V?$_Vector_val@U?$_Simple_types@UPARAM@Parameter@@@std@@@std@@@std@@QBEPAUPARAM@Parameter@@XZ 1000bda0 f i DatabaseImpl.obj
 0001:0000adc0       ?clear@?$vector@UPARAM@Parameter@@V?$allocator@UPARAM@Parameter@@@std@@@std@@QAEXXZ 1000bdc0 f i DatabaseImpl.obj
 0001:0000ae40       ?push_back@?$vector@UPARAM@Parameter@@V?$allocator@UPARAM@Parameter@@@std@@@std@@QAEXABUPARAM@Parameter@@@Z 1000be40 f i DatabaseImpl.obj
 0001:0000afb0       ?end@?$vector@UPARAM@Parameter@@V?$allocator@UPARAM@Parameter@@@std@@@std@@QAE?AV?$_Vector_iterator@V?$_Vector_val@U?$_Simple_types@UPARAM@Parameter@@@std@@@std@@@2@XZ 1000bfb0 f i DatabaseImpl.obj
 0001:0000b010       ?begin@?$vector@UPARAM@Parameter@@V?$allocator@UPARAM@Parameter@@@std@@@std@@QAE?AV?$_Vector_iterator@V?$_Vector_val@U?$_Simple_types@UPARAM@Parameter@@@std@@@std@@@2@XZ 1000c010 f i DatabaseImpl.obj
 0001:0000b070       ??1?$vector@UPARAM@Parameter@@V?$allocator@UPARAM@Parameter@@@std@@@std@@QAE@XZ 1000c070 f i DatabaseImpl.obj
 0001:0000b0b0       ??0?$vector@UPARAM@Parameter@@V?$allocator@UPARAM@Parameter@@@std@@@std@@QAE@XZ 1000c0b0 f i DatabaseImpl.obj
 0001:0000b0f0       ?CreateInstance@?$_com_ptr_t@V?$_com_IIID@U_Recordset@@$1?_GUID_00001556_0000_0010_8000_00aa006d2ea4@@3U__s_GUID@@B@@@@QAEJABU_GUID@@PAUIUnknown@@K@Z 1000c0f0 f i DatabaseImpl.obj
 0001:0000b1b0       ??8?$_com_ptr_t@V?$_com_IIID@U_Recordset@@$1?_GUID_00001556_0000_0010_8000_00aa006d2ea4@@3U__s_GUID@@B@@@@QBE_NH@Z 1000c1b0 f i DatabaseImpl.obj
 0001:0000b1b0       ??8?$_com_ptr_t@V?$_com_IIID@U_Connection@@$1?_GUID_00001550_0000_0010_8000_00aa006d2ea4@@3U__s_GUID@@B@@@@QBE_NH@Z 1000c1b0 f i DatabaseImpl.obj
 0001:0000b1f0       ??C?$_com_ptr_t@V?$_com_IIID@U_Connection@@$1?_GUID_00001550_0000_0010_8000_00aa006d2ea4@@3U__s_GUID@@B@@@@QBEPAU_Connection@@XZ 1000c1f0 f i DatabaseImpl.obj
 0001:0000b1f0       ??C?$_com_ptr_t@V?$_com_IIID@UFields@@$1?_GUID_00001564_0000_0010_8000_00aa006d2ea4@@3U__s_GUID@@B@@@@QBEPAUFields@@XZ 1000c1f0 f i DatabaseImpl.obj
 0001:0000b1f0       ??C?$_com_ptr_t@V?$_com_IIID@UField@@$1?_GUID_00001569_0000_0010_8000_00aa006d2ea4@@3U__s_GUID@@B@@@@QBEPAUField@@XZ 1000c1f0 f i DatabaseImpl.obj
 0001:0000b1f0       ??C?$_com_ptr_t@V?$_com_IIID@U_Command@@$1?_GUID_986761e8_7269_4890_aa65_ad7c03697a6d@@3U__s_GUID@@B@@@@QBEPAU_Command@@XZ 1000c1f0 f i DatabaseImpl.obj
 0001:0000b1f0       ??C?$_com_ptr_t@V?$_com_IIID@UParameters@@$1?_GUID_0000150d_0000_0010_8000_00aa006d2ea4@@3U__s_GUID@@B@@@@QBEPAUParameters@@XZ 1000c1f0 f i DatabaseImpl.obj
 0001:0000b1f0       ??C?$_com_ptr_t@V?$_com_IIID@U_Recordset@@$1?_GUID_00001556_0000_0010_8000_00aa006d2ea4@@3U__s_GUID@@B@@@@QBEPAU_Recordset@@XZ 1000c1f0 f i DatabaseImpl.obj
 0001:0000b1f0       ??C?$_com_ptr_t@V?$_com_IIID@U_Parameter@@$1?_GUID_0000150c_0000_0010_8000_00aa006d2ea4@@3U__s_GUID@@B@@@@QBEPAU_Parameter@@XZ 1000c1f0 f i DatabaseImpl.obj
 0001:0000b220       ??1?$_com_ptr_t@V?$_com_IIID@U_Command@@$1?_GUID_986761e8_7269_4890_aa65_ad7c03697a6d@@3U__s_GUID@@B@@@@QAE@XZ 1000c220 f i DatabaseImpl.obj
 0001:0000b220       ??1?$_com_ptr_t@V?$_com_IIID@U_Parameter@@$1?_GUID_0000150c_0000_0010_8000_00aa006d2ea4@@3U__s_GUID@@B@@@@QAE@XZ 1000c220 f i DatabaseImpl.obj
 0001:0000b220       ??1?$_com_ptr_t@V?$_com_IIID@U_Connection@@$1?_GUID_00001550_0000_0010_8000_00aa006d2ea4@@3U__s_GUID@@B@@@@QAE@XZ 1000c220 f i DatabaseImpl.obj
 0001:0000b220       ??1?$_com_ptr_t@V?$_com_IIID@UParameters@@$1?_GUID_0000150d_0000_0010_8000_00aa006d2ea4@@3U__s_GUID@@B@@@@QAE@XZ 1000c220 f i DatabaseImpl.obj
 0001:0000b220       ??1?$_com_ptr_t@V?$_com_IIID@U_Recordset@@$1?_GUID_00001556_0000_0010_8000_00aa006d2ea4@@3U__s_GUID@@B@@@@QAE@XZ 1000c220 f i DatabaseImpl.obj
 0001:0000b220       ??1?$_com_ptr_t@V?$_com_IIID@UFields@@$1?_GUID_00001564_0000_0010_8000_00aa006d2ea4@@3U__s_GUID@@B@@@@QAE@XZ 1000c220 f i DatabaseImpl.obj
 0001:0000b220       ??1?$_com_ptr_t@V?$_com_IIID@UField@@$1?_GUID_00001569_0000_0010_8000_00aa006d2ea4@@3U__s_GUID@@B@@@@QAE@XZ 1000c220 f i DatabaseImpl.obj
 0001:0000b240       ??4?$_com_ptr_t@V?$_com_IIID@U_Recordset@@$1?_GUID_00001556_0000_0010_8000_00aa006d2ea4@@3U__s_GUID@@B@@@@QAEAAV0@H@Z 1000c240 f i DatabaseImpl.obj
 0001:0000b240       ??4?$_com_ptr_t@V?$_com_IIID@U_Connection@@$1?_GUID_00001550_0000_0010_8000_00aa006d2ea4@@3U__s_GUID@@B@@@@QAEAAV0@H@Z 1000c240 f i DatabaseImpl.obj
 0001:0000b270       ??4?$_com_ptr_t@V?$_com_IIID@U_Recordset@@$1?_GUID_00001556_0000_0010_8000_00aa006d2ea4@@3U__s_GUID@@B@@@@QAEAAV0@$$QAV0@@Z 1000c270 f i DatabaseImpl.obj
 0001:0000b2c0       ??4?$_com_ptr_t@V?$_com_IIID@U_Recordset@@$1?_GUID_00001556_0000_0010_8000_00aa006d2ea4@@3U__s_GUID@@B@@@@QAEAAV0@ABV0@@Z 1000c2c0 f i DatabaseImpl.obj
 0001:0000b2e0       ??0?$_com_ptr_t@V?$_com_IIID@UParameters@@$1?_GUID_0000150d_0000_0010_8000_00aa006d2ea4@@3U__s_GUID@@B@@@@QAE@PAUParameters@@_N@Z 1000c2e0 f i DatabaseImpl.obj
 0001:0000b2e0       ??0?$_com_ptr_t@V?$_com_IIID@UFields@@$1?_GUID_00001564_0000_0010_8000_00aa006d2ea4@@3U__s_GUID@@B@@@@QAE@PAUFields@@_N@Z 1000c2e0 f i DatabaseImpl.obj
 0001:0000b2e0       ??0?$_com_ptr_t@V?$_com_IIID@U_Parameter@@$1?_GUID_0000150c_0000_0010_8000_00aa006d2ea4@@3U__s_GUID@@B@@@@QAE@PAU_Parameter@@_N@Z 1000c2e0 f i DatabaseImpl.obj
 0001:0000b2e0       ??0?$_com_ptr_t@V?$_com_IIID@UField@@$1?_GUID_00001569_0000_0010_8000_00aa006d2ea4@@3U__s_GUID@@B@@@@QAE@PAUField@@_N@Z 1000c2e0 f i DatabaseImpl.obj
 0001:0000b2e0       ??0?$_com_ptr_t@V?$_com_IIID@U_Recordset@@$1?_GUID_00001556_0000_0010_8000_00aa006d2ea4@@3U__s_GUID@@B@@@@QAE@PAU_Recordset@@_N@Z 1000c2e0 f i DatabaseImpl.obj
 0001:0000b310       ??0?$_com_ptr_t@V?$_com_IIID@U_Recordset@@$1?_GUID_00001556_0000_0010_8000_00aa006d2ea4@@3U__s_GUID@@B@@@@QAE@ABV0@@Z 1000c310 f i DatabaseImpl.obj
 0001:0000b340       ??0?$_com_ptr_t@V?$_com_IIID@U_Parameter@@$1?_GUID_0000150c_0000_0010_8000_00aa006d2ea4@@3U__s_GUID@@B@@@@QAE@H@Z 1000c340 f i DatabaseImpl.obj
 0001:0000b340       ??0?$_com_ptr_t@V?$_com_IIID@U_Recordset@@$1?_GUID_00001556_0000_0010_8000_00aa006d2ea4@@3U__s_GUID@@B@@@@QAE@H@Z 1000c340 f i DatabaseImpl.obj
 0001:0000b370       ?CreateInstance@?$_com_ptr_t@V?$_com_IIID@U_Connection@@$1?_GUID_00001550_0000_0010_8000_00aa006d2ea4@@3U__s_GUID@@B@@@@QAEJABU_GUID@@PAUIUnknown@@K@Z 1000c370 f i DatabaseImpl.obj
 0001:0000b430       ??B?$_com_ptr_t@V?$_com_IIID@U_Connection@@$1?_GUID_00001550_0000_0010_8000_00aa006d2ea4@@3U__s_GUID@@B@@@@QBE_NXZ 1000c430 f i DatabaseImpl.obj
 0001:0000b430       ??B?$_com_ptr_t@V?$_com_IIID@U_Command@@$1?_GUID_986761e8_7269_4890_aa65_ad7c03697a6d@@3U__s_GUID@@B@@@@QBE_NXZ 1000c430 f i DatabaseImpl.obj
 0001:0000b460       ??B?$_com_ptr_t@V?$_com_IIID@U_Parameter@@$1?_GUID_0000150c_0000_0010_8000_00aa006d2ea4@@3U__s_GUID@@B@@@@QBEPAU_Parameter@@XZ 1000c460 f i DatabaseImpl.obj
 0001:0000b460       ??B?$_com_ptr_t@V?$_com_IIID@U_Connection@@$1?_GUID_00001550_0000_0010_8000_00aa006d2ea4@@3U__s_GUID@@B@@@@QBEPAU_Connection@@XZ 1000c460 f i DatabaseImpl.obj
 0001:0000b460       ??D?$_String_const_iterator@V?$_String_val@U?$_Simple_types@D@std@@@std@@@std@@QBEABDXZ 1000c460 f i DatabaseImpl.obj
 0001:0000b460       ?_Mynode@?$_Tree_unchecked_const_iterator@V?$_Tree_val@U?$_Tree_simple_types@U?$pair@$$CBV?$basic_string@DU?$char_traits@D@std@@V?$allocator@D@2@@std@@P6AXPADPAH@Z@std@@@std@@@std@@U_Iterator_base0@2@@std@@QBEPAU?$_Tree_node@U?$pair@$$CBV?$basic_string@DU?$char_traits@D@std@@V?$allocator@D@2@@std@@P6AXPADPAH@Z@std@@PAX@2@XZ 1000c460 f i DatabaseImpl.obj
 0001:0000b460       ??D?$_Vector_const_iterator@V?$_Vector_val@U?$_Simple_types@UPARAM@Parameter@@@std@@@std@@@std@@QBEABUPARAM@Parameter@@XZ 1000c460 f i DatabaseImpl.obj
 0001:0000b470       ?CreateInstance@?$_com_ptr_t@V?$_com_IIID@U_Command@@$1?_GUID_986761e8_7269_4890_aa65_ad7c03697a6d@@3U__s_GUID@@B@@@@QAEJABU_GUID@@PAUIUnknown@@K@Z 1000c470 f i DatabaseImpl.obj
 0001:0000b530       ??8?$_Vector_const_iterator@V?$_Vector_val@U?$_Simple_types@UPARAM@Parameter@@@std@@@std@@@std@@QBE_NABV01@@Z 1000c530 f i DatabaseImpl.obj
 0001:0000b530       ??8?$_String_const_iterator@V?$_String_val@U?$_Simple_types@D@std@@@std@@@std@@QBE_NABV01@@Z 1000c530 f i DatabaseImpl.obj
 0001:0000b570       ??G?$_String_iterator@V?$_String_val@U?$_Simple_types@D@std@@@std@@@std@@QBE?AV01@H@Z 1000c570 f i DatabaseImpl.obj
 0001:0000b5a0       ??H?$_String_iterator@V?$_String_val@U?$_Simple_types@D@std@@@std@@@std@@QBE?AV01@H@Z 1000c5a0 f i DatabaseImpl.obj
 0001:0000b5d0       ??F?$_String_iterator@V?$_String_val@U?$_Simple_types@D@std@@@std@@@std@@QAE?AV01@H@Z 1000c5d0 f i DatabaseImpl.obj
 0001:0000b600       ??E?$_String_iterator@V?$_String_val@U?$_Simple_types@D@std@@@std@@@std@@QAE?AV01@H@Z 1000c600 f i DatabaseImpl.obj
 0001:0000b630       ??D?$_String_iterator@V?$_String_val@U?$_Simple_types@D@std@@@std@@@std@@QBEAADXZ 1000c630 f i DatabaseImpl.obj
 0001:0000b630       ??D?$_Vector_iterator@V?$_Vector_val@U?$_Simple_types@UPARAM@Parameter@@@std@@@std@@@std@@QBEAAUPARAM@Parameter@@XZ 1000c630 f i DatabaseImpl.obj
 0001:0000b650       ??0?$_String_iterator@V?$_String_val@U?$_Simple_types@D@std@@@std@@@std@@QAE@XZ 1000c650 f i DatabaseImpl.obj
 0001:0000b650       ??0?$_Tree_const_iterator@V?$_Tree_val@U?$_Tree_simple_types@U?$pair@$$CBV?$basic_string@DU?$char_traits@D@std@@V?$allocator@D@2@@std@@P6AXPADPAH@Z@std@@@std@@@std@@@std@@QAE@XZ 1000c650 f i DatabaseImpl.obj
 0001:0000b670       ?compare@?$basic_string@DU?$char_traits@D@std@@V?$allocator@D@2@@std@@QBEHABV12@@Z 1000c670 f i DatabaseImpl.obj
 0001:0000b6e0       ?c_str@?$basic_string@DU?$char_traits@D@std@@V?$allocator@D@2@@std@@QBEPBDXZ 1000c6e0 f i DatabaseImpl.obj
 0001:0000b720       ?end@?$basic_string@DU?$char_traits@D@std@@V?$allocator@D@2@@std@@QAE?AV?$_String_iterator@V?$_String_val@U?$_Simple_types@D@std@@@std@@@2@XZ 1000c720 f i DatabaseImpl.obj
 0001:0000b7a0       ?begin@?$basic_string@DU?$char_traits@D@std@@V?$allocator@D@2@@std@@QAE?AV?$_String_iterator@V?$_String_val@U?$_Simple_types@D@std@@@std@@@2@XZ 1000c7a0 f i DatabaseImpl.obj
 0001:0000b810       ?clear@?$basic_string@DU?$char_traits@D@std@@V?$allocator@D@2@@std@@QAEXXZ 1000c810 f i DatabaseImpl.obj
 0001:0000b850       ?erase@?$basic_string@DU?$char_traits@D@std@@V?$allocator@D@2@@std@@QAE?AV?$_String_iterator@V?$_String_val@U?$_Simple_types@D@std@@@std@@@2@V?$_String_const_iterator@V?$_String_val@U?$_Simple_types@D@std@@@std@@@2@0@Z 1000c850 f i DatabaseImpl.obj
 0001:0000b8b0       ??4?$basic_string@DU?$char_traits@D@std@@V?$allocator@D@2@@std@@QAEAAV01@PBD@Z 1000c8b0 f i DatabaseImpl.obj
 0001:0000b8d0       ??4?$basic_string@DU?$char_traits@D@std@@V?$allocator@D@2@@std@@QAEAAV01@ABV01@@Z 1000c8d0 f i DatabaseImpl.obj
 0001:0000b940       ??1?$basic_string@DU?$char_traits@D@std@@V?$allocator@D@2@@std@@QAE@XZ 1000c940 f i DatabaseImpl.obj
 0001:0000b990       ??0?$basic_string@DU?$char_traits@D@std@@V?$allocator@D@2@@std@@QAE@$$QAV01@@Z 1000c990 f i DatabaseImpl.obj
 0001:0000ba10       ??0?$basic_string@DU?$char_traits@D@std@@V?$allocator@D@2@@std@@QAE@PBD@Z 1000ca10 f i DatabaseImpl.obj
 0001:0000ba80       ??0?$basic_string@DU?$char_traits@D@std@@V?$allocator@D@2@@std@@QAE@XZ 1000ca80 f i DatabaseImpl.obj
 0001:0000bad0       ??1?$_String_alloc@U?$_String_base_types@DV?$allocator@D@std@@@std@@@std@@QAE@XZ 1000cad0 f i DatabaseImpl.obj
 0001:0000baf0       ??1?$_Compressed_pair@U?$_Wrap_alloc@V?$allocator@D@std@@@std@@V?$_String_val@U?$_Simple_types@D@std@@@2@$00@std@@QAE@XZ 1000caf0 f i DatabaseImpl.obj
 0001:0000bb10       ??1?$_String_val@U?$_Simple_types@D@std@@@std@@QAE@XZ 1000cb10 f i DatabaseImpl.obj
 0001:0000bb30       ?pointer_to@?$pointer_traits@PAUPARAM@Parameter@@@std@@SAPAUPARAM@Parameter@@AAU34@@Z 1000cb30 f i DatabaseImpl.obj
 0001:0000bb30       ?pointer_to@?$pointer_traits@PAD@std@@SAPADAAD@Z 1000cb30 f i DatabaseImpl.obj
 0001:0000bb30       ?pointer_to@?$pointer_traits@PAU?$pair@$$CBV?$basic_string@DU?$char_traits@D@std@@V?$allocator@D@2@@std@@P6AXPADPAH@Z@std@@@std@@SAPAU?$pair@$$CBV?$basic_string@DU?$char_traits@D@std@@V?$allocator@D@2@@std@@P6AXPADPAH@Z@2@AAU32@@Z 1000cb30 f i DatabaseImpl.obj
 0001:0000bb30       ?_Left@?$_Tree_comp_alloc@V?$_Tmap_traits@V?$basic_string@DU?$char_traits@D@std@@V?$allocator@D@2@@std@@P6AXPADPAH@ZU?$less@V?$basic_string@DU?$char_traits@D@std@@V?$allocator@D@2@@std@@@2@V?$allocator@U?$pair@$$CBV?$basic_string@DU?$char_traits@D@std@@V?$allocator@D@2@@std@@P6AXPADPAH@Z@std@@@2@$0A@@std@@@std@@SAAAPAU?$_Tree_node@U?$pair@$$CBV?$basic_string@DU?$char_traits@D@std@@V?$allocator@D@2@@std@@P6AXPADPAH@Z@std@@PAX@2@PAU32@@Z 1000cb30 f i DatabaseImpl.obj
 0001:0000bb50       ??D?$_Tree_iterator@V?$_Tree_val@U?$_Tree_simple_types@U?$pair@$$CBV?$basic_string@DU?$char_traits@D@std@@V?$allocator@D@2@@std@@P6AXPADPAH@Z@std@@@std@@@std@@@std@@QBEAAU?$pair@$$CBV?$basic_string@DU?$char_traits@D@std@@V?$allocator@D@2@@std@@P6AXPADPAH@Z@1@XZ 1000cb50 f i DatabaseImpl.obj
 0001:0000bb70       ??0?$_Tree_iterator@V?$_Tree_val@U?$_Tree_simple_types@U?$pair@$$CBV?$basic_string@DU?$char_traits@D@std@@V?$allocator@D@2@@std@@P6AXPADPAH@Z@std@@@std@@@std@@@std@@QAE@PAU?$_Tree_node@U?$pair@$$CBV?$basic_string@DU?$char_traits@D@std@@V?$allocator@D@2@@std@@P6AXPADPAH@Z@std@@PAX@1@PBV?$_Tree_val@U?$_Tree_simple_types@U?$pair@$$CBV?$basic_string@DU?$char_traits@D@std@@V?$allocator@D@2@@std@@P6AXPADPAH@Z@std@@@std@@@1@@Z 1000cb70 f i DatabaseImpl.obj
 0001:0000bb90       ??8?$_Tree_const_iterator@V?$_Tree_val@U?$_Tree_simple_types@U?$pair@$$CBV?$basic_string@DU?$char_traits@D@std@@V?$allocator@D@2@@std@@P6AXPADPAH@Z@std@@@std@@@std@@@std@@QBE_NABV01@@Z 1000cb90 f i DatabaseImpl.obj
 0001:0000bbc0       ?_Mysize@?$_Tree_comp_alloc@V?$_Tmap_traits@V?$basic_string@DU?$char_traits@D@std@@V?$allocator@D@2@@std@@P6AXPADPAH@ZU?$less@V?$basic_string@DU?$char_traits@D@std@@V?$allocator@D@2@@std@@@2@V?$allocator@U?$pair@$$CBV?$basic_string@DU?$char_traits@D@std@@V?$allocator@D@2@@std@@P6AXPADPAH@Z@std@@@2@$0A@@std@@@std@@QBEABIXZ 1000cbc0 f i DatabaseImpl.obj
 0001:0000bbc0       ?_Mysize@?$_Tree_comp_alloc@V?$_Tmap_traits@V?$basic_string@DU?$char_traits@D@std@@V?$allocator@D@2@@std@@P6AXPADPAH@ZU?$less@V?$basic_string@DU?$char_traits@D@std@@V?$allocator@D@2@@std@@@2@V?$allocator@U?$pair@$$CBV?$basic_string@DU?$char_traits@D@std@@V?$allocator@D@2@@std@@P6AXPADPAH@Z@std@@@2@$0A@@std@@@std@@QAEAAIXZ 1000cbc0 f i DatabaseImpl.obj
 0001:0000bbe0       ?_Myhead@?$_Tree_comp_alloc@V?$_Tmap_traits@V?$basic_string@DU?$char_traits@D@std@@V?$allocator@D@2@@std@@P6AXPADPAH@ZU?$less@V?$basic_string@DU?$char_traits@D@std@@V?$allocator@D@2@@std@@@2@V?$allocator@U?$pair@$$CBV?$basic_string@DU?$char_traits@D@std@@V?$allocator@D@2@@std@@P6AXPADPAH@Z@std@@@2@$0A@@std@@@std@@QBEABQAU?$_Tree_node@U?$pair@$$CBV?$basic_string@DU?$char_traits@D@std@@V?$allocator@D@2@@std@@P6AXPADPAH@Z@std@@PAX@2@XZ 1000cbe0 f i DatabaseImpl.obj
 0001:0000bbe0       ?_Myhead@?$_Tree_comp_alloc@V?$_Tmap_traits@V?$basic_string@DU?$char_traits@D@std@@V?$allocator@D@2@@std@@P6AXPADPAH@ZU?$less@V?$basic_string@DU?$char_traits@D@std@@V?$allocator@D@2@@std@@@2@V?$allocator@U?$pair@$$CBV?$basic_string@DU?$char_traits@D@std@@V?$allocator@D@2@@std@@P6AXPADPAH@Z@std@@@2@$0A@@std@@@std@@QAEAAPAU?$_Tree_node@U?$pair@$$CBV?$basic_string@DU?$char_traits@D@std@@V?$allocator@D@2@@std@@P6AXPADPAH@Z@std@@PAX@2@XZ 1000cbe0 f i DatabaseImpl.obj
 0001:0000bc00       ?_Get_data@?$_Tree_comp_alloc@V?$_Tmap_traits@V?$basic_string@DU?$char_traits@D@std@@V?$allocator@D@2@@std@@P6AXPADPAH@ZU?$less@V?$basic_string@DU?$char_traits@D@std@@V?$allocator@D@2@@std@@@2@V?$allocator@U?$pair@$$CBV?$basic_string@DU?$char_traits@D@std@@V?$allocator@D@2@@std@@P6AXPADPAH@Z@std@@@2@$0A@@std@@@std@@QBEABV?$_Tree_val@U?$_Tree_simple_types@U?$pair@$$CBV?$basic_string@DU?$char_traits@D@std@@V?$allocator@D@2@@std@@P6AXPADPAH@Z@std@@@std@@@2@XZ 1000cc00 f i DatabaseImpl.obj
 0001:0000bc00       ?_Getal@?$_Tree_comp_alloc@V?$_Tmap_traits@V?$basic_string@DU?$char_traits@D@std@@V?$allocator@D@2@@std@@P6AXPADPAH@ZU?$less@V?$basic_string@DU?$char_traits@D@std@@V?$allocator@D@2@@std@@@2@V?$allocator@U?$pair@$$CBV?$basic_string@DU?$char_traits@D@std@@V?$allocator@D@2@@std@@P6AXPADPAH@Z@std@@@2@$0A@@std@@@std@@QAEAAU?$_Wrap_alloc@V?$allocator@U?$_Tree_node@U?$pair@$$CBV?$basic_string@DU?$char_traits@D@std@@V?$allocator@D@2@@std@@P6AXPADPAH@Z@std@@PAX@std@@@std@@@2@XZ 1000cc00 f i DatabaseImpl.obj
 0001:0000bc00       ?_Get_data@?$_Tree_comp_alloc@V?$_Tmap_traits@V?$basic_string@DU?$char_traits@D@std@@V?$allocator@D@2@@std@@P6AXPADPAH@ZU?$less@V?$basic_string@DU?$char_traits@D@std@@V?$allocator@D@2@@std@@@2@V?$allocator@U?$pair@$$CBV?$basic_string@DU?$char_traits@D@std@@V?$allocator@D@2@@std@@P6AXPADPAH@Z@std@@@2@$0A@@std@@@std@@QAEAAV?$_Tree_val@U?$_Tree_simple_types@U?$pair@$$CBV?$basic_string@DU?$char_traits@D@std@@V?$allocator@D@2@@std@@P6AXPADPAH@Z@std@@@std@@@2@XZ 1000cc00 f i DatabaseImpl.obj
 0001:0000bc00       ?_Getal@?$_Tree_comp_alloc@V?$_Tmap_traits@V?$basic_string@DU?$char_traits@D@std@@V?$allocator@D@2@@std@@P6AXPADPAH@ZU?$less@V?$basic_string@DU?$char_traits@D@std@@V?$allocator@D@2@@std@@@2@V?$allocator@U?$pair@$$CBV?$basic_string@DU?$char_traits@D@std@@V?$allocator@D@2@@std@@P6AXPADPAH@Z@std@@@2@$0A@@std@@@std@@QBEABU?$_Wrap_alloc@V?$allocator@U?$_Tree_node@U?$pair@$$CBV?$basic_string@DU?$char_traits@D@std@@V?$allocator@D@2@@std@@P6AXPADPAH@Z@std@@PAX@std@@@std@@@2@XZ 1000cc00 f i DatabaseImpl.obj
 0001:0000bc20       ?_Getcomp@?$_Tree_comp_alloc@V?$_Tmap_traits@V?$basic_string@DU?$char_traits@D@std@@V?$allocator@D@2@@std@@P6AXPADPAH@ZU?$less@V?$basic_string@DU?$char_traits@D@std@@V?$allocator@D@2@@std@@@2@V?$allocator@U?$pair@$$CBV?$basic_string@DU?$char_traits@D@std@@V?$allocator@D@2@@std@@P6AXPADPAH@Z@std@@@2@$0A@@std@@@std@@QAEAAU?$less@V?$basic_string@DU?$char_traits@D@std@@V?$allocator@D@2@@std@@@2@XZ 1000cc20 f i DatabaseImpl.obj
 0001:0000bc20       ?_Getal@?$_Vector_alloc@U?$_Vec_base_types@UPARAM@Parameter@@V?$allocator@UPARAM@Parameter@@@std@@@std@@@std@@QBEABU?$_Wrap_alloc@V?$allocator@UPARAM@Parameter@@@std@@@2@XZ 1000cc20 f i DatabaseImpl.obj
 0001:0000bc20       ?_Get_data@?$_String_alloc@U?$_String_base_types@DV?$allocator@D@std@@@std@@@std@@QAEAAV?$_String_val@U?$_Simple_types@D@std@@@2@XZ 1000cc20 f i DatabaseImpl.obj
 0001:0000bc20       ?_Getal@?$_String_alloc@U?$_String_base_types@DV?$allocator@D@std@@@std@@@std@@QBEABU?$_Wrap_alloc@V?$allocator@D@std@@@2@XZ 1000cc20 f i DatabaseImpl.obj
 0001:0000bc20       ?_Getal@?$_Vector_alloc@U?$_Vec_base_types@UPARAM@Parameter@@V?$allocator@UPARAM@Parameter@@@std@@@std@@@std@@QAEAAU?$_Wrap_alloc@V?$allocator@UPARAM@Parameter@@@std@@@2@XZ 1000cc20 f i DatabaseImpl.obj
 0001:0000bc20       ?_Getal@?$_String_alloc@U?$_String_base_types@DV?$allocator@D@std@@@std@@@std@@QAEAAU?$_Wrap_alloc@V?$allocator@D@std@@@2@XZ 1000cc20 f i DatabaseImpl.obj
 0001:0000bc20       ?_Getcomp@?$_Tree_comp_alloc@V?$_Tmap_traits@V?$basic_string@DU?$char_traits@D@std@@V?$allocator@D@2@@std@@P6AXPADPAH@ZU?$less@V?$basic_string@DU?$char_traits@D@std@@V?$allocator@D@2@@std@@@2@V?$allocator@U?$pair@$$CBV?$basic_string@DU?$char_traits@D@std@@V?$allocator@D@2@@std@@P6AXPADPAH@Z@std@@@2@$0A@@std@@@std@@QBEABU?$less@V?$basic_string@DU?$char_traits@D@std@@V?$allocator@D@2@@std@@@2@XZ 1000cc20 f i DatabaseImpl.obj
 0001:0000bc20       ?_Get_data@?$_Vector_alloc@U?$_Vec_base_types@UPARAM@Parameter@@V?$allocator@UPARAM@Parameter@@@std@@@std@@@std@@QAEAAV?$_Vector_val@U?$_Simple_types@UPARAM@Parameter@@@std@@@2@XZ 1000cc20 f i DatabaseImpl.obj
 0001:0000bc20       ?_Get_data@?$_String_alloc@U?$_String_base_types@DV?$allocator@D@std@@@std@@@std@@QBEABV?$_String_val@U?$_Simple_types@D@std@@@2@XZ 1000cc20 f i DatabaseImpl.obj
 0001:0000bc20       ?_Get_data@?$_Vector_alloc@U?$_Vec_base_types@UPARAM@Parameter@@V?$allocator@UPARAM@Parameter@@@std@@@std@@@std@@QBEABV?$_Vector_val@U?$_Simple_types@UPARAM@Parameter@@@std@@@2@XZ 1000cc20 f i DatabaseImpl.obj
 0001:0000bc40       ??1?$_Tree_comp_alloc@V?$_Tmap_traits@V?$basic_string@DU?$char_traits@D@std@@V?$allocator@D@2@@std@@P6AXPADPAH@ZU?$less@V?$basic_string@DU?$char_traits@D@std@@V?$allocator@D@2@@std@@@2@V?$allocator@U?$pair@$$CBV?$basic_string@DU?$char_traits@D@std@@V?$allocator@D@2@@std@@P6AXPADPAH@Z@std@@@2@$0A@@std@@@std@@QAE@XZ 1000cc40 f i DatabaseImpl.obj
 0001:0000bc90       ?_Key@?$_Tree@V?$_Tmap_traits@V?$basic_string@DU?$char_traits@D@std@@V?$allocator@D@2@@std@@P6AXPADPAH@ZU?$less@V?$basic_string@DU?$char_traits@D@std@@V?$allocator@D@2@@std@@@2@V?$allocator@U?$pair@$$CBV?$basic_string@DU?$char_traits@D@std@@V?$allocator@D@2@@std@@P6AXPADPAH@Z@std@@@2@$0A@@std@@@std@@IBEABV?$basic_string@DU?$char_traits@D@std@@V?$allocator@D@2@@2@PAU?$_Tree_node@U?$pair@$$CBV?$basic_string@DU?$char_traits@D@std@@V?$allocator@D@2@@std@@P6AXPADPAH@Z@std@@PAX@2@@Z 1000cc90 f i DatabaseImpl.obj
 0001:0000bcc0       ?_Tidy@?$_Tree@V?$_Tmap_traits@V?$basic_string@DU?$char_traits@D@std@@V?$allocator@D@2@@std@@P6AXPADPAH@ZU?$less@V?$basic_string@DU?$char_traits@D@std@@V?$allocator@D@2@@std@@@2@V?$allocator@U?$pair@$$CBV?$basic_string@DU?$char_traits@D@std@@V?$allocator@D@2@@std@@P6AXPADPAH@Z@std@@@2@$0A@@std@@@std@@IAEXXZ 1000ccc0 f i DatabaseImpl.obj
 0001:0000bd10       ?lower_bound@?$_Tree@V?$_Tmap_traits@V?$basic_string@DU?$char_traits@D@std@@V?$allocator@D@2@@std@@P6AXPADPAH@ZU?$less@V?$basic_string@DU?$char_traits@D@std@@V?$allocator@D@2@@std@@@2@V?$allocator@U?$pair@$$CBV?$basic_string@DU?$char_traits@D@std@@V?$allocator@D@2@@std@@P6AXPADPAH@Z@std@@@2@$0A@@std@@@std@@QAE?AV?$_Tree_iterator@V?$_Tree_val@U?$_Tree_simple_types@U?$pair@$$CBV?$basic_string@DU?$char_traits@D@std@@V?$allocator@D@2@@std@@P6AXPADPAH@Z@std@@@std@@@std@@@2@ABV?$basic_string@DU?$char_traits@D@std@@V?$allocator@D@2@@2@@Z 1000cd10 f i DatabaseImpl.obj
 0001:0000bd40       ??0?$_Tree@V?$_Tmap_traits@V?$basic_string@DU?$char_traits@D@std@@V?$allocator@D@2@@std@@P6AXPADPAH@ZU?$less@V?$basic_string@DU?$char_traits@D@std@@V?$allocator@D@2@@std@@@2@V?$allocator@U?$pair@$$CBV?$basic_string@DU?$char_traits@D@std@@V?$allocator@D@2@@std@@P6AXPADPAH@Z@std@@@2@$0A@@std@@@std@@QAE@ABU?$less@V?$basic_string@DU?$char_traits@D@std@@V?$allocator@D@2@@std@@@1@@Z 1000cd40 f i DatabaseImpl.obj
 0001:0000bd60       ??R?$less@V?$basic_string@DU?$char_traits@D@std@@V?$allocator@D@2@@std@@@std@@QBE_NABV?$basic_string@DU?$char_traits@D@std@@V?$allocator@D@2@@1@0@Z 1000cd60 f i DatabaseImpl.obj
 0001:0000bd80       ??E?$_Vector_iterator@V?$_Vector_val@U?$_Simple_types@UPARAM@Parameter@@@std@@@std@@@std@@QAEAAV01@XZ 1000cd80 f i DatabaseImpl.obj
 0001:0000bda0       ??0?$_Tree_const_iterator@V?$_Tree_val@U?$_Tree_simple_types@U?$pair@$$CBV?$basic_string@DU?$char_traits@D@std@@V?$allocator@D@2@@std@@P6AXPADPAH@Z@std@@@std@@@std@@@std@@QAE@PAU?$_Tree_node@U?$pair@$$CBV?$basic_string@DU?$char_traits@D@std@@V?$allocator@D@2@@std@@P6AXPADPAH@Z@std@@PAX@1@PBV?$_Tree_val@U?$_Tree_simple_types@U?$pair@$$CBV?$basic_string@DU?$char_traits@D@std@@V?$allocator@D@2@@std@@P6AXPADPAH@Z@std@@@std@@@1@@Z 1000cda0 f i DatabaseImpl.obj
 0001:0000bda0       ??0?$_Vector_iterator@V?$_Vector_val@U?$_Simple_types@UPARAM@Parameter@@@std@@@std@@@std@@QAE@PAUPARAM@Parameter@@PBU_Container_base0@1@@Z 1000cda0 f i DatabaseImpl.obj
 0001:0000bda0       ??0?$_String_iterator@V?$_String_val@U?$_Simple_types@D@std@@@std@@@std@@QAE@PADPBU_Container_base0@1@@Z 1000cda0 f i DatabaseImpl.obj
 0001:0000bdc0       ?_Myend@?$_Vector_alloc@U?$_Vec_base_types@UPARAM@Parameter@@V?$allocator@UPARAM@Parameter@@@std@@@std@@@std@@QAEAAPAUPARAM@Parameter@@XZ 1000cdc0 f i DatabaseImpl.obj
 0001:0000bdc0       ?_Myend@?$_Vector_alloc@U?$_Vec_base_types@UPARAM@Parameter@@V?$allocator@UPARAM@Parameter@@@std@@@std@@@std@@QBEABQAUPARAM@Parameter@@XZ 1000cdc0 f i DatabaseImpl.obj
 0001:0000bde0       ?_Mylast@?$_Vector_alloc@U?$_Vec_base_types@UPARAM@Parameter@@V?$allocator@UPARAM@Parameter@@@std@@@std@@@std@@QBEABQAUPARAM@Parameter@@XZ 1000cde0 f i DatabaseImpl.obj
 0001:0000bde0       ?_Mylast@?$_Vector_alloc@U?$_Vec_base_types@UPARAM@Parameter@@V?$allocator@UPARAM@Parameter@@@std@@@std@@@std@@QAEAAPAUPARAM@Parameter@@XZ 1000cde0 f i DatabaseImpl.obj
 0001:0000be00       ?_Myfirst@?$_Vector_alloc@U?$_Vec_base_types@UPARAM@Parameter@@V?$allocator@UPARAM@Parameter@@@std@@@std@@@std@@QAEAAPAUPARAM@Parameter@@XZ 1000ce00 f i DatabaseImpl.obj
 0001:0000be00       ?_Bx@?$_String_alloc@U?$_String_base_types@DV?$allocator@D@std@@@std@@@std@@QAEAAT_Bxty@?$_String_val@U?$_Simple_types@D@std@@@2@XZ 1000ce00 f i DatabaseImpl.obj
 0001:0000be00       ?_Myfirst@?$_Vector_alloc@U?$_Vec_base_types@UPARAM@Parameter@@V?$allocator@UPARAM@Parameter@@@std@@@std@@@std@@QBEABQAUPARAM@Parameter@@XZ 1000ce00 f i DatabaseImpl.obj
 0001:0000be20       ?_Orphan_all@?$_Vector_alloc@U?$_Vec_base_types@UPARAM@Parameter@@V?$allocator@UPARAM@Parameter@@@std@@@std@@@std@@QAEXXZ 1000ce20 f i DatabaseImpl.obj
 0001:0000be40       ??0?$_Vector_alloc@U?$_Vec_base_types@UPARAM@Parameter@@V?$allocator@UPARAM@Parameter@@@std@@@std@@@std@@QAE@XZ 1000ce40 f i DatabaseImpl.obj
 0001:0000be60       ?_Orphan_range@?$vector@UPARAM@Parameter@@V?$allocator@UPARAM@Parameter@@@std@@@std@@IBEXPAUPARAM@Parameter@@0@Z 1000ce60 f i DatabaseImpl.obj
 0001:0000be70       ?_Tidy@?$vector@UPARAM@Parameter@@V?$allocator@UPARAM@Parameter@@@std@@@std@@IAEXXZ 1000ce70 f i DatabaseImpl.obj
 0001:0000bf20       ?_Reserve@?$vector@UPARAM@Parameter@@V?$allocator@UPARAM@Parameter@@@std@@@std@@IAEXI@Z 1000cf20 f i DatabaseImpl.obj
 0001:0000bf80       ?_Inside@?$vector@UPARAM@Parameter@@V?$allocator@UPARAM@Parameter@@@std@@@std@@IBE_NPBUPARAM@Parameter@@@Z 1000cf80 f i DatabaseImpl.obj
 0001:0000bfe0       ?_Destroy@?$vector@UPARAM@Parameter@@V?$allocator@UPARAM@Parameter@@@std@@@std@@IAEXPAUPARAM@Parameter@@0@Z 1000cfe0 f i DatabaseImpl.obj
 0001:0000c010       ?_AddRef@?$_com_ptr_t@V?$_com_IIID@U_Recordset@@$1?_GUID_00001556_0000_0010_8000_00aa006d2ea4@@3U__s_GUID@@B@@@@AAEXXZ 1000d010 f i DatabaseImpl.obj
 0001:0000c010       ?_AddRef@?$_com_ptr_t@V?$_com_IIID@UFields@@$1?_GUID_00001564_0000_0010_8000_00aa006d2ea4@@3U__s_GUID@@B@@@@AAEXXZ 1000d010 f i DatabaseImpl.obj
 0001:0000c010       ?_AddRef@?$_com_ptr_t@V?$_com_IIID@UField@@$1?_GUID_00001569_0000_0010_8000_00aa006d2ea4@@3U__s_GUID@@B@@@@AAEXXZ 1000d010 f i DatabaseImpl.obj
 0001:0000c010       ?_AddRef@?$_com_ptr_t@V?$_com_IIID@U_Parameter@@$1?_GUID_0000150c_0000_0010_8000_00aa006d2ea4@@3U__s_GUID@@B@@@@AAEXXZ 1000d010 f i DatabaseImpl.obj
 0001:0000c010       ?_AddRef@?$_com_ptr_t@V?$_com_IIID@UParameters@@$1?_GUID_0000150d_0000_0010_8000_00aa006d2ea4@@3U__s_GUID@@B@@@@AAEXXZ 1000d010 f i DatabaseImpl.obj
 0001:0000c010       ?_AddRef@?$_com_ptr_t@V?$_com_IIID@U_Connection@@$1?_GUID_00001550_0000_0010_8000_00aa006d2ea4@@3U__s_GUID@@B@@@@AAEXXZ 1000d010 f i DatabaseImpl.obj
 0001:0000c040       ?_Release@?$_com_ptr_t@V?$_com_IIID@U_Command@@$1?_GUID_986761e8_7269_4890_aa65_ad7c03697a6d@@3U__s_GUID@@B@@@@AAEXXZ 1000d040 f i DatabaseImpl.obj
 0001:0000c040       ?_Release@?$_com_ptr_t@V?$_com_IIID@U_Connection@@$1?_GUID_00001550_0000_0010_8000_00aa006d2ea4@@3U__s_GUID@@B@@@@AAEXXZ 1000d040 f i DatabaseImpl.obj
 0001:0000c040       ?_Release@?$_com_ptr_t@V?$_com_IIID@UFields@@$1?_GUID_00001564_0000_0010_8000_00aa006d2ea4@@3U__s_GUID@@B@@@@AAEXXZ 1000d040 f i DatabaseImpl.obj
 0001:0000c040       ?_Release@?$_com_ptr_t@V?$_com_IIID@U_Parameter@@$1?_GUID_0000150c_0000_0010_8000_00aa006d2ea4@@3U__s_GUID@@B@@@@AAEXXZ 1000d040 f i DatabaseImpl.obj
 0001:0000c040       ?_Release@?$_com_ptr_t@V?$_com_IIID@UField@@$1?_GUID_00001569_0000_0010_8000_00aa006d2ea4@@3U__s_GUID@@B@@@@AAEXXZ 1000d040 f i DatabaseImpl.obj
 0001:0000c040       ?_Release@?$_com_ptr_t@V?$_com_IIID@U_Recordset@@$1?_GUID_00001556_0000_0010_8000_00aa006d2ea4@@3U__s_GUID@@B@@@@AAEXXZ 1000d040 f i DatabaseImpl.obj
 0001:0000c040       ?_Release@?$_com_ptr_t@V?$_com_IIID@UParameters@@$1?_GUID_0000150d_0000_0010_8000_00aa006d2ea4@@3U__s_GUID@@B@@@@AAEXXZ 1000d040 f i DatabaseImpl.obj
 0001:0000c070       ??$?4U_Connection@@@?$_com_ptr_t@V?$_com_IIID@U_Connection@@$1?_GUID_00001550_0000_0010_8000_00aa006d2ea4@@3U__s_GUID@@B@@@@QAEAAV0@PAU_Connection@@@Z 1000d070 f i DatabaseImpl.obj
 0001:0000c070       ??$?4U_Recordset@@@?$_com_ptr_t@V?$_com_IIID@U_Recordset@@$1?_GUID_00001556_0000_0010_8000_00aa006d2ea4@@3U__s_GUID@@B@@@@QAEAAV0@PAU_Recordset@@@Z 1000d070 f i DatabaseImpl.obj
 0001:0000c0c0       ?GetIID@?$_com_ptr_t@V?$_com_IIID@U_Recordset@@$1?_GUID_00001556_0000_0010_8000_00aa006d2ea4@@3U__s_GUID@@B@@@@SAABU_GUID@@XZ 1000d0c0 f i DatabaseImpl.obj
 0001:0000c0d0       ?GetIID@?$_com_ptr_t@V?$_com_IIID@U_Connection@@$1?_GUID_00001550_0000_0010_8000_00aa006d2ea4@@3U__s_GUID@@B@@@@SAABU_GUID@@XZ 1000d0d0 f i DatabaseImpl.obj
 0001:0000c0e0       ?GetIID@?$_com_ptr_t@V?$_com_IIID@U_Command@@$1?_GUID_986761e8_7269_4890_aa65_ad7c03697a6d@@3U__s_GUID@@B@@@@SAABU_GUID@@XZ 1000d0e0 f i DatabaseImpl.obj
 0001:0000c0f0       ??G?$_String_const_iterator@V?$_String_val@U?$_Simple_types@D@std@@@std@@@std@@QBEHABV01@@Z 1000d0f0 f i DatabaseImpl.obj
 0001:0000c120       ??Z?$_String_iterator@V?$_String_val@U?$_Simple_types@D@std@@@std@@@std@@QAEAAV01@H@Z 1000d120 f i DatabaseImpl.obj
 0001:0000c140       ??Y?$_String_iterator@V?$_String_val@U?$_Simple_types@D@std@@@std@@@std@@QAEAAV01@H@Z 1000d140 f i DatabaseImpl.obj
 0001:0000c160       ??F?$_String_iterator@V?$_String_val@U?$_Simple_types@D@std@@@std@@@std@@QAEAAV01@XZ 1000d160 f i DatabaseImpl.obj
 0001:0000c180       ??E?$_String_iterator@V?$_String_val@U?$_Simple_types@D@std@@@std@@@std@@QAEAAV01@XZ 1000d180 f i DatabaseImpl.obj
 0001:0000c1a0       ?_Myptr@?$_String_val@U?$_Simple_types@D@std@@@std@@QAEPADXZ 1000d1a0 f i DatabaseImpl.obj
 0001:0000c1a0       ?_Myptr@?$_String_val@U?$_Simple_types@D@std@@@std@@QBEPBDXZ 1000d1a0 f i DatabaseImpl.obj
 0001:0000c1e0       ?address@?$_Wrap_alloc@V?$allocator@D@std@@@std@@QBEPADAAD@Z 1000d1e0 f i DatabaseImpl.obj
 0001:0000c200       ?_Mysize@?$_String_alloc@U?$_String_base_types@DV?$allocator@D@std@@@std@@@std@@QAEAAIXZ 1000d200 f i DatabaseImpl.obj
 0001:0000c200       ?_Mysize@?$_String_alloc@U?$_String_base_types@DV?$allocator@D@std@@@std@@@std@@QBEABIXZ 1000d200 f i DatabaseImpl.obj
 0001:0000c220       ?_Copy_alloc@?$_String_alloc@U?$_String_base_types@DV?$allocator@D@std@@@std@@@std@@QAEXABU?$_Wrap_alloc@V?$allocator@D@std@@@2@@Z 1000d220 f i DatabaseImpl.obj
 0001:0000c250       ??0?$_String_alloc@U?$_String_base_types@DV?$allocator@D@std@@@std@@@std@@QAE@XZ 1000d250 f i DatabaseImpl.obj
 0001:0000c270       ?_Myptr@?$_String_alloc@U?$_String_base_types@DV?$allocator@D@std@@@std@@@std@@QAEPADXZ 1000d270 f i DatabaseImpl.obj
 0001:0000c270       ?_Myptr@?$_String_alloc@U?$_String_base_types@DV?$allocator@D@std@@@std@@@std@@QBEPBDXZ 1000d270 f i DatabaseImpl.obj
 0001:0000c290       ?_Tidy@?$basic_string@DU?$char_traits@D@std@@V?$allocator@D@2@@std@@QAEX_NI@Z 1000d290 f i DatabaseImpl.obj
 0001:0000c350       ?_Eos@?$basic_string@DU?$char_traits@D@std@@V?$allocator@D@2@@std@@QAEXI@Z 1000d350 f i DatabaseImpl.obj
 0001:0000c390       ?_Traits_compare@?$basic_string@DU?$char_traits@D@std@@V?$allocator@D@2@@std@@SAHQBDI0I@Z 1000d390 f i DatabaseImpl.obj
 0001:0000c400       ?erase@?$basic_string@DU?$char_traits@D@std@@V?$allocator@D@2@@std@@QAEAAV12@II@Z 1000d400 f i DatabaseImpl.obj
 0001:0000c490       ?assign@?$basic_string@DU?$char_traits@D@std@@V?$allocator@D@2@@std@@QAEAAV12@PBD@Z 1000d490 f i DatabaseImpl.obj
 0001:0000c4c0       ?assign@?$basic_string@DU?$char_traits@D@std@@V?$allocator@D@2@@std@@QAEAAV12@PBDI@Z 1000d4c0 f i DatabaseImpl.obj
 0001:0000c540       ?assign@?$basic_string@DU?$char_traits@D@std@@V?$allocator@D@2@@std@@QAEAAV12@ABV12@II@Z 1000d540 f i DatabaseImpl.obj
 0001:0000c5e0       ?assign@?$basic_string@DU?$char_traits@D@std@@V?$allocator@D@2@@std@@QAEAAV12@ABV12@@Z 1000d5e0 f i DatabaseImpl.obj
 0001:0000c610       ?_Assign_rv@?$basic_string@DU?$char_traits@D@std@@V?$allocator@D@2@@std@@QAEX$$QAV12@@Z 1000d610 f i DatabaseImpl.obj
 0001:0000c6d0       ??D?$_Tree_const_iterator@V?$_Tree_val@U?$_Tree_simple_types@U?$pair@$$CBV?$basic_string@DU?$char_traits@D@std@@V?$allocator@D@2@@std@@P6AXPADPAH@Z@std@@@std@@@std@@@std@@QBEABU?$pair@$$CBV?$basic_string@DU?$char_traits@D@std@@V?$allocator@D@2@@std@@P6AXPADPAH@Z@1@XZ 1000d6d0 f i DatabaseImpl.obj
 0001:0000c6f0       ?_Freeheadnode@?$_Tree_comp_alloc@V?$_Tmap_traits@V?$basic_string@DU?$char_traits@D@std@@V?$allocator@D@2@@std@@P6AXPADPAH@ZU?$less@V?$basic_string@DU?$char_traits@D@std@@V?$allocator@D@2@@std@@@2@V?$allocator@U?$pair@$$CBV?$basic_string@DU?$char_traits@D@std@@V?$allocator@D@2@@std@@P6AXPADPAH@Z@std@@@2@$0A@@std@@@std@@QAEXPAU?$_Tree_node@U?$pair@$$CBV?$basic_string@DU?$char_traits@D@std@@V?$allocator@D@2@@std@@P6AXPADPAH@Z@std@@PAX@2@@Z 1000d6f0 f i DatabaseImpl.obj
 0001:0000c6f0       ?_Freenode0@?$_Tree_comp_alloc@V?$_Tmap_traits@V?$basic_string@DU?$char_traits@D@std@@V?$allocator@D@2@@std@@P6AXPADPAH@ZU?$less@V?$basic_string@DU?$char_traits@D@std@@V?$allocator@D@2@@std@@@2@V?$allocator@U?$pair@$$CBV?$basic_string@DU?$char_traits@D@std@@V?$allocator@D@2@@std@@P6AXPADPAH@Z@std@@@2@$0A@@std@@@std@@QAEXPAU?$_Tree_node@U?$pair@$$CBV?$basic_string@DU?$char_traits@D@std@@V?$allocator@D@2@@std@@P6AXPADPAH@Z@std@@PAX@2@@Z 1000d6f0 f i DatabaseImpl.obj
 0001:0000c790       ??0?$_Tree_comp_alloc@V?$_Tmap_traits@V?$basic_string@DU?$char_traits@D@std@@V?$allocator@D@2@@std@@P6AXPADPAH@ZU?$less@V?$basic_string@DU?$char_traits@D@std@@V?$allocator@D@2@@std@@@2@V?$allocator@U?$pair@$$CBV?$basic_string@DU?$char_traits@D@std@@V?$allocator@D@2@@std@@P6AXPADPAH@Z@std@@@2@$0A@@std@@@std@@QAE@ABU?$less@V?$basic_string@DU?$char_traits@D@std@@V?$allocator@D@2@@std@@@1@@Z 1000d790 f i DatabaseImpl.obj
 0001:0000c7c0       ?_Myval@?$_Tree_comp_alloc@V?$_Tmap_traits@V?$basic_string@DU?$char_traits@D@std@@V?$allocator@D@2@@std@@P6AXPADPAH@ZU?$less@V?$basic_string@DU?$char_traits@D@std@@V?$allocator@D@2@@std@@@2@V?$allocator@U?$pair@$$CBV?$basic_string@DU?$char_traits@D@std@@V?$allocator@D@2@@std@@P6AXPADPAH@Z@std@@@2@$0A@@std@@@std@@SAAAU?$pair@$$CBV?$basic_string@DU?$char_traits@D@std@@V?$allocator@D@2@@std@@P6AXPADPAH@Z@2@PAU?$_Tree_node@U?$pair@$$CBV?$basic_string@DU?$char_traits@D@std@@V?$allocator@D@2@@std@@P6AXPADPAH@Z@std@@PAX@2@@Z 1000d7c0 f i DatabaseImpl.obj
 0001:0000c7e0       ?_Kfn@?$_Tree@V?$_Tmap_traits@V?$basic_string@DU?$char_traits@D@std@@V?$allocator@D@2@@std@@P6AXPADPAH@ZU?$less@V?$basic_string@DU?$char_traits@D@std@@V?$allocator@D@2@@std@@@2@V?$allocator@U?$pair@$$CBV?$basic_string@DU?$char_traits@D@std@@V?$allocator@D@2@@std@@P6AXPADPAH@Z@std@@@2@$0A@@std@@@std@@IBEABV?$basic_string@DU?$char_traits@D@std@@V?$allocator@D@2@@2@ABU?$pair@$$CBV?$basic_string@DU?$char_traits@D@std@@V?$allocator@D@2@@std@@P6AXPADPAH@Z@2@@Z 1000d7e0 f i DatabaseImpl.obj
 0001:0000c800       ?erase@?$_Tree@V?$_Tmap_traits@V?$basic_string@DU?$char_traits@D@std@@V?$allocator@D@2@@std@@P6AXPADPAH@ZU?$less@V?$basic_string@DU?$char_traits@D@std@@V?$allocator@D@2@@std@@@2@V?$allocator@U?$pair@$$CBV?$basic_string@DU?$char_traits@D@std@@V?$allocator@D@2@@std@@P6AXPADPAH@Z@std@@@2@$0A@@std@@@std@@QAE?AV?$_Tree_iterator@V?$_Tree_val@U?$_Tree_simple_types@U?$pair@$$CBV?$basic_string@DU?$char_traits@D@std@@V?$allocator@D@2@@std@@P6AXPADPAH@Z@std@@@std@@@std@@@2@V?$_Tree_const_iterator@V?$_Tree_val@U?$_Tree_simple_types@U?$pair@$$CBV?$basic_string@DU?$char_traits@D@std@@V?$allocator@D@2@@std@@P6AXPADPAH@Z@std@@@std@@@std@@@2@0@Z 1000d800 f i DatabaseImpl.obj
 0001:0000c8b0       ?begin@?$_Tree@V?$_Tmap_traits@V?$basic_string@DU?$char_traits@D@std@@V?$allocator@D@2@@std@@P6AXPADPAH@ZU?$less@V?$basic_string@DU?$char_traits@D@std@@V?$allocator@D@2@@std@@@2@V?$allocator@U?$pair@$$CBV?$basic_string@DU?$char_traits@D@std@@V?$allocator@D@2@@std@@P6AXPADPAH@Z@std@@@2@$0A@@std@@@std@@QAE?AV?$_Tree_iterator@V?$_Tree_val@U?$_Tree_simple_types@U?$pair@$$CBV?$basic_string@DU?$char_traits@D@std@@V?$allocator@D@2@@std@@P6AXPADPAH@Z@std@@@std@@@std@@@2@XZ 1000d8b0 f i DatabaseImpl.obj
 0001:0000c910       ??E?$_Vector_const_iterator@V?$_Vector_val@U?$_Simple_types@UPARAM@Parameter@@@std@@@std@@@std@@QAEAAV01@XZ 1000d910 f i DatabaseImpl.obj
 0001:0000c930       ??0?$_Vector_const_iterator@V?$_Vector_val@U?$_Simple_types@UPARAM@Parameter@@@std@@@std@@@std@@QAE@PAUPARAM@Parameter@@PBU_Container_base0@1@@Z 1000d930 f i DatabaseImpl.obj
 0001:0000c930       ??0?$_String_const_iterator@V?$_String_val@U?$_Simple_types@D@std@@@std@@@std@@QAE@PBDPBU_Container_base0@1@@Z 1000d930 f i DatabaseImpl.obj
 0001:0000c930       ??0?$_Tree_unchecked_const_iterator@V?$_Tree_val@U?$_Tree_simple_types@U?$pair@$$CBV?$basic_string@DU?$char_traits@D@std@@V?$allocator@D@2@@std@@P6AXPADPAH@Z@std@@@std@@@std@@U_Iterator_base0@2@@std@@QAE@PAU?$_Tree_node@U?$pair@$$CBV?$basic_string@DU?$char_traits@D@std@@V?$allocator@D@2@@std@@P6AXPADPAH@Z@std@@PAX@1@PBV?$_Tree_val@U?$_Tree_simple_types@U?$pair@$$CBV?$basic_string@DU?$char_traits@D@std@@V?$allocator@D@2@@std@@P6AXPADPAH@Z@std@@@std@@@1@@Z 1000d930 f i DatabaseImpl.obj
 0001:0000c960       ?deallocate@?$_Wrap_alloc@V?$allocator@UPARAM@Parameter@@@std@@@std@@QAEXPAUPARAM@Parameter@@I@Z 1000d960 f i DatabaseImpl.obj
 0001:0000c980       ?_Xlen@?$vector@UPARAM@Parameter@@V?$allocator@UPARAM@Parameter@@@std@@@std@@IBEXXZ 1000d980 f i DatabaseImpl.obj
 0001:0000c9a0       ?_Reallocate@?$vector@UPARAM@Parameter@@V?$allocator@UPARAM@Parameter@@@std@@@std@@IAEXI@Z 1000d9a0 f i DatabaseImpl.obj
 0001:0000cb00       ?_Grow_to@?$vector@UPARAM@Parameter@@V?$allocator@UPARAM@Parameter@@@std@@@std@@IBEII@Z 1000db00 f i DatabaseImpl.obj
 0001:0000cb60       ?max_size@?$vector@UPARAM@Parameter@@V?$allocator@UPARAM@Parameter@@@std@@@std@@QBEIXZ 1000db60 f i DatabaseImpl.obj
 0001:0000cb90       ?size@?$vector@UPARAM@Parameter@@V?$allocator@UPARAM@Parameter@@@std@@@std@@QBEIXZ 1000db90 f i DatabaseImpl.obj
 0001:0000cbc0       ?_Unused_capacity@?$vector@UPARAM@Parameter@@V?$allocator@UPARAM@Parameter@@@std@@@std@@QBEIXZ 1000dbc0 f i DatabaseImpl.obj
 0001:0000cbf0       ?GetIID@?$_com_IIID@U_Recordset@@$1?_GUID_00001556_0000_0010_8000_00aa006d2ea4@@3U__s_GUID@@B@@SAABU_GUID@@XZ 1000dbf0 f i DatabaseImpl.obj
 0001:0000cc00       ?GetIID@?$_com_IIID@U_Connection@@$1?_GUID_00001550_0000_0010_8000_00aa006d2ea4@@3U__s_GUID@@B@@SAABU_GUID@@XZ 1000dc00 f i DatabaseImpl.obj
 0001:0000cc10       ?GetIID@?$_com_IIID@U_Command@@$1?_GUID_986761e8_7269_4890_aa65_ad7c03697a6d@@3U__s_GUID@@B@@SAABU_GUID@@XZ 1000dc10 f i DatabaseImpl.obj
 0001:0000cc20       ??Y?$_String_const_iterator@V?$_String_val@U?$_Simple_types@D@std@@@std@@@std@@QAEAAV01@H@Z 1000dc20 f i DatabaseImpl.obj
 0001:0000cc40       ??F?$_String_const_iterator@V?$_String_val@U?$_Simple_types@D@std@@@std@@@std@@QAEAAV01@XZ 1000dc40 f i DatabaseImpl.obj
 0001:0000cc60       ??E?$_String_const_iterator@V?$_String_val@U?$_Simple_types@D@std@@@std@@@std@@QAEAAV01@XZ 1000dc60 f i DatabaseImpl.obj
 0001:0000cc80       ?deallocate@?$_Wrap_alloc@V?$allocator@D@std@@@std@@QAEXPADI@Z 1000dc80 f i DatabaseImpl.obj
 0001:0000cca0       ?_Myres@?$_String_alloc@U?$_String_base_types@DV?$allocator@D@std@@@std@@@std@@QAEAAIXZ 1000dca0 f i DatabaseImpl.obj
 0001:0000ccc0       ?_Check_offset@?$basic_string@DU?$char_traits@D@std@@V?$allocator@D@2@@std@@QBEXI@Z 1000dcc0 f i DatabaseImpl.obj
 0001:0000ccf0       ?_Xlen@?$basic_string@DU?$char_traits@D@std@@V?$allocator@D@2@@std@@QBEXXZ 1000dcf0 f i DatabaseImpl.obj
 0001:0000cd10       ?_Inside@?$basic_string@DU?$char_traits@D@std@@V?$allocator@D@2@@std@@QAE_NPBD@Z 1000dd10 f i DatabaseImpl.obj
 0001:0000cd60       ?_Grow@?$basic_string@DU?$char_traits@D@std@@V?$allocator@D@2@@std@@QAE_NI_N@Z 1000dd60 f i DatabaseImpl.obj
 0001:0000ce20       ?_Clamp_suffix_size@?$basic_string@DU?$char_traits@D@std@@V?$allocator@D@2@@std@@QBEIII@Z 1000de20 f i DatabaseImpl.obj
 0001:0000ce60       ?erase@?$basic_string@DU?$char_traits@D@std@@V?$allocator@D@2@@std@@QAEAAV12@I@Z 1000de60 f i DatabaseImpl.obj
 0001:0000ce90       ??E?$_Tree_const_iterator@V?$_Tree_val@U?$_Tree_simple_types@U?$pair@$$CBV?$basic_string@DU?$char_traits@D@std@@V?$allocator@D@2@@std@@P6AXPADPAH@Z@std@@@std@@@std@@@std@@QAE?AV01@H@Z 1000de90 f i DatabaseImpl.obj
 0001:0000cec0       ?_Myval@?$_Tree_val@U?$_Tree_simple_types@U?$pair@$$CBV?$basic_string@DU?$char_traits@D@std@@V?$allocator@D@2@@std@@P6AXPADPAH@Z@std@@@std@@@std@@SAAAU?$pair@$$CBV?$basic_string@DU?$char_traits@D@std@@V?$allocator@D@2@@std@@P6AXPADPAH@Z@2@PAU?$_Tree_node@U?$pair@$$CBV?$basic_string@DU?$char_traits@D@std@@V?$allocator@D@2@@std@@P6AXPADPAH@Z@std@@PAX@2@@Z 1000dec0 f i DatabaseImpl.obj
 0001:0000ced0       ?deallocate@?$_Wrap_alloc@V?$allocator@U?$_Tree_node@U?$pair@$$CBV?$basic_string@DU?$char_traits@D@std@@V?$allocator@D@2@@std@@P6AXPADPAH@Z@std@@PAX@std@@@std@@@std@@QAEXPAU?$_Tree_node@U?$pair@$$CBV?$basic_string@DU?$char_traits@D@std@@V?$allocator@D@2@@std@@P6AXPADPAH@Z@std@@PAX@2@I@Z 1000ded0 f i DatabaseImpl.obj
 0001:0000cef0       ?_Construct@?$_Tree_comp_alloc@V?$_Tmap_traits@V?$basic_string@DU?$char_traits@D@std@@V?$allocator@D@2@@std@@P6AXPADPAH@ZU?$less@V?$basic_string@DU?$char_traits@D@std@@V?$allocator@D@2@@std@@@2@V?$allocator@U?$pair@$$CBV?$basic_string@DU?$char_traits@D@std@@V?$allocator@D@2@@std@@P6AXPADPAH@Z@std@@@2@$0A@@std@@@std@@QAEXXZ 1000def0 f i DatabaseImpl.obj
 0001:0000cf20       ?_Right@?$_Tree_comp_alloc@V?$_Tmap_traits@V?$basic_string@DU?$char_traits@D@std@@V?$allocator@D@2@@std@@P6AXPADPAH@ZU?$less@V?$basic_string@DU?$char_traits@D@std@@V?$allocator@D@2@@std@@@2@V?$allocator@U?$pair@$$CBV?$basic_string@DU?$char_traits@D@std@@V?$allocator@D@2@@std@@P6AXPADPAH@Z@std@@@2@$0A@@std@@@std@@SAAAPAU?$_Tree_node@U?$pair@$$CBV?$basic_string@DU?$char_traits@D@std@@V?$allocator@D@2@@std@@P6AXPADPAH@Z@std@@PAX@2@PAU32@@Z 1000df20 f i DatabaseImpl.obj
 0001:0000cf40       ?_Parent@?$_Tree_comp_alloc@V?$_Tmap_traits@V?$basic_string@DU?$char_traits@D@std@@V?$allocator@D@2@@std@@P6AXPADPAH@ZU?$less@V?$basic_string@DU?$char_traits@D@std@@V?$allocator@D@2@@std@@@2@V?$allocator@U?$pair@$$CBV?$basic_string@DU?$char_traits@D@std@@V?$allocator@D@2@@std@@P6AXPADPAH@Z@std@@@2@$0A@@std@@@std@@SAAAPAU?$_Tree_node@U?$pair@$$CBV?$basic_string@DU?$char_traits@D@std@@V?$allocator@D@2@@std@@P6AXPADPAH@Z@std@@PAX@2@PAU32@@Z 1000df40 f i DatabaseImpl.obj
 0001:0000cf60       ?_Lmost@?$_Tree@V?$_Tmap_traits@V?$basic_string@DU?$char_traits@D@std@@V?$allocator@D@2@@std@@P6AXPADPAH@ZU?$less@V?$basic_string@DU?$char_traits@D@std@@V?$allocator@D@2@@std@@@2@V?$allocator@U?$pair@$$CBV?$basic_string@DU?$char_traits@D@std@@V?$allocator@D@2@@std@@P6AXPADPAH@Z@std@@@2@$0A@@std@@@std@@IBEAAPAU?$_Tree_node@U?$pair@$$CBV?$basic_string@DU?$char_traits@D@std@@V?$allocator@D@2@@std@@P6AXPADPAH@Z@std@@PAX@2@XZ 1000df60 f i DatabaseImpl.obj
 0001:0000cf80       ?clear@?$_Tree@V?$_Tmap_traits@V?$basic_string@DU?$char_traits@D@std@@V?$allocator@D@2@@std@@P6AXPADPAH@ZU?$less@V?$basic_string@DU?$char_traits@D@std@@V?$allocator@D@2@@std@@@2@V?$allocator@U?$pair@$$CBV?$basic_string@DU?$char_traits@D@std@@V?$allocator@D@2@@std@@P6AXPADPAH@Z@std@@@2@$0A@@std@@@std@@QAEXXZ 1000df80 f i DatabaseImpl.obj
 0001:0000d020       ?erase@?$_Tree@V?$_Tmap_traits@V?$basic_string@DU?$char_traits@D@std@@V?$allocator@D@2@@std@@P6AXPADPAH@ZU?$less@V?$basic_string@DU?$char_traits@D@std@@V?$allocator@D@2@@std@@@2@V?$allocator@U?$pair@$$CBV?$basic_string@DU?$char_traits@D@std@@V?$allocator@D@2@@std@@P6AXPADPAH@Z@std@@@2@$0A@@std@@@std@@QAE?AV?$_Tree_iterator@V?$_Tree_val@U?$_Tree_simple_types@U?$pair@$$CBV?$basic_string@DU?$char_traits@D@std@@V?$allocator@D@2@@std@@P6AXPADPAH@Z@std@@@std@@@std@@@2@V?$_Tree_const_iterator@V?$_Tree_val@U?$_Tree_simple_types@U?$pair@$$CBV?$basic_string@DU?$char_traits@D@std@@V?$allocator@D@2@@std@@P6AXPADPAH@Z@std@@@std@@@std@@@2@@Z 1000e020 f i DatabaseImpl.obj
 0001:0000d7a0       ?max_size@?$_Wrap_alloc@V?$allocator@UPARAM@Parameter@@@std@@@std@@QBEIU_Nil@2@@Z 1000e7a0 f i DatabaseImpl.obj
 0001:0000d7c0       ?allocate@?$_Wrap_alloc@V?$allocator@UPARAM@Parameter@@@std@@@std@@QAEPAUPARAM@Parameter@@I@Z 1000e7c0 f i DatabaseImpl.obj
 0001:0000d7e0       ?capacity@?$vector@UPARAM@Parameter@@V?$allocator@UPARAM@Parameter@@@std@@@std@@QBEIXZ 1000e7e0 f i DatabaseImpl.obj
 0001:0000d810       ?deallocate@?$allocator@UPARAM@Parameter@@@std@@QAEXPAUPARAM@Parameter@@I@Z 1000e810 f i DatabaseImpl.obj
 0001:0000d830       ?_Xran@?$basic_string@DU?$char_traits@D@std@@V?$allocator@D@2@@std@@QBEXXZ 1000e830 f i DatabaseImpl.obj
 0001:0000d850       ?_Copy@?$basic_string@DU?$char_traits@D@std@@V?$allocator@D@2@@std@@QAEXII@Z 1000e850 f i DatabaseImpl.obj
 0001:0000da30       ?max_size@?$basic_string@DU?$char_traits@D@std@@V?$allocator@D@2@@std@@QBEIXZ 1000ea30 f i DatabaseImpl.obj
 0001:0000da70       ?deallocate@?$allocator@D@std@@QAEXPADI@Z 1000ea70 f i DatabaseImpl.obj
 0001:0000da90       ??E?$_Tree_const_iterator@V?$_Tree_val@U?$_Tree_simple_types@U?$pair@$$CBV?$basic_string@DU?$char_traits@D@std@@V?$allocator@D@2@@std@@P6AXPADPAH@Z@std@@@std@@@std@@@std@@QAEAAV01@XZ 1000ea90 f i DatabaseImpl.obj
 0001:0000dab0       ?_Right@?$_Tree_val@U?$_Tree_simple_types@U?$pair@$$CBV?$basic_string@DU?$char_traits@D@std@@V?$allocator@D@2@@std@@P6AXPADPAH@Z@std@@@std@@@std@@SAAAPAU?$_Tree_node@U?$pair@$$CBV?$basic_string@DU?$char_traits@D@std@@V?$allocator@D@2@@std@@P6AXPADPAH@Z@std@@PAX@2@PAU32@@Z 1000eab0 f i DatabaseImpl.obj
 0001:0000dac0       ?_Parent@?$_Tree_val@U?$_Tree_simple_types@U?$pair@$$CBV?$basic_string@DU?$char_traits@D@std@@V?$allocator@D@2@@std@@P6AXPADPAH@Z@std@@@std@@@std@@SAAAPAU?$_Tree_node@U?$pair@$$CBV?$basic_string@DU?$char_traits@D@std@@V?$allocator@D@2@@std@@P6AXPADPAH@Z@std@@PAX@2@PAU32@@Z 1000eac0 f i DatabaseImpl.obj
 0001:0000dad0       ??$_Unfancy@UPARAM@Parameter@@@std@@YAPAUPARAM@Parameter@@PAU12@@Z 1000ead0 f i DatabaseImpl.obj
 0001:0000dad0       ??$forward@ABUpiecewise_construct_t@std@@@std@@YAABUpiecewise_construct_t@0@ABU10@@Z 1000ead0 f i DatabaseImpl.obj
 0001:0000dad0       ??$forward@AAPAD@std@@YAAAPADAAPAD@Z 1000ead0 f i DatabaseImpl.obj
 0001:0000dad0       ??$forward@ABUPARAM@Parameter@@@std@@YAABUPARAM@Parameter@@ABU12@@Z 1000ead0 f i DatabaseImpl.obj
 0001:0000dad0       ??$forward@AAU?$pair@$$CBV?$basic_string@DU?$char_traits@D@std@@V?$allocator@D@2@@std@@P6AXPADPAH@Z@std@@@std@@YAAAU?$pair@$$CBV?$basic_string@DU?$char_traits@D@std@@V?$allocator@D@2@@std@@P6AXPADPAH@Z@0@AAU10@@Z 1000ead0 f i DatabaseImpl.obj
 0001:0000dad0       ??$forward@V?$tuple@$$V@std@@@std@@YA$$QAV?$tuple@$$V@0@AAV10@@Z 1000ead0 f i DatabaseImpl.obj
 0001:0000dad0       ??$forward@ABU?$less@V?$basic_string@DU?$char_traits@D@std@@V?$allocator@D@2@@std@@@std@@@std@@YAABU?$less@V?$basic_string@DU?$char_traits@D@std@@V?$allocator@D@2@@std@@@0@ABU10@@Z 1000ead0 f i DatabaseImpl.obj
 0001:0000dad0       ??$forward@$$QAV?$basic_string@DU?$char_traits@D@std@@V?$allocator@D@2@@std@@@std@@YA$$QAV?$basic_string@DU?$char_traits@D@std@@V?$allocator@D@2@@0@AAV10@@Z 1000ead0 f i DatabaseImpl.obj
 0001:0000dad0       ??$_Unchecked@PAUPARAM@Parameter@@@std@@YAPAUPARAM@Parameter@@PAU12@@Z 1000ead0 f i DatabaseImpl.obj
 0001:0000dad0       ??$forward@V?$basic_string@DU?$char_traits@D@std@@V?$allocator@D@2@@std@@@std@@YA$$QAV?$basic_string@DU?$char_traits@D@std@@V?$allocator@D@2@@0@AAV10@@Z 1000ead0 f i DatabaseImpl.obj
 0001:0000dad0       ??$addressof@PAU?$_Tree_node@U?$pair@$$CBV?$basic_string@DU?$char_traits@D@std@@V?$allocator@D@2@@std@@P6AXPADPAH@Z@std@@PAX@std@@@std@@YAPAPAU?$_Tree_node@U?$pair@$$CBV?$basic_string@DU?$char_traits@D@std@@V?$allocator@D@2@@std@@P6AXPADPAH@Z@std@@PAX@0@AAPAU10@@Z 1000ead0 f i DatabaseImpl.obj
 0001:0000dad0       ??$_Unfancy@D@std@@YAPADPAD@Z 1000ead0 f i DatabaseImpl.obj
 0001:0000dad0       ??$addressof@UPARAM@Parameter@@@std@@YAPAUPARAM@Parameter@@AAU12@@Z 1000ead0 f i DatabaseImpl.obj
 0001:0000dad0       ??$forward@_N@std@@YA$$QA_NAA_N@Z 1000ead0 f i DatabaseImpl.obj
 0001:0000dad0       ??$forward@U_Zero_then_variadic_args_t@std@@@std@@YA$$QAU_Zero_then_variadic_args_t@0@AAU10@@Z 1000ead0 f i DatabaseImpl.obj
 0001:0000dad0       ??$forward@U?$_Wrap_alloc@V?$allocator@D@std@@@std@@@std@@YA$$QAU?$_Wrap_alloc@V?$allocator@D@std@@@0@AAU10@@Z 1000ead0 f i DatabaseImpl.obj
 0001:0000dad0       ??$forward@AAPAU?$_Tree_node@U?$pair@$$CBV?$basic_string@DU?$char_traits@D@std@@V?$allocator@D@2@@std@@P6AXPADPAH@Z@std@@PAX@std@@@std@@YAAAPAU?$_Tree_node@U?$pair@$$CBV?$basic_string@DU?$char_traits@D@std@@V?$allocator@D@2@@std@@P6AXPADPAH@Z@std@@PAX@0@AAPAU10@@Z 1000ead0 f i DatabaseImpl.obj
 0001:0000dad0       ??$forward@V?$tuple@$$QAV?$basic_string@DU?$char_traits@D@std@@V?$allocator@D@2@@std@@@std@@@std@@YA$$QAV?$tuple@$$QAV?$basic_string@DU?$char_traits@D@std@@V?$allocator@D@2@@std@@@0@AAV10@@Z 1000ead0 f i DatabaseImpl.obj
 0001:0000dad0       ??$addressof@U?$pair@$$CBV?$basic_string@DU?$char_traits@D@std@@V?$allocator@D@2@@std@@P6AXPADPAH@Z@std@@@std@@YAPAU?$pair@$$CBV?$basic_string@DU?$char_traits@D@std@@V?$allocator@D@2@@std@@P6AXPADPAH@Z@0@AAU10@@Z 1000ead0 f i DatabaseImpl.obj
 0001:0000dad0       ??$addressof@PAD@std@@YAPAPADAAPAD@Z 1000ead0 f i DatabaseImpl.obj
 0001:0000dad0       ??$addressof@D@std@@YAPADAAD@Z 1000ead0 f i DatabaseImpl.obj
 0001:0000dad0       ??$move@AAV?$basic_string@DU?$char_traits@D@std@@V?$allocator@D@2@@std@@@std@@YA$$QAV?$basic_string@DU?$char_traits@D@std@@V?$allocator@D@2@@0@AAV10@@Z 1000ead0 f i DatabaseImpl.obj
 0001:0000dad0       ??$forward@V?$_Tree_iterator@V?$_Tree_val@U?$_Tree_simple_types@U?$pair@$$CBV?$basic_string@DU?$char_traits@D@std@@V?$allocator@D@2@@std@@P6AXPADPAH@Z@std@@@std@@@std@@@std@@@std@@YA$$QAV?$_Tree_iterator@V?$_Tree_val@U?$_Tree_simple_types@U?$pair@$$CBV?$basic_string@DU?$char_traits@D@std@@V?$allocator@D@2@@std@@P6AXPADPAH@Z@std@@@std@@@std@@@0@AAV10@@Z 1000ead0 f i DatabaseImpl.obj
 0001:0000dad0       ??$_Ptr_move_cat@UPARAM@Parameter@@U12@@std@@YA?AU_Really_trivial_ptr_iterator_tag@0@ABQAUPARAM@Parameter@@0@Z 1000ead0 f i DatabaseImpl.obj
 0001:0000dad0       ??$addressof@$$CBUPARAM@Parameter@@@std@@YAPBUPARAM@Parameter@@ABU12@@Z 1000ead0 f i DatabaseImpl.obj
 0001:0000dad0       ??$forward@AAUPARAM@Parameter@@@std@@YAAAUPARAM@Parameter@@AAU12@@Z 1000ead0 f i DatabaseImpl.obj
 0001:0000dad0       ??$forward@AAV?$_Tree_iterator@V?$_Tree_val@U?$_Tree_simple_types@U?$pair@$$CBV?$basic_string@DU?$char_traits@D@std@@V?$allocator@D@2@@std@@P6AXPADPAH@Z@std@@@std@@@std@@@std@@@std@@YAAAV?$_Tree_iterator@V?$_Tree_val@U?$_Tree_simple_types@U?$pair@$$CBV?$basic_string@DU?$char_traits@D@std@@V?$allocator@D@2@@std@@P6AXPADPAH@Z@std@@@std@@@std@@@0@AAV10@@Z 1000ead0 f i DatabaseImpl.obj
 0001:0000dad0       ??$move@AAD@std@@YA$$QADAAD@Z 1000ead0 f i DatabaseImpl.obj
 0001:0000dad0       ??$move@AAU?$_Wrap_alloc@V?$allocator@D@std@@@std@@@std@@YA$$QAU?$_Wrap_alloc@V?$allocator@D@std@@@0@AAU10@@Z 1000ead0 f i DatabaseImpl.obj
 0001:0000dad0       ??$_Kfn@$$CBV?$basic_string@DU?$char_traits@D@std@@V?$allocator@D@2@@std@@P6AXPADPAH@Z@?$_Tmap_traits@V?$basic_string@DU?$char_traits@D@std@@V?$allocator@D@2@@std@@P6AXPADPAH@ZU?$less@V?$basic_string@DU?$char_traits@D@std@@V?$allocator@D@2@@std@@@2@V?$allocator@U?$pair@$$CBV?$basic_string@DU?$char_traits@D@std@@V?$allocator@D@2@@std@@P6AXPADPAH@Z@std@@@2@$0A@@std@@SAABV?$basic_string@DU?$char_traits@D@std@@V?$allocator@D@2@@1@ABU?$pair@$$CBV?$basic_string@DU?$char_traits@D@std@@V?$allocator@D@2@@std@@P6AXPADPAH@Z@1@@Z 1000ead0 f i DatabaseImpl.obj
 0001:0000dad0       ?_Left@?$_Tree_val@U?$_Tree_simple_types@U?$pair@$$CBV?$basic_string@DU?$char_traits@D@std@@V?$allocator@D@2@@std@@P6AXPADPAH@Z@std@@@std@@@std@@SAAAPAU?$_Tree_node@U?$pair@$$CBV?$basic_string@DU?$char_traits@D@std@@V?$allocator@D@2@@std@@P6AXPADPAH@Z@std@@PAX@2@PAU32@@Z 1000ead0 f i DatabaseImpl.obj
 0001:0000dad0       ??$move@AAV?$tuple@$$QAV?$basic_string@DU?$char_traits@D@std@@V?$allocator@D@2@@std@@@std@@@std@@YA$$QAV?$tuple@$$QAV?$basic_string@DU?$char_traits@D@std@@V?$allocator@D@2@@std@@@0@AAV10@@Z 1000ead0 f i DatabaseImpl.obj
 0001:0000dae0       ?deallocate@?$allocator@U?$_Tree_node@U?$pair@$$CBV?$basic_string@DU?$char_traits@D@std@@V?$allocator@D@2@@std@@P6AXPADPAH@Z@std@@PAX@std@@@std@@QAEXPAU?$_Tree_node@U?$pair@$$CBV?$basic_string@DU?$char_traits@D@std@@V?$allocator@D@2@@std@@P6AXPADPAH@Z@std@@PAX@2@I@Z 1000eae0 f i DatabaseImpl.obj
 0001:0000db00       ?_Buyheadnode@?$_Tree_comp_alloc@V?$_Tmap_traits@V?$basic_string@DU?$char_traits@D@std@@V?$allocator@D@2@@std@@P6AXPADPAH@ZU?$less@V?$basic_string@DU?$char_traits@D@std@@V?$allocator@D@2@@std@@@2@V?$allocator@U?$pair@$$CBV?$basic_string@DU?$char_traits@D@std@@V?$allocator@D@2@@std@@P6AXPADPAH@Z@std@@@2@$0A@@std@@@std@@QAEPAU?$_Tree_node@U?$pair@$$CBV?$basic_string@DU?$char_traits@D@std@@V?$allocator@D@2@@std@@P6AXPADPAH@Z@std@@PAX@2@XZ 1000eb00 f i DatabaseImpl.obj
 0001:0000dc40       ?_Min@?$_Tree_comp_alloc@V?$_Tmap_traits@V?$basic_string@DU?$char_traits@D@std@@V?$allocator@D@2@@std@@P6AXPADPAH@ZU?$less@V?$basic_string@DU?$char_traits@D@std@@V?$allocator@D@2@@std@@@2@V?$allocator@U?$pair@$$CBV?$basic_string@DU?$char_traits@D@std@@V?$allocator@D@2@@std@@P6AXPADPAH@Z@std@@@2@$0A@@std@@@std@@SAPAU?$_Tree_node@U?$pair@$$CBV?$basic_string@DU?$char_traits@D@std@@V?$allocator@D@2@@std@@P6AXPADPAH@Z@std@@PAX@2@PAU32@@Z 1000ec40 f i DatabaseImpl.obj
 0001:0000dc60       ?_Max@?$_Tree_comp_alloc@V?$_Tmap_traits@V?$basic_string@DU?$char_traits@D@std@@V?$allocator@D@2@@std@@P6AXPADPAH@ZU?$less@V?$basic_string@DU?$char_traits@D@std@@V?$allocator@D@2@@std@@@2@V?$allocator@U?$pair@$$CBV?$basic_string@DU?$char_traits@D@std@@V?$allocator@D@2@@std@@P6AXPADPAH@Z@std@@@2@$0A@@std@@@std@@SAPAU?$_Tree_node@U?$pair@$$CBV?$basic_string@DU?$char_traits@D@std@@V?$allocator@D@2@@std@@P6AXPADPAH@Z@std@@PAX@2@PAU32@@Z 1000ec60 f i DatabaseImpl.obj
 0001:0000dc80       ?_Isnil@?$_Tree_comp_alloc@V?$_Tmap_traits@V?$basic_string@DU?$char_traits@D@std@@V?$allocator@D@2@@std@@P6AXPADPAH@ZU?$less@V?$basic_string@DU?$char_traits@D@std@@V?$allocator@D@2@@std@@@2@V?$allocator@U?$pair@$$CBV?$basic_string@DU?$char_traits@D@std@@V?$allocator@D@2@@std@@P6AXPADPAH@Z@std@@@2@$0A@@std@@@std@@SAAADPAU?$_Tree_node@U?$pair@$$CBV?$basic_string@DU?$char_traits@D@std@@V?$allocator@D@2@@std@@P6AXPADPAH@Z@std@@PAX@2@@Z 1000ec80 f i DatabaseImpl.obj
 0001:0000dca0       ?_Color@?$_Tree_comp_alloc@V?$_Tmap_traits@V?$basic_string@DU?$char_traits@D@std@@V?$allocator@D@2@@std@@P6AXPADPAH@ZU?$less@V?$basic_string@DU?$char_traits@D@std@@V?$allocator@D@2@@std@@@2@V?$allocator@U?$pair@$$CBV?$basic_string@DU?$char_traits@D@std@@V?$allocator@D@2@@std@@P6AXPADPAH@Z@std@@@2@$0A@@std@@@std@@SAAADPAU?$_Tree_node@U?$pair@$$CBV?$basic_string@DU?$char_traits@D@std@@V?$allocator@D@2@@std@@P6AXPADPAH@Z@std@@PAX@2@@Z 1000eca0 f i DatabaseImpl.obj
 0001:0000dcc0       ?_Rrotate@?$_Tree@V?$_Tmap_traits@V?$basic_string@DU?$char_traits@D@std@@V?$allocator@D@2@@std@@P6AXPADPAH@ZU?$less@V?$basic_string@DU?$char_traits@D@std@@V?$allocator@D@2@@std@@@2@V?$allocator@U?$pair@$$CBV?$basic_string@DU?$char_traits@D@std@@V?$allocator@D@2@@std@@P6AXPADPAH@Z@std@@@2@$0A@@std@@@std@@IAEXPAU?$_Tree_node@U?$pair@$$CBV?$basic_string@DU?$char_traits@D@std@@V?$allocator@D@2@@std@@P6AXPADPAH@Z@std@@PAX@2@@Z 1000ecc0 f i DatabaseImpl.obj
 0001:0000ddf0       ?_Root@?$_Tree@V?$_Tmap_traits@V?$basic_string@DU?$char_traits@D@std@@V?$allocator@D@2@@std@@P6AXPADPAH@ZU?$less@V?$basic_string@DU?$char_traits@D@std@@V?$allocator@D@2@@std@@@2@V?$allocator@U?$pair@$$CBV?$basic_string@DU?$char_traits@D@std@@V?$allocator@D@2@@std@@P6AXPADPAH@Z@std@@@2@$0A@@std@@@std@@IBEAAPAU?$_Tree_node@U?$pair@$$CBV?$basic_string@DU?$char_traits@D@std@@V?$allocator@D@2@@std@@P6AXPADPAH@Z@std@@PAX@2@XZ 1000edf0 f i DatabaseImpl.obj
 0001:0000de10       ?_Rmost@?$_Tree@V?$_Tmap_traits@V?$basic_string@DU?$char_traits@D@std@@V?$allocator@D@2@@std@@P6AXPADPAH@ZU?$less@V?$basic_string@DU?$char_traits@D@std@@V?$allocator@D@2@@std@@@2@V?$allocator@U?$pair@$$CBV?$basic_string@DU?$char_traits@D@std@@V?$allocator@D@2@@std@@P6AXPADPAH@Z@std@@@2@$0A@@std@@@std@@IBEAAPAU?$_Tree_node@U?$pair@$$CBV?$basic_string@DU?$char_traits@D@std@@V?$allocator@D@2@@std@@P6AXPADPAH@Z@std@@PAX@2@XZ 1000ee10 f i DatabaseImpl.obj
 0001:0000de30       ?_Lrotate@?$_Tree@V?$_Tmap_traits@V?$basic_string@DU?$char_traits@D@std@@V?$allocator@D@2@@std@@P6AXPADPAH@ZU?$less@V?$basic_string@DU?$char_traits@D@std@@V?$allocator@D@2@@std@@@2@V?$allocator@U?$pair@$$CBV?$basic_string@DU?$char_traits@D@std@@V?$allocator@D@2@@std@@P6AXPADPAH@Z@std@@@2@$0A@@std@@@std@@IAEXPAU?$_Tree_node@U?$pair@$$CBV?$basic_string@DU?$char_traits@D@std@@V?$allocator@D@2@@std@@P6AXPADPAH@Z@std@@PAX@2@@Z 1000ee30 f i DatabaseImpl.obj
 0001:0000df60       ?_Erase@?$_Tree@V?$_Tmap_traits@V?$basic_string@DU?$char_traits@D@std@@V?$allocator@D@2@@std@@P6AXPADPAH@ZU?$less@V?$basic_string@DU?$char_traits@D@std@@V?$allocator@D@2@@std@@@2@V?$allocator@U?$pair@$$CBV?$basic_string@DU?$char_traits@D@std@@V?$allocator@D@2@@std@@P6AXPADPAH@Z@std@@@2@$0A@@std@@@std@@IAEXPAU?$_Tree_node@U?$pair@$$CBV?$basic_string@DU?$char_traits@D@std@@V?$allocator@D@2@@std@@P6AXPADPAH@Z@std@@PAX@2@@Z 1000ef60 f i DatabaseImpl.obj
 0001:0000e000       ?max_size@?$allocator_traits@V?$allocator@UPARAM@Parameter@@@std@@@std@@SAIABV?$allocator@UPARAM@Parameter@@@2@@Z 1000f000 f i DatabaseImpl.obj
 0001:0000e010       ?allocate@?$allocator@UPARAM@Parameter@@@std@@QAEPAUPARAM@Parameter@@I@Z 1000f010 f i DatabaseImpl.obj
 0001:0000e030       ?max_size@?$_Wrap_alloc@V?$allocator@D@std@@@std@@QBEIU_Nil@2@@Z 1000f030 f i DatabaseImpl.obj
 0001:0000e050       ?allocate@?$_Wrap_alloc@V?$allocator@D@std@@@std@@QAEPADI@Z 1000f050 f i DatabaseImpl.obj
 0001:0000e070       ??E?$_Tree_unchecked_const_iterator@V?$_Tree_val@U?$_Tree_simple_types@U?$pair@$$CBV?$basic_string@DU?$char_traits@D@std@@V?$allocator@D@2@@std@@P6AXPADPAH@Z@std@@@std@@@std@@U_Iterator_base0@2@@std@@QAEAAV01@XZ 1000f070 f i DatabaseImpl.obj
 0001:0000e130       ?_Min@?$_Tree_val@U?$_Tree_simple_types@U?$pair@$$CBV?$basic_string@DU?$char_traits@D@std@@V?$allocator@D@2@@std@@P6AXPADPAH@Z@std@@@std@@@std@@SAPAU?$_Tree_node@U?$pair@$$CBV?$basic_string@DU?$char_traits@D@std@@V?$allocator@D@2@@std@@P6AXPADPAH@Z@std@@PAX@2@PAU32@@Z 1000f130 f i DatabaseImpl.obj
 0001:0000e170       ?_Max@?$_Tree_val@U?$_Tree_simple_types@U?$pair@$$CBV?$basic_string@DU?$char_traits@D@std@@V?$allocator@D@2@@std@@P6AXPADPAH@Z@std@@@std@@@std@@SAPAU?$_Tree_node@U?$pair@$$CBV?$basic_string@DU?$char_traits@D@std@@V?$allocator@D@2@@std@@P6AXPADPAH@Z@std@@PAX@2@PAU32@@Z 1000f170 f i DatabaseImpl.obj
 0001:0000e1b0       ?_Isnil@?$_Tree_val@U?$_Tree_simple_types@U?$pair@$$CBV?$basic_string@DU?$char_traits@D@std@@V?$allocator@D@2@@std@@P6AXPADPAH@Z@std@@@std@@@std@@SAAADPAU?$_Tree_node@U?$pair@$$CBV?$basic_string@DU?$char_traits@D@std@@V?$allocator@D@2@@std@@P6AXPADPAH@Z@std@@PAX@2@@Z 1000f1b0 f i DatabaseImpl.obj
 0001:0000e1c0       ?_Color@?$_Tree_val@U?$_Tree_simple_types@U?$pair@$$CBV?$basic_string@DU?$char_traits@D@std@@V?$allocator@D@2@@std@@P6AXPADPAH@Z@std@@@std@@@std@@SAAADPAU?$_Tree_node@U?$pair@$$CBV?$basic_string@DU?$char_traits@D@std@@V?$allocator@D@2@@std@@P6AXPADPAH@Z@std@@PAX@2@@Z 1000f1c0 f i DatabaseImpl.obj
 0001:0000e1d0       ?allocate@?$_Wrap_alloc@V?$allocator@U?$_Tree_node@U?$pair@$$CBV?$basic_string@DU?$char_traits@D@std@@V?$allocator@D@2@@std@@P6AXPADPAH@Z@std@@PAX@std@@@std@@@std@@QAEPAU?$_Tree_node@U?$pair@$$CBV?$basic_string@DU?$char_traits@D@std@@V?$allocator@D@2@@std@@P6AXPADPAH@Z@std@@PAX@2@I@Z 1000f1d0 f i DatabaseImpl.obj
 0001:0000e1f0       ?max_size@?$allocator@UPARAM@Parameter@@@std@@QBEIXZ 1000f1f0 f i DatabaseImpl.obj
 0001:0000e200       ?max_size@?$allocator_traits@V?$allocator@D@std@@@std@@SAIABV?$allocator@D@2@@Z 1000f200 f i DatabaseImpl.obj
 0001:0000e210       ?allocate@?$allocator@D@std@@QAEPADI@Z 1000f210 f i DatabaseImpl.obj
 0001:0000e230       ?allocate@?$allocator@U?$_Tree_node@U?$pair@$$CBV?$basic_string@DU?$char_traits@D@std@@V?$allocator@D@2@@std@@P6AXPADPAH@Z@std@@PAX@std@@@std@@QAEPAU?$_Tree_node@U?$pair@$$CBV?$basic_string@DU?$char_traits@D@std@@V?$allocator@D@2@@std@@P6AXPADPAH@Z@std@@PAX@2@I@Z 1000f230 f i DatabaseImpl.obj
 0001:0000e250       ?max_size@?$allocator@D@std@@QBEIXZ 1000f250 f i DatabaseImpl.obj
 0001:0000e260       ??$try_emplace@$$V@?$map@V?$basic_string@DU?$char_traits@D@std@@V?$allocator@D@2@@std@@P6AXPADPAH@ZU?$less@V?$basic_string@DU?$char_traits@D@std@@V?$allocator@D@2@@std@@@2@V?$allocator@U?$pair@$$CBV?$basic_string@DU?$char_traits@D@std@@V?$allocator@D@2@@std@@P6AXPADPAH@Z@std@@@2@@std@@QAE?AU?$pair@V?$_Tree_iterator@V?$_Tree_val@U?$_Tree_simple_types@U?$pair@$$CBV?$basic_string@DU?$char_traits@D@std@@V?$allocator@D@2@@std@@P6AXPADPAH@Z@std@@@std@@@std@@@std@@_N@1@$$QAV?$basic_string@DU?$char_traits@D@std@@V?$allocator@D@2@@1@@Z 1000f260 f i DatabaseImpl.obj
 0001:0000e290       ??$construct@UPARAM@Parameter@@ABU12@@?$_Wrap_alloc@V?$allocator@UPARAM@Parameter@@@std@@@std@@QAEXPAUPARAM@Parameter@@ABU23@@Z 1000f290 f i DatabaseImpl.obj
 0001:0000e290       ??$construct@UPARAM@Parameter@@AAU12@@?$_Wrap_alloc@V?$allocator@UPARAM@Parameter@@@std@@@std@@QAEXPAUPARAM@Parameter@@AAU23@@Z 1000f290 f i DatabaseImpl.obj
 0001:0000e2c0       ??$?9V?$allocator@D@std@@V01@@std@@YA_NABU?$_Wrap_alloc@V?$allocator@D@std@@@0@0@Z 1000f2c0 f i DatabaseImpl.obj
 0001:0000e300       ??$?0U?$_Wrap_alloc@V?$allocator@D@std@@@std@@X@?$_String_alloc@U?$_String_base_types@DV?$allocator@D@std@@@std@@@std@@QAE@$$QAU?$_Wrap_alloc@V?$allocator@D@std@@@1@@Z 1000f300 f i DatabaseImpl.obj
 0001:0000e330       ??$_Lbound@V?$basic_string@DU?$char_traits@D@std@@V?$allocator@D@2@@std@@@?$_Tree@V?$_Tmap_traits@V?$basic_string@DU?$char_traits@D@std@@V?$allocator@D@2@@std@@P6AXPADPAH@ZU?$less@V?$basic_string@DU?$char_traits@D@std@@V?$allocator@D@2@@std@@@2@V?$allocator@U?$pair@$$CBV?$basic_string@DU?$char_traits@D@std@@V?$allocator@D@2@@std@@P6AXPADPAH@Z@std@@@2@$0A@@std@@@std@@IBEPAU?$_Tree_node@U?$pair@$$CBV?$basic_string@DU?$char_traits@D@std@@V?$allocator@D@2@@std@@P6AXPADPAH@Z@std@@PAX@1@ABV?$basic_string@DU?$char_traits@D@std@@V?$allocator@D@2@@1@@Z 1000f330 f i DatabaseImpl.obj
 0001:0000e3c0       ??$?MDU?$char_traits@D@std@@V?$allocator@D@1@@std@@YA_NABV?$basic_string@DU?$char_traits@D@std@@V?$allocator@D@2@@0@0@Z 1000f3c0 f i DatabaseImpl.obj
 0001:0000e3f0       ??$?0$$V@?$_Compressed_pair@U?$_Wrap_alloc@V?$allocator@UPARAM@Parameter@@@std@@@std@@V?$_Vector_val@U?$_Simple_types@UPARAM@Parameter@@@std@@@2@$00@std@@QAE@U_Zero_then_variadic_args_t@1@@Z 1000f3f0 f i DatabaseImpl.obj
 0001:0000e410       ??$_Destroy_range@V?$allocator@UPARAM@Parameter@@@std@@PAUPARAM@Parameter@@@std@@YAXPAUPARAM@Parameter@@0AAU?$_Wrap_alloc@V?$allocator@UPARAM@Parameter@@@std@@@0@@Z 1000f410 f i DatabaseImpl.obj
 0001:0000e440       ??$_Pocca@U?$_Wrap_alloc@V?$allocator@D@std@@@std@@@std@@YAXAAU?$_Wrap_alloc@V?$allocator@D@std@@@0@ABU10@@Z 1000f440 f i DatabaseImpl.obj
 0001:0000e460       ??$?0$$V@?$_Compressed_pair@U?$_Wrap_alloc@V?$allocator@D@std@@@std@@V?$_String_val@U?$_Simple_types@D@std@@@2@$00@std@@QAE@U_Zero_then_variadic_args_t@1@@Z 1000f460 f i DatabaseImpl.obj
 0001:0000e480       ??$destroy@PAD@?$_Wrap_alloc@V?$allocator@D@std@@@std@@QAEXPAPAD@Z 1000f480 f i DatabaseImpl.obj
 0001:0000e480       ??$destroy@PAU?$_Tree_node@U?$pair@$$CBV?$basic_string@DU?$char_traits@D@std@@V?$allocator@D@2@@std@@P6AXPADPAH@Z@std@@PAX@std@@@?$_Wrap_alloc@V?$allocator@U?$_Tree_node@U?$pair@$$CBV?$basic_string@DU?$char_traits@D@std@@V?$allocator@D@2@@std@@P6AXPADPAH@Z@std@@PAX@std@@@std@@@std@@QAEXPAPAU?$_Tree_node@U?$pair@$$CBV?$basic_string@DU?$char_traits@D@std@@V?$allocator@D@2@@std@@P6AXPADPAH@Z@std@@PAX@1@@Z 1000f480 f i DatabaseImpl.obj
 0001:0000e4a0       ??$construct@PAU?$_Tree_node@U?$pair@$$CBV?$basic_string@DU?$char_traits@D@std@@V?$allocator@D@2@@std@@P6AXPADPAH@Z@std@@PAX@std@@AAPAU12@@?$_Wrap_alloc@V?$allocator@U?$_Tree_node@U?$pair@$$CBV?$basic_string@DU?$char_traits@D@std@@V?$allocator@D@2@@std@@P6AXPADPAH@Z@std@@PAX@std@@@std@@@std@@QAEXPAPAU?$_Tree_node@U?$pair@$$CBV?$basic_string@DU?$char_traits@D@std@@V?$allocator@D@2@@std@@P6AXPADPAH@Z@std@@PAX@1@AAPAU21@@Z 1000f4a0 f i DatabaseImpl.obj
 0001:0000e4a0       ??$construct@PADAAPAD@?$_Wrap_alloc@V?$allocator@D@std@@@std@@QAEXPAPADAAPAD@Z 1000f4a0 f i DatabaseImpl.obj
 0001:0000e4d0       ??$?0ABU?$less@V?$basic_string@DU?$char_traits@D@std@@V?$allocator@D@2@@std@@@std@@U_Zero_then_variadic_args_t@1@@?$_Compressed_pair@U?$less@V?$basic_string@DU?$char_traits@D@std@@V?$allocator@D@2@@std@@@std@@V?$_Compressed_pair@U?$_Wrap_alloc@V?$allocator@U?$_Tree_node@U?$pair@$$CBV?$basic_string@DU?$char_traits@D@std@@V?$allocator@D@2@@std@@P6AXPADPAH@Z@std@@PAX@std@@@std@@@std@@V?$_Tree_val@U?$_Tree_simple_types@U?$pair@$$CBV?$basic_string@DU?$char_traits@D@std@@V?$allocator@D@2@@std@@P6AXPADPAH@Z@std@@@std@@@2@$00@2@$00@std@@QAE@U_One_then_variadic_args_t@1@ABU?$less@V?$basic_string@DU?$char_traits@D@std@@V?$allocator@D@2@@std@@@1@$$QAU_Zero_then_variadic_args_t@1@@Z 1000f4d0 f i DatabaseImpl.obj
 0001:0000e510       ??$_Umove@PAUPARAM@Parameter@@@?$vector@UPARAM@Parameter@@V?$allocator@UPARAM@Parameter@@@std@@@std@@IAEPAUPARAM@Parameter@@PAU23@00@Z 1000f510 f i DatabaseImpl.obj
 0001:0000e540       ??$swap@DX@std@@YAXAAD0@Z  1000f540 f i DatabaseImpl.obj
 0001:0000e580       ??$destroy@U?$pair@$$CBV?$basic_string@DU?$char_traits@D@std@@V?$allocator@D@2@@std@@P6AXPADPAH@Z@std@@@?$_Wrap_alloc@V?$allocator@U?$_Tree_node@U?$pair@$$CBV?$basic_string@DU?$char_traits@D@std@@V?$allocator@D@2@@std@@P6AXPADPAH@Z@std@@PAX@std@@@std@@@std@@QAEXPAU?$pair@$$CBV?$basic_string@DU?$char_traits@D@std@@V?$allocator@D@2@@std@@P6AXPADPAH@Z@1@@Z 1000f580 f i DatabaseImpl.obj
 0001:0000e5a0       ?_Compare@?$_Tree@V?$_Tmap_traits@V?$basic_string@DU?$char_traits@D@std@@V?$allocator@D@2@@std@@P6AXPADPAH@ZU?$less@V?$basic_string@DU?$char_traits@D@std@@V?$allocator@D@2@@std@@@2@V?$allocator@U?$pair@$$CBV?$basic_string@DU?$char_traits@D@std@@V?$allocator@D@2@@std@@P6AXPADPAH@Z@std@@@2@$0A@@std@@@std@@IBE_NABV?$basic_string@DU?$char_traits@D@std@@V?$allocator@D@2@@2@0@Z 1000f5a0 f i DatabaseImpl.obj
 0001:0000e5d0       ??0?$_Vector_val@U?$_Simple_types@UPARAM@Parameter@@@std@@@std@@QAE@XZ 1000f5d0 f i DatabaseImpl.obj
 0001:0000e600       ??0?$_Wrap_alloc@V?$allocator@U?$_Tree_node@U?$pair@$$CBV?$basic_string@DU?$char_traits@D@std@@V?$allocator@D@2@@std@@P6AXPADPAH@Z@std@@PAX@std@@@std@@@std@@QAE@XZ 1000f600 f i DatabaseImpl.obj
 0001:0000e600       ??0?$_Wrap_alloc@V?$allocator@D@std@@@std@@QAE@XZ 1000f600 f i DatabaseImpl.obj
 0001:0000e600       ??0?$_Wrap_alloc@V?$allocator@UPARAM@Parameter@@@std@@@std@@QAE@XZ 1000f600 f i DatabaseImpl.obj
 0001:0000e620       ??0?$_String_val@U?$_Simple_types@D@std@@@std@@QAE@XZ 1000f620 f i DatabaseImpl.obj
 0001:0000e650       ??$_Try_emplace@V?$basic_string@DU?$char_traits@D@std@@V?$allocator@D@2@@std@@$$V@?$map@V?$basic_string@DU?$char_traits@D@std@@V?$allocator@D@2@@std@@P6AXPADPAH@ZU?$less@V?$basic_string@DU?$char_traits@D@std@@V?$allocator@D@2@@std@@@2@V?$allocator@U?$pair@$$CBV?$basic_string@DU?$char_traits@D@std@@V?$allocator@D@2@@std@@P6AXPADPAH@Z@std@@@2@@std@@QAE?AU?$pair@V?$_Tree_iterator@V?$_Tree_val@U?$_Tree_simple_types@U?$pair@$$CBV?$basic_string@DU?$char_traits@D@std@@V?$allocator@D@2@@std@@P6AXPADPAH@Z@std@@@std@@@std@@@std@@_N@1@$$QAV?$basic_string@DU?$char_traits@D@std@@V?$allocator@D@2@@1@@Z 1000f650 f i DatabaseImpl.obj
 0001:0000e730       ??$construct@UPARAM@Parameter@@ABU12@@?$allocator_traits@V?$allocator@UPARAM@Parameter@@@std@@@std@@SAXAAV?$allocator@UPARAM@Parameter@@@1@PAUPARAM@Parameter@@ABU34@@Z 1000f730 f i DatabaseImpl.obj
 0001:0000e730       ??$construct@UPARAM@Parameter@@AAU12@@?$allocator_traits@V?$allocator@UPARAM@Parameter@@@std@@@std@@SAXAAV?$allocator@UPARAM@Parameter@@@1@PAUPARAM@Parameter@@AAU34@@Z 1000f730 f i DatabaseImpl.obj
 0001:0000e750       ??$?8V?$allocator@D@std@@V01@@std@@YA_NABU?$_Wrap_alloc@V?$allocator@D@std@@@0@0@Z 1000f750 f i DatabaseImpl.obj
 0001:0000e770       ??$?0U?$_Wrap_alloc@V?$allocator@D@std@@@std@@$$V@?$_Compressed_pair@U?$_Wrap_alloc@V?$allocator@D@std@@@std@@V?$_String_val@U?$_Simple_types@D@std@@@2@$00@std@@QAE@U_One_then_variadic_args_t@1@$$QAU?$_Wrap_alloc@V?$allocator@D@std@@@1@@Z 1000f770 f i DatabaseImpl.obj
 0001:0000e7a0       ??$destroy@PAD@?$allocator_traits@V?$allocator@D@std@@@std@@SAXAAV?$allocator@D@1@PAPAD@Z 1000f7a0 f i DatabaseImpl.obj
 0001:0000e7a0       ??$destroy@PAU?$_Tree_node@U?$pair@$$CBV?$basic_string@DU?$char_traits@D@std@@V?$allocator@D@2@@std@@P6AXPADPAH@Z@std@@PAX@std@@@?$allocator_traits@V?$allocator@U?$_Tree_node@U?$pair@$$CBV?$basic_string@DU?$char_traits@D@std@@V?$allocator@D@2@@std@@P6AXPADPAH@Z@std@@PAX@std@@@std@@@std@@SAXAAV?$allocator@U?$_Tree_node@U?$pair@$$CBV?$basic_string@DU?$char_traits@D@std@@V?$allocator@D@2@@std@@P6AXPADPAH@Z@std@@PAX@std@@@1@PAPAU?$_Tree_node@U?$pair@$$CBV?$basic_string@DU?$char_traits@D@std@@V?$allocator@D@2@@std@@P6AXPADPAH@Z@std@@PAX@1@@Z 1000f7a0 f i DatabaseImpl.obj
 0001:0000e7c0       ??$construct@PADAAPAD@?$allocator_traits@V?$allocator@D@std@@@std@@SAXAAV?$allocator@D@1@PAPADAAPAD@Z 1000f7c0 f i DatabaseImpl.obj
 0001:0000e7c0       ??$construct@PAU?$_Tree_node@U?$pair@$$CBV?$basic_string@DU?$char_traits@D@std@@V?$allocator@D@2@@std@@P6AXPADPAH@Z@std@@PAX@std@@AAPAU12@@?$allocator_traits@V?$allocator@U?$_Tree_node@U?$pair@$$CBV?$basic_string@DU?$char_traits@D@std@@V?$allocator@D@2@@std@@P6AXPADPAH@Z@std@@PAX@std@@@std@@@std@@SAXAAV?$allocator@U?$_Tree_node@U?$pair@$$CBV?$basic_string@DU?$char_traits@D@std@@V?$allocator@D@2@@std@@P6AXPADPAH@Z@std@@PAX@std@@@1@PAPAU?$_Tree_node@U?$pair@$$CBV?$basic_string@DU?$char_traits@D@std@@V?$allocator@D@2@@std@@P6AXPADPAH@Z@std@@PAX@1@AAPAU31@@Z 1000f7c0 f i DatabaseImpl.obj
 0001:0000e7e0       ??$?0$$V@?$_Compressed_pair@U?$_Wrap_alloc@V?$allocator@U?$_Tree_node@U?$pair@$$CBV?$basic_string@DU?$char_traits@D@std@@V?$allocator@D@2@@std@@P6AXPADPAH@Z@std@@PAX@std@@@std@@@std@@V?$_Tree_val@U?$_Tree_simple_types@U?$pair@$$CBV?$basic_string@DU?$char_traits@D@std@@V?$allocator@D@2@@std@@P6AXPADPAH@Z@std@@@std@@@2@$00@std@@QAE@U_Zero_then_variadic_args_t@1@@Z 1000f7e0 f i DatabaseImpl.obj
 0001:0000e800       ??$_Uninitialized_move@PAUPARAM@Parameter@@PAU12@V?$allocator@UPARAM@Parameter@@@std@@@std@@YAPAUPARAM@Parameter@@PAU12@00AAU?$_Wrap_alloc@V?$allocator@UPARAM@Parameter@@@std@@@0@@Z 1000f800 f i DatabaseImpl.obj
 0001:0000e850       ??$destroy@U?$pair@$$CBV?$basic_string@DU?$char_traits@D@std@@V?$allocator@D@2@@std@@P6AXPADPAH@Z@std@@@?$allocator_traits@V?$allocator@U?$_Tree_node@U?$pair@$$CBV?$basic_string@DU?$char_traits@D@std@@V?$allocator@D@2@@std@@P6AXPADPAH@Z@std@@PAX@std@@@std@@@std@@SAXAAV?$allocator@U?$_Tree_node@U?$pair@$$CBV?$basic_string@DU?$char_traits@D@std@@V?$allocator@D@2@@std@@P6AXPADPAH@Z@std@@PAX@std@@@1@PAU?$pair@$$CBV?$basic_string@DU?$char_traits@D@std@@V?$allocator@D@2@@std@@P6AXPADPAH@Z@1@@Z 1000f850 f i DatabaseImpl.obj
 0001:0000e870       ??0?$_Tree_val@U?$_Tree_simple_types@U?$pair@$$CBV?$basic_string@DU?$char_traits@D@std@@V?$allocator@D@2@@std@@P6AXPADPAH@Z@std@@@std@@@std@@QAE@XZ 1000f870 f i DatabaseImpl.obj
 0001:0000e8a0       ??0?$_Wrap_alloc@V?$allocator@D@std@@@std@@QAE@$$QAU01@@Z 1000f8a0 f i DatabaseImpl.obj
 0001:0000e8d0       ??$?8DD@std@@YA_NABV?$allocator@D@0@0@Z 1000f8d0 f i DatabaseImpl.obj
 0001:0000e8e0       ??$forward_as_tuple@V?$basic_string@DU?$char_traits@D@std@@V?$allocator@D@2@@std@@@std@@YA?AV?$tuple@$$QAV?$basic_string@DU?$char_traits@D@std@@V?$allocator@D@2@@std@@@0@$$QAV?$basic_string@DU?$char_traits@D@std@@V?$allocator@D@2@@0@@Z 1000f8e0 f i DatabaseImpl.obj
 0001:0000e930       ??$forward_as_tuple@$$V@std@@YA?AV?$tuple@$$V@0@XZ 1000f930 f i DatabaseImpl.obj
 0001:0000e940       ??$emplace_hint@ABUpiecewise_construct_t@std@@V?$tuple@$$QAV?$basic_string@DU?$char_traits@D@std@@V?$allocator@D@2@@std@@@2@V?$tuple@$$V@2@@?$_Tree@V?$_Tmap_traits@V?$basic_string@DU?$char_traits@D@std@@V?$allocator@D@2@@std@@P6AXPADPAH@ZU?$less@V?$basic_string@DU?$char_traits@D@std@@V?$allocator@D@2@@std@@@2@V?$allocator@U?$pair@$$CBV?$basic_string@DU?$char_traits@D@std@@V?$allocator@D@2@@std@@P6AXPADPAH@Z@std@@@2@$0A@@std@@@std@@QAE?AV?$_Tree_iterator@V?$_Tree_val@U?$_Tree_simple_types@U?$pair@$$CBV?$basic_string@DU?$char_traits@D@std@@V?$allocator@D@2@@std@@P6AXPADPAH@Z@std@@@std@@@std@@@1@V?$_Tree_const_iterator@V?$_Tree_val@U?$_Tree_simple_types@U?$pair@$$CBV?$basic_string@DU?$char_traits@D@std@@V?$allocator@D@2@@std@@P6AXPADPAH@Z@std@@@std@@@std@@@1@ABUpiecewise_construct_t@1@$$QAV?$tuple@$$QAV?$basic_string@DU?$char_traits@D@std@@V?$allocator@D@2@@std@@@1@$$QAV?$tuple@$$V@1@@Z 1000f940 f i DatabaseImpl.obj
 0001:0000e9b0       ??$?0V?$_Tree_iterator@V?$_Tree_val@U?$_Tree_simple_types@U?$pair@$$CBV?$basic_string@DU?$char_traits@D@std@@V?$allocator@D@2@@std@@P6AXPADPAH@Z@std@@@std@@@std@@@std@@_NX$0A@@?$pair@V?$_Tree_iterator@V?$_Tree_val@U?$_Tree_simple_types@U?$pair@$$CBV?$basic_string@DU?$char_traits@D@std@@V?$allocator@D@2@@std@@P6AXPADPAH@Z@std@@@std@@@std@@@std@@_N@std@@QAE@$$QAV?$_Tree_iterator@V?$_Tree_val@U?$_Tree_simple_types@U?$pair@$$CBV?$basic_string@DU?$char_traits@D@std@@V?$allocator@D@2@@std@@P6AXPADPAH@Z@std@@@std@@@std@@@1@$$QA_N@Z 1000f9b0 f i DatabaseImpl.obj
 0001:0000e9b0       ??$?0AAV?$_Tree_iterator@V?$_Tree_val@U?$_Tree_simple_types@U?$pair@$$CBV?$basic_string@DU?$char_traits@D@std@@V?$allocator@D@2@@std@@P6AXPADPAH@Z@std@@@std@@@std@@@std@@_NX$0A@@?$pair@V?$_Tree_iterator@V?$_Tree_val@U?$_Tree_simple_types@U?$pair@$$CBV?$basic_string@DU?$char_traits@D@std@@V?$allocator@D@2@@std@@P6AXPADPAH@Z@std@@@std@@@std@@@std@@_N@std@@QAE@AAV?$_Tree_iterator@V?$_Tree_val@U?$_Tree_simple_types@U?$pair@$$CBV?$basic_string@DU?$char_traits@D@std@@V?$allocator@D@2@@std@@P6AXPADPAH@Z@std@@@std@@@std@@@1@$$QA_N@Z 1000f9b0 f i DatabaseImpl.obj
 0001:0000e9f0       ??$construct@UPARAM@Parameter@@ABU12@@?$allocator@UPARAM@Parameter@@@std@@QAEXPAUPARAM@Parameter@@ABU23@@Z 1000f9f0 f i DatabaseImpl.obj
 0001:0000e9f0       ??$construct@UPARAM@Parameter@@AAU12@@?$allocator@UPARAM@Parameter@@@std@@QAEXPAUPARAM@Parameter@@AAU23@@Z 1000f9f0 f i DatabaseImpl.obj
 0001:0000ea60       ??$construct@PADAAPAD@?$allocator@D@std@@QAEXPAPADAAPAD@Z 1000fa60 f i DatabaseImpl.obj
 0001:0000ea60       ??$construct@PAU?$_Tree_node@U?$pair@$$CBV?$basic_string@DU?$char_traits@D@std@@V?$allocator@D@2@@std@@P6AXPADPAH@Z@std@@PAX@std@@AAPAU12@@?$allocator@U?$_Tree_node@U?$pair@$$CBV?$basic_string@DU?$char_traits@D@std@@V?$allocator@D@2@@std@@P6AXPADPAH@Z@std@@PAX@std@@@std@@QAEXPAPAU?$_Tree_node@U?$pair@$$CBV?$basic_string@DU?$char_traits@D@std@@V?$allocator@D@2@@std@@P6AXPADPAH@Z@std@@PAX@1@AAPAU21@@Z 1000fa60 f i DatabaseImpl.obj
 0001:0000eab0       ??$_Uninitialized_move_al_unchecked@PAUPARAM@Parameter@@PAU12@V?$allocator@UPARAM@Parameter@@@std@@@std@@YAPAUPARAM@Parameter@@PAU12@00AAU?$_Wrap_alloc@V?$allocator@UPARAM@Parameter@@@std@@@0@@Z 1000fab0 f i DatabaseImpl.obj
 0001:0000eaf0       ??$_Rechecked@PAUPARAM@Parameter@@PAU12@@std@@YAAAPAUPARAM@Parameter@@AAPAU12@PAU12@@Z 1000faf0 f i DatabaseImpl.obj
 0001:0000eb00       ??$destroy@U?$pair@$$CBV?$basic_string@DU?$char_traits@D@std@@V?$allocator@D@2@@std@@P6AXPADPAH@Z@std@@@?$allocator@U?$_Tree_node@U?$pair@$$CBV?$basic_string@DU?$char_traits@D@std@@V?$allocator@D@2@@std@@P6AXPADPAH@Z@std@@PAX@std@@@std@@QAEXPAU?$pair@$$CBV?$basic_string@DU?$char_traits@D@std@@V?$allocator@D@2@@std@@P6AXPADPAH@Z@1@@Z 1000fb00 f i DatabaseImpl.obj
 0001:0000eb20       ??_G?$pair@$$CBV?$basic_string@DU?$char_traits@D@std@@V?$allocator@D@2@@std@@P6AXPADPAH@Z@std@@QAEPAXI@Z 1000fb20 f i DatabaseImpl.obj
 0001:0000eb50       ??1?$pair@$$CBV?$basic_string@DU?$char_traits@D@std@@V?$allocator@D@2@@std@@P6AXPADPAH@Z@std@@QAE@XZ 1000fb50 f i DatabaseImpl.obj
 0001:0000eb70       ??$?0V?$basic_string@DU?$char_traits@D@std@@V?$allocator@D@2@@std@@$$V$0A@@?$tuple@$$QAV?$basic_string@DU?$char_traits@D@std@@V?$allocator@D@2@@std@@@std@@QAE@$$QAV?$basic_string@DU?$char_traits@D@std@@V?$allocator@D@2@@1@@Z 1000fb70 f i DatabaseImpl.obj
 0001:0000ebb0       ??$_Buynode@ABUpiecewise_construct_t@std@@V?$tuple@$$QAV?$basic_string@DU?$char_traits@D@std@@V?$allocator@D@2@@std@@@2@V?$tuple@$$V@2@@?$_Tree_comp_alloc@V?$_Tmap_traits@V?$basic_string@DU?$char_traits@D@std@@V?$allocator@D@2@@std@@P6AXPADPAH@ZU?$less@V?$basic_string@DU?$char_traits@D@std@@V?$allocator@D@2@@std@@@2@V?$allocator@U?$pair@$$CBV?$basic_string@DU?$char_traits@D@std@@V?$allocator@D@2@@std@@P6AXPADPAH@Z@std@@@2@$0A@@std@@@std@@QAEPAU?$_Tree_node@U?$pair@$$CBV?$basic_string@DU?$char_traits@D@std@@V?$allocator@D@2@@std@@P6AXPADPAH@Z@std@@PAX@1@ABUpiecewise_construct_t@1@$$QAV?$tuple@$$QAV?$basic_string@DU?$char_traits@D@std@@V?$allocator@D@2@@std@@@1@$$QAV?$tuple@$$V@1@@Z 1000fbb0 f i DatabaseImpl.obj
 0001:0000ecb0       ??$_Insert_hint@AAU?$pair@$$CBV?$basic_string@DU?$char_traits@D@std@@V?$allocator@D@2@@std@@P6AXPADPAH@Z@std@@PAU?$_Tree_node@U?$pair@$$CBV?$basic_string@DU?$char_traits@D@std@@V?$allocator@D@2@@std@@P6AXPADPAH@Z@std@@PAX@2@@?$_Tree@V?$_Tmap_traits@V?$basic_string@DU?$char_traits@D@std@@V?$allocator@D@2@@std@@P6AXPADPAH@ZU?$less@V?$basic_string@DU?$char_traits@D@std@@V?$allocator@D@2@@std@@@2@V?$allocator@U?$pair@$$CBV?$basic_string@DU?$char_traits@D@std@@V?$allocator@D@2@@std@@P6AXPADPAH@Z@std@@@2@$0A@@std@@@std@@IAE?AV?$_Tree_iterator@V?$_Tree_val@U?$_Tree_simple_types@U?$pair@$$CBV?$basic_string@DU?$char_traits@D@std@@V?$allocator@D@2@@std@@P6AXPADPAH@Z@std@@@std@@@std@@@1@V?$_Tree_const_iterator@V?$_Tree_val@U?$_Tree_simple_types@U?$pair@$$CBV?$basic_string@DU?$char_traits@D@std@@V?$allocator@D@2@@std@@P6AXPADPAH@Z@std@@@std@@@std@@@1@AAU?$pair@$$CBV?$basic_string@DU?$char_traits@D@std@@V?$allocator@D@2@@std@@P6AXPADPAH@Z@1@PAU?$_Tree_node@U?$pair@$$CBV?$basic_string@DU?$char_traits@D@std@@V?$allocator@D@2@@std@@P6AXPADPAH@Z@std@@PAX@1@@Z 1000fcb0 f i DatabaseImpl.obj
 0001:0000f720       ??$_Uninitialized_move_al_unchecked1@UPARAM@Parameter@@U12@V?$allocator@UPARAM@Parameter@@@std@@@std@@YAPAUPARAM@Parameter@@PAU12@00AAU?$_Wrap_alloc@V?$allocator@UPARAM@Parameter@@@std@@@0@U_Really_trivial_ptr_iterator_tag@0@U?$integral_constant@_N$00@0@@Z 10010720 f i DatabaseImpl.obj
 0001:0000f740       ??F?$_Tree_const_iterator@V?$_Tree_val@U?$_Tree_simple_types@U?$pair@$$CBV?$basic_string@DU?$char_traits@D@std@@V?$allocator@D@2@@std@@P6AXPADPAH@Z@std@@@std@@@std@@@std@@QAEAAV01@XZ 10010740 f i DatabaseImpl.obj
 0001:0000f760       ?_Buynode0@?$_Tree_comp_alloc@V?$_Tmap_traits@V?$basic_string@DU?$char_traits@D@std@@V?$allocator@D@2@@std@@P6AXPADPAH@ZU?$less@V?$basic_string@DU?$char_traits@D@std@@V?$allocator@D@2@@std@@@2@V?$allocator@U?$pair@$$CBV?$basic_string@DU?$char_traits@D@std@@V?$allocator@D@2@@std@@P6AXPADPAH@Z@std@@@2@$0A@@std@@@std@@QAEPAU?$_Tree_node@U?$pair@$$CBV?$basic_string@DU?$char_traits@D@std@@V?$allocator@D@2@@std@@P6AXPADPAH@Z@std@@PAX@2@XZ 10010760 f i DatabaseImpl.obj
 0001:0000f8a0       ?_Destroy_if_not_nil@?$_Tree@V?$_Tmap_traits@V?$basic_string@DU?$char_traits@D@std@@V?$allocator@D@2@@std@@P6AXPADPAH@ZU?$less@V?$basic_string@DU?$char_traits@D@std@@V?$allocator@D@2@@std@@@2@V?$allocator@U?$pair@$$CBV?$basic_string@DU?$char_traits@D@std@@V?$allocator@D@2@@std@@P6AXPADPAH@Z@std@@@2@$0A@@std@@@std@@IAEXPAU?$_Tree_node@U?$pair@$$CBV?$basic_string@DU?$char_traits@D@std@@V?$allocator@D@2@@std@@P6AXPADPAH@Z@std@@PAX@2@@Z 100108a0 f i DatabaseImpl.obj
 0001:0000f8f0       ??F?$_Tree_unchecked_const_iterator@V?$_Tree_val@U?$_Tree_simple_types@U?$pair@$$CBV?$basic_string@DU?$char_traits@D@std@@V?$allocator@D@2@@std@@P6AXPADPAH@Z@std@@@std@@@std@@U_Iterator_base0@2@@std@@QAEAAV01@XZ 100108f0 f i DatabaseImpl.obj
 0001:0000f9e0       ??$?0V?$basic_string@DU?$char_traits@D@std@@V?$allocator@D@2@@std@@@?$_Tuple_val@$$QAV?$basic_string@DU?$char_traits@D@std@@V?$allocator@D@2@@std@@@std@@QAE@$$QAV?$basic_string@DU?$char_traits@D@std@@V?$allocator@D@2@@1@@Z 100109e0 f i DatabaseImpl.obj
 0001:0000fa10       ??$construct@U?$pair@$$CBV?$basic_string@DU?$char_traits@D@std@@V?$allocator@D@2@@std@@P6AXPADPAH@Z@std@@ABUpiecewise_construct_t@2@V?$tuple@$$QAV?$basic_string@DU?$char_traits@D@std@@V?$allocator@D@2@@std@@@2@V?$tuple@$$V@2@@?$_Wrap_alloc@V?$allocator@U?$_Tree_node@U?$pair@$$CBV?$basic_string@DU?$char_traits@D@std@@V?$allocator@D@2@@std@@P6AXPADPAH@Z@std@@PAX@std@@@std@@@std@@QAEXPAU?$pair@$$CBV?$basic_string@DU?$char_traits@D@std@@V?$allocator@D@2@@std@@P6AXPADPAH@Z@1@ABUpiecewise_construct_t@1@$$QAV?$tuple@$$QAV?$basic_string@DU?$char_traits@D@std@@V?$allocator@D@2@@std@@@1@$$QAV?$tuple@$$V@1@@Z 10010a10 f i DatabaseImpl.obj
 0001:0000fa60       ??$_Insert_at@AAU?$pair@$$CBV?$basic_string@DU?$char_traits@D@std@@V?$allocator@D@2@@std@@P6AXPADPAH@Z@std@@PAU?$_Tree_node@U?$pair@$$CBV?$basic_string@DU?$char_traits@D@std@@V?$allocator@D@2@@std@@P6AXPADPAH@Z@std@@PAX@2@@?$_Tree@V?$_Tmap_traits@V?$basic_string@DU?$char_traits@D@std@@V?$allocator@D@2@@std@@P6AXPADPAH@ZU?$less@V?$basic_string@DU?$char_traits@D@std@@V?$allocator@D@2@@std@@@2@V?$allocator@U?$pair@$$CBV?$basic_string@DU?$char_traits@D@std@@V?$allocator@D@2@@std@@P6AXPADPAH@Z@std@@@2@$0A@@std@@@std@@IAE?AV?$_Tree_iterator@V?$_Tree_val@U?$_Tree_simple_types@U?$pair@$$CBV?$basic_string@DU?$char_traits@D@std@@V?$allocator@D@2@@std@@P6AXPADPAH@Z@std@@@std@@@std@@@1@_NPAU?$_Tree_node@U?$pair@$$CBV?$basic_string@DU?$char_traits@D@std@@V?$allocator@D@2@@std@@P6AXPADPAH@Z@std@@PAX@1@AAU?$pair@$$CBV?$basic_string@DU?$char_traits@D@std@@V?$allocator@D@2@@std@@P6AXPADPAH@Z@1@1@Z 10010a60 f i DatabaseImpl.obj
 0001:0000fea0       ??$_Insert_nohint@AAU?$pair@$$CBV?$basic_string@DU?$char_traits@D@std@@V?$allocator@D@2@@std@@P6AXPADPAH@Z@std@@PAU?$_Tree_node@U?$pair@$$CBV?$basic_string@DU?$char_traits@D@std@@V?$allocator@D@2@@std@@P6AXPADPAH@Z@std@@PAX@2@@?$_Tree@V?$_Tmap_traits@V?$basic_string@DU?$char_traits@D@std@@V?$allocator@D@2@@std@@P6AXPADPAH@ZU?$less@V?$basic_string@DU?$char_traits@D@std@@V?$allocator@D@2@@std@@@2@V?$allocator@U?$pair@$$CBV?$basic_string@DU?$char_traits@D@std@@V?$allocator@D@2@@std@@P6AXPADPAH@Z@std@@@2@$0A@@std@@@std@@IAE?AU?$pair@V?$_Tree_iterator@V?$_Tree_val@U?$_Tree_simple_types@U?$pair@$$CBV?$basic_string@DU?$char_traits@D@std@@V?$allocator@D@2@@std@@P6AXPADPAH@Z@std@@@std@@@std@@@std@@_N@1@_NAAU?$pair@$$CBV?$basic_string@DU?$char_traits@D@std@@V?$allocator@D@2@@std@@P6AXPADPAH@Z@1@PAU?$_Tree_node@U?$pair@$$CBV?$basic_string@DU?$char_traits@D@std@@V?$allocator@D@2@@std@@P6AXPADPAH@Z@std@@PAX@1@@Z 10010ea0 f i DatabaseImpl.obj
 0001:000101d0       ??$_Copy_memmove@PAUPARAM@Parameter@@PAU12@@std@@YAPAUPARAM@Parameter@@PAU12@00@Z 100111d0 f i DatabaseImpl.obj
 0001:00010210       ??F?$_Tree_iterator@V?$_Tree_val@U?$_Tree_simple_types@U?$pair@$$CBV?$basic_string@DU?$char_traits@D@std@@V?$allocator@D@2@@std@@P6AXPADPAH@Z@std@@@std@@@std@@@std@@QAEAAV01@XZ 10011210 f i DatabaseImpl.obj
 0001:00010230       ?max_size@?$_Tree@V?$_Tmap_traits@V?$basic_string@DU?$char_traits@D@std@@V?$allocator@D@2@@std@@P6AXPADPAH@ZU?$less@V?$basic_string@DU?$char_traits@D@std@@V?$allocator@D@2@@std@@@2@V?$allocator@U?$pair@$$CBV?$basic_string@DU?$char_traits@D@std@@V?$allocator@D@2@@std@@P6AXPADPAH@Z@std@@@2@$0A@@std@@@std@@QBEIXZ 10011230 f i DatabaseImpl.obj
 0001:00010260       ?max_size@?$_Wrap_alloc@V?$allocator@U?$_Tree_node@U?$pair@$$CBV?$basic_string@DU?$char_traits@D@std@@V?$allocator@D@2@@std@@P6AXPADPAH@Z@std@@PAX@std@@@std@@@std@@QBEIU_Nil@2@@Z 10011260 f i DatabaseImpl.obj
 0001:00010280       ?max_size@?$allocator_traits@V?$allocator@U?$_Tree_node@U?$pair@$$CBV?$basic_string@DU?$char_traits@D@std@@V?$allocator@D@2@@std@@P6AXPADPAH@Z@std@@PAX@std@@@std@@@std@@SAIABV?$allocator@U?$_Tree_node@U?$pair@$$CBV?$basic_string@DU?$char_traits@D@std@@V?$allocator@D@2@@std@@P6AXPADPAH@Z@std@@PAX@std@@@2@@Z 10011280 f i DatabaseImpl.obj
 0001:00010290       ?max_size@?$allocator@U?$_Tree_node@U?$pair@$$CBV?$basic_string@DU?$char_traits@D@std@@V?$allocator@D@2@@std@@P6AXPADPAH@Z@std@@PAX@std@@@std@@QBEIXZ 10011290 f i DatabaseImpl.obj
 0001:000102a0       ??$construct@U?$pair@$$CBV?$basic_string@DU?$char_traits@D@std@@V?$allocator@D@2@@std@@P6AXPADPAH@Z@std@@ABUpiecewise_construct_t@2@V?$tuple@$$QAV?$basic_string@DU?$char_traits@D@std@@V?$allocator@D@2@@std@@@2@V?$tuple@$$V@2@@?$allocator_traits@V?$allocator@U?$_Tree_node@U?$pair@$$CBV?$basic_string@DU?$char_traits@D@std@@V?$allocator@D@2@@std@@P6AXPADPAH@Z@std@@PAX@std@@@std@@@std@@SAXAAV?$allocator@U?$_Tree_node@U?$pair@$$CBV?$basic_string@DU?$char_traits@D@std@@V?$allocator@D@2@@std@@P6AXPADPAH@Z@std@@PAX@std@@@1@PAU?$pair@$$CBV?$basic_string@DU?$char_traits@D@std@@V?$allocator@D@2@@std@@P6AXPADPAH@Z@1@ABUpiecewise_construct_t@1@$$QAV?$tuple@$$QAV?$basic_string@DU?$char_traits@D@std@@V?$allocator@D@2@@std@@@1@$$QAV?$tuple@$$V@1@@Z 100112a0 f i DatabaseImpl.obj
 0001:000102e0       ??$_Buynode_if_nil@AAU?$pair@$$CBV?$basic_string@DU?$char_traits@D@std@@V?$allocator@D@2@@std@@P6AXPADPAH@Z@std@@@?$_Tree@V?$_Tmap_traits@V?$basic_string@DU?$char_traits@D@std@@V?$allocator@D@2@@std@@P6AXPADPAH@ZU?$less@V?$basic_string@DU?$char_traits@D@std@@V?$allocator@D@2@@std@@@2@V?$allocator@U?$pair@$$CBV?$basic_string@DU?$char_traits@D@std@@V?$allocator@D@2@@std@@P6AXPADPAH@Z@std@@@2@$0A@@std@@@std@@IAEPAU?$_Tree_node@U?$pair@$$CBV?$basic_string@DU?$char_traits@D@std@@V?$allocator@D@2@@std@@P6AXPADPAH@Z@std@@PAX@1@PAU21@AAU?$pair@$$CBV?$basic_string@DU?$char_traits@D@std@@V?$allocator@D@2@@std@@P6AXPADPAH@Z@1@@Z 100112e0 f i DatabaseImpl.obj
 0001:000102f0       ??$construct@U?$pair@$$CBV?$basic_string@DU?$char_traits@D@std@@V?$allocator@D@2@@std@@P6AXPADPAH@Z@std@@ABUpiecewise_construct_t@2@V?$tuple@$$QAV?$basic_string@DU?$char_traits@D@std@@V?$allocator@D@2@@std@@@2@V?$tuple@$$V@2@@?$allocator@U?$_Tree_node@U?$pair@$$CBV?$basic_string@DU?$char_traits@D@std@@V?$allocator@D@2@@std@@P6AXPADPAH@Z@std@@PAX@std@@@std@@QAEXPAU?$pair@$$CBV?$basic_string@DU?$char_traits@D@std@@V?$allocator@D@2@@std@@P6AXPADPAH@Z@1@ABUpiecewise_construct_t@1@$$QAV?$tuple@$$QAV?$basic_string@DU?$char_traits@D@std@@V?$allocator@D@2@@std@@@1@$$QAV?$tuple@$$V@1@@Z 100112f0 f i DatabaseImpl.obj
 0001:000103b0       ??0?$tuple@$$QAV?$basic_string@DU?$char_traits@D@std@@V?$allocator@D@2@@std@@@std@@QAE@$$QAV01@@Z 100113b0 f i DatabaseImpl.obj
 0001:000103e0       ??$?0$$QAV?$basic_string@DU?$char_traits@D@std@@V?$allocator@D@2@@std@@$$Z$$V@?$pair@$$CBV?$basic_string@DU?$char_traits@D@std@@V?$allocator@D@2@@std@@P6AXPADPAH@Z@std@@QAE@Upiecewise_construct_t@1@V?$tuple@$$QAV?$basic_string@DU?$char_traits@D@std@@V?$allocator@D@2@@std@@@1@V?$tuple@$$V@1@@Z 100113e0 f i DatabaseImpl.obj
 0001:00010410       ??$?0V?$tuple@$$QAV?$basic_string@DU?$char_traits@D@std@@V?$allocator@D@2@@std@@@std@@V?$tuple@$$V@1@$0A@$$Z$S@?$pair@$$CBV?$basic_string@DU?$char_traits@D@std@@V?$allocator@D@2@@std@@P6AXPADPAH@Z@std@@QAE@AAV?$tuple@$$QAV?$basic_string@DU?$char_traits@D@std@@V?$allocator@D@2@@std@@@1@AAV?$tuple@$$V@1@U?$integer_sequence@I$0A@@1@U?$integer_sequence@I$S@1@@Z 10011410 f i DatabaseImpl.obj
 0001:00010450       ??$get@$0A@$$QAV?$basic_string@DU?$char_traits@D@std@@V?$allocator@D@2@@std@@@std@@YA$$QAV?$basic_string@DU?$char_traits@D@std@@V?$allocator@D@2@@0@$$QAV?$tuple@$$QAV?$basic_string@DU?$char_traits@D@std@@V?$allocator@D@2@@std@@@0@@Z 10011450 f i DatabaseImpl.obj
 0001:00010470       _DllMain@12                10011470 f   dllmain.obj
 0001:000104b0       ?_com_issue_error@@YGXJ@Z  100114b0 f   comsuppw:comsupp.obj
 0001:000104d0       ?_com_issue_errorex@@YGXJPAUIUnknown@@ABU_GUID@@@Z 100114d0 f   comsuppw:comsupp.obj
 0001:00010570       ?ConvertBSTRToString@_com_util@@YGPADPA_W@Z 10011570 f   comsuppw:comutil.obj
 0001:00010690       ?ConvertStringToBSTR@_com_util@@YGPA_WPBD@Z 10011690 f   comsuppw:comutil.obj
 0001:00010830       ??0_com_error@@QAE@ABV0@@Z 10011830 f i comsuppw:comraise.obj
 0001:00010870       ??0_com_error@@QAE@JPAUIErrorInfo@@_N@Z 10011870 f i comsuppw:comraise.obj
 0001:000108c0       ??1_com_error@@UAE@XZ      100118c0 f i comsuppw:comraise.obj
 0001:00010900       ??_G_com_error@@UAEPAXI@Z  10011900 f i comsuppw:comraise.obj
 0001:00010900       ??_E_com_error@@UAEPAXI@Z  10011900 f i comsuppw:comraise.obj
 0001:00010950       ?_com_raise_error@@YGXJPAUIErrorInfo@@@Z 10011950 f   comsuppw:comraise.obj
 0001:00010975       ??3@YAXPAX@Z               10011975 f   MSVCRT:delete_scalar.obj
 0001:0001097a       @__security_check_cookie@4 1001197a f   MSVCRT:_secchk_.obj
 0001:0001098b       ??_V@YAXPAX@Z              1001198b f   MSVCRT:delete_array.obj
 0001:00010a50       ??$__crt_fast_encode_pointer@P6GHPAU_RTL_CONDITION_VARIABLE@@PAU_RTL_CRITICAL_SECTION@@K@Z@@YAP6GHPAU_RTL_CONDITION_VARIABLE@@PAU_RTL_CRITICAL_SECTION@@K@ZQ6GH01K@Z@Z 10011a50 f i MSVCRT:thread_safe_statics.obj
 0001:00010a50       ??$__crt_fast_encode_pointer@P6GXPAU_RTL_CONDITION_VARIABLE@@@Z@@YAP6GXPAU_RTL_CONDITION_VARIABLE@@@ZQ6GX0@Z@Z 10011a50 f i MSVCRT:thread_safe_statics.obj
 0001:00010a89       ??2@YAPAXI@Z               10011a89 f   MSVCRT:new_scalar.obj
 0001:00010b00       ___scrt_acquire_startup_lock 10011b00 f   MSVCRT:utility.obj
 0001:00010b35       ___scrt_dllmain_after_initialize_c 10011b35 f   MSVCRT:utility.obj
 0001:00010b60       ___scrt_dllmain_before_initialize_c 10011b60 f   MSVCRT:utility.obj
 0001:00010b6e       ___scrt_dllmain_crt_thread_attach 10011b6e f   MSVCRT:utility.obj
 0001:00010b8d       ___scrt_dllmain_crt_thread_detach 10011b8d f   MSVCRT:utility.obj
 0001:00010b9a       ___scrt_dllmain_exception_filter 10011b9a f   MSVCRT:utility.obj
 0001:00010bcd       ___scrt_dllmain_uninitialize_c 10011bcd f   MSVCRT:utility.obj
 0001:00010bf0       ___scrt_dllmain_uninitialize_critical 10011bf0 f   MSVCRT:utility.obj
 0001:00010bfd       ___scrt_initialize_crt     10011bfd f   MSVCRT:utility.obj
 0001:00010c36       ___scrt_initialize_onexit_tables 10011c36 f   MSVCRT:utility.obj
 0001:00010ccd       ___scrt_is_nonwritable_in_current_image 10011ccd f   MSVCRT:utility.obj
 0001:00010d57       ___scrt_release_startup_lock 10011d57 f   MSVCRT:utility.obj
 0001:00010d74       ___scrt_uninitialize_crt   10011d74 f   MSVCRT:utility.obj
 0001:00010d9c       __onexit                   10011d9c f   MSVCRT:utility.obj
 0001:00010dd7       _atexit                    10011dd7 f   MSVCRT:utility.obj
 0001:00010dec       ??3@YAXPAXI@Z              10011dec f   MSVCRT:delete_scalar_size.obj
 0001:00010dfa       ??_Etype_info@@UAEPAXI@Z   10011dfa f i MSVCRT:std_type_info_static.obj
 0001:00010dfa       ??_Gtype_info@@UAEPAXI@Z   10011dfa f i MSVCRT:std_type_info_static.obj
 0001:00011125       __DllMainCRTStartup@12     10012125 f   MSVCRT:dll_dllmain.obj
 0001:00011148       @_guard_check_icall@4      10012148 f i MSVCRT:checkcfg.obj
 0001:0001114e       ??_U@YAPAXI@Z              1001214e f   MSVCRT:new_array.obj
 0001:00011160       __alloca_probe_16          10012160 f   MSVCRT:alloca16.obj
 0001:00011176       __alloca_probe_8           10012176     MSVCRT:alloca16.obj
 0001:0001118c       __except_handler4          1001218c f   MSVCRT:_chandler4gs_.obj
 0001:000111af       ___raise_securityfailure   100121af f   MSVCRT:gs_report.obj
 0001:000111d7       ___report_gsfailure        100121d7 f   MSVCRT:gs_report.obj
 0001:000112d2       ___scrt_fastfail           100122d2 f   MSVCRT:utility_desktop.obj
 0001:000113ed       ??0bad_alloc@std@@QAE@ABV01@@Z 100123ed f i MSVCRT:throw_bad_alloc.obj
 0001:00011408       ??0bad_alloc@std@@QAE@XZ   10012408 f i MSVCRT:throw_bad_alloc.obj
 0001:00011420       ??0bad_array_new_length@std@@QAE@ABV01@@Z 10012420 f i MSVCRT:throw_bad_alloc.obj
 0001:0001143b       ??0bad_array_new_length@std@@QAE@XZ 1001243b f i MSVCRT:throw_bad_alloc.obj
 0001:00011453       ??0exception@std@@QAE@ABV01@@Z 10012453 f i MSVCRT:throw_bad_alloc.obj
 0001:0001147f       ??1bad_array_new_length@std@@UAE@XZ 1001247f f i MSVCRT:throw_bad_alloc.obj
 0001:0001147f       ??1bad_alloc@std@@UAE@XZ   1001247f f i MSVCRT:throw_bad_alloc.obj
 0001:00011490       ??_Ebad_alloc@std@@UAEPAXI@Z 10012490 f i MSVCRT:throw_bad_alloc.obj
 0001:00011490       ??_Ebad_array_new_length@std@@UAEPAXI@Z 10012490 f i MSVCRT:throw_bad_alloc.obj
 0001:00011490       ??_Gbad_array_new_length@std@@UAEPAXI@Z 10012490 f i MSVCRT:throw_bad_alloc.obj
 0001:00011490       ??_Gbad_alloc@std@@UAEPAXI@Z 10012490 f i MSVCRT:throw_bad_alloc.obj
 0001:000114bd       ?__scrt_throw_std_bad_alloc@@YAXXZ 100124bd f   MSVCRT:throw_bad_alloc.obj
 0001:000114da       ?__scrt_throw_std_bad_array_new_length@@YAXXZ 100124da f   MSVCRT:throw_bad_alloc.obj
 0001:000114f7       ___isa_available_init      100124f7 f   MSVCRT:_cpu_disp_.obj
 0001:00011691       __get_startup_argv_mode    10012691 f   MSVCRT:argv_mode.obj
 0001:00011695       ___scrt_is_ucrt_dll_in_use 10012695 f   MSVCRT:ucrt_detection.obj
 0001:000116b0       __SEH_prolog4              100126b0 f   MSVCRT:_sehprolg4_.obj
 0001:000116f6       __SEH_epilog4              100126f6 f   MSVCRT:_sehprolg4_.obj
 0001:0001170b       ___security_init_cookie    1001270b f   MSVCRT:gs_support.obj
 0001:000117a7       ?__scrt_initialize_type_info@@YAXXZ 100127a7 f   MSVCRT:tncleanup.obj
 0001:000117b3       ?__scrt_uninitialize_type_info@@YAXXZ 100127b3 f   MSVCRT:tncleanup.obj
 0001:000117bf       ___local_stdio_scanf_options 100127bf f i MSVCRT:default_local_stdio_options.obj
 0001:000117c5       ___scrt_initialize_default_local_stdio_options 100127c5 f   MSVCRT:default_local_stdio_options.obj
 0001:000117e2       ___scrt_get_dyn_tls_init_callback 100127e2 f   MSVCRT:dyn_tls_init.obj
 0001:000117e8       __RTC_Initialize           100127e8 f   MSVCRT:_initsect_.obj
 0001:00011813       __RTC_Terminate            10012813 f   MSVCRT:_initsect_.obj
 0001:0001183e       @_guard_check_icall_nop@4  1001283e f i MSVCRT:guard_support.obj
 0001:00011840       __alloca_probe             10012840 f   MSVCRT:chkstk.obj
 0001:00011840       __chkstk                   10012840 f   MSVCRT:chkstk.obj
 0001:0001186d       ??0CAtlBaseModule@ATL@@QAE@XZ 1001286d f   atls:atlbase.obj
 0001:000118c0       ??0_ATL_BASE_MODULE70@ATL@@QAE@XZ 100128c0 f i atls:atlbase.obj
 0001:000118e3       ??1CAtlBaseModule@ATL@@QAE@XZ 100128e3 f   atls:atlbase.obj
 0001:000118f9       ?RemoveAll@?$CSimpleArray@PAUHINSTANCE__@@V?$CSimpleArrayEqualHelper@PAUHINSTANCE__@@@ATL@@@ATL@@QAEXXZ 100128f9 f i atls:atlbase.obj
 0001:00011916       ___std_exception_destroy   10012916 f   vcruntime:VCRUNTIME140.dll
 0001:0001191c       __purecall                 1001291c f   vcruntime:VCRUNTIME140.dll
 0001:00011922       ___CxxFrameHandler3        10012922 f   vcruntime:VCRUNTIME140.dll
 0001:00011928       __CxxThrowException@8      10012928 f   vcruntime:VCRUNTIME140.dll
 0001:0001192e       _memset                    1001292e f   vcruntime:VCRUNTIME140.dll
 0001:00011934       ___vcrt_InitializeCriticalSectionEx 10012934 f   vcruntime:VCRUNTIME140.dll
 0001:0001193a       __except_handler4_common   1001293a f   vcruntime:VCRUNTIME140.dll
 0001:00011940       ___std_exception_copy      10012940 f   vcruntime:VCRUNTIME140.dll
 0001:00011946       ___std_type_info_destroy_list 10012946 f   vcruntime:VCRUNTIME140.dll
 0001:0001194c       _free                      1001294c f   ucrt:api-ms-win-crt-heap-l1-1-0.dll
 0001:00011952       _malloc                    10012952 f   ucrt:api-ms-win-crt-heap-l1-1-0.dll
 0001:00011958       __callnewh                 10012958 f   ucrt:api-ms-win-crt-heap-l1-1-0.dll
 0001:0001195e       __seh_filter_dll           1001295e f   ucrt:api-ms-win-crt-runtime-l1-1-0.dll
 0001:00011964       __configure_narrow_argv    10012964 f   ucrt:api-ms-win-crt-runtime-l1-1-0.dll
 0001:0001196a       __initialize_narrow_environment 1001296a f   ucrt:api-ms-win-crt-runtime-l1-1-0.dll
 0001:00011970       __initialize_onexit_table  10012970 f   ucrt:api-ms-win-crt-runtime-l1-1-0.dll
 0001:00011976       __register_onexit_function 10012976 f   ucrt:api-ms-win-crt-runtime-l1-1-0.dll
 0001:0001197c       __execute_onexit_table     1001297c f   ucrt:api-ms-win-crt-runtime-l1-1-0.dll
 0001:00011982       __crt_atexit               10012982 f   ucrt:api-ms-win-crt-runtime-l1-1-0.dll
 0001:00011988       __cexit                    10012988 f   ucrt:api-ms-win-crt-runtime-l1-1-0.dll
 0001:0001198e       __initterm                 1001298e f   ucrt:api-ms-win-crt-runtime-l1-1-0.dll
 0001:00011994       __initterm_e               10012994 f   ucrt:api-ms-win-crt-runtime-l1-1-0.dll
 0001:0001199a       _IsProcessorFeaturePresent@4 1001299a f   kernel32:KERNEL32.dll
 0001:000119a0       ___vcrt_uninitialize_critical 100129a0 f   MSVCRT:ucrt_stubs.obj
 0001:000119a0       ___vcrt_thread_attach      100129a0 f   MSVCRT:ucrt_stubs.obj
 0001:000119a0       ___acrt_initialize         100129a0 f   MSVCRT:ucrt_stubs.obj
 0001:000119a0       ___vcrt_initialize         100129a0 f   MSVCRT:ucrt_stubs.obj
 0001:000119a0       ___acrt_thread_attach      100129a0 f   MSVCRT:ucrt_stubs.obj
 0001:000119a0       ___scrt_stub_for_acrt_initialize 100129a0 f   MSVCRT:ucrt_stubs.obj
 0001:000119a0       ___scrt_stub_for_acrt_thread_detach 100129a0 f   MSVCRT:ucrt_stubs.obj
 0001:000119a0       ___acrt_uninitialize_critical 100129a0 f   MSVCRT:ucrt_stubs.obj
 0001:000119a0       ___vcrt_thread_detach      100129a0 f   MSVCRT:ucrt_stubs.obj
 0001:000119a0       ___vcrt_uninitialize       100129a0 f   MSVCRT:ucrt_stubs.obj
 0001:000119a0       ___scrt_stub_for_acrt_thread_attach 100129a0 f   MSVCRT:ucrt_stubs.obj
 0001:000119a0       ___acrt_uninitialize       100129a0 f   MSVCRT:ucrt_stubs.obj
 0001:000119a0       ___scrt_stub_for_acrt_uninitialize_critical 100129a0 f   MSVCRT:ucrt_stubs.obj
 0001:000119a0       ___scrt_stub_for_acrt_uninitialize 100129a0 f   MSVCRT:ucrt_stubs.obj
 0001:000119a0       ___acrt_thread_detach      100129a0 f   MSVCRT:ucrt_stubs.obj
 0001:000119a3       ___scrt_stub_for_is_c_termination_complete 100129a3 f   MSVCRT:ucrt_stubs.obj
 0001:000119a3       __is_c_termination_complete 100129a3 f   MSVCRT:ucrt_stubs.obj
 0001:000119a6       ___RTDynamicCast           100129a6 f   vcruntime:VCRUNTIME140.dll
 0001:000119ac       _memcmp                    100129ac f   vcruntime:VCRUNTIME140.dll
 0001:000119b2       _memcpy                    100129b2 f   vcruntime:VCRUNTIME140.dll
 0002:00000000       __imp__QueryPerformanceCounter@4 10014000     kernel32:KERNEL32.dll
 0002:00000004       __imp__MultiByteToWideChar@24 10014004     kernel32:KERNEL32.dll
 0002:00000008       __imp__WideCharToMultiByte@32 10014008     kernel32:KERNEL32.dll
 0002:0000000c       __imp__LocalFree@4         1001400c     kernel32:KERNEL32.dll
 0002:00000010       __imp__InitializeCriticalSection@4 10014010     kernel32:KERNEL32.dll
 0002:00000014       __imp__InitializeCriticalSectionEx@12 10014014     kernel32:KERNEL32.dll
 0002:00000018       __imp__LocalAlloc@8        10014018     kernel32:KERNEL32.dll
 0002:0000001c       __imp__GetLastError@0      1001401c     kernel32:KERNEL32.dll
 0002:00000020       __imp__DeleteCriticalSection@4 10014020     kernel32:KERNEL32.dll
 0002:00000024       __imp__FormatMessageA@28   10014024     kernel32:KERNEL32.dll
 0002:00000028       __imp__CloseHandle@4       10014028     kernel32:KERNEL32.dll
 0002:0000002c       __imp__OutputDebugStringW@4 1001402c     kernel32:KERNEL32.dll
 0002:00000030       __imp__CreateEventW@16     10014030     kernel32:KERNEL32.dll
 0002:00000034       __imp__GetModuleHandleW@4  10014034     kernel32:KERNEL32.dll
 0002:00000038       __imp__GetProcAddress@8    10014038     kernel32:KERNEL32.dll
 0002:0000003c       __imp__UnhandledExceptionFilter@4 1001403c     kernel32:KERNEL32.dll
 0002:00000040       __imp__SetUnhandledExceptionFilter@4 10014040     kernel32:KERNEL32.dll
 0002:00000044       __imp__GetCurrentProcess@0 10014044     kernel32:KERNEL32.dll
 0002:00000048       __imp__GetCurrentThreadId@0 10014048     kernel32:KERNEL32.dll
 0002:0000004c       __imp__TerminateProcess@8  1001404c     kernel32:KERNEL32.dll
 0002:00000050       __imp__GetSystemTimeAsFileTime@4 10014050     kernel32:KERNEL32.dll
 0002:00000054       __imp__IsProcessorFeaturePresent@4 10014054     kernel32:KERNEL32.dll
 0002:00000058       __imp__IsDebuggerPresent@0 10014058     kernel32:KERNEL32.dll
 0002:0000005c       __imp__GetCurrentProcessId@0 1001405c     kernel32:KERNEL32.dll
 0002:00000060       __imp__InitializeSListHead@4 10014060     kernel32:KERNEL32.dll
 0002:00000064       \177KERNEL32_NULL_THUNK_DATA 10014064     kernel32:KERNEL32.dll
 0002:00000068       __imp_?_Xout_of_range@std@@YAXPBD@Z 10014068     msvcprt:MSVCP140.dll
 0002:0000006c       __imp_?_Xbad_alloc@std@@YAXXZ 1001406c     msvcprt:MSVCP140.dll
 0002:00000070       __imp_?_Xlength_error@std@@YAXPBD@Z 10014070     msvcprt:MSVCP140.dll
 0002:00000074       \177MSVCP140_NULL_THUNK_DATA 10014074     msvcprt:MSVCP140.dll
 0002:00000078       __imp__SysAllocString@4    10014078     oleaut32:OLEAUT32.dll
 0002:0000007c       __imp__GetErrorInfo@8      1001407c     oleaut32:OLEAUT32.dll
 0002:00000080       __imp__VariantClear@4      10014080     oleaut32:OLEAUT32.dll
 0002:00000084       __imp__VariantChangeType@16 10014084     oleaut32:OLEAUT32.dll
 0002:00000088       __imp__SysStringLen@4      10014088     oleaut32:OLEAUT32.dll
 0002:0000008c       __imp__VariantCopy@8       1001408c     oleaut32:OLEAUT32.dll
 0002:00000090       __imp__SysStringByteLen@4  10014090     oleaut32:OLEAUT32.dll
 0002:00000094       __imp__SysAllocStringByteLen@8 10014094     oleaut32:OLEAUT32.dll
 0002:00000098       __imp__SysFreeString@4     10014098     oleaut32:OLEAUT32.dll
 0002:0000009c       __imp__VariantInit@4       1001409c     oleaut32:OLEAUT32.dll
 0002:000000a0       \177OLEAUT32_NULL_THUNK_DATA 100140a0     oleaut32:OLEAUT32.dll
 0002:000000a4       __imp_?ReleaseLock@@YGXPAU_RTL_CRITICAL_SECTION@@@Z 100140a4     Utilities:Utilities.dll
 0002:000000a8       __imp_?AcquireLock@@YGXPAU_RTL_CRITICAL_SECTION@@@Z 100140a8     Utilities:Utilities.dll
 0002:000000ac       \177Utilities_NULL_THUNK_DATA 100140ac     Utilities:Utilities.dll
 0002:000000b0       __imp____std_exception_copy 100140b0     vcruntime:VCRUNTIME140.dll
 0002:000000b4       __imp___except_handler4_common 100140b4     vcruntime:VCRUNTIME140.dll
 0002:000000b8       __imp____vcrt_InitializeCriticalSectionEx 100140b8     vcruntime:VCRUNTIME140.dll
 0002:000000bc       __imp____std_type_info_destroy_list 100140bc     vcruntime:VCRUNTIME140.dll
 0002:000000c0       __imp___CxxThrowException@8 100140c0     vcruntime:VCRUNTIME140.dll
 0002:000000c4       __imp____CxxFrameHandler3  100140c4     vcruntime:VCRUNTIME140.dll
 0002:000000c8       __imp____RTDynamicCast     100140c8     vcruntime:VCRUNTIME140.dll
 0002:000000cc       __imp___purecall           100140cc     vcruntime:VCRUNTIME140.dll
 0002:000000d0       __imp____std_exception_destroy 100140d0     vcruntime:VCRUNTIME140.dll
 0002:000000d4       __imp__memset              100140d4     vcruntime:VCRUNTIME140.dll
 0002:000000d8       __imp__memmove             100140d8     vcruntime:VCRUNTIME140.dll
 0002:000000dc       __imp__memcmp              100140dc     vcruntime:VCRUNTIME140.dll
 0002:000000e0       __imp__memcpy              100140e0     vcruntime:VCRUNTIME140.dll
 0002:000000e4       \177VCRUNTIME140_NULL_THUNK_DATA 100140e4     vcruntime:VCRUNTIME140.dll
 0002:000000e8       __imp__malloc              100140e8     ucrt:api-ms-win-crt-heap-l1-1-0.dll
 0002:000000ec       __imp___callnewh           100140ec     ucrt:api-ms-win-crt-heap-l1-1-0.dll
 0002:000000f0       __imp__free                100140f0     ucrt:api-ms-win-crt-heap-l1-1-0.dll
 0002:000000f4       \177api-ms-win-crt-heap-l1-1-0_NULL_THUNK_DATA 100140f4     ucrt:api-ms-win-crt-heap-l1-1-0.dll
 0002:000000f8       __imp___cexit              100140f8     ucrt:api-ms-win-crt-runtime-l1-1-0.dll
 0002:000000fc       __imp___crt_atexit         100140fc     ucrt:api-ms-win-crt-runtime-l1-1-0.dll
 0002:00000100       __imp___initterm           10014100     ucrt:api-ms-win-crt-runtime-l1-1-0.dll
 0002:00000104       __imp___register_onexit_function 10014104     ucrt:api-ms-win-crt-runtime-l1-1-0.dll
 0002:00000108       __imp___initialize_onexit_table 10014108     ucrt:api-ms-win-crt-runtime-l1-1-0.dll
 0002:0000010c       __imp___initialize_narrow_environment 1001410c     ucrt:api-ms-win-crt-runtime-l1-1-0.dll
 0002:00000110       __imp___configure_narrow_argv 10014110     ucrt:api-ms-win-crt-runtime-l1-1-0.dll
 0002:00000114       __imp___seh_filter_dll     10014114     ucrt:api-ms-win-crt-runtime-l1-1-0.dll
 0002:00000118       __imp___initterm_e         10014118     ucrt:api-ms-win-crt-runtime-l1-1-0.dll
 0002:0000011c       __imp___invalid_parameter_noinfo_noreturn 1001411c     ucrt:api-ms-win-crt-runtime-l1-1-0.dll
 0002:00000120       __imp___execute_onexit_table 10014120     ucrt:api-ms-win-crt-runtime-l1-1-0.dll
 0002:00000124       __imp___errno              10014124     ucrt:api-ms-win-crt-runtime-l1-1-0.dll
 0002:00000128       __imp___invalid_parameter_noinfo 10014128     ucrt:api-ms-win-crt-runtime-l1-1-0.dll
 0002:0000012c       \177api-ms-win-crt-runtime-l1-1-0_NULL_THUNK_DATA 1001412c     ucrt:api-ms-win-crt-runtime-l1-1-0.dll
 0002:00000130       __imp____stdio_common_vsprintf 10014130     ucrt:api-ms-win-crt-stdio-l1-1-0.dll
 0002:00000134       __imp____stdio_common_vsprintf_s 10014134     ucrt:api-ms-win-crt-stdio-l1-1-0.dll
 0002:00000138       \177api-ms-win-crt-stdio-l1-1-0_NULL_THUNK_DATA 10014138     ucrt:api-ms-win-crt-stdio-l1-1-0.dll
 0002:0000013c       __imp__isspace             1001413c     ucrt:api-ms-win-crt-string-l1-1-0.dll
 0002:00000140       \177api-ms-win-crt-string-l1-1-0_NULL_THUNK_DATA 10014140     ucrt:api-ms-win-crt-string-l1-1-0.dll
 0002:00000144       __imp__CoInitialize@4      10014144     ole32:ole32.dll
 0002:00000148       __imp__OleRun@4            10014148     ole32:ole32.dll
 0002:0000014c       __imp__CoCreateInstance@20 1001414c     ole32:ole32.dll
 0002:00000150       __imp__CoUninitialize@0    10014150     ole32:ole32.dll
 0002:00000154       \177ole32_NULL_THUNK_DATA  10014154     ole32:ole32.dll
 0002:00000158       __imp_?trace@log@stl@@YA_NIIPBDZZ 10014158     xlogger:xLogger.dll
 0002:0000015c       \177xLogger_NULL_THUNK_DATA 1001415c     xlogger:xLogger.dll
 0002:00000160       ___guard_check_icall_fptr  10014160     MSVCRT:guard_support.obj
 0002:00000164       ___xc_a                    10014164     MSVCRT:initializers.obj
 0002:00000174       ___xc_z                    10014174     MSVCRT:initializers.obj
 0002:00000178       ___xi_a                    10014178     MSVCRT:initializers.obj
 0002:00000180       ___xi_z                    10014180     MSVCRT:initializers.obj
 0002:00000184       ___xl_a                    10014184     MSVCRT:tlssup.obj
 0002:00000188       ___xl_z                    10014188     MSVCRT:tlssup.obj
 0002:0000018c       ___xp_a                    1001418c     MSVCRT:initializers.obj
 0002:00000190       ___xp_z                    10014190     MSVCRT:initializers.obj
 0002:00000194       ___xt_a                    10014194     MSVCRT:initializers.obj
 0002:00000198       ___xt_z                    10014198     MSVCRT:initializers.obj
 0002:000001a0       __GUID_df0b3d60_548f_101b_8e65_08002b2bd119 100141a0     comsuppw:comsupp.obj
 0002:000001b0       ??_7_com_error@@6B@        100141b0     comsuppw:comraise.obj
 0002:000001b4       ??_C@_1BK@MGMFAEKH@?$AAk?$AAe?$AAr?$AAn?$AAe?$AAl?$AA3?$AA2?$AA?4?$AAd?$AAl?$AAl?$AA?$AA@ 100141b4     MSVCRT:thread_safe_statics.obj
 0002:000001d0       ??_C@_0BM@HLJJNPAH@InitializeConditionVariable?$AA@ 100141d0     MSVCRT:thread_safe_statics.obj
 0002:000001ec       ??_C@_0BJ@JEBJOJFJ@SleepConditionVariableCS?$AA@ 100141ec     MSVCRT:thread_safe_statics.obj
 0002:00000208       ??_C@_0BJ@PGPPEPCC@WakeAllConditionVariable?$AA@ 10014208     MSVCRT:thread_safe_statics.obj
 0002:00000228       ??_7type_info@@6B@         10014228     MSVCRT:std_type_info_static.obj
 0002:0000022c       __pRawDllMain              1001422c     MSVCRT:dll_dllmain.obj
 0002:0000022c       __pDefaultRawDllMain       1001422c     MSVCRT:dll_dllmain.obj
 0002:0000023c       ??_7exception@std@@6B@     1001423c     MSVCRT:throw_bad_alloc.obj
 0002:00000248       ??_7bad_alloc@std@@6B@     10014248     MSVCRT:throw_bad_alloc.obj
 0002:00000250       ??_C@_0P@GHFPNOJB@bad?5allocation?$AA@ 10014250     MSVCRT:throw_bad_alloc.obj
 0002:00000264       ??_7bad_array_new_length@std@@6B@ 10014264     MSVCRT:throw_bad_alloc.obj
 0002:0000026c       ??_C@_0BF@KINCDENJ@bad?5array?5new?5length?$AA@ 1001426c     MSVCRT:throw_bad_alloc.obj
 0002:00000284       _GUID_ATLVer110            10014284     atls:atlbase.obj
 0002:00000298       ??_C@_1IC@ONKHOIDK@?$AAE?$AAR?$AAR?$AAO?$AAR?$AA?5?$AA?3?$AA?5?$AAU?$AAn?$AAa?$AAb?$AAl?$AAe?$AA?5?$AAt?$AAo?$AA?5?$AAi?$AAn?$AAi?$AAt?$AAi?$AAa?$AAl?$AAi?$AAz?$AAe?$AA?5?$AAc?$AAr?$AAi@ 10014298     atls:atlbase.obj
 0002:0000031c       ??_C@_0BE@NNIJINN@IDispatch?5error?5?$CD?$CFd?$AA@ 1001431c     DatabaseImpl.obj
 0002:00000330       ??_C@_0BF@IPPGFENJ@Unknown?5error?50x?$CF0lX?$AA@ 10014330     DatabaseImpl.obj
 0002:00000348       ??_C@_0BC@EOODALEL@Unknown?5exception?$AA@ 10014348     DatabaseImpl.obj
 0002:000014d4       ??_C@_0BD@OLBABOEK@vector?$DMT?$DO?5too?5long?$AA@ 100154d4     DatabaseImpl.obj
 0002:000014e8       ??_C@_0BA@JFNIOLAK@string?5too?5long?$AA@ 100154e8     DatabaseImpl.obj
 0002:000014f8       ??_C@_0BI@CFPLBAOH@invalid?5string?5position?$AA@ 100154f8     DatabaseImpl.obj
 0002:00001510       ??_C@_0BE@JONHPENG@map?1set?$DMT?$DO?5too?5long?$AA@ 10015510     DatabaseImpl.obj
 0002:00001524       __GUID_0000150e_0000_0010_8000_00aa006d2ea4 10015524     DatabaseImpl.obj
 0002:00001534       __GUID_00001556_0000_0010_8000_00aa006d2ea4 10015534     DatabaseImpl.obj
 0002:00001544       __GUID_0000150c_0000_0010_8000_00aa006d2ea4 10015544     DatabaseImpl.obj
 0002:00001558       ??_7IDatabase@@6B@         10015558     DatabaseImpl.obj
 0002:00001590       __GUID_00001402_0000_0010_8000_00aa006d2ea4 10015590     DatabaseImpl.obj
 0002:000015a4       ??_7ConnectionEventsVt@@6B@ 100155a4     DatabaseImpl.obj
 0002:000015d4       __GUID_00000535_0000_0010_8000_00aa006d2ea4 100155d4     DatabaseImpl.obj
 0002:000015e4       __GUID_00001506_0000_0010_8000_00aa006d2ea4 100155e4     DatabaseImpl.obj
 0002:000015f4       __GUID_00001508_0000_0010_8000_00aa006d2ea4 100155f4     DatabaseImpl.obj
 0002:00001608       ??_7Table@@6B@             10015608     DatabaseImpl.obj
 0002:00001654       __GUID_00000513_0000_0010_8000_00aa006d2ea4 10015654     DatabaseImpl.obj
 0002:00001664       __GUID_00000000_0000_0000_c000_000000000046 10015664     DatabaseImpl.obj
 0002:00001678       ??_7ITable@@6B@            10015678     DatabaseImpl.obj
 0002:000016c4       __GUID_00001266_0000_0010_8000_00aa006d2ea4 100156c4     DatabaseImpl.obj
 0002:000016d8       ??_7Database@@6B@          100156d8     DatabaseImpl.obj
 0002:00001710       __GUID_00000507_0000_0010_8000_00aa006d2ea4 10015710     DatabaseImpl.obj
 0002:00001720       __GUID_0000154c_0000_0010_8000_00aa006d2ea4 10015720     DatabaseImpl.obj
 0002:00001734       ??_7IParameter@@6B@        10015734     DatabaseImpl.obj
 0002:00001778       __GUID_b196b284_bab4_101a_b69c_00aa00341d07 10015778     DatabaseImpl.obj
 0002:00001788       __GUID_00001400_0000_0010_8000_00aa006d2ea4 10015788     DatabaseImpl.obj
 0002:00001798       __GUID_00001515_0000_0010_8000_00aa006d2ea4 10015798     DatabaseImpl.obj
 0002:000017a8       __GUID_00001550_0000_0010_8000_00aa006d2ea4 100157a8     DatabaseImpl.obj
 0002:000017b8       __GUID_986761e8_7269_4890_aa65_ad7c03697a6d 100157b8     DatabaseImpl.obj
 0002:000017c8       __GUID_00000514_0000_0010_8000_00aa006d2ea4 100157c8     DatabaseImpl.obj
 0002:000017d8       ?npos@?$basic_string@DU?$char_traits@D@std@@V?$allocator@D@2@@std@@2IB 100157d8     DatabaseImpl.obj
 0002:000017dc       __GUID_00001403_0000_0010_8000_00aa006d2ea4 100157dc     DatabaseImpl.obj
 0002:000017f0       ??_7Parameter@@6B@         100157f0     DatabaseImpl.obj
 0002:00001838       ??_7CRstEvent@@6B@         10015838     DatabaseImpl.obj
 0002:00001874       ??_7CConnEvent@@6B@        10015874     DatabaseImpl.obj
 0002:000018a8       ??_7RecordsetEventsVt@@6B@ 100158a8     DatabaseImpl.obj
 0002:00001950       __load_config_used         10015950     MSVCRT:loadcfg.obj
 0002:000019ac       __tls_used                 100159ac     MSVCRT:tlssup.obj
 0002:000019c4       ??_R4type_info@@6B@        100159c4     MSVCRT:std_type_info_static.obj
 0002:000019d8       ??_R3type_info@@8          100159d8     MSVCRT:std_type_info_static.obj
 0002:000019e8       ??_R2type_info@@8          100159e8     MSVCRT:std_type_info_static.obj
 0002:000019f0       ??_R1A@?0A@EA@type_info@@8 100159f0     MSVCRT:std_type_info_static.obj
 0002:00001a0c       ??_R4bad_alloc@std@@6B@    10015a0c     MSVCRT:throw_bad_alloc.obj
 0002:00001a20       ??_R3bad_alloc@std@@8      10015a20     MSVCRT:throw_bad_alloc.obj
 0002:00001a30       ??_R2bad_alloc@std@@8      10015a30     MSVCRT:throw_bad_alloc.obj
 0002:00001a3c       ??_R1A@?0A@EA@bad_alloc@std@@8 10015a3c     MSVCRT:throw_bad_alloc.obj
 0002:00001a58       ??_R4bad_array_new_length@std@@6B@ 10015a58     MSVCRT:throw_bad_alloc.obj
 0002:00001a6c       ??_R3bad_array_new_length@std@@8 10015a6c     MSVCRT:throw_bad_alloc.obj
 0002:00001a7c       ??_R2bad_array_new_length@std@@8 10015a7c     MSVCRT:throw_bad_alloc.obj
 0002:00001a8c       ??_R1A@?0A@EA@bad_array_new_length@std@@8 10015a8c     MSVCRT:throw_bad_alloc.obj
 0002:00001aa8       ??_R1A@?0A@EA@ConnectionEventsVt@@8 10015aa8     DatabaseImpl.obj
 0002:00001ac4       ??_R4exception@std@@6B@    10015ac4     DatabaseImpl.obj
 0002:00001ad8       ??_R4CConnEvent@@6B@       10015ad8     DatabaseImpl.obj
 0002:00001aec       ??_R1A@?0A@EA@CConnEvent@@8 10015aec     DatabaseImpl.obj
 0002:00001b08       ??_R1A@?0A@EA@CRstEvent@@8 10015b08     DatabaseImpl.obj
 0002:00001b24       ??_R3IDatabase@@8          10015b24     DatabaseImpl.obj
 0002:00001b34       ??_R1A@?0A@EA@RecordsetEventsVt@@8 10015b34     DatabaseImpl.obj
 0002:00001b50       ??_R2IParameter@@8         10015b50     DatabaseImpl.obj
 0002:00001b58       ??_R1A@?0A@EA@Database@@8  10015b58     DatabaseImpl.obj
 0002:00001b74       ??_R2ITable@@8             10015b74     DatabaseImpl.obj
 0002:00001b7c       ??_R3ITable@@8             10015b7c     DatabaseImpl.obj
 0002:00001b8c       ??_R3IUnknown@@8           10015b8c     DatabaseImpl.obj
 0002:00001b9c       ??_R1A@?0A@EA@exception@std@@8 10015b9c     DatabaseImpl.obj
 0002:00001bb8       ??_R4Parameter@@6B@        10015bb8     DatabaseImpl.obj
 0002:00001bcc       ??_R2CRstEvent@@8          10015bcc     DatabaseImpl.obj
 0002:00001bdc       ??_R1A@?0A@EA@IDatabase@@8 10015bdc     DatabaseImpl.obj
 0002:00001bf8       ??_R1A@?0A@EA@IParameter@@8 10015bf8     DatabaseImpl.obj
 0002:00001c14       ??_R2Table@@8              10015c14     DatabaseImpl.obj
 0002:00001c20       ??_R1A@?0A@EA@ITable@@8    10015c20     DatabaseImpl.obj
 0002:00001c3c       ??_R2exception@std@@8      10015c3c     DatabaseImpl.obj
 0002:00001c44       ??_R4Table@@6B@            10015c44     DatabaseImpl.obj
 0002:00001c58       ??_R2Database@@8           10015c58     DatabaseImpl.obj
 0002:00001c64       ??_R4Database@@6B@         10015c64     DatabaseImpl.obj
 0002:00001c78       ??_R2ConnectionEventsVt@@8 10015c78     DatabaseImpl.obj
 0002:00001c84       ??_R3CConnEvent@@8         10015c84     DatabaseImpl.obj
 0002:00001c94       ??_R3Database@@8           10015c94     DatabaseImpl.obj
 0002:00001ca4       ??_R4ConnectionEventsVt@@6B@ 10015ca4     DatabaseImpl.obj
 0002:00001cb8       ??_R4IDatabase@@6B@        10015cb8     DatabaseImpl.obj
 0002:00001ccc       ??_R3exception@std@@8      10015ccc     DatabaseImpl.obj
 0002:00001cdc       ??_R3Table@@8              10015cdc     DatabaseImpl.obj
 0002:00001cec       ??_R1A@?0A@EA@Table@@8     10015cec     DatabaseImpl.obj
 0002:00001d08       ??_R2CConnEvent@@8         10015d08     DatabaseImpl.obj
 0002:00001d18       ??_R2RecordsetEventsVt@@8  10015d18     DatabaseImpl.obj
 0002:00001d24       ??_R3RecordsetEventsVt@@8  10015d24     DatabaseImpl.obj
 0002:00001d34       ??_R2IUnknown@@8           10015d34     DatabaseImpl.obj
 0002:00001d3c       ??_R1A@?0A@EA@IUnknown@@8  10015d3c     DatabaseImpl.obj
 0002:00001d58       ??_R4ITable@@6B@           10015d58     DatabaseImpl.obj
 0002:00001d6c       ??_R3Parameter@@8          10015d6c     DatabaseImpl.obj
 0002:00001d7c       ??_R1A@?0A@EA@Parameter@@8 10015d7c     DatabaseImpl.obj
 0002:00001d98       ??_R3CRstEvent@@8          10015d98     DatabaseImpl.obj
 0002:00001da8       ??_R4CRstEvent@@6B@        10015da8     DatabaseImpl.obj
 0002:00001dbc       ??_R4IParameter@@6B@       10015dbc     DatabaseImpl.obj
 0002:00001dd0       ??_R2IDatabase@@8          10015dd0     DatabaseImpl.obj
 0002:00001dd8       ??_R3IParameter@@8         10015dd8     DatabaseImpl.obj
 0002:00001de8       ??_R4RecordsetEventsVt@@6B@ 10015de8     DatabaseImpl.obj
 0002:00001dfc       ??_R3ConnectionEventsVt@@8 10015dfc     DatabaseImpl.obj
 0002:00001e0c       ??_R2Parameter@@8          10015e0c     DatabaseImpl.obj
 0002:00001e20       ___safe_se_handler_table   10015e20     <linker-defined>
 0002:000022a4       ___rtc_iaa                 100162a4     MSVCRT:_initsect_.obj
 0002:000022a8       ___rtc_izz                 100162a8     MSVCRT:_initsect_.obj
 0002:000022ac       ___rtc_taa                 100162ac     MSVCRT:_initsect_.obj
 0002:000022b0       ___rtc_tzz                 100162b0     MSVCRT:_initsect_.obj
 0002:00003854       __TI1?AV_com_error@@       10017854     comsuppw:comraise.obj
 0002:00003864       __CTA1?AV_com_error@@      10017864     comsuppw:comraise.obj
 0002:0000386c       __CT??_R0?AV_com_error@@@8??0_com_error@@QAE@ABV0@@Z16 1001786c     comsuppw:comraise.obj
 0002:00003904       __TI2?AVbad_alloc@std@@    10017904     MSVCRT:throw_bad_alloc.obj
 0002:00003914       __CTA2?AVbad_alloc@std@@   10017914     MSVCRT:throw_bad_alloc.obj
 0002:00003920       __CT??_R0?AVbad_alloc@std@@@8??0bad_alloc@std@@QAE@ABV01@@Z12 10017920     MSVCRT:throw_bad_alloc.obj
 0002:0000393c       __CT??_R0?AVexception@std@@@8??0exception@std@@QAE@ABV01@@Z12 1001793c     MSVCRT:throw_bad_alloc.obj
 0002:00003958       __TI3?AVbad_array_new_length@std@@ 10017958     MSVCRT:throw_bad_alloc.obj
 0002:00003968       __CTA3?AVbad_array_new_length@std@@ 10017968     MSVCRT:throw_bad_alloc.obj
 0002:00003978       __CT??_R0?AVbad_array_new_length@std@@@8??0bad_array_new_length@std@@QAE@ABV01@@Z12 10017978     MSVCRT:throw_bad_alloc.obj
 0002:00003ae8       __IMPORT_DESCRIPTOR_xLogger 10017ae8     xlogger:xLogger.dll
 0002:00003afc       __IMPORT_DESCRIPTOR_Utilities 10017afc     Utilities:Utilities.dll
 0002:00003b10       __IMPORT_DESCRIPTOR_KERNEL32 10017b10     kernel32:KERNEL32.dll
 0002:00003b24       __IMPORT_DESCRIPTOR_ole32  10017b24     ole32:ole32.dll
 0002:00003b38       __IMPORT_DESCRIPTOR_OLEAUT32 10017b38     oleaut32:OLEAUT32.dll
 0002:00003b4c       __IMPORT_DESCRIPTOR_MSVCP140 10017b4c     msvcprt:MSVCP140.dll
 0002:00003b60       __IMPORT_DESCRIPTOR_VCRUNTIME140 10017b60     vcruntime:VCRUNTIME140.dll
 0002:00003b74       __IMPORT_DESCRIPTOR_api-ms-win-crt-stdio-l1-1-0 10017b74     ucrt:api-ms-win-crt-stdio-l1-1-0.dll
 0002:00003b88       __IMPORT_DESCRIPTOR_api-ms-win-crt-runtime-l1-1-0 10017b88     ucrt:api-ms-win-crt-runtime-l1-1-0.dll
 0002:00003b9c       __IMPORT_DESCRIPTOR_api-ms-win-crt-heap-l1-1-0 10017b9c     ucrt:api-ms-win-crt-heap-l1-1-0.dll
 0002:00003bb0       __IMPORT_DESCRIPTOR_api-ms-win-crt-string-l1-1-0 10017bb0     ucrt:api-ms-win-crt-string-l1-1-0.dll
 0002:00003bc4       __NULL_IMPORT_DESCRIPTOR   10017bc4     xlogger:xLogger.dll
 0003:00000000       ?__errorPfn@@3P6GXJPAUIErrorInfo@@@ZA 10019000     comsuppw:comsupp.obj
 0003:00000008       ?vtMissing@@3V_variant_t@@A 10019008     comsuppw:comutil.obj
 0003:00000018       __Init_global_epoch        10019018     MSVCRT:thread_safe_statics.obj
 0003:0000001c       ___scrt_native_dllmain_reason 1001901c     MSVCRT:utility.obj
 0003:00000020       ___security_cookie_complement 10019020     MSVCRT:gs_cookie.obj
 0003:00000024       ___security_cookie         10019024     MSVCRT:gs_cookie.obj
 0003:00000028       __fltused                  10019028     MSVCRT:fltused.obj
 0003:0000002c       ___isa_enabled             1001902c     MSVCRT:_cpu_disp_.obj
 0003:00000030       ___scrt_ucrt_dll_is_in_use 10019030     MSVCRT:ucrt_stubs.obj
 0003:00000034       ??_R0?AVtype_info@@@8      10019034     MSVCRT:std_type_info_static.obj
 0003:0000004c       ??_R0?AVbad_alloc@std@@@8  1001904c     MSVCRT:throw_bad_alloc.obj
 0003:00000068       ??_R0?AVbad_array_new_length@std@@@8 10019068     MSVCRT:throw_bad_alloc.obj
 0003:00000090       ??_R0?AVDatabase@@@8       10019090     DatabaseImpl.obj
 0003:000000a8       ??_R0?AVIParameter@@@8     100190a8     DatabaseImpl.obj
 0003:000000c4       ??_R0?AURecordsetEventsVt@@@8 100190c4     DatabaseImpl.obj
 0003:000000e4       ??_R0?AUIUnknown@@@8       100190e4     DatabaseImpl.obj
 0003:000000fc       ??_R0?AUConnectionEventsVt@@@8 100190fc     DatabaseImpl.obj
 0003:00000120       ??_R0?AVParameter@@@8      10019120     DatabaseImpl.obj
 0003:00000138       ??_R0?AVITable@@@8         10019138     DatabaseImpl.obj
 0003:00000150       ??_R0?AVTable@@@8          10019150     DatabaseImpl.obj
 0003:00000164       ??_R0?AV_com_error@@@8     10019164     DatabaseImpl.obj
 0003:00000180       ??_R0?AVCConnEvent@@@8     10019180     DatabaseImpl.obj
 0003:0000019c       ??_R0?AVIDatabase@@@8      1001919c     DatabaseImpl.obj
 0003:000001b4       ??_R0?AVCRstEvent@@@8      100191b4     DatabaseImpl.obj
 0003:000001cc       ??_R0?AVexception@std@@@8  100191cc     DatabaseImpl.obj
 0003:00000210       ___scrt_current_native_startup_state 10019210     MSVCRT:utility.obj
 0003:00000214       ___scrt_native_startup_lock 10019214     MSVCRT:utility.obj
 0003:00000554       ___scrt_debugger_hook_flag 10019554     MSVCRT:utility_desktop.obj
 0003:00000558       __tls_index                10019558     MSVCRT:tlssup.obj
 0003:0000055c       ___isa_available           1001955c     MSVCRT:_cpu_disp_.obj
 0003:00000560       ___favor                   10019560     MSVCRT:_cpu_disp_.obj
 0003:00000568       ?__type_info_root_node@@3U__type_info_node@@A 10019568     MSVCRT:tncleanup.obj
 0003:00000570       ?_OptionsStorage@?1??__local_stdio_scanf_options@@9@4_KA 10019570     MSVCRT:default_local_stdio_options.obj
 0003:00000578       ?_AtlBaseModule@ATL@@3VCAtlBaseModule@1@A 10019578     atls:atlbase.obj
 0003:000005b0       ___@@_PchSym_@00@UwwUexgllohUexHoryhUhsrkUzgonuxUhixUzgoUzgohUlyqBiUrDIGUhgwzucOlyq@D30CF1FEFB9F8AE1 100195b0     atls:stdafx.obj
 0003:000005b8       ?_OptionsStorage@?1??__local_stdio_printf_options@@9@4_KA 100195b8     DatabaseImpl.obj
 0003:000005c0       ?m_bInitFailed@CAtlBaseModule@ATL@@2_NA 100195c0     DatabaseImpl.obj
 0003:000005c8       ?varLiReturn@@3V_variant_t@@A 100195c8     DatabaseImpl.obj
 0003:000005d8       ___dyn_tls_init_callback   100195d8     <common>
 0005:00000000       __tls_start                1001b000     MSVCRT:tlssup.obj
 0005:00000004       __Init_thread_epoch        1001b004     MSVCRT:thread_safe_statics.obj
 0005:00000008       __tls_end                  1001b008     MSVCRT:tlssup.obj

 entry point at        0001:00011125

 Static symbols

 0000:fffe2000       .debug$S                   10000000     kernel32:KERNEL32.dll
 0000:fffe2000       .debug$S                   10000000     ucrt:api-ms-win-crt-heap-l1-1-0.dll
 0000:fffe2000       .debug$S                   10000000     ucrt:api-ms-win-crt-heap-l1-1-0.dll
 0000:fffe2000       .debug$S                   10000000     ucrt:api-ms-win-crt-heap-l1-1-0.dll
 0000:fffe2000       .debug$S                   10000000     ucrt:api-ms-win-crt-heap-l1-1-0.dll
 0000:fffe2000       .debug$S                   10000000     ucrt:api-ms-win-crt-runtime-l1-1-0.dll
 0000:fffe2000       .debug$S                   10000000     ucrt:api-ms-win-crt-runtime-l1-1-0.dll
 0000:fffe2000       .debug$S                   10000000     ucrt:api-ms-win-crt-runtime-l1-1-0.dll
 0000:fffe2000       .debug$S                   10000000     ucrt:api-ms-win-crt-runtime-l1-1-0.dll
 0000:fffe2000       .debug$S                   10000000     ucrt:api-ms-win-crt-runtime-l1-1-0.dll
 0000:fffe2000       .debug$S                   10000000     ucrt:api-ms-win-crt-runtime-l1-1-0.dll
 0000:fffe2000       .debug$S                   10000000     ucrt:api-ms-win-crt-runtime-l1-1-0.dll
 0000:fffe2000       .debug$S                   10000000     ucrt:api-ms-win-crt-runtime-l1-1-0.dll
 0000:fffe2000       .debug$S                   10000000     ucrt:api-ms-win-crt-runtime-l1-1-0.dll
 0000:fffe2000       .debug$S                   10000000     ucrt:api-ms-win-crt-runtime-l1-1-0.dll
 0000:fffe2000       .debug$S                   10000000     ucrt:api-ms-win-crt-runtime-l1-1-0.dll
 0000:fffe2000       .debug$S                   10000000     ucrt:api-ms-win-crt-runtime-l1-1-0.dll
 0000:fffe2000       .debug$S                   10000000     ucrt:api-ms-win-crt-runtime-l1-1-0.dll
 0000:fffe2000       .debug$S                   10000000     ucrt:api-ms-win-crt-runtime-l1-1-0.dll
 0000:fffe2000       .debug$S                   10000000     ucrt:api-ms-win-crt-runtime-l1-1-0.dll
 0000:fffe2000       .debug$S                   10000000     ucrt:api-ms-win-crt-stdio-l1-1-0.dll
 0000:fffe2000       .debug$S                   10000000     ucrt:api-ms-win-crt-stdio-l1-1-0.dll
 0000:fffe2000       .debug$S                   10000000     ucrt:api-ms-win-crt-string-l1-1-0.dll
 0000:fffe2000       .debug$S                   10000000     vcruntime:VCRUNTIME140.dll
 0000:fffe2000       .debug$S                   10000000     vcruntime:VCRUNTIME140.dll
 0000:fffe2000       .debug$S                   10000000     vcruntime:VCRUNTIME140.dll
 0000:fffe2000       .debug$S                   10000000     vcruntime:VCRUNTIME140.dll
 0000:fffe2000       .debug$S                   10000000     vcruntime:VCRUNTIME140.dll
 0000:fffe2000       .debug$S                   10000000     vcruntime:VCRUNTIME140.dll
 0000:fffe2000       .debug$S                   10000000     vcruntime:VCRUNTIME140.dll
 0000:fffe2000       .debug$S                   10000000     vcruntime:VCRUNTIME140.dll
 0000:fffe2000       .debug$S                   10000000     vcruntime:VCRUNTIME140.dll
 0000:fffe2000       .debug$S                   10000000     vcruntime:VCRUNTIME140.dll
 0000:fffe2000       .debug$S                   10000000     vcruntime:VCRUNTIME140.dll
 0000:fffe2000       .debug$S                   10000000     vcruntime:VCRUNTIME140.dll
 0000:fffe2000       .debug$S                   10000000     vcruntime:VCRUNTIME140.dll
 0000:fffe2000       .debug$S                   10000000     vcruntime:VCRUNTIME140.dll
 0000:fffe2000       .debug$S                   10000000     xlogger:xLogger.dll
 0000:fffe2000       .debug$S                   10000000     Utilities:Utilities.dll
 0000:fffe2000       .debug$S                   10000000     Utilities:Utilities.dll
 0000:fffe2000       .debug$S                   10000000     msvcprt:MSVCP140.dll
 0000:fffe2000       .debug$S                   10000000     msvcprt:MSVCP140.dll
 0000:fffe2000       .debug$S                   10000000     msvcprt:MSVCP140.dll
 0000:fffe2000       .debug$S                   10000000     kernel32:KERNEL32.dll
 0000:fffe2000       .debug$S                   10000000     kernel32:KERNEL32.dll
 0000:fffe2000       .debug$S                   10000000     kernel32:KERNEL32.dll
 0000:fffe2000       .debug$S                   10000000     kernel32:KERNEL32.dll
 0000:fffe2000       .debug$S                   10000000     kernel32:KERNEL32.dll
 0000:fffe2000       .debug$S                   10000000     kernel32:KERNEL32.dll
 0000:fffe2000       .debug$S                   10000000     kernel32:KERNEL32.dll
 0000:fffe2000       .debug$S                   10000000     kernel32:KERNEL32.dll
 0000:fffe2000       .debug$S                   10000000     kernel32:KERNEL32.dll
 0000:fffe2000       .debug$S                   10000000     kernel32:KERNEL32.dll
 0000:fffe2000       .debug$S                   10000000     kernel32:KERNEL32.dll
 0000:fffe2000       .debug$S                   10000000     kernel32:KERNEL32.dll
 0000:fffe2000       .debug$S                   10000000     kernel32:KERNEL32.dll
 0000:fffe2000       .debug$S                   10000000     kernel32:KERNEL32.dll
 0000:fffe2000       .debug$S                   10000000     kernel32:KERNEL32.dll
 0000:fffe2000       .debug$S                   10000000     kernel32:KERNEL32.dll
 0000:fffe2000       .debug$S                   10000000     kernel32:KERNEL32.dll
 0000:fffe2000       .debug$S                   10000000     kernel32:KERNEL32.dll
 0000:fffe2000       .debug$S                   10000000     oleaut32:OLEAUT32.dll
 0000:fffe2000       .debug$S                   10000000     oleaut32:OLEAUT32.dll
 0000:fffe2000       .debug$S                   10000000     oleaut32:OLEAUT32.dll
 0000:fffe2000       .debug$S                   10000000     oleaut32:OLEAUT32.dll
 0000:fffe2000       .debug$S                   10000000     oleaut32:OLEAUT32.dll
 0000:fffe2000       .debug$S                   10000000     oleaut32:OLEAUT32.dll
 0000:fffe2000       .debug$S                   10000000     oleaut32:OLEAUT32.dll
 0000:fffe2000       .debug$S                   10000000     oleaut32:OLEAUT32.dll
 0000:fffe2000       .debug$S                   10000000     oleaut32:OLEAUT32.dll
 0000:fffe2000       .debug$S                   10000000     oleaut32:OLEAUT32.dll
 0000:fffe2000       .debug$S                   10000000     oleaut32:OLEAUT32.dll
 0000:fffe2000       .debug$S                   10000000     oleaut32:OLEAUT32.dll
 0000:fffe2000       .debug$S                   10000000     ole32:ole32.dll
 0000:fffe2000       .debug$S                   10000000     ole32:ole32.dll
 0000:fffe2000       .debug$S                   10000000     ole32:ole32.dll
 0000:fffe2000       .debug$S                   10000000     ole32:ole32.dll
 0002:fffec000       .idata$6                   10000000     user32:USER32.dll
 0000:fffe2000       .debug$S                   10000000     user32:USER32.dll
 0000:fffe2000       .debug$S                   10000000     kernel32:KERNEL32.dll
 0000:fffe2000       .debug$S                   10000000     kernel32:KERNEL32.dll
 0000:fffe2000       .debug$S                   10000000     kernel32:KERNEL32.dll
 0000:fffe2000       .debug$S                   10000000     kernel32:KERNEL32.dll
 0000:fffe2000       .debug$S                   10000000     kernel32:KERNEL32.dll
 0000:fffe2000       .debug$S                   10000000     kernel32:KERNEL32.dll
 0000:fffe2000       .debug$S                   10000000     kernel32:KERNEL32.dll
 0000:fffe2000       .debug$S                   10000000     kernel32:KERNEL32.dll
 0000:fffe2000       .debug$S                   10000000     kernel32:KERNEL32.dll
 0000:fffe2000       .debug$S                   10000000     kernel32:KERNEL32.dll
 0000:fffe2000       .debug$S                   10000000     kernel32:KERNEL32.dll
 0000:fffe2000       .debug$S                   10000000     kernel32:KERNEL32.dll
 0000:fffe2000       .debug$S                   10000000     kernel32:KERNEL32.dll
 0000:fffe2000       .debug$S                   10000000     kernel32:KERNEL32.dll
 0000:fffe2000       .debug$S                   10000000     kernel32:KERNEL32.dll
 0000:fffe2000       .debug$S                   10000000     kernel32:KERNEL32.dll
 0000:fffe2000       .debug$S                   10000000     kernel32:KERNEL32.dll
 0000:fffe2000       .debug$S                   10000000     kernel32:KERNEL32.dll
 0000:fffe2000       .debug$S                   10000000     kernel32:KERNEL32.dll
 0000:fffe2000       .debug$S                   10000000     kernel32:KERNEL32.dll
 0000:fffe2000       .debug$S                   10000000     Database.exp
 0001:00000000       ??__EvarLiReturn@@YAXXZ    10001000 f   DatabaseImpl.obj
 0001:00000020       ??__EvtMissing@@YAXXZ      10001020 f   comsuppw:comutil.obj
 0001:0000002c       ??__E_AtlBaseModule@ATL@@YAXXZ 1000102c f   atls:atlbase.obj
 0001:00000050       _memcpy_s                  10001050 f   DatabaseImpl.obj
 0001:00000390       ?UIntAdd@_com_util@@YAJIIPAI@Z 10001390 f   DatabaseImpl.obj
 0001:000003c0       ?UIntMult@_com_util@@YAJIIPAI@Z 100013c0 f   DatabaseImpl.obj
 0001:00002a24       $LN19                      10003a24     DatabaseImpl.obj
 0001:00002bdc       $LN19                      10003bdc     DatabaseImpl.obj
 0001:00002d8c       $LN19                      10003d8c     DatabaseImpl.obj
 0001:00002f3c       $LN19                      10003f3c     DatabaseImpl.obj
 0001:00003078       $LN16                      10004078     DatabaseImpl.obj
 0001:0000322c       $LN19                      1000422c     DatabaseImpl.obj
 0001:00003368       $LN16                      10004368     DatabaseImpl.obj
 0001:0000351c       $LN19                      1000451c     DatabaseImpl.obj
 0001:00003658       $LN16                      10004658     DatabaseImpl.obj
 0001:00003798       $LN16                      10004798     DatabaseImpl.obj
 0001:0000394c       $LN19                      1000494c     DatabaseImpl.obj
 0001:00003a88       $LN16                      10004a88     DatabaseImpl.obj
 0001:00003c3c       $LN19                      10004c3c     DatabaseImpl.obj
 0001:00003d78       $LN16                      10004d78     DatabaseImpl.obj
 0001:00003f2c       $LN19                      10004f2c     DatabaseImpl.obj
 0001:00004068       $LN16                      10005068     DatabaseImpl.obj
 0001:0000421c       $LN19                      1000521c     DatabaseImpl.obj
 0001:00004358       $LN16                      10005358     DatabaseImpl.obj
 0001:00004498       $LN16                      10005498     DatabaseImpl.obj
 0001:0000464c       $LN19                      1000564c     DatabaseImpl.obj
 0001:00004d77       __catch$?Open@Database@@UAE_NPBD00@Z$0 10005d77 f   DatabaseImpl.obj
 0001:00004e5e       __catch$?CloseDBConnection@Database@@UAEXXZ$0 10005e5e f   DatabaseImpl.obj
 0001:00004fcb       __catch$?fnc_Event_Status@Database@@UAEXV?$basic_string@DU?$char_traits@D@std@@V?$allocator@D@2@@std@@H@Z$0 10005fcb f   DatabaseImpl.obj
 0001:000050fe       __catch$?fnc_BeginTransaction@Database@@UAE_NXZ$0 100060fe f   DatabaseImpl.obj
 0001:000051be       __catch$?fnc_CommitTransaction@Database@@UAE_NXZ$0 100061be f   DatabaseImpl.obj
 0001:0000527e       __catch$?fnc_RollBackTransaction@Database@@UAE_NXZ$0 1000627e f   DatabaseImpl.obj
 0001:00005420       __catch$?OpenTable@Database@@UAE_NPADAAVITable@@@Z$0 10006420 f   DatabaseImpl.obj
 0001:0000557b       __catch$?ReConnect@Database@@UAE_NXZ$0 1000657b f   DatabaseImpl.obj
 0001:0000684e       __catch$?ExecuteIn@Database@@QAEHPADAAVITable@@AAVIParameter@@@Z$0 1000784e f   DatabaseImpl.obj
 0001:0000848a       __catch$?Execute@Database@@UAE_NPADAAVITable@@AAVIParameter@@H@Z$0 1000948a f   DatabaseImpl.obj
 0001:000086e9       __catch$?IsEOF@Table@@UAE_NXZ$0 100096e9 f   DatabaseImpl.obj
 0001:00008b0f       __catch$?Get@Table@@UAE_NPADPAV?$basic_string@DU?$char_traits@D@std@@V?$allocator@D@2@@std@@@Z$0 10009b0f f   DatabaseImpl.obj
 0001:00008d39       __catch$?Get@Table@@UAE_NPAD0I@Z$0 10009d39 f   DatabaseImpl.obj
 0001:00008efc       __catch$?Get@Table@@UAE_NPADAAI@Z$0 10009efc f   DatabaseImpl.obj
 0001:000090da       __catch$?Get@Table@@UAE_NPADAA_N@Z$0 1000a0da f   DatabaseImpl.obj
 0001:000092b9       __catch$?Get@Table@@UAE_NPADAA_K@Z$0 1000a2b9 f   DatabaseImpl.obj
 0001:00009489       __catch$?GetDateTime@Table@@UAE_NPADAAN@Z$0 1000a489 f   DatabaseImpl.obj
 0001:0000964c       __catch$?Get@Table@@UAE_NPADAAH@Z$0 1000a64c f   DatabaseImpl.obj
 0001:00009821       __catch$?Get@Table@@UAE_NPADAAM@Z$0 1000a821 f   DatabaseImpl.obj
 0001:00009a02       __catch$?Get@Table@@UAE_NPADAAN@Z$0 1000aa02 f   DatabaseImpl.obj
 0001:00009bcc       __catch$?Get@Table@@UAE_NPADAAK@Z$0 1000abcc f   DatabaseImpl.obj
 0001:00009d99       __catch$?Get@Table@@UAE_NPADAAD@Z$0 1000ad99 f   DatabaseImpl.obj
 0001:00009e4e       __catch$?MoveNext@Table@@UAE_NXZ$0 1000ae4e f   DatabaseImpl.obj
 0001:00009f0e       __catch$?MovePrev@Table@@UAE_NXZ$0 1000af0e f   DatabaseImpl.obj
 0001:00009fce       __catch$?MoveFirst@Table@@UAE_NXZ$0 1000afce f   DatabaseImpl.obj
 0001:0000a08e       __catch$?MoveLast@Table@@UAE_NXZ$0 1000b08e f   DatabaseImpl.obj
 0001:0000a165       __catch$?MoveNextRecord@Table@@UAE_NXZ$0 1000b165 f   DatabaseImpl.obj
 0001:0000ca10       __catch$?_Reallocate@?$vector@UPARAM@Parameter@@V?$allocator@UPARAM@Parameter@@@std@@@std@@IAEXI@Z$0 1000da10 f i DatabaseImpl.obj
 0001:0000d92f       __catch$?_Copy@?$basic_string@DU?$char_traits@D@std@@V?$allocator@D@2@@std@@QAEXII@Z$0 1000e92f f i DatabaseImpl.obj
 0001:0000d95d       __catch$?_Copy@?$basic_string@DU?$char_traits@D@std@@V?$allocator@D@2@@std@@QAEXII@Z$1 1000e95d f i DatabaseImpl.obj
 0001:0000dbd9       __catch$?_Buyheadnode@?$_Tree_comp_alloc@V?$_Tmap_traits@V?$basic_string@DU?$char_traits@D@std@@V?$allocator@D@2@@std@@P6AXPADPAH@ZU?$less@V?$basic_string@DU?$char_traits@D@std@@V?$allocator@D@2@@std@@@2@V?$allocator@U?$pair@$$CBV?$basic_string@DU?$char_traits@D@std@@V?$allocator@D@2@@std@@P6AXPADPAH@Z@std@@@2@$0A@@std@@@std@@QAEPAU?$_Tree_node@U?$pair@$$CBV?$basic_string@DU?$char_traits@D@std@@V?$allocator@D@2@@std@@P6AXPADPAH@Z@std@@PAX@2@XZ$0 1000ebd9 f i DatabaseImpl.obj
 0001:0000ec63       __catch$??$_Buynode@ABUpiecewise_construct_t@std@@V?$tuple@$$QAV?$basic_string@DU?$char_traits@D@std@@V?$allocator@D@2@@std@@@2@V?$tuple@$$V@2@@?$_Tree_comp_alloc@V?$_Tmap_traits@V?$basic_string@DU?$char_traits@D@std@@V?$allocator@D@2@@std@@P6AXPADPAH@ZU?$less@V?$basic_string@DU?$char_traits@D@std@@V?$allocator@D@2@@std@@@2@V?$allocator@U?$pair@$$CBV?$basic_string@DU?$char_traits@D@std@@V?$allocator@D@2@@std@@P6AXPADPAH@Z@std@@@2@$0A@@std@@@std@@QAEPAU?$_Tree_node@U?$pair@$$CBV?$basic_string@DU?$char_traits@D@std@@V?$allocator@D@2@@std@@P6AXPADPAH@Z@std@@PAX@1@ABUpiecewise_construct_t@1@$$QAV?$tuple@$$QAV?$basic_string@DU?$char_traits@D@std@@V?$allocator@D@2@@std@@@1@$$QAV?$tuple@$$V@1@@Z$0 1000fc63 f i DatabaseImpl.obj
 0001:0000f6a4       __catch$??$_Insert_hint@AAU?$pair@$$CBV?$basic_string@DU?$char_traits@D@std@@V?$allocator@D@2@@std@@P6AXPADPAH@Z@std@@PAU?$_Tree_node@U?$pair@$$CBV?$basic_string@DU?$char_traits@D@std@@V?$allocator@D@2@@std@@P6AXPADPAH@Z@std@@PAX@2@@?$_Tree@V?$_Tmap_traits@V?$basic_string@DU?$char_traits@D@std@@V?$allocator@D@2@@std@@P6AXPADPAH@ZU?$less@V?$basic_string@DU?$char_traits@D@std@@V?$allocator@D@2@@std@@@2@V?$allocator@U?$pair@$$CBV?$basic_string@DU?$char_traits@D@std@@V?$allocator@D@2@@std@@P6AXPADPAH@Z@std@@@2@$0A@@std@@@std@@IAE?AV?$_Tree_iterator@V?$_Tree_val@U?$_Tree_simple_types@U?$pair@$$CBV?$basic_string@DU?$char_traits@D@std@@V?$allocator@D@2@@std@@P6AXPADPAH@Z@std@@@std@@@std@@@1@V?$_Tree_const_iterator@V?$_Tree_val@U?$_Tree_simple_types@U?$pair@$$CBV?$basic_string@DU?$char_traits@D@std@@V?$allocator@D@2@@std@@P6AXPADPAH@Z@std@@@std@@@std@@@1@AAU?$pair@$$CBV?$basic_string@DU?$char_traits@D@std@@V?$allocator@D@2@@std@@P6AXPADPAH@Z@1@PAU?$_Tree_node@U?$pair@$$CBV?$basic_string@DU?$char_traits@D@std@@V?$allocator@D@2@@std@@P6AXPADPAH@Z@std@@PAX@1@@Z$0 100106a4 f i DatabaseImpl.obj
 0001:0000f848       __catch$?_Buynode0@?$_Tree_comp_alloc@V?$_Tmap_traits@V?$basic_string@DU?$char_traits@D@std@@V?$allocator@D@2@@std@@P6AXPADPAH@ZU?$less@V?$basic_string@DU?$char_traits@D@std@@V?$allocator@D@2@@std@@@2@V?$allocator@U?$pair@$$CBV?$basic_string@DU?$char_traits@D@std@@V?$allocator@D@2@@std@@P6AXPADPAH@Z@std@@@2@$0A@@std@@@std@@QAEPAU?$_Tree_node@U?$pair@$$CBV?$basic_string@DU?$char_traits@D@std@@V?$allocator@D@2@@std@@P6AXPADPAH@Z@std@@PAX@2@XZ$0 10010848 f i DatabaseImpl.obj
 0001:0001018d       __catch$??$_Insert_nohint@AAU?$pair@$$CBV?$basic_string@DU?$char_traits@D@std@@V?$allocator@D@2@@std@@P6AXPADPAH@Z@std@@PAU?$_Tree_node@U?$pair@$$CBV?$basic_string@DU?$char_traits@D@std@@V?$allocator@D@2@@std@@P6AXPADPAH@Z@std@@PAX@2@@?$_Tree@V?$_Tmap_traits@V?$basic_string@DU?$char_traits@D@std@@V?$allocator@D@2@@std@@P6AXPADPAH@ZU?$less@V?$basic_string@DU?$char_traits@D@std@@V?$allocator@D@2@@std@@@2@V?$allocator@U?$pair@$$CBV?$basic_string@DU?$char_traits@D@std@@V?$allocator@D@2@@std@@P6AXPADPAH@Z@std@@@2@$0A@@std@@@std@@IAE?AU?$pair@V?$_Tree_iterator@V?$_Tree_val@U?$_Tree_simple_types@U?$pair@$$CBV?$basic_string@DU?$char_traits@D@std@@V?$allocator@D@2@@std@@P6AXPADPAH@Z@std@@@std@@@std@@@std@@_N@1@_NAAU?$pair@$$CBV?$basic_string@DU?$char_traits@D@std@@V?$allocator@D@2@@std@@P6AXPADPAH@Z@1@PAU?$_Tree_node@U?$pair@$$CBV?$basic_string@DU?$char_traits@D@std@@V?$allocator@D@2@@std@@P6AXPADPAH@Z@std@@PAX@1@@Z$0 1001118d f i DatabaseImpl.obj
 0001:00010673       __catch$?ConvertBSTRToString@_com_util@@YGPADPA_W@Z$0 10011673 f   comsuppw:comutil.obj
 0001:00010990       ?__scrt_initialize_thread_safe_statics@@YAHXZ 10011990 f   MSVCRT:thread_safe_statics.obj
 0001:00010a6d       ?__scrt_uninitialize_thread_safe_statics@@YAXXZ 10011a6d f   MSVCRT:thread_safe_statics.obj
 0001:00010abc       ?find_pe_section@@YAPAU_IMAGE_SECTION_HEADER@@QAEI@Z 10011abc f   MSVCRT:utility.obj
 0001:00010e1d       ?dllmain_crt_dispatch@@YGHQAUHINSTANCE__@@KQAX@Z 10011e1d f   MSVCRT:dll_dllmain.obj
 0001:00010e70       ?dllmain_crt_process_attach@@YAHQAUHINSTANCE__@@QAX@Z 10011e70 f   MSVCRT:dll_dllmain.obj
 0001:00010f82       ?dllmain_crt_process_detach@@YAH_N@Z 10011f82 f   MSVCRT:dll_dllmain.obj
 0001:00010fff       ?dllmain_dispatch@@YAHQAUHINSTANCE__@@KQAX@Z 10011fff f   MSVCRT:dll_dllmain.obj
 0001:000110fb       ?dllmain_raw@@YGHQAUHINSTANCE__@@KQAX@Z 100120fb f   MSVCRT:dll_dllmain.obj
 0001:00011160       $$000000                   10012160     MSVCRT:alloca16.obj
 0001:000116b0       $$000000                   100126b0     MSVCRT:_sehprolg4_.obj
 0001:00011840       $$000000                   10012840     MSVCRT:chkstk.obj
 0001:000119c0       __unwindfunclet$??0_bstr_t@@QAE@PB_W@Z$0 100129c0 f   DatabaseImpl.obj
 0001:000119c0       __unwindfunclet$??4_bstr_t@@QAEAAV0@PB_W@Z$0 100129c0 f   DatabaseImpl.obj
 0001:000119c0       __unwindfunclet$??0_bstr_t@@QAE@PA_W_N@Z$0 100129c0 f   DatabaseImpl.obj
 0001:000119c0       __unwindfunclet$??0_bstr_t@@QAE@PBD@Z$0 100129c0 f   DatabaseImpl.obj
 0001:000119cf       __ehhandler$??4_bstr_t@@QAEAAV0@PB_W@Z 100129cf f   DatabaseImpl.obj
 0001:000119cf       __ehhandler$??0_bstr_t@@QAE@PBD@Z 100129cf f   DatabaseImpl.obj
 0001:000119cf       __ehhandler$??0_bstr_t@@QAE@PA_W_N@Z 100129cf f   DatabaseImpl.obj
 0001:000119cf       __ehhandler$??0_bstr_t@@QAE@PB_W@Z 100129cf f   DatabaseImpl.obj
 0001:000119f0       __unwindfunclet$??Y_bstr_t@@QAEAAV0@ABV0@@Z$0 100129f0 f   DatabaseImpl.obj
 0001:000119ff       __ehhandler$??Y_bstr_t@@QAEAAV0@ABV0@@Z 100129ff f   DatabaseImpl.obj
 0001:00011a20       __unwindfunclet$??H_bstr_t@@QBE?AV0@ABV0@@Z$0 10012a20 f   DatabaseImpl.obj
 0001:00011a28       __ehhandler$??H_bstr_t@@QBE?AV0@ABV0@@Z 10012a28 f   DatabaseImpl.obj
 0001:00011a50       __unwindfunclet$??B_variant_t@@QBENXZ$0 10012a50 f   DatabaseImpl.obj
 0001:00011a58       __ehhandler$??B_variant_t@@QBENXZ 10012a58 f   DatabaseImpl.obj
 0001:00011a80       __unwindfunclet$?PutCommandText@Command15@@QAEXV_bstr_t@@@Z$0 10012a80 f   DatabaseImpl.obj
 0001:00011a88       __ehhandler$?PutCommandText@Command15@@QAEXV_bstr_t@@@Z 10012a88 f   DatabaseImpl.obj
 0001:00011ab0       __unwindfunclet$?CreateParameter@Command15@@QAE?AV?$_com_ptr_t@V?$_com_IIID@U_Parameter@@$1?_GUID_0000150c_0000_0010_8000_00aa006d2ea4@@3U__s_GUID@@B@@@@V_bstr_t@@W4DataTypeEnum@@W4ParameterDirectionEnum@@JABV_variant_t@@@Z$0 10012ab0 f   DatabaseImpl.obj
 0001:00011ab8       __ehhandler$?CreateParameter@Command15@@QAE?AV?$_com_ptr_t@V?$_com_IIID@U_Parameter@@$1?_GUID_0000150c_0000_0010_8000_00aa006d2ea4@@3U__s_GUID@@B@@@@V_bstr_t@@W4DataTypeEnum@@W4ParameterDirectionEnum@@JABV_variant_t@@@Z 10012ab8 f   DatabaseImpl.obj
 0001:00011ae0       __unwindfunclet$?Open@Connection15@@QAEJV_bstr_t@@00J@Z$0 10012ae0 f   DatabaseImpl.obj
 0001:00011ae8       __unwindfunclet$?Open@Connection15@@QAEJV_bstr_t@@00J@Z$1 10012ae8 f   DatabaseImpl.obj
 0001:00011af0       __unwindfunclet$?Open@Connection15@@QAEJV_bstr_t@@00J@Z$2 10012af0 f   DatabaseImpl.obj
 0001:00011af8       __ehhandler$?Open@Connection15@@QAEJV_bstr_t@@00J@Z 10012af8 f   DatabaseImpl.obj
 0001:00011b20       __unwindfunclet$?ErrorHandler@@YAXAAV_com_error@@PAD@Z$0 10012b20 f   DatabaseImpl.obj
 0001:00011b28       __unwindfunclet$?ErrorHandler@@YAXAAV_com_error@@PAD@Z$1 10012b28 f   DatabaseImpl.obj
 0001:00011b30       __ehhandler$?ErrorHandler@@YAXAAV_com_error@@PAD@Z 10012b30 f   DatabaseImpl.obj
 0001:00011b50       __unwindfunclet$?raw_FieldChangeComplete@CRstEvent@@UAGJJUtagVARIANT@@PAUError@@PAW4EventStatusEnum@@PAU_Recordset@@@Z$0 10012b50 f   DatabaseImpl.obj
 0001:00011b50       __unwindfunclet$?raw_RecordChangeComplete@CRstEvent@@UAGJW4EventReasonEnum@@JPAUError@@PAW4EventStatusEnum@@PAU_Recordset@@@Z$0 10012b50 f   DatabaseImpl.obj
 0001:00011b50       __unwindfunclet$?raw_MoveComplete@CRstEvent@@UAGJW4EventReasonEnum@@PAUError@@PAW4EventStatusEnum@@PAU_Recordset@@@Z$0 10012b50 f   DatabaseImpl.obj
 0001:00011b50       __unwindfunclet$?raw_InfoMessage@CConnEvent@@UAGJPAUError@@PAW4EventStatusEnum@@PAU_Connection@@@Z$0 10012b50 f   DatabaseImpl.obj
 0001:00011b50       __unwindfunclet$?raw_BeginTransComplete@CConnEvent@@UAGJJPAUError@@PAW4EventStatusEnum@@PAU_Connection@@@Z$0 10012b50 f   DatabaseImpl.obj
 0001:00011b50       __unwindfunclet$?raw_CommitTransComplete@CConnEvent@@UAGJPAUError@@PAW4EventStatusEnum@@PAU_Connection@@@Z$0 10012b50 f   DatabaseImpl.obj
 0001:00011b50       __unwindfunclet$?raw_FetchComplete@CRstEvent@@UAGJPAUError@@PAW4EventStatusEnum@@PAU_Recordset@@@Z$0 10012b50 f   DatabaseImpl.obj
 0001:00011b50       __unwindfunclet$?raw_ConnectComplete@CConnEvent@@UAGJPAUError@@PAW4EventStatusEnum@@PAU_Connection@@@Z$0 10012b50 f   DatabaseImpl.obj
 0001:00011b50       __unwindfunclet$?raw_RollbackTransComplete@CConnEvent@@UAGJPAUError@@PAW4EventStatusEnum@@PAU_Connection@@@Z$0 10012b50 f   DatabaseImpl.obj
 0001:00011b50       __unwindfunclet$?raw_ExecuteComplete@CConnEvent@@UAGJJPAUError@@PAW4EventStatusEnum@@PAU_Command@@PAU_Recordset@@PAU_Connection@@@Z$0 10012b50 f   DatabaseImpl.obj
 0001:00011b50       __unwindfunclet$?raw_RecordsetChangeComplete@CRstEvent@@UAGJW4EventReasonEnum@@PAUError@@PAW4EventStatusEnum@@PAU_Recordset@@@Z$0 10012b50 f   DatabaseImpl.obj
 0001:00011b58       __ehhandler$?raw_FetchComplete@CRstEvent@@UAGJPAUError@@PAW4EventStatusEnum@@PAU_Recordset@@@Z 10012b58 f   DatabaseImpl.obj
 0001:00011b58       __ehhandler$?raw_RecordsetChangeComplete@CRstEvent@@UAGJW4EventReasonEnum@@PAUError@@PAW4EventStatusEnum@@PAU_Recordset@@@Z 10012b58 f   DatabaseImpl.obj
 0001:00011b58       __ehhandler$?raw_MoveComplete@CRstEvent@@UAGJW4EventReasonEnum@@PAUError@@PAW4EventStatusEnum@@PAU_Recordset@@@Z 10012b58 f   DatabaseImpl.obj
 0001:00011b58       __ehhandler$?raw_ConnectComplete@CConnEvent@@UAGJPAUError@@PAW4EventStatusEnum@@PAU_Connection@@@Z 10012b58 f   DatabaseImpl.obj
 0001:00011b58       __ehhandler$?raw_RecordChangeComplete@CRstEvent@@UAGJW4EventReasonEnum@@JPAUError@@PAW4EventStatusEnum@@PAU_Recordset@@@Z 10012b58 f   DatabaseImpl.obj
 0001:00011b58       __ehhandler$?raw_ExecuteComplete@CConnEvent@@UAGJJPAUError@@PAW4EventStatusEnum@@PAU_Command@@PAU_Recordset@@PAU_Connection@@@Z 10012b58 f   DatabaseImpl.obj
 0001:00011b58       __ehhandler$?raw_InfoMessage@CConnEvent@@UAGJPAUError@@PAW4EventStatusEnum@@PAU_Connection@@@Z 10012b58 f   DatabaseImpl.obj
 0001:00011b58       __ehhandler$?raw_RollbackTransComplete@CConnEvent@@UAGJPAUError@@PAW4EventStatusEnum@@PAU_Connection@@@Z 10012b58 f   DatabaseImpl.obj
 0001:00011b58       __ehhandler$?raw_FieldChangeComplete@CRstEvent@@UAGJJUtagVARIANT@@PAUError@@PAW4EventStatusEnum@@PAU_Recordset@@@Z 10012b58 f   DatabaseImpl.obj
 0001:00011b58       __ehhandler$?raw_BeginTransComplete@CConnEvent@@UAGJJPAUError@@PAW4EventStatusEnum@@PAU_Connection@@@Z 10012b58 f   DatabaseImpl.obj
 0001:00011b58       __ehhandler$?raw_CommitTransComplete@CConnEvent@@UAGJPAUError@@PAW4EventStatusEnum@@PAU_Connection@@@Z 10012b58 f   DatabaseImpl.obj
 0001:00011b80       __unwindfunclet$??0Database@@QAE@XZ$0 10012b80 f   DatabaseImpl.obj
 0001:00011b88       __unwindfunclet$??0Database@@QAE@XZ$1 10012b88 f   DatabaseImpl.obj
 0001:00011b93       __unwindfunclet$??0Database@@QAE@XZ$2 10012b93 f   DatabaseImpl.obj
 0001:00011b9e       __unwindfunclet$??0Database@@QAE@XZ$3 10012b9e f   DatabaseImpl.obj
 0001:00011ba9       __unwindfunclet$??0Database@@QAE@XZ$4 10012ba9 f   DatabaseImpl.obj
 0001:00011bb4       __unwindfunclet$??0Database@@QAE@XZ$5 10012bb4 f   DatabaseImpl.obj
 0001:00011bc2       __unwindfunclet$??0Database@@QAE@XZ$6 10012bc2 f   DatabaseImpl.obj
 0001:00011bd0       __ehhandler$??0Database@@QAE@XZ 10012bd0 f   DatabaseImpl.obj
 0001:00011bf0       __unwindfunclet$?Open@Database@@UAE_NPBD00@Z$2 10012bf0 f   DatabaseImpl.obj
 0001:00011bff       __unwindfunclet$?Open@Database@@UAE_NPBD00@Z$3 10012bff f   DatabaseImpl.obj
 0001:00011c0e       __unwindfunclet$?Open@Database@@UAE_NPBD00@Z$4 10012c0e f   DatabaseImpl.obj
 0001:00011c19       __unwindfunclet$?Open@Database@@UAE_NPBD00@Z$5 10012c19 f   DatabaseImpl.obj
 0001:00011c24       __unwindfunclet$?Open@Database@@UAE_NPBD00@Z$6 10012c24 f   DatabaseImpl.obj
 0001:00011c2f       __ehhandler$?Open@Database@@UAE_NPBD00@Z 10012c2f f   DatabaseImpl.obj
 0001:00011c50       __ehhandler$?CloseDBConnection@Database@@UAEXXZ 10012c50 f   DatabaseImpl.obj
 0001:00011c70       __unwindfunclet$?fnc_Event_Status@Database@@UAEXV?$basic_string@DU?$char_traits@D@std@@V?$allocator@D@2@@std@@H@Z$2 10012c70 f   DatabaseImpl.obj
 0001:00011c78       __ehhandler$?fnc_Event_Status@Database@@UAEXV?$basic_string@DU?$char_traits@D@std@@V?$allocator@D@2@@std@@H@Z 10012c78 f   DatabaseImpl.obj
 0001:00011ca0       __unwindfunclet$?callback@Database@@UAEXPAXP6AXPADPAH@Z1@Z$0 10012ca0 f   DatabaseImpl.obj
 0001:00011ca8       __ehhandler$?callback@Database@@UAEXPAXP6AXPADPAH@Z1@Z 10012ca8 f   DatabaseImpl.obj
 0001:00011cd0       __ehhandler$?fnc_BeginTransaction@Database@@UAE_NXZ 10012cd0 f   DatabaseImpl.obj
 0001:00011cf0       __ehhandler$?fnc_CommitTransaction@Database@@UAE_NXZ 10012cf0 f   DatabaseImpl.obj
 0001:00011d10       __ehhandler$?fnc_RollBackTransaction@Database@@UAE_NXZ 10012d10 f   DatabaseImpl.obj
 0001:00011d30       __unwindfunclet$?OpenTable@Database@@UAE_NPADAAVITable@@@Z$2 10012d30 f   DatabaseImpl.obj
 0001:00011d38       __unwindfunclet$?OpenTable@Database@@UAE_NPADAAVITable@@@Z$3 10012d38 f   DatabaseImpl.obj
 0001:00011d40       __unwindfunclet$?OpenTable@Database@@UAE_NPADAAVITable@@@Z$4 10012d40 f   DatabaseImpl.obj
 0001:00011d48       __unwindfunclet$?OpenTable@Database@@UAE_NPADAAVITable@@@Z$5 10012d48 f   DatabaseImpl.obj
 0001:00011d50       __ehhandler$?OpenTable@Database@@UAE_NPADAAVITable@@@Z 10012d50 f   DatabaseImpl.obj
 0001:00011d70       __ehhandler$?ReConnect@Database@@UAE_NXZ 10012d70 f   DatabaseImpl.obj
 0001:00011d90       __unwindfunclet$?ExecuteIn@Database@@QAEHPADAAVITable@@AAVIParameter@@@Z$2 10012d90 f   DatabaseImpl.obj
 0001:00011d98       __unwindfunclet$?ExecuteIn@Database@@QAEHPADAAVITable@@AAVIParameter@@@Z$3 10012d98 f   DatabaseImpl.obj
 0001:00011da0       __unwindfunclet$?ExecuteIn@Database@@QAEHPADAAVITable@@AAVIParameter@@@Z$4 10012da0 f   DatabaseImpl.obj
 0001:00011dab       __unwindfunclet$?ExecuteIn@Database@@QAEHPADAAVITable@@AAVIParameter@@@Z$5 10012dab f   DatabaseImpl.obj
 0001:00011db3       __unwindfunclet$?ExecuteIn@Database@@QAEHPADAAVITable@@AAVIParameter@@@Z$6 10012db3 f   DatabaseImpl.obj
 0001:00011dbb       __unwindfunclet$?ExecuteIn@Database@@QAEHPADAAVITable@@AAVIParameter@@@Z$7 10012dbb f   DatabaseImpl.obj
 0001:00011dc3       __unwindfunclet$?ExecuteIn@Database@@QAEHPADAAVITable@@AAVIParameter@@@Z$8 10012dc3 f   DatabaseImpl.obj
 0001:00011dce       __unwindfunclet$?ExecuteIn@Database@@QAEHPADAAVITable@@AAVIParameter@@@Z$9 10012dce f   DatabaseImpl.obj
 0001:00011dd9       __unwindfunclet$?ExecuteIn@Database@@QAEHPADAAVITable@@AAVIParameter@@@Z$10 10012dd9 f   DatabaseImpl.obj
 0001:00011de4       __unwindfunclet$?ExecuteIn@Database@@QAEHPADAAVITable@@AAVIParameter@@@Z$11 10012de4 f   DatabaseImpl.obj
 0001:00011def       __unwindfunclet$?ExecuteIn@Database@@QAEHPADAAVITable@@AAVIParameter@@@Z$12 10012def f   DatabaseImpl.obj
 0001:00011dfa       __unwindfunclet$?ExecuteIn@Database@@QAEHPADAAVITable@@AAVIParameter@@@Z$13 10012dfa f   DatabaseImpl.obj
 0001:00011e05       __unwindfunclet$?ExecuteIn@Database@@QAEHPADAAVITable@@AAVIParameter@@@Z$14 10012e05 f   DatabaseImpl.obj
 0001:00011e10       __unwindfunclet$?ExecuteIn@Database@@QAEHPADAAVITable@@AAVIParameter@@@Z$15 10012e10 f   DatabaseImpl.obj
 0001:00011e1b       __unwindfunclet$?ExecuteIn@Database@@QAEHPADAAVITable@@AAVIParameter@@@Z$16 10012e1b f   DatabaseImpl.obj
 0001:00011e26       __unwindfunclet$?ExecuteIn@Database@@QAEHPADAAVITable@@AAVIParameter@@@Z$17 10012e26 f   DatabaseImpl.obj
 0001:00011e31       __unwindfunclet$?ExecuteIn@Database@@QAEHPADAAVITable@@AAVIParameter@@@Z$18 10012e31 f   DatabaseImpl.obj
 0001:00011e3c       __unwindfunclet$?ExecuteIn@Database@@QAEHPADAAVITable@@AAVIParameter@@@Z$19 10012e3c f   DatabaseImpl.obj
 0001:00011e47       __unwindfunclet$?ExecuteIn@Database@@QAEHPADAAVITable@@AAVIParameter@@@Z$20 10012e47 f   DatabaseImpl.obj
 0001:00011e52       __unwindfunclet$?ExecuteIn@Database@@QAEHPADAAVITable@@AAVIParameter@@@Z$21 10012e52 f   DatabaseImpl.obj
 0001:00011e5d       __unwindfunclet$?ExecuteIn@Database@@QAEHPADAAVITable@@AAVIParameter@@@Z$22 10012e5d f   DatabaseImpl.obj
 0001:00011e68       __unwindfunclet$?ExecuteIn@Database@@QAEHPADAAVITable@@AAVIParameter@@@Z$23 10012e68 f   DatabaseImpl.obj
 0001:00011e73       __unwindfunclet$?ExecuteIn@Database@@QAEHPADAAVITable@@AAVIParameter@@@Z$24 10012e73 f   DatabaseImpl.obj
 0001:00011e7e       __unwindfunclet$?ExecuteIn@Database@@QAEHPADAAVITable@@AAVIParameter@@@Z$25 10012e7e f   DatabaseImpl.obj
 0001:00011e89       __unwindfunclet$?ExecuteIn@Database@@QAEHPADAAVITable@@AAVIParameter@@@Z$26 10012e89 f   DatabaseImpl.obj
 0001:00011e94       __unwindfunclet$?ExecuteIn@Database@@QAEHPADAAVITable@@AAVIParameter@@@Z$27 10012e94 f   DatabaseImpl.obj
 0001:00011e9f       __unwindfunclet$?ExecuteIn@Database@@QAEHPADAAVITable@@AAVIParameter@@@Z$28 10012e9f f   DatabaseImpl.obj
 0001:00011eaa       __unwindfunclet$?ExecuteIn@Database@@QAEHPADAAVITable@@AAVIParameter@@@Z$29 10012eaa f   DatabaseImpl.obj
 0001:00011eb5       __unwindfunclet$?ExecuteIn@Database@@QAEHPADAAVITable@@AAVIParameter@@@Z$30 10012eb5 f   DatabaseImpl.obj
 0001:00011ebd       __unwindfunclet$?ExecuteIn@Database@@QAEHPADAAVITable@@AAVIParameter@@@Z$31 10012ebd f   DatabaseImpl.obj
 0001:00011ec8       __unwindfunclet$?ExecuteIn@Database@@QAEHPADAAVITable@@AAVIParameter@@@Z$32 10012ec8 f   DatabaseImpl.obj
 0001:00011ed3       __unwindfunclet$?ExecuteIn@Database@@QAEHPADAAVITable@@AAVIParameter@@@Z$33 10012ed3 f   DatabaseImpl.obj
 0001:00011ede       __unwindfunclet$?ExecuteIn@Database@@QAEHPADAAVITable@@AAVIParameter@@@Z$34 10012ede f   DatabaseImpl.obj
 0001:00011ee9       __unwindfunclet$?ExecuteIn@Database@@QAEHPADAAVITable@@AAVIParameter@@@Z$35 10012ee9 f   DatabaseImpl.obj
 0001:00011ef4       __unwindfunclet$?ExecuteIn@Database@@QAEHPADAAVITable@@AAVIParameter@@@Z$36 10012ef4 f   DatabaseImpl.obj
 0001:00011eff       __unwindfunclet$?ExecuteIn@Database@@QAEHPADAAVITable@@AAVIParameter@@@Z$37 10012eff f   DatabaseImpl.obj
 0001:00011f0a       __unwindfunclet$?ExecuteIn@Database@@QAEHPADAAVITable@@AAVIParameter@@@Z$38 10012f0a f   DatabaseImpl.obj
 0001:00011f15       __unwindfunclet$?ExecuteIn@Database@@QAEHPADAAVITable@@AAVIParameter@@@Z$39 10012f15 f   DatabaseImpl.obj
 0001:00011f20       __unwindfunclet$?ExecuteIn@Database@@QAEHPADAAVITable@@AAVIParameter@@@Z$40 10012f20 f   DatabaseImpl.obj
 0001:00011f28       __unwindfunclet$?ExecuteIn@Database@@QAEHPADAAVITable@@AAVIParameter@@@Z$41 10012f28 f   DatabaseImpl.obj
 0001:00011f33       __unwindfunclet$?ExecuteIn@Database@@QAEHPADAAVITable@@AAVIParameter@@@Z$42 10012f33 f   DatabaseImpl.obj
 0001:00011f3e       __unwindfunclet$?ExecuteIn@Database@@QAEHPADAAVITable@@AAVIParameter@@@Z$43 10012f3e f   DatabaseImpl.obj
 0001:00011f49       __unwindfunclet$?ExecuteIn@Database@@QAEHPADAAVITable@@AAVIParameter@@@Z$44 10012f49 f   DatabaseImpl.obj
 0001:00011f54       __unwindfunclet$?ExecuteIn@Database@@QAEHPADAAVITable@@AAVIParameter@@@Z$46 10012f54 f   DatabaseImpl.obj
 0001:00011f5f       __ehhandler$?ExecuteIn@Database@@QAEHPADAAVITable@@AAVIParameter@@@Z 10012f5f f   DatabaseImpl.obj
 0001:00011f90       __unwindfunclet$?Execute@Database@@UAE_NPADAAVITable@@AAVIParameter@@H@Z$2 10012f90 f   DatabaseImpl.obj
 0001:00011f98       __unwindfunclet$?Execute@Database@@UAE_NPADAAVITable@@AAVIParameter@@H@Z$3 10012f98 f   DatabaseImpl.obj
 0001:00011fa3       __unwindfunclet$?Execute@Database@@UAE_NPADAAVITable@@AAVIParameter@@H@Z$4 10012fa3 f   DatabaseImpl.obj
 0001:00011fae       __unwindfunclet$?Execute@Database@@UAE_NPADAAVITable@@AAVIParameter@@H@Z$5 10012fae f   DatabaseImpl.obj
 0001:00011fb6       __unwindfunclet$?Execute@Database@@UAE_NPADAAVITable@@AAVIParameter@@H@Z$6 10012fb6 f   DatabaseImpl.obj
 0001:00011fbe       __unwindfunclet$?Execute@Database@@UAE_NPADAAVITable@@AAVIParameter@@H@Z$7 10012fbe f   DatabaseImpl.obj
 0001:00011fc6       __unwindfunclet$?Execute@Database@@UAE_NPADAAVITable@@AAVIParameter@@H@Z$8 10012fc6 f   DatabaseImpl.obj
 0001:00011fd1       __unwindfunclet$?Execute@Database@@UAE_NPADAAVITable@@AAVIParameter@@H@Z$9 10012fd1 f   DatabaseImpl.obj
 0001:00011fdc       __unwindfunclet$?Execute@Database@@UAE_NPADAAVITable@@AAVIParameter@@H@Z$10 10012fdc f   DatabaseImpl.obj
 0001:00011fe7       __unwindfunclet$?Execute@Database@@UAE_NPADAAVITable@@AAVIParameter@@H@Z$11 10012fe7 f   DatabaseImpl.obj
 0001:00011ff2       __unwindfunclet$?Execute@Database@@UAE_NPADAAVITable@@AAVIParameter@@H@Z$12 10012ff2 f   DatabaseImpl.obj
 0001:00011ffd       __unwindfunclet$?Execute@Database@@UAE_NPADAAVITable@@AAVIParameter@@H@Z$13 10012ffd f   DatabaseImpl.obj
 0001:00012008       __unwindfunclet$?Execute@Database@@UAE_NPADAAVITable@@AAVIParameter@@H@Z$14 10013008 f   DatabaseImpl.obj
 0001:00012013       __unwindfunclet$?Execute@Database@@UAE_NPADAAVITable@@AAVIParameter@@H@Z$15 10013013 f   DatabaseImpl.obj
 0001:0001201e       __unwindfunclet$?Execute@Database@@UAE_NPADAAVITable@@AAVIParameter@@H@Z$16 1001301e f   DatabaseImpl.obj
 0001:00012029       __unwindfunclet$?Execute@Database@@UAE_NPADAAVITable@@AAVIParameter@@H@Z$17 10013029 f   DatabaseImpl.obj
 0001:00012034       __unwindfunclet$?Execute@Database@@UAE_NPADAAVITable@@AAVIParameter@@H@Z$18 10013034 f   DatabaseImpl.obj
 0001:0001203f       __unwindfunclet$?Execute@Database@@UAE_NPADAAVITable@@AAVIParameter@@H@Z$19 1001303f f   DatabaseImpl.obj
 0001:0001204a       __unwindfunclet$?Execute@Database@@UAE_NPADAAVITable@@AAVIParameter@@H@Z$20 1001304a f   DatabaseImpl.obj
 0001:00012055       __unwindfunclet$?Execute@Database@@UAE_NPADAAVITable@@AAVIParameter@@H@Z$21 10013055 f   DatabaseImpl.obj
 0001:00012060       __unwindfunclet$?Execute@Database@@UAE_NPADAAVITable@@AAVIParameter@@H@Z$22 10013060 f   DatabaseImpl.obj
 0001:0001206b       __unwindfunclet$?Execute@Database@@UAE_NPADAAVITable@@AAVIParameter@@H@Z$23 1001306b f   DatabaseImpl.obj
 0001:00012076       __unwindfunclet$?Execute@Database@@UAE_NPADAAVITable@@AAVIParameter@@H@Z$24 10013076 f   DatabaseImpl.obj
 0001:00012081       __unwindfunclet$?Execute@Database@@UAE_NPADAAVITable@@AAVIParameter@@H@Z$25 10013081 f   DatabaseImpl.obj
 0001:0001208c       __unwindfunclet$?Execute@Database@@UAE_NPADAAVITable@@AAVIParameter@@H@Z$26 1001308c f   DatabaseImpl.obj
 0001:00012097       __unwindfunclet$?Execute@Database@@UAE_NPADAAVITable@@AAVIParameter@@H@Z$27 10013097 f   DatabaseImpl.obj
 0001:0001209f       __unwindfunclet$?Execute@Database@@UAE_NPADAAVITable@@AAVIParameter@@H@Z$28 1001309f f   DatabaseImpl.obj
 0001:000120aa       __unwindfunclet$?Execute@Database@@UAE_NPADAAVITable@@AAVIParameter@@H@Z$29 100130aa f   DatabaseImpl.obj
 0001:000120b5       __unwindfunclet$?Execute@Database@@UAE_NPADAAVITable@@AAVIParameter@@H@Z$30 100130b5 f   DatabaseImpl.obj
 0001:000120c0       __unwindfunclet$?Execute@Database@@UAE_NPADAAVITable@@AAVIParameter@@H@Z$31 100130c0 f   DatabaseImpl.obj
 0001:000120cb       __unwindfunclet$?Execute@Database@@UAE_NPADAAVITable@@AAVIParameter@@H@Z$32 100130cb f   DatabaseImpl.obj
 0001:000120d6       __unwindfunclet$?Execute@Database@@UAE_NPADAAVITable@@AAVIParameter@@H@Z$33 100130d6 f   DatabaseImpl.obj
 0001:000120e1       __unwindfunclet$?Execute@Database@@UAE_NPADAAVITable@@AAVIParameter@@H@Z$34 100130e1 f   DatabaseImpl.obj
 0001:000120ec       __unwindfunclet$?Execute@Database@@UAE_NPADAAVITable@@AAVIParameter@@H@Z$35 100130ec f   DatabaseImpl.obj
 0001:000120f7       __unwindfunclet$?Execute@Database@@UAE_NPADAAVITable@@AAVIParameter@@H@Z$36 100130f7 f   DatabaseImpl.obj
 0001:00012102       __unwindfunclet$?Execute@Database@@UAE_NPADAAVITable@@AAVIParameter@@H@Z$37 10013102 f   DatabaseImpl.obj
 0001:0001210a       __unwindfunclet$?Execute@Database@@UAE_NPADAAVITable@@AAVIParameter@@H@Z$38 1001310a f   DatabaseImpl.obj
 0001:00012115       __unwindfunclet$?Execute@Database@@UAE_NPADAAVITable@@AAVIParameter@@H@Z$39 10013115 f   DatabaseImpl.obj
 0001:00012120       __unwindfunclet$?Execute@Database@@UAE_NPADAAVITable@@AAVIParameter@@H@Z$40 10013120 f   DatabaseImpl.obj
 0001:0001212b       __unwindfunclet$?Execute@Database@@UAE_NPADAAVITable@@AAVIParameter@@H@Z$41 1001312b f   DatabaseImpl.obj
 0001:00012136       __unwindfunclet$?Execute@Database@@UAE_NPADAAVITable@@AAVIParameter@@H@Z$42 10013136 f   DatabaseImpl.obj
 0001:00012141       __unwindfunclet$?Execute@Database@@UAE_NPADAAVITable@@AAVIParameter@@H@Z$43 10013141 f   DatabaseImpl.obj
 0001:0001214c       __unwindfunclet$?Execute@Database@@UAE_NPADAAVITable@@AAVIParameter@@H@Z$44 1001314c f   DatabaseImpl.obj
 0001:00012157       __unwindfunclet$?Execute@Database@@UAE_NPADAAVITable@@AAVIParameter@@H@Z$45 10013157 f   DatabaseImpl.obj
 0001:00012162       __unwindfunclet$?Execute@Database@@UAE_NPADAAVITable@@AAVIParameter@@H@Z$46 10013162 f   DatabaseImpl.obj
 0001:0001216d       __unwindfunclet$?Execute@Database@@UAE_NPADAAVITable@@AAVIParameter@@H@Z$47 1001316d f   DatabaseImpl.obj
 0001:00012178       __unwindfunclet$?Execute@Database@@UAE_NPADAAVITable@@AAVIParameter@@H@Z$48 10013178 f   DatabaseImpl.obj
 0001:00012183       __unwindfunclet$?Execute@Database@@UAE_NPADAAVITable@@AAVIParameter@@H@Z$49 10013183 f   DatabaseImpl.obj
 0001:0001218e       __unwindfunclet$?Execute@Database@@UAE_NPADAAVITable@@AAVIParameter@@H@Z$50 1001318e f   DatabaseImpl.obj
 0001:00012199       __unwindfunclet$?Execute@Database@@UAE_NPADAAVITable@@AAVIParameter@@H@Z$51 10013199 f   DatabaseImpl.obj
 0001:000121a4       __unwindfunclet$?Execute@Database@@UAE_NPADAAVITable@@AAVIParameter@@H@Z$52 100131a4 f   DatabaseImpl.obj
 0001:000121af       __unwindfunclet$?Execute@Database@@UAE_NPADAAVITable@@AAVIParameter@@H@Z$53 100131af f   DatabaseImpl.obj
 0001:000121ba       __unwindfunclet$?Execute@Database@@UAE_NPADAAVITable@@AAVIParameter@@H@Z$54 100131ba f   DatabaseImpl.obj
 0001:000121c5       __unwindfunclet$?Execute@Database@@UAE_NPADAAVITable@@AAVIParameter@@H@Z$55 100131c5 f   DatabaseImpl.obj
 0001:000121d0       __unwindfunclet$?Execute@Database@@UAE_NPADAAVITable@@AAVIParameter@@H@Z$56 100131d0 f   DatabaseImpl.obj
 0001:000121db       __unwindfunclet$?Execute@Database@@UAE_NPADAAVITable@@AAVIParameter@@H@Z$57 100131db f   DatabaseImpl.obj
 0001:000121e6       __unwindfunclet$?Execute@Database@@UAE_NPADAAVITable@@AAVIParameter@@H@Z$58 100131e6 f   DatabaseImpl.obj
 0001:000121f1       __unwindfunclet$?Execute@Database@@UAE_NPADAAVITable@@AAVIParameter@@H@Z$59 100131f1 f   DatabaseImpl.obj
 0001:000121fc       __unwindfunclet$?Execute@Database@@UAE_NPADAAVITable@@AAVIParameter@@H@Z$60 100131fc f   DatabaseImpl.obj
 0001:00012204       __unwindfunclet$?Execute@Database@@UAE_NPADAAVITable@@AAVIParameter@@H@Z$61 10013204 f   DatabaseImpl.obj
 0001:0001220f       __unwindfunclet$?Execute@Database@@UAE_NPADAAVITable@@AAVIParameter@@H@Z$62 1001320f f   DatabaseImpl.obj
 0001:0001221a       __unwindfunclet$?Execute@Database@@UAE_NPADAAVITable@@AAVIParameter@@H@Z$63 1001321a f   DatabaseImpl.obj
 0001:00012225       __unwindfunclet$?Execute@Database@@UAE_NPADAAVITable@@AAVIParameter@@H@Z$64 10013225 f   DatabaseImpl.obj
 0001:00012230       __unwindfunclet$?Execute@Database@@UAE_NPADAAVITable@@AAVIParameter@@H@Z$65 10013230 f   DatabaseImpl.obj
 0001:0001223b       __unwindfunclet$?Execute@Database@@UAE_NPADAAVITable@@AAVIParameter@@H@Z$66 1001323b f   DatabaseImpl.obj
 0001:00012246       __unwindfunclet$?Execute@Database@@UAE_NPADAAVITable@@AAVIParameter@@H@Z$67 10013246 f   DatabaseImpl.obj
 0001:00012251       __unwindfunclet$?Execute@Database@@UAE_NPADAAVITable@@AAVIParameter@@H@Z$68 10013251 f   DatabaseImpl.obj
 0001:0001225c       __unwindfunclet$?Execute@Database@@UAE_NPADAAVITable@@AAVIParameter@@H@Z$69 1001325c f   DatabaseImpl.obj
 0001:00012267       __unwindfunclet$?Execute@Database@@UAE_NPADAAVITable@@AAVIParameter@@H@Z$70 10013267 f   DatabaseImpl.obj
 0001:0001226f       __unwindfunclet$?Execute@Database@@UAE_NPADAAVITable@@AAVIParameter@@H@Z$71 1001326f f   DatabaseImpl.obj
 0001:0001227a       __unwindfunclet$?Execute@Database@@UAE_NPADAAVITable@@AAVIParameter@@H@Z$72 1001327a f   DatabaseImpl.obj
 0001:00012285       __unwindfunclet$?Execute@Database@@UAE_NPADAAVITable@@AAVIParameter@@H@Z$73 10013285 f   DatabaseImpl.obj
 0001:00012290       __unwindfunclet$?Execute@Database@@UAE_NPADAAVITable@@AAVIParameter@@H@Z$74 10013290 f   DatabaseImpl.obj
 0001:0001229b       __unwindfunclet$?Execute@Database@@UAE_NPADAAVITable@@AAVIParameter@@H@Z$76 1001329b f   DatabaseImpl.obj
 0001:000122a6       __ehhandler$?Execute@Database@@UAE_NPADAAVITable@@AAVIParameter@@H@Z 100132a6 f   DatabaseImpl.obj
 0001:000122d0       __unwindfunclet$??0Table@@QAE@XZ$0 100132d0 f   DatabaseImpl.obj
 0001:000122d8       __unwindfunclet$??0Table@@QAE@XZ$1 100132d8 f   DatabaseImpl.obj
 0001:000122e3       __ehhandler$??0Table@@QAE@XZ 100132e3 f   DatabaseImpl.obj
 0001:00012300       __ehhandler$?IsEOF@Table@@UAE_NXZ 10013300 f   DatabaseImpl.obj
 0001:00012320       __unwindfunclet$?Get@Table@@UAE_NPADPAV?$basic_string@DU?$char_traits@D@std@@V?$allocator@D@2@@std@@@Z$2 10013320 f   DatabaseImpl.obj
 0001:0001232b       __unwindfunclet$?Get@Table@@UAE_NPADPAV?$basic_string@DU?$char_traits@D@std@@V?$allocator@D@2@@std@@@Z$3 1001332b f   DatabaseImpl.obj
 0001:00012336       __unwindfunclet$?Get@Table@@UAE_NPADPAV?$basic_string@DU?$char_traits@D@std@@V?$allocator@D@2@@std@@@Z$4 10013336 f   DatabaseImpl.obj
 0001:0001233e       __unwindfunclet$?Get@Table@@UAE_NPADPAV?$basic_string@DU?$char_traits@D@std@@V?$allocator@D@2@@std@@@Z$5 1001333e f   DatabaseImpl.obj
 0001:00012346       __unwindfunclet$?Get@Table@@UAE_NPADPAV?$basic_string@DU?$char_traits@D@std@@V?$allocator@D@2@@std@@@Z$6 10013346 f   DatabaseImpl.obj
 0001:00012351       __unwindfunclet$?Get@Table@@UAE_NPADPAV?$basic_string@DU?$char_traits@D@std@@V?$allocator@D@2@@std@@@Z$7 10013351 f   DatabaseImpl.obj
 0001:00012359       __unwindfunclet$?Get@Table@@UAE_NPADPAV?$basic_string@DU?$char_traits@D@std@@V?$allocator@D@2@@std@@@Z$8 10013359 f   DatabaseImpl.obj
 0001:00012361       __ehhandler$?Get@Table@@UAE_NPADPAV?$basic_string@DU?$char_traits@D@std@@V?$allocator@D@2@@std@@@Z 10013361 f   DatabaseImpl.obj
 0001:00012390       __unwindfunclet$?Get@Table@@UAE_NPAD0I@Z$2 10013390 f   DatabaseImpl.obj
 0001:00012398       __unwindfunclet$?Get@Table@@UAE_NPAD0I@Z$3 10013398 f   DatabaseImpl.obj
 0001:000123a0       __unwindfunclet$?Get@Table@@UAE_NPAD0I@Z$4 100133a0 f   DatabaseImpl.obj
 0001:000123a8       __unwindfunclet$?Get@Table@@UAE_NPAD0I@Z$5 100133a8 f   DatabaseImpl.obj
 0001:000123b0       __unwindfunclet$?Get@Table@@UAE_NPAD0I@Z$6 100133b0 f   DatabaseImpl.obj
 0001:000123bb       __unwindfunclet$?Get@Table@@UAE_NPAD0I@Z$7 100133bb f   DatabaseImpl.obj
 0001:000123c3       __ehhandler$?Get@Table@@UAE_NPAD0I@Z 100133c3 f   DatabaseImpl.obj
 0001:000123f0       __unwindfunclet$?Get@Table@@UAE_NPADAAI@Z$2 100133f0 f   DatabaseImpl.obj
 0001:000123f8       __unwindfunclet$?Get@Table@@UAE_NPADAAI@Z$3 100133f8 f   DatabaseImpl.obj
 0001:00012400       __unwindfunclet$?Get@Table@@UAE_NPADAAI@Z$4 10013400 f   DatabaseImpl.obj
 0001:00012408       __unwindfunclet$?Get@Table@@UAE_NPADAAI@Z$5 10013408 f   DatabaseImpl.obj
 0001:00012410       __unwindfunclet$?Get@Table@@UAE_NPADAAI@Z$6 10013410 f   DatabaseImpl.obj
 0001:00012418       __ehhandler$?Get@Table@@UAE_NPADAAI@Z 10013418 f   DatabaseImpl.obj
 0001:00012440       __unwindfunclet$?Get@Table@@UAE_NPADAA_N@Z$2 10013440 f   DatabaseImpl.obj
 0001:00012448       __unwindfunclet$?Get@Table@@UAE_NPADAA_N@Z$3 10013448 f   DatabaseImpl.obj
 0001:00012450       __unwindfunclet$?Get@Table@@UAE_NPADAA_N@Z$4 10013450 f   DatabaseImpl.obj
 0001:00012458       __unwindfunclet$?Get@Table@@UAE_NPADAA_N@Z$5 10013458 f   DatabaseImpl.obj
 0001:00012460       __unwindfunclet$?Get@Table@@UAE_NPADAA_N@Z$6 10013460 f   DatabaseImpl.obj
 0001:00012468       __ehhandler$?Get@Table@@UAE_NPADAA_N@Z 10013468 f   DatabaseImpl.obj
 0001:00012490       __unwindfunclet$?Get@Table@@UAE_NPADAA_K@Z$2 10013490 f   DatabaseImpl.obj
 0001:00012498       __unwindfunclet$?Get@Table@@UAE_NPADAA_K@Z$3 10013498 f   DatabaseImpl.obj
 0001:000124a0       __unwindfunclet$?Get@Table@@UAE_NPADAA_K@Z$4 100134a0 f   DatabaseImpl.obj
 0001:000124a8       __unwindfunclet$?Get@Table@@UAE_NPADAA_K@Z$5 100134a8 f   DatabaseImpl.obj
 0001:000124b0       __unwindfunclet$?Get@Table@@UAE_NPADAA_K@Z$6 100134b0 f   DatabaseImpl.obj
 0001:000124b8       __ehhandler$?Get@Table@@UAE_NPADAA_K@Z 100134b8 f   DatabaseImpl.obj
 0001:000124e0       __unwindfunclet$?GetDateTime@Table@@UAE_NPADAAN@Z$2 100134e0 f   DatabaseImpl.obj
 0001:000124e8       __unwindfunclet$?GetDateTime@Table@@UAE_NPADAAN@Z$3 100134e8 f   DatabaseImpl.obj
 0001:000124f0       __unwindfunclet$?GetDateTime@Table@@UAE_NPADAAN@Z$4 100134f0 f   DatabaseImpl.obj
 0001:000124f8       __unwindfunclet$?GetDateTime@Table@@UAE_NPADAAN@Z$5 100134f8 f   DatabaseImpl.obj
 0001:00012500       __unwindfunclet$?GetDateTime@Table@@UAE_NPADAAN@Z$6 10013500 f   DatabaseImpl.obj
 0001:0001250b       __ehhandler$?GetDateTime@Table@@UAE_NPADAAN@Z 1001350b f   DatabaseImpl.obj
 0001:00012530       __unwindfunclet$?Get@Table@@UAE_NPADAAH@Z$2 10013530 f   DatabaseImpl.obj
 0001:00012538       __unwindfunclet$?Get@Table@@UAE_NPADAAH@Z$3 10013538 f   DatabaseImpl.obj
 0001:00012540       __unwindfunclet$?Get@Table@@UAE_NPADAAH@Z$4 10013540 f   DatabaseImpl.obj
 0001:00012548       __unwindfunclet$?Get@Table@@UAE_NPADAAH@Z$5 10013548 f   DatabaseImpl.obj
 0001:00012550       __unwindfunclet$?Get@Table@@UAE_NPADAAH@Z$6 10013550 f   DatabaseImpl.obj
 0001:00012558       __ehhandler$?Get@Table@@UAE_NPADAAH@Z 10013558 f   DatabaseImpl.obj
 0001:00012580       __unwindfunclet$?Get@Table@@UAE_NPADAAM@Z$2 10013580 f   DatabaseImpl.obj
 0001:00012588       __unwindfunclet$?Get@Table@@UAE_NPADAAM@Z$3 10013588 f   DatabaseImpl.obj
 0001:00012590       __unwindfunclet$?Get@Table@@UAE_NPADAAM@Z$4 10013590 f   DatabaseImpl.obj
 0001:00012598       __unwindfunclet$?Get@Table@@UAE_NPADAAM@Z$5 10013598 f   DatabaseImpl.obj
 0001:000125a0       __unwindfunclet$?Get@Table@@UAE_NPADAAM@Z$6 100135a0 f   DatabaseImpl.obj
 0001:000125a8       __ehhandler$?Get@Table@@UAE_NPADAAM@Z 100135a8 f   DatabaseImpl.obj
 0001:000125d0       __unwindfunclet$?Get@Table@@UAE_NPADAAN@Z$2 100135d0 f   DatabaseImpl.obj
 0001:000125d8       __unwindfunclet$?Get@Table@@UAE_NPADAAN@Z$3 100135d8 f   DatabaseImpl.obj
 0001:000125e0       __unwindfunclet$?Get@Table@@UAE_NPADAAN@Z$4 100135e0 f   DatabaseImpl.obj
 0001:000125e8       __unwindfunclet$?Get@Table@@UAE_NPADAAN@Z$5 100135e8 f   DatabaseImpl.obj
 0001:000125f0       __unwindfunclet$?Get@Table@@UAE_NPADAAN@Z$6 100135f0 f   DatabaseImpl.obj
 0001:000125fb       __ehhandler$?Get@Table@@UAE_NPADAAN@Z 100135fb f   DatabaseImpl.obj
 0001:00012620       __unwindfunclet$?Get@Table@@UAE_NPADAAK@Z$2 10013620 f   DatabaseImpl.obj
 0001:00012628       __unwindfunclet$?Get@Table@@UAE_NPADAAK@Z$3 10013628 f   DatabaseImpl.obj
 0001:00012630       __unwindfunclet$?Get@Table@@UAE_NPADAAK@Z$4 10013630 f   DatabaseImpl.obj
 0001:00012638       __unwindfunclet$?Get@Table@@UAE_NPADAAK@Z$5 10013638 f   DatabaseImpl.obj
 0001:00012640       __unwindfunclet$?Get@Table@@UAE_NPADAAK@Z$6 10013640 f   DatabaseImpl.obj
 0001:00012648       __ehhandler$?Get@Table@@UAE_NPADAAK@Z 10013648 f   DatabaseImpl.obj
 0001:00012670       __unwindfunclet$?Get@Table@@UAE_NPADAAD@Z$2 10013670 f   DatabaseImpl.obj
 0001:00012678       __unwindfunclet$?Get@Table@@UAE_NPADAAD@Z$3 10013678 f   DatabaseImpl.obj
 0001:00012680       __unwindfunclet$?Get@Table@@UAE_NPADAAD@Z$4 10013680 f   DatabaseImpl.obj
 0001:00012688       __unwindfunclet$?Get@Table@@UAE_NPADAAD@Z$5 10013688 f   DatabaseImpl.obj
 0001:00012690       __unwindfunclet$?Get@Table@@UAE_NPADAAD@Z$6 10013690 f   DatabaseImpl.obj
 0001:00012698       __ehhandler$?Get@Table@@UAE_NPADAAD@Z 10013698 f   DatabaseImpl.obj
 0001:000126c0       __ehhandler$?MoveNext@Table@@UAE_NXZ 100136c0 f   DatabaseImpl.obj
 0001:000126e0       __ehhandler$?MovePrev@Table@@UAE_NXZ 100136e0 f   DatabaseImpl.obj
 0001:00012700       __ehhandler$?MoveFirst@Table@@UAE_NXZ 10013700 f   DatabaseImpl.obj
 0001:00012720       __ehhandler$?MoveLast@Table@@UAE_NXZ 10013720 f   DatabaseImpl.obj
 0001:00012740       __ehhandler$?MoveNextRecord@Table@@UAE_NXZ 10013740 f   DatabaseImpl.obj
 0001:00012760       __ehhandler$??1Parameter@@UAE@XZ 10013760 f   DatabaseImpl.obj
 0001:00012780       __unwindfunclet$?CreateDatabase@@YAPAVIDatabase@@XZ$0 10013780 f   DatabaseImpl.obj
 0001:00012792       __ehhandler$?CreateDatabase@@YAPAVIDatabase@@XZ 10013792 f   DatabaseImpl.obj
 0001:000127b0       __unwindfunclet$?CreateTable@@YAPAVITable@@XZ$0 100137b0 f   DatabaseImpl.obj
 0001:000127c2       __ehhandler$?CreateTable@@YAPAVITable@@XZ 100137c2 f   DatabaseImpl.obj
 0001:000127e0       __unwindfunclet$?CreateParameter@@YAPAVIParameter@@XZ$0 100137e0 f   DatabaseImpl.obj
 0001:000127ef       __ehhandler$?CreateParameter@@YAPAVIParameter@@XZ 100137ef f   DatabaseImpl.obj
 0001:00012810       __ehhandler$??0?$basic_string@DU?$char_traits@D@std@@V?$allocator@D@2@@std@@QAE@$$QAV01@@Z 10013810 f   DatabaseImpl.obj
 0001:00012810       __ehhandler$??1?$_Tree_comp_alloc@V?$_Tmap_traits@V?$basic_string@DU?$char_traits@D@std@@V?$allocator@D@2@@std@@P6AXPADPAH@ZU?$less@V?$basic_string@DU?$char_traits@D@std@@V?$allocator@D@2@@std@@@2@V?$allocator@U?$pair@$$CBV?$basic_string@DU?$char_traits@D@std@@V?$allocator@D@2@@std@@P6AXPADPAH@Z@std@@@2@$0A@@std@@@std@@QAE@XZ 10013810 f   DatabaseImpl.obj
 0001:00012810       __ehhandler$?begin@?$_Tree@V?$_Tmap_traits@V?$basic_string@DU?$char_traits@D@std@@V?$allocator@D@2@@std@@P6AXPADPAH@ZU?$less@V?$basic_string@DU?$char_traits@D@std@@V?$allocator@D@2@@std@@@2@V?$allocator@U?$pair@$$CBV?$basic_string@DU?$char_traits@D@std@@V?$allocator@D@2@@std@@P6AXPADPAH@Z@std@@@2@$0A@@std@@@std@@QAE?AV?$_Tree_iterator@V?$_Tree_val@U?$_Tree_simple_types@U?$pair@$$CBV?$basic_string@DU?$char_traits@D@std@@V?$allocator@D@2@@std@@P6AXPADPAH@Z@std@@@std@@@std@@@2@XZ 10013810 f   DatabaseImpl.obj
 0001:00012810       __ehhandler$??0?$basic_string@DU?$char_traits@D@std@@V?$allocator@D@2@@std@@QAE@XZ 10013810 f   DatabaseImpl.obj
 0001:00012810       __ehhandler$?end@?$_Tree@V?$_Tmap_traits@V?$basic_string@DU?$char_traits@D@std@@V?$allocator@D@2@@std@@P6AXPADPAH@ZU?$less@V?$basic_string@DU?$char_traits@D@std@@V?$allocator@D@2@@std@@@2@V?$allocator@U?$pair@$$CBV?$basic_string@DU?$char_traits@D@std@@V?$allocator@D@2@@std@@P6AXPADPAH@Z@std@@@2@$0A@@std@@@std@@QAE?AV?$_Tree_iterator@V?$_Tree_val@U?$_Tree_simple_types@U?$pair@$$CBV?$basic_string@DU?$char_traits@D@std@@V?$allocator@D@2@@std@@P6AXPADPAH@Z@std@@@std@@@std@@@2@XZ 10013810 f   DatabaseImpl.obj
 0001:00012810       __ehhandler$??1?$_Tree@V?$_Tmap_traits@V?$basic_string@DU?$char_traits@D@std@@V?$allocator@D@2@@std@@P6AXPADPAH@ZU?$less@V?$basic_string@DU?$char_traits@D@std@@V?$allocator@D@2@@std@@@2@V?$allocator@U?$pair@$$CBV?$basic_string@DU?$char_traits@D@std@@V?$allocator@D@2@@std@@P6AXPADPAH@Z@std@@@2@$0A@@std@@@std@@QAE@XZ 10013810 f   DatabaseImpl.obj
 0001:00012810       __ehhandler$??1?$basic_string@DU?$char_traits@D@std@@V?$allocator@D@2@@std@@QAE@XZ 10013810 f   DatabaseImpl.obj
 0001:00012810       __ehhandler$?end@?$vector@UPARAM@Parameter@@V?$allocator@UPARAM@Parameter@@@std@@@std@@QAE?AV?$_Vector_iterator@V?$_Vector_val@U?$_Simple_types@UPARAM@Parameter@@@std@@@std@@@2@XZ 10013810 f   DatabaseImpl.obj
 0001:00012810       __ehhandler$?begin@?$vector@UPARAM@Parameter@@V?$allocator@UPARAM@Parameter@@@std@@@std@@QAE?AV?$_Vector_iterator@V?$_Vector_val@U?$_Simple_types@UPARAM@Parameter@@@std@@@std@@@2@XZ 10013810 f   DatabaseImpl.obj
 0001:00012810       __ehhandler$??1?$vector@UPARAM@Parameter@@V?$allocator@UPARAM@Parameter@@@std@@@std@@QAE@XZ 10013810 f   DatabaseImpl.obj
 0001:00012810       __ehhandler$??0?$vector@UPARAM@Parameter@@V?$allocator@UPARAM@Parameter@@@std@@@std@@QAE@XZ 10013810 f   DatabaseImpl.obj
 0001:00012810       __ehhandler$?compare@?$basic_string@DU?$char_traits@D@std@@V?$allocator@D@2@@std@@QBEHABV12@@Z 10013810 f   DatabaseImpl.obj
 0001:00012810       __ehhandler$?c_str@?$basic_string@DU?$char_traits@D@std@@V?$allocator@D@2@@std@@QBEPBDXZ 10013810 f   DatabaseImpl.obj
 0001:00012810       __ehhandler$?clear@?$basic_string@DU?$char_traits@D@std@@V?$allocator@D@2@@std@@QAEXXZ 10013810 f   DatabaseImpl.obj
 0001:00012830       __ehhandler$?end@?$basic_string@DU?$char_traits@D@std@@V?$allocator@D@2@@std@@QAE?AV?$_String_iterator@V?$_String_val@U?$_Simple_types@D@std@@@std@@@2@XZ 10013830 f   DatabaseImpl.obj
 0001:00012830       __ehhandler$?clear@?$vector@UPARAM@Parameter@@V?$allocator@UPARAM@Parameter@@@std@@@std@@QAEXXZ 10013830 f   DatabaseImpl.obj
 0001:00012830       __ehhandler$?clear@?$_Tree@V?$_Tmap_traits@V?$basic_string@DU?$char_traits@D@std@@V?$allocator@D@2@@std@@P6AXPADPAH@ZU?$less@V?$basic_string@DU?$char_traits@D@std@@V?$allocator@D@2@@std@@@2@V?$allocator@U?$pair@$$CBV?$basic_string@DU?$char_traits@D@std@@V?$allocator@D@2@@std@@P6AXPADPAH@Z@std@@@2@$0A@@std@@@std@@QAEXXZ 10013830 f   DatabaseImpl.obj
 0001:00012830       __ehhandler$?begin@?$basic_string@DU?$char_traits@D@std@@V?$allocator@D@2@@std@@QAE?AV?$_String_iterator@V?$_String_val@U?$_Simple_types@D@std@@@std@@@2@XZ 10013830 f   DatabaseImpl.obj
 0001:00012850       __unwindfunclet$??0?$basic_string@DU?$char_traits@D@std@@V?$allocator@D@2@@std@@QAE@PBD@Z$0 10013850 f   DatabaseImpl.obj
 0001:00012858       __ehhandler$??0?$basic_string@DU?$char_traits@D@std@@V?$allocator@D@2@@std@@QAE@PBD@Z 10013858 f   DatabaseImpl.obj
 0001:00012880       __ehhandler$?_Reallocate@?$vector@UPARAM@Parameter@@V?$allocator@UPARAM@Parameter@@@std@@@std@@IAEXI@Z 10013880 f   DatabaseImpl.obj
 0001:000128a0       __ehhandler$?_Copy@?$basic_string@DU?$char_traits@D@std@@V?$allocator@D@2@@std@@QAEXII@Z 100138a0 f   DatabaseImpl.obj
 0001:000128c0       __ehhandler$?_Buyheadnode@?$_Tree_comp_alloc@V?$_Tmap_traits@V?$basic_string@DU?$char_traits@D@std@@V?$allocator@D@2@@std@@P6AXPADPAH@ZU?$less@V?$basic_string@DU?$char_traits@D@std@@V?$allocator@D@2@@std@@@2@V?$allocator@U?$pair@$$CBV?$basic_string@DU?$char_traits@D@std@@V?$allocator@D@2@@std@@P6AXPADPAH@Z@std@@@2@$0A@@std@@@std@@QAEPAU?$_Tree_node@U?$pair@$$CBV?$basic_string@DU?$char_traits@D@std@@V?$allocator@D@2@@std@@P6AXPADPAH@Z@std@@PAX@2@XZ 100138c0 f   DatabaseImpl.obj
 0001:000128e0       __ehhandler$??$forward_as_tuple@V?$basic_string@DU?$char_traits@D@std@@V?$allocator@D@2@@std@@@std@@YA?AV?$tuple@$$QAV?$basic_string@DU?$char_traits@D@std@@V?$allocator@D@2@@std@@@0@$$QAV?$basic_string@DU?$char_traits@D@std@@V?$allocator@D@2@@0@@Z 100138e0 f   DatabaseImpl.obj
 0001:00012900       __ehhandler$??$_Buynode@ABUpiecewise_construct_t@std@@V?$tuple@$$QAV?$basic_string@DU?$char_traits@D@std@@V?$allocator@D@2@@std@@@2@V?$tuple@$$V@2@@?$_Tree_comp_alloc@V?$_Tmap_traits@V?$basic_string@DU?$char_traits@D@std@@V?$allocator@D@2@@std@@P6AXPADPAH@ZU?$less@V?$basic_string@DU?$char_traits@D@std@@V?$allocator@D@2@@std@@@2@V?$allocator@U?$pair@$$CBV?$basic_string@DU?$char_traits@D@std@@V?$allocator@D@2@@std@@P6AXPADPAH@Z@std@@@2@$0A@@std@@@std@@QAEPAU?$_Tree_node@U?$pair@$$CBV?$basic_string@DU?$char_traits@D@std@@V?$allocator@D@2@@std@@P6AXPADPAH@Z@std@@PAX@1@ABUpiecewise_construct_t@1@$$QAV?$tuple@$$QAV?$basic_string@DU?$char_traits@D@std@@V?$allocator@D@2@@std@@@1@$$QAV?$tuple@$$V@1@@Z 10013900 f   DatabaseImpl.obj
 0001:00012920       __ehhandler$??$_Insert_hint@AAU?$pair@$$CBV?$basic_string@DU?$char_traits@D@std@@V?$allocator@D@2@@std@@P6AXPADPAH@Z@std@@PAU?$_Tree_node@U?$pair@$$CBV?$basic_string@DU?$char_traits@D@std@@V?$allocator@D@2@@std@@P6AXPADPAH@Z@std@@PAX@2@@?$_Tree@V?$_Tmap_traits@V?$basic_string@DU?$char_traits@D@std@@V?$allocator@D@2@@std@@P6AXPADPAH@ZU?$less@V?$basic_string@DU?$char_traits@D@std@@V?$allocator@D@2@@std@@@2@V?$allocator@U?$pair@$$CBV?$basic_string@DU?$char_traits@D@std@@V?$allocator@D@2@@std@@P6AXPADPAH@Z@std@@@2@$0A@@std@@@std@@IAE?AV?$_Tree_iterator@V?$_Tree_val@U?$_Tree_simple_types@U?$pair@$$CBV?$basic_string@DU?$char_traits@D@std@@V?$allocator@D@2@@std@@P6AXPADPAH@Z@std@@@std@@@std@@@1@V?$_Tree_const_iterator@V?$_Tree_val@U?$_Tree_simple_types@U?$pair@$$CBV?$basic_string@DU?$char_traits@D@std@@V?$allocator@D@2@@std@@P6AXPADPAH@Z@std@@@std@@@std@@@1@AAU?$pair@$$CBV?$basic_string@DU?$char_traits@D@std@@V?$allocator@D@2@@std@@P6AXPADPAH@Z@1@PAU?$_Tree_node@U?$pair@$$CBV?$basic_string@DU?$char_traits@D@std@@V?$allocator@D@2@@std@@P6AXPADPAH@Z@std@@PAX@1@@Z 10013920 f   DatabaseImpl.obj
 0001:00012940       __ehhandler$?_Buynode0@?$_Tree_comp_alloc@V?$_Tmap_traits@V?$basic_string@DU?$char_traits@D@std@@V?$allocator@D@2@@std@@P6AXPADPAH@ZU?$less@V?$basic_string@DU?$char_traits@D@std@@V?$allocator@D@2@@std@@@2@V?$allocator@U?$pair@$$CBV?$basic_string@DU?$char_traits@D@std@@V?$allocator@D@2@@std@@P6AXPADPAH@Z@std@@@2@$0A@@std@@@std@@QAEPAU?$_Tree_node@U?$pair@$$CBV?$basic_string@DU?$char_traits@D@std@@V?$allocator@D@2@@std@@P6AXPADPAH@Z@std@@PAX@2@XZ 10013940 f   DatabaseImpl.obj
 0001:00012960       __ehhandler$??$_Insert_nohint@AAU?$pair@$$CBV?$basic_string@DU?$char_traits@D@std@@V?$allocator@D@2@@std@@P6AXPADPAH@Z@std@@PAU?$_Tree_node@U?$pair@$$CBV?$basic_string@DU?$char_traits@D@std@@V?$allocator@D@2@@std@@P6AXPADPAH@Z@std@@PAX@2@@?$_Tree@V?$_Tmap_traits@V?$basic_string@DU?$char_traits@D@std@@V?$allocator@D@2@@std@@P6AXPADPAH@ZU?$less@V?$basic_string@DU?$char_traits@D@std@@V?$allocator@D@2@@std@@@2@V?$allocator@U?$pair@$$CBV?$basic_string@DU?$char_traits@D@std@@V?$allocator@D@2@@std@@P6AXPADPAH@Z@std@@@2@$0A@@std@@@std@@IAE?AU?$pair@V?$_Tree_iterator@V?$_Tree_val@U?$_Tree_simple_types@U?$pair@$$CBV?$basic_string@DU?$char_traits@D@std@@V?$allocator@D@2@@std@@P6AXPADPAH@Z@std@@@std@@@std@@@std@@_N@1@_NAAU?$pair@$$CBV?$basic_string@DU?$char_traits@D@std@@V?$allocator@D@2@@std@@P6AXPADPAH@Z@1@PAU?$_Tree_node@U?$pair@$$CBV?$basic_string@DU?$char_traits@D@std@@V?$allocator@D@2@@std@@P6AXPADPAH@Z@std@@PAX@1@@Z 10013960 f   DatabaseImpl.obj
 0001:00012980       __unwindfunclet$??$construct@U?$pair@$$CBV?$basic_string@DU?$char_traits@D@std@@V?$allocator@D@2@@std@@P6AXPADPAH@Z@std@@ABUpiecewise_construct_t@2@V?$tuple@$$QAV?$basic_string@DU?$char_traits@D@std@@V?$allocator@D@2@@std@@@2@V?$tuple@$$V@2@@?$allocator@U?$_Tree_node@U?$pair@$$CBV?$basic_string@DU?$char_traits@D@std@@V?$allocator@D@2@@std@@P6AXPADPAH@Z@std@@PAX@std@@@std@@QAEXPAU?$pair@$$CBV?$basic_string@DU?$char_traits@D@std@@V?$allocator@D@2@@std@@P6AXPADPAH@Z@1@ABUpiecewise_construct_t@1@$$QAV?$tuple@$$QAV?$basic_string@DU?$char_traits@D@std@@V?$allocator@D@2@@std@@@1@$$QAV?$tuple@$$V@1@@Z$0 10013980 f   DatabaseImpl.obj
 0001:00012991       __ehhandler$??$construct@U?$pair@$$CBV?$basic_string@DU?$char_traits@D@std@@V?$allocator@D@2@@std@@P6AXPADPAH@Z@std@@ABUpiecewise_construct_t@2@V?$tuple@$$QAV?$basic_string@DU?$char_traits@D@std@@V?$allocator@D@2@@std@@@2@V?$tuple@$$V@2@@?$allocator@U?$_Tree_node@U?$pair@$$CBV?$basic_string@DU?$char_traits@D@std@@V?$allocator@D@2@@std@@P6AXPADPAH@Z@std@@PAX@std@@@std@@QAEXPAU?$pair@$$CBV?$basic_string@DU?$char_traits@D@std@@V?$allocator@D@2@@std@@P6AXPADPAH@Z@1@ABUpiecewise_construct_t@1@$$QAV?$tuple@$$QAV?$basic_string@DU?$char_traits@D@std@@V?$allocator@D@2@@std@@@1@$$QAV?$tuple@$$V@1@@Z 10013991 f   DatabaseImpl.obj
 0001:000129b0       __ehhandler$?ConvertBSTRToString@_com_util@@YGPADPA_W@Z 100139b0 f   comsuppw:comutil.obj
 0001:000129d0       ??__FvarLiReturn@@YAXXZ    100139d0 f   DatabaseImpl.obj
 0001:000129e0       ??__FvtMissing@@YAXXZ      100139e0 f   comsuppw:comutil.obj
 0001:000129ec       ??__F_AtlBaseModule@ATL@@YAXXZ 100139ec f   atls:atlbase.obj
 0002:00000168       ?_AtlBaseModule$initializer$@ATL@@3P6AXXZA 10014168     atls:atlbase.obj
 0002:0000016c       ?vtMissing$initializer$@@3P6AXXZA 1001416c     comsuppw:comutil.obj
 0002:00000170       ?varLiReturn$initializer$@@3P6AXXZA 10014170     DatabaseImpl.obj
 0002:0000017c       ?__scrt_initialize_tss_var@@3P6AHXZA 1001417c     MSVCRT:thread_safe_statics.obj
 0002:00000230       _GS_ExceptionPointers      10014230     MSVCRT:gs_report.obj
 0002:00000360       $SG4294966500              10014360     DatabaseImpl.obj
 0002:00000370       $SG4294966499              10014370     DatabaseImpl.obj
 0002:0000037c       $SG4294966498              1001437c     DatabaseImpl.obj
 0002:00000387       $SG4294966327              10014387     DatabaseImpl.obj
 0002:00000388       $SG4294966497              10014388     DatabaseImpl.obj
 0002:0000039a       ?piecewise_construct@std@@3Upiecewise_construct_t@1@B 1001439a     DatabaseImpl.obj
 0002:0000039c       $SG4294966496              1001439c     DatabaseImpl.obj
 0002:000003b0       $SG4294966495              100143b0     DatabaseImpl.obj
 0002:000003c4       $SG4294966494              100143c4     DatabaseImpl.obj
 0002:000003d8       $SG4294966493              100143d8     DatabaseImpl.obj
 0002:000003e8       $SG4294966492              100143e8     DatabaseImpl.obj
 0002:000003fc       $SG4294966491              100143fc     DatabaseImpl.obj
 0002:00000410       $SG4294966490              10014410     DatabaseImpl.obj
 0002:00000420       $SG4294966489              10014420     DatabaseImpl.obj
 0002:00000430       $SG4294966488              10014430     DatabaseImpl.obj
 0002:00000444       $SG4294966487              10014444     DatabaseImpl.obj
 0002:00000458       $SG4294966486              10014458     DatabaseImpl.obj
 0002:00000468       $SG4294966485              10014468     DatabaseImpl.obj
 0002:00000478       $SG4294966484              10014478     DatabaseImpl.obj
 0002:00000488       $SG4294966483              10014488     DatabaseImpl.obj
 0002:00000498       $SG4294966482              10014498     DatabaseImpl.obj
 0002:000004a4       $SG4294966481              100144a4     DatabaseImpl.obj
 0002:000004b4       $SG4294966480              100144b4     DatabaseImpl.obj
 0002:000004c8       $SG4294966479              100144c8     DatabaseImpl.obj
 0002:000004d8       $SG4294966478              100144d8     DatabaseImpl.obj
 0002:000004e8       $SG4294966433              100144e8     DatabaseImpl.obj
 0002:000004ec       $SG4294966432              100144ec     DatabaseImpl.obj
 0002:000004f0       $SG4294966431              100144f0     DatabaseImpl.obj
 0002:000004f4       $SG4294966430              100144f4     DatabaseImpl.obj
 0002:000004f8       $SG4294966429              100144f8     DatabaseImpl.obj
 0002:000004fc       $SG4294966428              100144fc     DatabaseImpl.obj
 0002:00000508       $SG4294966427              10014508     DatabaseImpl.obj
 0002:00000514       $SG4294966426              10014514     DatabaseImpl.obj
 0002:0000051c       $SG4294966425              1001451c     DatabaseImpl.obj
 0002:00000524       $SG4294966424              10014524     DatabaseImpl.obj
 0002:0000052c       $SG4294966423              1001452c     DatabaseImpl.obj
 0002:00000544       $SG4294966422              10014544     DatabaseImpl.obj
 0002:00000550       $SG4294966421              10014550     DatabaseImpl.obj
 0002:0000055c       $SG4294966420              1001455c     DatabaseImpl.obj
 0002:00000568       $SG4294966419              10014568     DatabaseImpl.obj
 0002:00000570       $SG4294966418              10014570     DatabaseImpl.obj
 0002:00000574       $SG4294966417              10014574     DatabaseImpl.obj
 0002:00000580       $SG4294966416              10014580     DatabaseImpl.obj
 0002:00000588       $SG4294966415              10014588     DatabaseImpl.obj
 0002:00000594       $SG4294966414              10014594     DatabaseImpl.obj
 0002:0000059c       $SG4294966361              1001459c     DatabaseImpl.obj
 0002:000005b0       $SG4294966360              100145b0     DatabaseImpl.obj
 0002:000005c8       $SG4294966326              100145c8     DatabaseImpl.obj
 0002:000005cc       $SG4294966325              100145cc     DatabaseImpl.obj
 0002:000005d4       $SG4294966324              100145d4     DatabaseImpl.obj
 0002:000005dc       $SG4294966323              100145dc     DatabaseImpl.obj
 0002:000005ec       $SG4294966322              100145ec     DatabaseImpl.obj
 0002:00000604       $SG4294966321              10014604     DatabaseImpl.obj
 0002:0000061c       $SG4294966320              1001461c     DatabaseImpl.obj
 0002:00000634       $SG4294966319              10014634     DatabaseImpl.obj
 0002:00000644       $SG4294966318              10014644     DatabaseImpl.obj
 0002:0000065c       $SG4294966317              1001465c     DatabaseImpl.obj
 0002:00000670       $SG4294966316              10014670     DatabaseImpl.obj
 0002:00000688       $SG4294966315              10014688     DatabaseImpl.obj
 0002:00000698       $SG4294966314              10014698     DatabaseImpl.obj
 0002:000006a8       $SG4294966313              100146a8     DatabaseImpl.obj
 0002:000006b8       $SG4294966312              100146b8     DatabaseImpl.obj
 0002:000006c8       $SG4294966311              100146c8     DatabaseImpl.obj
 0002:000006d8       $SG4294966310              100146d8     DatabaseImpl.obj
 0002:000006f0       $SG4294966309              100146f0     DatabaseImpl.obj
 0002:00000708       $SG4294966308              10014708     DatabaseImpl.obj
 0002:00000720       $SG4294966307              10014720     DatabaseImpl.obj
 0002:00000738       $SG4294966306              10014738     DatabaseImpl.obj
 0002:00000750       $SG4294966305              10014750     DatabaseImpl.obj
 0002:00000768       $SG4294966304              10014768     DatabaseImpl.obj
 0002:00000780       $SG4294966303              10014780     DatabaseImpl.obj
 0002:00000798       $SG4294966302              10014798     DatabaseImpl.obj
 0002:000007b0       $SG4294966301              100147b0     DatabaseImpl.obj
 0002:000007c8       $SG4294966300              100147c8     DatabaseImpl.obj
 0002:000007e4       $SG4294966299              100147e4     DatabaseImpl.obj
 0002:00000800       $SG4294966298              10014800     DatabaseImpl.obj
 0002:0000081c       $SG4294966297              1001481c     DatabaseImpl.obj
 0002:00000838       $SG4294966296              10014838     DatabaseImpl.obj
 0002:00000854       $SG4294966295              10014854     DatabaseImpl.obj
 0002:00000864       $SG4294966294              10014864     DatabaseImpl.obj
 0002:00000874       $SG4294966293              10014874     DatabaseImpl.obj
 0002:00000884       $SG4294966292              10014884     DatabaseImpl.obj
 0002:00000894       $SG4294966291              10014894     DatabaseImpl.obj
 0002:000008a4       $SG4294966290              100148a4     DatabaseImpl.obj
 0002:000008b8       $SG4294966289              100148b8     DatabaseImpl.obj
 0002:000008cc       $SG4294966288              100148cc     DatabaseImpl.obj
 0002:000008e0       $SG4294966287              100148e0     DatabaseImpl.obj
 0002:000008f4       $SG4294966286              100148f4     DatabaseImpl.obj
 0002:00000908       $SG4294966285              10014908     DatabaseImpl.obj
 0002:00000918       $SG4294966284              10014918     DatabaseImpl.obj
 0002:00000928       $SG4294966283              10014928     DatabaseImpl.obj
 0002:00000938       $SG4294966282              10014938     DatabaseImpl.obj
 0002:00000948       $SG4294966281              10014948     DatabaseImpl.obj
 0002:00000958       $SG4294966280              10014958     DatabaseImpl.obj
 0002:0000096c       $SG4294966279              1001496c     DatabaseImpl.obj
 0002:00000980       $SG4294966278              10014980     DatabaseImpl.obj
 0002:00000994       $SG4294966277              10014994     DatabaseImpl.obj
 0002:000009a8       $SG4294966276              100149a8     DatabaseImpl.obj
 0002:000009bc       $SG4294966275              100149bc     DatabaseImpl.obj
 0002:000009cc       $SG4294966274              100149cc     DatabaseImpl.obj
 0002:000009dc       $SG4294966273              100149dc     DatabaseImpl.obj
 0002:000009ec       $SG4294966272              100149ec     DatabaseImpl.obj
 0002:000009fc       $SG4294966271              100149fc     DatabaseImpl.obj
 0002:00000a0c       $SG4294966270              10014a0c     DatabaseImpl.obj
 0002:00000a20       $SG4294966269              10014a20     DatabaseImpl.obj
 0002:00000a34       $SG4294966268              10014a34     DatabaseImpl.obj
 0002:00000a48       $SG4294966267              10014a48     DatabaseImpl.obj
 0002:00000a5c       $SG4294966266              10014a5c     DatabaseImpl.obj
 0002:00000a70       $SG4294966265              10014a70     DatabaseImpl.obj
 0002:00000a88       $SG4294966264              10014a88     DatabaseImpl.obj
 0002:00000aa0       $SG4294966263              10014aa0     DatabaseImpl.obj
 0002:00000ab8       $SG4294966262              10014ab8     DatabaseImpl.obj
 0002:00000ad0       $SG4294966261              10014ad0     DatabaseImpl.obj
 0002:00000ae8       $SG4294966260              10014ae8     DatabaseImpl.obj
 0002:00000b00       $SG4294966259              10014b00     DatabaseImpl.obj
 0002:00000b18       $SG4294966258              10014b18     DatabaseImpl.obj
 0002:00000b30       $SG4294966257              10014b30     DatabaseImpl.obj
 0002:00000b48       $SG4294966256              10014b48     DatabaseImpl.obj
 0002:00000b60       $SG4294966255              10014b60     DatabaseImpl.obj
 0002:00000b7c       $SG4294966254              10014b7c     DatabaseImpl.obj
 0002:00000b98       $SG4294966253              10014b98     DatabaseImpl.obj
 0002:00000bb4       $SG4294966252              10014bb4     DatabaseImpl.obj
 0002:00000bd0       $SG4294966251              10014bd0     DatabaseImpl.obj
 0002:00000bec       $SG4294966250              10014bec     DatabaseImpl.obj
 0002:00000c04       $SG4294966249              10014c04     DatabaseImpl.obj
 0002:00000c1c       $SG4294966248              10014c1c     DatabaseImpl.obj
 0002:00000c34       $SG4294966247              10014c34     DatabaseImpl.obj
 0002:00000c4c       $SG4294966246              10014c4c     DatabaseImpl.obj
 0002:00000c64       $SG4294966245              10014c64     DatabaseImpl.obj
 0002:00000c80       $SG4294966244              10014c80     DatabaseImpl.obj
 0002:00000c9c       $SG4294966243              10014c9c     DatabaseImpl.obj
 0002:00000cb8       $SG4294966242              10014cb8     DatabaseImpl.obj
 0002:00000cd4       $SG4294966241              10014cd4     DatabaseImpl.obj
 0002:00000cf0       $SG4294966240              10014cf0     DatabaseImpl.obj
 0002:00000d00       $SG4294966239              10014d00     DatabaseImpl.obj
 0002:00000d10       $SG4294966238              10014d10     DatabaseImpl.obj
 0002:00000d20       $SG4294966237              10014d20     DatabaseImpl.obj
 0002:00000d30       $SG4294966236              10014d30     DatabaseImpl.obj
 0002:00000d40       $SG4294966235              10014d40     DatabaseImpl.obj
 0002:00000d54       $SG4294966234              10014d54     DatabaseImpl.obj
 0002:00000d68       $SG4294966233              10014d68     DatabaseImpl.obj
 0002:00000d7c       $SG4294966232              10014d7c     DatabaseImpl.obj
 0002:00000d90       $SG4294966231              10014d90     DatabaseImpl.obj
 0002:00000da4       $SG4294966230              10014da4     DatabaseImpl.obj
 0002:00000db8       $SG4294966229              10014db8     DatabaseImpl.obj
 0002:00000dcc       $SG4294966228              10014dcc     DatabaseImpl.obj
 0002:00000de0       $SG4294966227              10014de0     DatabaseImpl.obj
 0002:00000df4       $SG4294966226              10014df4     DatabaseImpl.obj
 0002:00000e08       $SG4294966225              10014e08     DatabaseImpl.obj
 0002:00000e1c       $SG4294966224              10014e1c     DatabaseImpl.obj
 0002:00000e30       $SG4294966223              10014e30     DatabaseImpl.obj
 0002:00000e44       $SG4294966222              10014e44     DatabaseImpl.obj
 0002:00000e58       $SG4294966221              10014e58     DatabaseImpl.obj
 0002:00000e6c       $SG4294966220              10014e6c     DatabaseImpl.obj
 0002:00000e80       $SG4294966219              10014e80     DatabaseImpl.obj
 0002:00000e94       $SG4294966218              10014e94     DatabaseImpl.obj
 0002:00000ea8       $SG4294966217              10014ea8     DatabaseImpl.obj
 0002:00000ebc       $SG4294966216              10014ebc     DatabaseImpl.obj
 0002:00000ed0       $SG4294966215              10014ed0     DatabaseImpl.obj
 0002:00000ee0       $SG4294966214              10014ee0     DatabaseImpl.obj
 0002:00000ee4       $SG4294966213              10014ee4     DatabaseImpl.obj
 0002:00000f04       $SG4294966212              10014f04     DatabaseImpl.obj
 0002:00000f08       $SG4294966211              10014f08     DatabaseImpl.obj
 0002:00000f28       $SG4294966210              10014f28     DatabaseImpl.obj
 0002:00000f6c       $SG4294966206              10014f6c     DatabaseImpl.obj
 0002:00000f9c       $SG4294966204              10014f9c     DatabaseImpl.obj
 0002:00000fa8       $SG4294966209              10014fa8     DatabaseImpl.obj
 0002:00000fec       $SG4294966208              10014fec     DatabaseImpl.obj
 0002:0000102c       $SG4294966207              1001502c     DatabaseImpl.obj
 0002:0000106c       $SG4294966205              1001506c     DatabaseImpl.obj
 0002:00001074       $SG4294966203              10015074     DatabaseImpl.obj
 0002:00001090       $SG4294966202              10015090     DatabaseImpl.obj
 0002:000010a0       $SG4294966201              100150a0     DatabaseImpl.obj
 0002:000010b4       $SG4294966200              100150b4     DatabaseImpl.obj
 0002:000010c8       $SG4294966199              100150c8     DatabaseImpl.obj
 0002:00001108       $SG4294966198              10015108     DatabaseImpl.obj
 0002:00001110       $SG4294966197              10015110     DatabaseImpl.obj
 0002:00001118       $SG4294966196              10015118     DatabaseImpl.obj
 0002:0000111c       $SG4294966195              1001511c     DatabaseImpl.obj
 0002:0000115c       $SG4294966192              1001515c     DatabaseImpl.obj
 0002:00001190       $SG4294966194              10015190     DatabaseImpl.obj
 0002:000011d4       $SG4294966191              100151d4     DatabaseImpl.obj
 0002:00001208       $SG4294966193              10015208     DatabaseImpl.obj
 0002:0000124c       $SG4294966190              1001524c     DatabaseImpl.obj
 0002:0000126c       $SG4294966189              1001526c     DatabaseImpl.obj
 0002:00001274       $SG4294966188              10015274     DatabaseImpl.obj
 0002:00001278       $SG4294966187              10015278     DatabaseImpl.obj
 0002:00001280       $SG4294966186              10015280     DatabaseImpl.obj
 0002:00001290       $SG4294966185              10015290     DatabaseImpl.obj
 0002:00001298       $SG4294966184              10015298     DatabaseImpl.obj
 0002:000012ac       $SG4294966183              100152ac     DatabaseImpl.obj
 0002:000012b4       $SG4294966182              100152b4     DatabaseImpl.obj
 0002:000012b8       $SG4294966181              100152b8     DatabaseImpl.obj
 0002:000012cc       $SG4294966180              100152cc     DatabaseImpl.obj
 0002:000012d4       $SG4294966179              100152d4     DatabaseImpl.obj
 0002:000012e8       $SG4294966178              100152e8     DatabaseImpl.obj
 0002:000012f0       $SG4294966177              100152f0     DatabaseImpl.obj
 0002:00001304       $SG4294966176              10015304     DatabaseImpl.obj
 0002:0000130c       $SG4294966175              1001530c     DatabaseImpl.obj
 0002:00001320       $SG4294966174              10015320     DatabaseImpl.obj
 0002:00001328       $SG4294966173              10015328     DatabaseImpl.obj
 0002:0000133c       $SG4294966172              1001533c     DatabaseImpl.obj
 0002:00001344       $SG4294966171              10015344     DatabaseImpl.obj
 0002:00001358       $SG4294966170              10015358     DatabaseImpl.obj
 0002:00001360       $SG4294966169              10015360     DatabaseImpl.obj
 0002:00001374       $SG4294966168              10015374     DatabaseImpl.obj
 0002:0000137c       $SG4294966167              1001537c     DatabaseImpl.obj
 0002:00001390       $SG4294966166              10015390     DatabaseImpl.obj
 0002:00001398       $SG4294966165              10015398     DatabaseImpl.obj
 0002:000013ac       $SG4294966164              100153ac     DatabaseImpl.obj
 0002:000013b4       $SG4294966163              100153b4     DatabaseImpl.obj
 0002:000013c8       $SG4294966162              100153c8     DatabaseImpl.obj
 0002:000013d0       $SG4294966161              100153d0     DatabaseImpl.obj
 0002:000013d8       $SG4294966160              100153d8     DatabaseImpl.obj
 0002:000013e0       $SG4294966159              100153e0     DatabaseImpl.obj
 0002:000013e8       $SG4294966158              100153e8     DatabaseImpl.obj
 0002:000013f0       $SG4294966157              100153f0     DatabaseImpl.obj
 0002:000013f8       $SG4294966156              100153f8     DatabaseImpl.obj
 0002:00001468       $SG4294966155              10015468     DatabaseImpl.obj
 0002:000022b8       __ehfuncinfo$??0_bstr_t@@QAE@PA_W_N@Z 100162b8     DatabaseImpl.obj
 0002:000022b8       __ehfuncinfo$??0_bstr_t@@QAE@PBD@Z 100162b8     DatabaseImpl.obj
 0002:000022b8       __ehfuncinfo$??4_bstr_t@@QAEAAV0@PB_W@Z 100162b8     DatabaseImpl.obj
 0002:000022b8       __ehfuncinfo$??0_bstr_t@@QAE@PB_W@Z 100162b8     DatabaseImpl.obj
 0002:000022dc       __unwindtable$??0_bstr_t@@QAE@PBD@Z 100162dc     DatabaseImpl.obj
 0002:000022dc       __unwindtable$??4_bstr_t@@QAEAAV0@PB_W@Z 100162dc     DatabaseImpl.obj
 0002:000022dc       __unwindtable$??0_bstr_t@@QAE@PB_W@Z 100162dc     DatabaseImpl.obj
 0002:000022dc       __unwindtable$??0_bstr_t@@QAE@PA_W_N@Z 100162dc     DatabaseImpl.obj
 0002:000022e4       __ehfuncinfo$??Y_bstr_t@@QAEAAV0@ABV0@@Z 100162e4     DatabaseImpl.obj
 0002:00002308       __unwindtable$??Y_bstr_t@@QAEAAV0@ABV0@@Z 10016308     DatabaseImpl.obj
 0002:00002310       __ehfuncinfo$??H_bstr_t@@QBE?AV0@ABV0@@Z 10016310     DatabaseImpl.obj
 0002:00002334       __unwindtable$??H_bstr_t@@QBE?AV0@ABV0@@Z 10016334     DatabaseImpl.obj
 0002:0000233c       __ehfuncinfo$??B_variant_t@@QBENXZ 1001633c     DatabaseImpl.obj
 0002:00002360       __unwindtable$??B_variant_t@@QBENXZ 10016360     DatabaseImpl.obj
 0002:00002368       __ehfuncinfo$?PutCommandText@Command15@@QAEXV_bstr_t@@@Z 10016368     DatabaseImpl.obj
 0002:0000238c       __unwindtable$?PutCommandText@Command15@@QAEXV_bstr_t@@@Z 1001638c     DatabaseImpl.obj
 0002:00002394       __ehfuncinfo$?CreateParameter@Command15@@QAE?AV?$_com_ptr_t@V?$_com_IIID@U_Parameter@@$1?_GUID_0000150c_0000_0010_8000_00aa006d2ea4@@3U__s_GUID@@B@@@@V_bstr_t@@W4DataTypeEnum@@W4ParameterDirectionEnum@@JABV_variant_t@@@Z 10016394     DatabaseImpl.obj
 0002:000023b8       __unwindtable$?CreateParameter@Command15@@QAE?AV?$_com_ptr_t@V?$_com_IIID@U_Parameter@@$1?_GUID_0000150c_0000_0010_8000_00aa006d2ea4@@3U__s_GUID@@B@@@@V_bstr_t@@W4DataTypeEnum@@W4ParameterDirectionEnum@@JABV_variant_t@@@Z 100163b8     DatabaseImpl.obj
 0002:000023c0       __ehfuncinfo$?Open@Connection15@@QAEJV_bstr_t@@00J@Z 100163c0     DatabaseImpl.obj
 0002:000023e4       __unwindtable$?Open@Connection15@@QAEJV_bstr_t@@00J@Z 100163e4     DatabaseImpl.obj
 0002:000023fc       __ehfuncinfo$?ErrorHandler@@YAXAAV_com_error@@PAD@Z 100163fc     DatabaseImpl.obj
 0002:00002420       __unwindtable$?ErrorHandler@@YAXAAV_com_error@@PAD@Z 10016420     DatabaseImpl.obj
 0002:00002430       __ehfuncinfo$?raw_FieldChangeComplete@CRstEvent@@UAGJJUtagVARIANT@@PAUError@@PAW4EventStatusEnum@@PAU_Recordset@@@Z 10016430     DatabaseImpl.obj
 0002:00002430       __ehfuncinfo$?raw_InfoMessage@CConnEvent@@UAGJPAUError@@PAW4EventStatusEnum@@PAU_Connection@@@Z 10016430     DatabaseImpl.obj
 0002:00002430       __ehfuncinfo$?raw_RecordChangeComplete@CRstEvent@@UAGJW4EventReasonEnum@@JPAUError@@PAW4EventStatusEnum@@PAU_Recordset@@@Z 10016430     DatabaseImpl.obj
 0002:00002430       __ehfuncinfo$?raw_BeginTransComplete@CConnEvent@@UAGJJPAUError@@PAW4EventStatusEnum@@PAU_Connection@@@Z 10016430     DatabaseImpl.obj
 0002:00002430       __ehfuncinfo$?raw_RecordsetChangeComplete@CRstEvent@@UAGJW4EventReasonEnum@@PAUError@@PAW4EventStatusEnum@@PAU_Recordset@@@Z 10016430     DatabaseImpl.obj
 0002:00002430       __ehfuncinfo$?raw_CommitTransComplete@CConnEvent@@UAGJPAUError@@PAW4EventStatusEnum@@PAU_Connection@@@Z 10016430     DatabaseImpl.obj
 0002:00002430       __ehfuncinfo$?raw_MoveComplete@CRstEvent@@UAGJW4EventReasonEnum@@PAUError@@PAW4EventStatusEnum@@PAU_Recordset@@@Z 10016430     DatabaseImpl.obj
 0002:00002430       __ehfuncinfo$?raw_RollbackTransComplete@CConnEvent@@UAGJPAUError@@PAW4EventStatusEnum@@PAU_Connection@@@Z 10016430     DatabaseImpl.obj
 0002:00002430       __ehfuncinfo$?raw_FetchComplete@CRstEvent@@UAGJPAUError@@PAW4EventStatusEnum@@PAU_Recordset@@@Z 10016430     DatabaseImpl.obj
 0002:00002430       __ehfuncinfo$?raw_ExecuteComplete@CConnEvent@@UAGJJPAUError@@PAW4EventStatusEnum@@PAU_Command@@PAU_Recordset@@PAU_Connection@@@Z 10016430     DatabaseImpl.obj
 0002:00002430       __ehfuncinfo$?raw_ConnectComplete@CConnEvent@@UAGJPAUError@@PAW4EventStatusEnum@@PAU_Connection@@@Z 10016430     DatabaseImpl.obj
 0002:00002454       __unwindtable$?raw_FieldChangeComplete@CRstEvent@@UAGJJUtagVARIANT@@PAUError@@PAW4EventStatusEnum@@PAU_Recordset@@@Z 10016454     DatabaseImpl.obj
 0002:00002454       __unwindtable$?raw_ConnectComplete@CConnEvent@@UAGJPAUError@@PAW4EventStatusEnum@@PAU_Connection@@@Z 10016454     DatabaseImpl.obj
 0002:00002454       __unwindtable$?raw_InfoMessage@CConnEvent@@UAGJPAUError@@PAW4EventStatusEnum@@PAU_Connection@@@Z 10016454     DatabaseImpl.obj
 0002:00002454       __unwindtable$?raw_RecordChangeComplete@CRstEvent@@UAGJW4EventReasonEnum@@JPAUError@@PAW4EventStatusEnum@@PAU_Recordset@@@Z 10016454     DatabaseImpl.obj
 0002:00002454       __unwindtable$?raw_BeginTransComplete@CConnEvent@@UAGJJPAUError@@PAW4EventStatusEnum@@PAU_Connection@@@Z 10016454     DatabaseImpl.obj
 0002:00002454       __unwindtable$?raw_RecordsetChangeComplete@CRstEvent@@UAGJW4EventReasonEnum@@PAUError@@PAW4EventStatusEnum@@PAU_Recordset@@@Z 10016454     DatabaseImpl.obj
 0002:00002454       __unwindtable$?raw_CommitTransComplete@CConnEvent@@UAGJPAUError@@PAW4EventStatusEnum@@PAU_Connection@@@Z 10016454     DatabaseImpl.obj
 0002:00002454       __unwindtable$?raw_MoveComplete@CRstEvent@@UAGJW4EventReasonEnum@@PAUError@@PAW4EventStatusEnum@@PAU_Recordset@@@Z 10016454     DatabaseImpl.obj
 0002:00002454       __unwindtable$?raw_RollbackTransComplete@CConnEvent@@UAGJPAUError@@PAW4EventStatusEnum@@PAU_Connection@@@Z 10016454     DatabaseImpl.obj
 0002:00002454       __unwindtable$?raw_FetchComplete@CRstEvent@@UAGJPAUError@@PAW4EventStatusEnum@@PAU_Recordset@@@Z 10016454     DatabaseImpl.obj
 0002:00002454       __unwindtable$?raw_ExecuteComplete@CConnEvent@@UAGJJPAUError@@PAW4EventStatusEnum@@PAU_Command@@PAU_Recordset@@PAU_Connection@@@Z 10016454     DatabaseImpl.obj
 0002:0000245c       __ehfuncinfo$??0Database@@QAE@XZ 1001645c     DatabaseImpl.obj
 0002:00002480       __unwindtable$??0Database@@QAE@XZ 10016480     DatabaseImpl.obj
 0002:000024b8       __ehfuncinfo$?Open@Database@@UAE_NPBD00@Z 100164b8     DatabaseImpl.obj
 0002:000024dc       __unwindtable$?Open@Database@@UAE_NPBD00@Z 100164dc     DatabaseImpl.obj
 0002:00002514       __tryblocktable$?Open@Database@@UAE_NPBD00@Z 10016514     DatabaseImpl.obj
 0002:00002528       __catchsym$?Open@Database@@UAE_NPBD00@Z$7 10016528     DatabaseImpl.obj
 0002:00002538       __ehfuncinfo$?CloseDBConnection@Database@@UAEXXZ 10016538     DatabaseImpl.obj
 0002:0000255c       __unwindtable$?CloseDBConnection@Database@@UAEXXZ 1001655c     DatabaseImpl.obj
 0002:0000256c       __tryblocktable$?CloseDBConnection@Database@@UAEXXZ 1001656c     DatabaseImpl.obj
 0002:00002580       __catchsym$?CloseDBConnection@Database@@UAEXXZ$2 10016580     DatabaseImpl.obj
 0002:00002590       __ehfuncinfo$?fnc_Event_Status@Database@@UAEXV?$basic_string@DU?$char_traits@D@std@@V?$allocator@D@2@@std@@H@Z 10016590     DatabaseImpl.obj
 0002:000025b4       __unwindtable$?fnc_Event_Status@Database@@UAEXV?$basic_string@DU?$char_traits@D@std@@V?$allocator@D@2@@std@@H@Z 100165b4     DatabaseImpl.obj
 0002:000025cc       __tryblocktable$?fnc_Event_Status@Database@@UAEXV?$basic_string@DU?$char_traits@D@std@@V?$allocator@D@2@@std@@H@Z 100165cc     DatabaseImpl.obj
 0002:000025e0       __catchsym$?fnc_Event_Status@Database@@UAEXV?$basic_string@DU?$char_traits@D@std@@V?$allocator@D@2@@std@@H@Z$4 100165e0     DatabaseImpl.obj
 0002:000025f0       __ehfuncinfo$?callback@Database@@UAEXPAXP6AXPADPAH@Z1@Z 100165f0     DatabaseImpl.obj
 0002:00002614       __unwindtable$?callback@Database@@UAEXPAXP6AXPADPAH@Z1@Z 10016614     DatabaseImpl.obj
 0002:0000261c       __ehfuncinfo$?fnc_BeginTransaction@Database@@UAE_NXZ 1001661c     DatabaseImpl.obj
 0002:00002640       __unwindtable$?fnc_BeginTransaction@Database@@UAE_NXZ 10016640     DatabaseImpl.obj
 0002:00002650       __tryblocktable$?fnc_BeginTransaction@Database@@UAE_NXZ 10016650     DatabaseImpl.obj
 0002:00002664       __catchsym$?fnc_BeginTransaction@Database@@UAE_NXZ$2 10016664     DatabaseImpl.obj
 0002:00002674       __ehfuncinfo$?fnc_CommitTransaction@Database@@UAE_NXZ 10016674     DatabaseImpl.obj
 0002:00002698       __unwindtable$?fnc_CommitTransaction@Database@@UAE_NXZ 10016698     DatabaseImpl.obj
 0002:000026a8       __tryblocktable$?fnc_CommitTransaction@Database@@UAE_NXZ 100166a8     DatabaseImpl.obj
 0002:000026bc       __catchsym$?fnc_CommitTransaction@Database@@UAE_NXZ$2 100166bc     DatabaseImpl.obj
 0002:000026cc       __ehfuncinfo$?fnc_RollBackTransaction@Database@@UAE_NXZ 100166cc     DatabaseImpl.obj
 0002:000026f0       __unwindtable$?fnc_RollBackTransaction@Database@@UAE_NXZ 100166f0     DatabaseImpl.obj
 0002:00002700       __tryblocktable$?fnc_RollBackTransaction@Database@@UAE_NXZ 10016700     DatabaseImpl.obj
 0002:00002714       __catchsym$?fnc_RollBackTransaction@Database@@UAE_NXZ$2 10016714     DatabaseImpl.obj
 0002:00002724       __ehfuncinfo$?OpenTable@Database@@UAE_NPADAAVITable@@@Z 10016724     DatabaseImpl.obj
 0002:00002748       __unwindtable$?OpenTable@Database@@UAE_NPADAAVITable@@@Z 10016748     DatabaseImpl.obj
 0002:00002778       __tryblocktable$?OpenTable@Database@@UAE_NPADAAVITable@@@Z 10016778     DatabaseImpl.obj
 0002:0000278c       __catchsym$?OpenTable@Database@@UAE_NPADAAVITable@@@Z$6 1001678c     DatabaseImpl.obj
 0002:0000279c       __ehfuncinfo$?ReConnect@Database@@UAE_NXZ 1001679c     DatabaseImpl.obj
 0002:000027c0       __unwindtable$?ReConnect@Database@@UAE_NXZ 100167c0     DatabaseImpl.obj
 0002:000027d0       __tryblocktable$?ReConnect@Database@@UAE_NXZ 100167d0     DatabaseImpl.obj
 0002:000027e4       __catchsym$?ReConnect@Database@@UAE_NXZ$2 100167e4     DatabaseImpl.obj
 0002:000027f8       __ehfuncinfo$?ExecuteIn@Database@@QAEHPADAAVITable@@AAVIParameter@@@Z 100167f8     DatabaseImpl.obj
 0002:0000281c       __tryblocktable$?ExecuteIn@Database@@QAEHPADAAVITable@@AAVIParameter@@@Z 1001681c     DatabaseImpl.obj
 0002:00002830       __unwindtable$?ExecuteIn@Database@@QAEHPADAAVITable@@AAVIParameter@@@Z 10016830     DatabaseImpl.obj
 0002:000029a0       __catchsym$?ExecuteIn@Database@@QAEHPADAAVITable@@AAVIParameter@@@Z$47 100169a0     DatabaseImpl.obj
 0002:000029b0       __ehfuncinfo$?Execute@Database@@UAE_NPADAAVITable@@AAVIParameter@@H@Z 100169b0     DatabaseImpl.obj
 0002:000029d4       __tryblocktable$?Execute@Database@@UAE_NPADAAVITable@@AAVIParameter@@H@Z 100169d4     DatabaseImpl.obj
 0002:000029e8       __unwindtable$?Execute@Database@@UAE_NPADAAVITable@@AAVIParameter@@H@Z 100169e8     DatabaseImpl.obj
 0002:00002c48       __catchsym$?Execute@Database@@UAE_NPADAAVITable@@AAVIParameter@@H@Z$77 10016c48     DatabaseImpl.obj
 0002:00002c58       __ehfuncinfo$??0Table@@QAE@XZ 10016c58     DatabaseImpl.obj
 0002:00002c7c       __unwindtable$??0Table@@QAE@XZ 10016c7c     DatabaseImpl.obj
 0002:00002c8c       __ehfuncinfo$?IsEOF@Table@@UAE_NXZ 10016c8c     DatabaseImpl.obj
 0002:00002cb0       __unwindtable$?IsEOF@Table@@UAE_NXZ 10016cb0     DatabaseImpl.obj
 0002:00002cc0       __tryblocktable$?IsEOF@Table@@UAE_NXZ 10016cc0     DatabaseImpl.obj
 0002:00002cd4       __catchsym$?IsEOF@Table@@UAE_NXZ$2 10016cd4     DatabaseImpl.obj
 0002:00002ce8       __ehfuncinfo$?Get@Table@@UAE_NPADPAV?$basic_string@DU?$char_traits@D@std@@V?$allocator@D@2@@std@@@Z 10016ce8     DatabaseImpl.obj
 0002:00002d0c       __tryblocktable$?Get@Table@@UAE_NPADPAV?$basic_string@DU?$char_traits@D@std@@V?$allocator@D@2@@std@@@Z 10016d0c     DatabaseImpl.obj
 0002:00002d20       __unwindtable$?Get@Table@@UAE_NPADPAV?$basic_string@DU?$char_traits@D@std@@V?$allocator@D@2@@std@@@Z 10016d20     DatabaseImpl.obj
 0002:00002d70       __catchsym$?Get@Table@@UAE_NPADPAV?$basic_string@DU?$char_traits@D@std@@V?$allocator@D@2@@std@@@Z$9 10016d70     DatabaseImpl.obj
 0002:00002d80       __ehfuncinfo$?Get@Table@@UAE_NPAD0I@Z 10016d80     DatabaseImpl.obj
 0002:00002da4       __tryblocktable$?Get@Table@@UAE_NPAD0I@Z 10016da4     DatabaseImpl.obj
 0002:00002db8       __unwindtable$?Get@Table@@UAE_NPAD0I@Z 10016db8     DatabaseImpl.obj
 0002:00002df8       __catchsym$?Get@Table@@UAE_NPAD0I@Z$8 10016df8     DatabaseImpl.obj
 0002:00002e08       __ehfuncinfo$?Get@Table@@UAE_NPADAAI@Z 10016e08     DatabaseImpl.obj
 0002:00002e2c       __unwindtable$?Get@Table@@UAE_NPADAAI@Z 10016e2c     DatabaseImpl.obj
 0002:00002e64       __tryblocktable$?Get@Table@@UAE_NPADAAI@Z 10016e64     DatabaseImpl.obj
 0002:00002e78       __catchsym$?Get@Table@@UAE_NPADAAI@Z$7 10016e78     DatabaseImpl.obj
 0002:00002e88       __ehfuncinfo$?Get@Table@@UAE_NPADAA_N@Z 10016e88     DatabaseImpl.obj
 0002:00002eac       __unwindtable$?Get@Table@@UAE_NPADAA_N@Z 10016eac     DatabaseImpl.obj
 0002:00002ee4       __tryblocktable$?Get@Table@@UAE_NPADAA_N@Z 10016ee4     DatabaseImpl.obj
 0002:00002ef8       __catchsym$?Get@Table@@UAE_NPADAA_N@Z$7 10016ef8     DatabaseImpl.obj
 0002:00002f08       __ehfuncinfo$?Get@Table@@UAE_NPADAA_K@Z 10016f08     DatabaseImpl.obj
 0002:00002f2c       __unwindtable$?Get@Table@@UAE_NPADAA_K@Z 10016f2c     DatabaseImpl.obj
 0002:00002f64       __tryblocktable$?Get@Table@@UAE_NPADAA_K@Z 10016f64     DatabaseImpl.obj
 0002:00002f78       __catchsym$?Get@Table@@UAE_NPADAA_K@Z$7 10016f78     DatabaseImpl.obj
 0002:00002f88       __ehfuncinfo$?GetDateTime@Table@@UAE_NPADAAN@Z 10016f88     DatabaseImpl.obj
 0002:00002fac       __unwindtable$?GetDateTime@Table@@UAE_NPADAAN@Z 10016fac     DatabaseImpl.obj
 0002:00002fe4       __tryblocktable$?GetDateTime@Table@@UAE_NPADAAN@Z 10016fe4     DatabaseImpl.obj
 0002:00002ff8       __catchsym$?GetDateTime@Table@@UAE_NPADAAN@Z$7 10016ff8     DatabaseImpl.obj
 0002:00003008       __ehfuncinfo$?Get@Table@@UAE_NPADAAH@Z 10017008     DatabaseImpl.obj
 0002:0000302c       __unwindtable$?Get@Table@@UAE_NPADAAH@Z 1001702c     DatabaseImpl.obj
 0002:00003064       __tryblocktable$?Get@Table@@UAE_NPADAAH@Z 10017064     DatabaseImpl.obj
 0002:00003078       __catchsym$?Get@Table@@UAE_NPADAAH@Z$7 10017078     DatabaseImpl.obj
 0002:00003088       __ehfuncinfo$?Get@Table@@UAE_NPADAAM@Z 10017088     DatabaseImpl.obj
 0002:000030ac       __unwindtable$?Get@Table@@UAE_NPADAAM@Z 100170ac     DatabaseImpl.obj
 0002:000030e4       __tryblocktable$?Get@Table@@UAE_NPADAAM@Z 100170e4     DatabaseImpl.obj
 0002:000030f8       __catchsym$?Get@Table@@UAE_NPADAAM@Z$7 100170f8     DatabaseImpl.obj
 0002:00003108       __ehfuncinfo$?Get@Table@@UAE_NPADAAN@Z 10017108     DatabaseImpl.obj
 0002:0000312c       __unwindtable$?Get@Table@@UAE_NPADAAN@Z 1001712c     DatabaseImpl.obj
 0002:00003164       __tryblocktable$?Get@Table@@UAE_NPADAAN@Z 10017164     DatabaseImpl.obj
 0002:00003178       __catchsym$?Get@Table@@UAE_NPADAAN@Z$7 10017178     DatabaseImpl.obj
 0002:00003188       __ehfuncinfo$?Get@Table@@UAE_NPADAAK@Z 10017188     DatabaseImpl.obj
 0002:000031ac       __unwindtable$?Get@Table@@UAE_NPADAAK@Z 100171ac     DatabaseImpl.obj
 0002:000031e4       __tryblocktable$?Get@Table@@UAE_NPADAAK@Z 100171e4     DatabaseImpl.obj
 0002:000031f8       __catchsym$?Get@Table@@UAE_NPADAAK@Z$7 100171f8     DatabaseImpl.obj
 0002:00003208       __ehfuncinfo$?Get@Table@@UAE_NPADAAD@Z 10017208     DatabaseImpl.obj
 0002:0000322c       __unwindtable$?Get@Table@@UAE_NPADAAD@Z 1001722c     DatabaseImpl.obj
 0002:00003264       __tryblocktable$?Get@Table@@UAE_NPADAAD@Z 10017264     DatabaseImpl.obj
 0002:00003278       __catchsym$?Get@Table@@UAE_NPADAAD@Z$7 10017278     DatabaseImpl.obj
 0002:00003288       __ehfuncinfo$?MoveNext@Table@@UAE_NXZ 10017288     DatabaseImpl.obj
 0002:000032ac       __unwindtable$?MoveNext@Table@@UAE_NXZ 100172ac     DatabaseImpl.obj
 0002:000032bc       __tryblocktable$?MoveNext@Table@@UAE_NXZ 100172bc     DatabaseImpl.obj
 0002:000032d0       __catchsym$?MoveNext@Table@@UAE_NXZ$2 100172d0     DatabaseImpl.obj
 0002:000032e0       __ehfuncinfo$?MovePrev@Table@@UAE_NXZ 100172e0     DatabaseImpl.obj
 0002:00003304       __unwindtable$?MovePrev@Table@@UAE_NXZ 10017304     DatabaseImpl.obj
 0002:00003314       __tryblocktable$?MovePrev@Table@@UAE_NXZ 10017314     DatabaseImpl.obj
 0002:00003328       __catchsym$?MovePrev@Table@@UAE_NXZ$2 10017328     DatabaseImpl.obj
 0002:00003338       __ehfuncinfo$?MoveFirst@Table@@UAE_NXZ 10017338     DatabaseImpl.obj
 0002:0000335c       __unwindtable$?MoveFirst@Table@@UAE_NXZ 1001735c     DatabaseImpl.obj
 0002:0000336c       __tryblocktable$?MoveFirst@Table@@UAE_NXZ 1001736c     DatabaseImpl.obj
 0002:00003380       __catchsym$?MoveFirst@Table@@UAE_NXZ$2 10017380     DatabaseImpl.obj
 0002:00003390       __ehfuncinfo$?MoveLast@Table@@UAE_NXZ 10017390     DatabaseImpl.obj
 0002:000033b4       __unwindtable$?MoveLast@Table@@UAE_NXZ 100173b4     DatabaseImpl.obj
 0002:000033c4       __tryblocktable$?MoveLast@Table@@UAE_NXZ 100173c4     DatabaseImpl.obj
 0002:000033d8       __catchsym$?MoveLast@Table@@UAE_NXZ$2 100173d8     DatabaseImpl.obj
 0002:000033e8       __ehfuncinfo$?MoveNextRecord@Table@@UAE_NXZ 100173e8     DatabaseImpl.obj
 0002:0000340c       __unwindtable$?MoveNextRecord@Table@@UAE_NXZ 1001740c     DatabaseImpl.obj
 0002:0000341c       __tryblocktable$?MoveNextRecord@Table@@UAE_NXZ 1001741c     DatabaseImpl.obj
 0002:00003430       __catchsym$?MoveNextRecord@Table@@UAE_NXZ$3 10017430     DatabaseImpl.obj
 0002:00003440       __ehfuncinfo$??0?$basic_string@DU?$char_traits@D@std@@V?$allocator@D@2@@std@@QAE@$$QAV01@@Z 10017440     DatabaseImpl.obj
 0002:00003440       __ehfuncinfo$??1?$basic_string@DU?$char_traits@D@std@@V?$allocator@D@2@@std@@QAE@XZ 10017440     DatabaseImpl.obj
 0002:00003440       __ehfuncinfo$?clear@?$basic_string@DU?$char_traits@D@std@@V?$allocator@D@2@@std@@QAEXXZ 10017440     DatabaseImpl.obj
 0002:00003440       __ehfuncinfo$?begin@?$basic_string@DU?$char_traits@D@std@@V?$allocator@D@2@@std@@QAE?AV?$_String_iterator@V?$_String_val@U?$_Simple_types@D@std@@@std@@@2@XZ 10017440     DatabaseImpl.obj
 0002:00003440       __ehfuncinfo$??1Parameter@@UAE@XZ 10017440     DatabaseImpl.obj
 0002:00003440       __ehfuncinfo$??0?$basic_string@DU?$char_traits@D@std@@V?$allocator@D@2@@std@@QAE@XZ 10017440     DatabaseImpl.obj
 0002:00003440       __ehfuncinfo$?end@?$basic_string@DU?$char_traits@D@std@@V?$allocator@D@2@@std@@QAE?AV?$_String_iterator@V?$_String_val@U?$_Simple_types@D@std@@@std@@@2@XZ 10017440     DatabaseImpl.obj
 0002:00003440       __ehfuncinfo$??1?$_Tree_comp_alloc@V?$_Tmap_traits@V?$basic_string@DU?$char_traits@D@std@@V?$allocator@D@2@@std@@P6AXPADPAH@ZU?$less@V?$basic_string@DU?$char_traits@D@std@@V?$allocator@D@2@@std@@@2@V?$allocator@U?$pair@$$CBV?$basic_string@DU?$char_traits@D@std@@V?$allocator@D@2@@std@@P6AXPADPAH@Z@std@@@2@$0A@@std@@@std@@QAE@XZ 10017440     DatabaseImpl.obj
 0002:00003440       __ehfuncinfo$?begin@?$_Tree@V?$_Tmap_traits@V?$basic_string@DU?$char_traits@D@std@@V?$allocator@D@2@@std@@P6AXPADPAH@ZU?$less@V?$basic_string@DU?$char_traits@D@std@@V?$allocator@D@2@@std@@@2@V?$allocator@U?$pair@$$CBV?$basic_string@DU?$char_traits@D@std@@V?$allocator@D@2@@std@@P6AXPADPAH@Z@std@@@2@$0A@@std@@@std@@QAE?AV?$_Tree_iterator@V?$_Tree_val@U?$_Tree_simple_types@U?$pair@$$CBV?$basic_string@DU?$char_traits@D@std@@V?$allocator@D@2@@std@@P6AXPADPAH@Z@std@@@std@@@std@@@2@XZ 10017440     DatabaseImpl.obj
 0002:00003440       __ehfuncinfo$?c_str@?$basic_string@DU?$char_traits@D@std@@V?$allocator@D@2@@std@@QBEPBDXZ 10017440     DatabaseImpl.obj
 0002:00003440       __ehfuncinfo$?compare@?$basic_string@DU?$char_traits@D@std@@V?$allocator@D@2@@std@@QBEHABV12@@Z 10017440     DatabaseImpl.obj
 0002:00003440       __ehfuncinfo$??0?$vector@UPARAM@Parameter@@V?$allocator@UPARAM@Parameter@@@std@@@std@@QAE@XZ 10017440     DatabaseImpl.obj
 0002:00003440       __ehfuncinfo$??1?$vector@UPARAM@Parameter@@V?$allocator@UPARAM@Parameter@@@std@@@std@@QAE@XZ 10017440     DatabaseImpl.obj
 0002:00003440       __ehfuncinfo$?begin@?$vector@UPARAM@Parameter@@V?$allocator@UPARAM@Parameter@@@std@@@std@@QAE?AV?$_Vector_iterator@V?$_Vector_val@U?$_Simple_types@UPARAM@Parameter@@@std@@@std@@@2@XZ 10017440     DatabaseImpl.obj
 0002:00003440       __ehfuncinfo$?clear@?$_Tree@V?$_Tmap_traits@V?$basic_string@DU?$char_traits@D@std@@V?$allocator@D@2@@std@@P6AXPADPAH@ZU?$less@V?$basic_string@DU?$char_traits@D@std@@V?$allocator@D@2@@std@@@2@V?$allocator@U?$pair@$$CBV?$basic_string@DU?$char_traits@D@std@@V?$allocator@D@2@@std@@P6AXPADPAH@Z@std@@@2@$0A@@std@@@std@@QAEXXZ 10017440     DatabaseImpl.obj
 0002:00003440       __ehfuncinfo$?end@?$vector@UPARAM@Parameter@@V?$allocator@UPARAM@Parameter@@@std@@@std@@QAE?AV?$_Vector_iterator@V?$_Vector_val@U?$_Simple_types@UPARAM@Parameter@@@std@@@std@@@2@XZ 10017440     DatabaseImpl.obj
 0002:00003440       __ehfuncinfo$?clear@?$vector@UPARAM@Parameter@@V?$allocator@UPARAM@Parameter@@@std@@@std@@QAEXXZ 10017440     DatabaseImpl.obj
 0002:00003440       __ehfuncinfo$??1?$_Tree@V?$_Tmap_traits@V?$basic_string@DU?$char_traits@D@std@@V?$allocator@D@2@@std@@P6AXPADPAH@ZU?$less@V?$basic_string@DU?$char_traits@D@std@@V?$allocator@D@2@@std@@@2@V?$allocator@U?$pair@$$CBV?$basic_string@DU?$char_traits@D@std@@V?$allocator@D@2@@std@@P6AXPADPAH@Z@std@@@2@$0A@@std@@@std@@QAE@XZ 10017440     DatabaseImpl.obj
 0002:00003440       __ehfuncinfo$??$forward_as_tuple@V?$basic_string@DU?$char_traits@D@std@@V?$allocator@D@2@@std@@@std@@YA?AV?$tuple@$$QAV?$basic_string@DU?$char_traits@D@std@@V?$allocator@D@2@@std@@@0@$$QAV?$basic_string@DU?$char_traits@D@std@@V?$allocator@D@2@@0@@Z 10017440     DatabaseImpl.obj
 0002:00003440       __ehfuncinfo$?end@?$_Tree@V?$_Tmap_traits@V?$basic_string@DU?$char_traits@D@std@@V?$allocator@D@2@@std@@P6AXPADPAH@ZU?$less@V?$basic_string@DU?$char_traits@D@std@@V?$allocator@D@2@@std@@@2@V?$allocator@U?$pair@$$CBV?$basic_string@DU?$char_traits@D@std@@V?$allocator@D@2@@std@@P6AXPADPAH@Z@std@@@2@$0A@@std@@@std@@QAE?AV?$_Tree_iterator@V?$_Tree_val@U?$_Tree_simple_types@U?$pair@$$CBV?$basic_string@DU?$char_traits@D@std@@V?$allocator@D@2@@std@@P6AXPADPAH@Z@std@@@std@@@std@@@2@XZ 10017440     DatabaseImpl.obj
 0002:00003464       __ehfuncinfo$?CreateDatabase@@YAPAVIDatabase@@XZ 10017464     DatabaseImpl.obj
 0002:00003488       __unwindtable$?CreateDatabase@@YAPAVIDatabase@@XZ 10017488     DatabaseImpl.obj
 0002:00003490       __ehfuncinfo$?CreateTable@@YAPAVITable@@XZ 10017490     DatabaseImpl.obj
 0002:000034b4       __unwindtable$?CreateTable@@YAPAVITable@@XZ 100174b4     DatabaseImpl.obj
 0002:000034bc       __ehfuncinfo$?CreateParameter@@YAPAVIParameter@@XZ 100174bc     DatabaseImpl.obj
 0002:000034e0       __unwindtable$?CreateParameter@@YAPAVIParameter@@XZ 100174e0     DatabaseImpl.obj
 0002:000034e8       __ehfuncinfo$??0?$basic_string@DU?$char_traits@D@std@@V?$allocator@D@2@@std@@QAE@PBD@Z 100174e8     DatabaseImpl.obj
 0002:0000350c       __unwindtable$??0?$basic_string@DU?$char_traits@D@std@@V?$allocator@D@2@@std@@QAE@PBD@Z 1001750c     DatabaseImpl.obj
 0002:00003514       __ehfuncinfo$?_Reallocate@?$vector@UPARAM@Parameter@@V?$allocator@UPARAM@Parameter@@@std@@@std@@IAEXI@Z 10017514     DatabaseImpl.obj
 0002:00003538       __unwindtable$?_Reallocate@?$vector@UPARAM@Parameter@@V?$allocator@UPARAM@Parameter@@@std@@@std@@IAEXI@Z 10017538     DatabaseImpl.obj
 0002:00003548       __tryblocktable$?_Reallocate@?$vector@UPARAM@Parameter@@V?$allocator@UPARAM@Parameter@@@std@@@std@@IAEXI@Z 10017548     DatabaseImpl.obj
 0002:0000355c       __catchsym$?_Reallocate@?$vector@UPARAM@Parameter@@V?$allocator@UPARAM@Parameter@@@std@@@std@@IAEXI@Z$2 1001755c     DatabaseImpl.obj
 0002:0000356c       __ehfuncinfo$?_Copy@?$basic_string@DU?$char_traits@D@std@@V?$allocator@D@2@@std@@QAEXII@Z 1001756c     DatabaseImpl.obj
 0002:00003590       __unwindtable$?_Copy@?$basic_string@DU?$char_traits@D@std@@V?$allocator@D@2@@std@@QAEXII@Z 10017590     DatabaseImpl.obj
 0002:000035b0       __tryblocktable$?_Copy@?$basic_string@DU?$char_traits@D@std@@V?$allocator@D@2@@std@@QAEXII@Z 100175b0     DatabaseImpl.obj
 0002:000035d8       __catchsym$?_Copy@?$basic_string@DU?$char_traits@D@std@@V?$allocator@D@2@@std@@QAEXII@Z$4 100175d8     DatabaseImpl.obj
 0002:000035e8       __catchsym$?_Copy@?$basic_string@DU?$char_traits@D@std@@V?$allocator@D@2@@std@@QAEXII@Z$5 100175e8     DatabaseImpl.obj
 0002:000035f8       __ehfuncinfo$?_Buyheadnode@?$_Tree_comp_alloc@V?$_Tmap_traits@V?$basic_string@DU?$char_traits@D@std@@V?$allocator@D@2@@std@@P6AXPADPAH@ZU?$less@V?$basic_string@DU?$char_traits@D@std@@V?$allocator@D@2@@std@@@2@V?$allocator@U?$pair@$$CBV?$basic_string@DU?$char_traits@D@std@@V?$allocator@D@2@@std@@P6AXPADPAH@Z@std@@@2@$0A@@std@@@std@@QAEPAU?$_Tree_node@U?$pair@$$CBV?$basic_string@DU?$char_traits@D@std@@V?$allocator@D@2@@std@@P6AXPADPAH@Z@std@@PAX@2@XZ 100175f8     DatabaseImpl.obj
 0002:0000361c       __unwindtable$?_Buyheadnode@?$_Tree_comp_alloc@V?$_Tmap_traits@V?$basic_string@DU?$char_traits@D@std@@V?$allocator@D@2@@std@@P6AXPADPAH@ZU?$less@V?$basic_string@DU?$char_traits@D@std@@V?$allocator@D@2@@std@@@2@V?$allocator@U?$pair@$$CBV?$basic_string@DU?$char_traits@D@std@@V?$allocator@D@2@@std@@P6AXPADPAH@Z@std@@@2@$0A@@std@@@std@@QAEPAU?$_Tree_node@U?$pair@$$CBV?$basic_string@DU?$char_traits@D@std@@V?$allocator@D@2@@std@@P6AXPADPAH@Z@std@@PAX@2@XZ 1001761c     DatabaseImpl.obj
 0002:0000362c       __tryblocktable$?_Buyheadnode@?$_Tree_comp_alloc@V?$_Tmap_traits@V?$basic_string@DU?$char_traits@D@std@@V?$allocator@D@2@@std@@P6AXPADPAH@ZU?$less@V?$basic_string@DU?$char_traits@D@std@@V?$allocator@D@2@@std@@@2@V?$allocator@U?$pair@$$CBV?$basic_string@DU?$char_traits@D@std@@V?$allocator@D@2@@std@@P6AXPADPAH@Z@std@@@2@$0A@@std@@@std@@QAEPAU?$_Tree_node@U?$pair@$$CBV?$basic_string@DU?$char_traits@D@std@@V?$allocator@D@2@@std@@P6AXPADPAH@Z@std@@PAX@2@XZ 1001762c     DatabaseImpl.obj
 0002:00003640       __catchsym$?_Buyheadnode@?$_Tree_comp_alloc@V?$_Tmap_traits@V?$basic_string@DU?$char_traits@D@std@@V?$allocator@D@2@@std@@P6AXPADPAH@ZU?$less@V?$basic_string@DU?$char_traits@D@std@@V?$allocator@D@2@@std@@@2@V?$allocator@U?$pair@$$CBV?$basic_string@DU?$char_traits@D@std@@V?$allocator@D@2@@std@@P6AXPADPAH@Z@std@@@2@$0A@@std@@@std@@QAEPAU?$_Tree_node@U?$pair@$$CBV?$basic_string@DU?$char_traits@D@std@@V?$allocator@D@2@@std@@P6AXPADPAH@Z@std@@PAX@2@XZ$2 10017640     DatabaseImpl.obj
 0002:00003650       __ehfuncinfo$??$_Buynode@ABUpiecewise_construct_t@std@@V?$tuple@$$QAV?$basic_string@DU?$char_traits@D@std@@V?$allocator@D@2@@std@@@2@V?$tuple@$$V@2@@?$_Tree_comp_alloc@V?$_Tmap_traits@V?$basic_string@DU?$char_traits@D@std@@V?$allocator@D@2@@std@@P6AXPADPAH@ZU?$less@V?$basic_string@DU?$char_traits@D@std@@V?$allocator@D@2@@std@@@2@V?$allocator@U?$pair@$$CBV?$basic_string@DU?$char_traits@D@std@@V?$allocator@D@2@@std@@P6AXPADPAH@Z@std@@@2@$0A@@std@@@std@@QAEPAU?$_Tree_node@U?$pair@$$CBV?$basic_string@DU?$char_traits@D@std@@V?$allocator@D@2@@std@@P6AXPADPAH@Z@std@@PAX@1@ABUpiecewise_construct_t@1@$$QAV?$tuple@$$QAV?$basic_string@DU?$char_traits@D@std@@V?$allocator@D@2@@std@@@1@$$QAV?$tuple@$$V@1@@Z 10017650     DatabaseImpl.obj
 0002:00003674       __unwindtable$??$_Buynode@ABUpiecewise_construct_t@std@@V?$tuple@$$QAV?$basic_string@DU?$char_traits@D@std@@V?$allocator@D@2@@std@@@2@V?$tuple@$$V@2@@?$_Tree_comp_alloc@V?$_Tmap_traits@V?$basic_string@DU?$char_traits@D@std@@V?$allocator@D@2@@std@@P6AXPADPAH@ZU?$less@V?$basic_string@DU?$char_traits@D@std@@V?$allocator@D@2@@std@@@2@V?$allocator@U?$pair@$$CBV?$basic_string@DU?$char_traits@D@std@@V?$allocator@D@2@@std@@P6AXPADPAH@Z@std@@@2@$0A@@std@@@std@@QAEPAU?$_Tree_node@U?$pair@$$CBV?$basic_string@DU?$char_traits@D@std@@V?$allocator@D@2@@std@@P6AXPADPAH@Z@std@@PAX@1@ABUpiecewise_construct_t@1@$$QAV?$tuple@$$QAV?$basic_string@DU?$char_traits@D@std@@V?$allocator@D@2@@std@@@1@$$QAV?$tuple@$$V@1@@Z 10017674     DatabaseImpl.obj
 0002:00003684       __tryblocktable$??$_Buynode@ABUpiecewise_construct_t@std@@V?$tuple@$$QAV?$basic_string@DU?$char_traits@D@std@@V?$allocator@D@2@@std@@@2@V?$tuple@$$V@2@@?$_Tree_comp_alloc@V?$_Tmap_traits@V?$basic_string@DU?$char_traits@D@std@@V?$allocator@D@2@@std@@P6AXPADPAH@ZU?$less@V?$basic_string@DU?$char_traits@D@std@@V?$allocator@D@2@@std@@@2@V?$allocator@U?$pair@$$CBV?$basic_string@DU?$char_traits@D@std@@V?$allocator@D@2@@std@@P6AXPADPAH@Z@std@@@2@$0A@@std@@@std@@QAEPAU?$_Tree_node@U?$pair@$$CBV?$basic_string@DU?$char_traits@D@std@@V?$allocator@D@2@@std@@P6AXPADPAH@Z@std@@PAX@1@ABUpiecewise_construct_t@1@$$QAV?$tuple@$$QAV?$basic_string@DU?$char_traits@D@std@@V?$allocator@D@2@@std@@@1@$$QAV?$tuple@$$V@1@@Z 10017684     DatabaseImpl.obj
 0002:00003698       __catchsym$??$_Buynode@ABUpiecewise_construct_t@std@@V?$tuple@$$QAV?$basic_string@DU?$char_traits@D@std@@V?$allocator@D@2@@std@@@2@V?$tuple@$$V@2@@?$_Tree_comp_alloc@V?$_Tmap_traits@V?$basic_string@DU?$char_traits@D@std@@V?$allocator@D@2@@std@@P6AXPADPAH@ZU?$less@V?$basic_string@DU?$char_traits@D@std@@V?$allocator@D@2@@std@@@2@V?$allocator@U?$pair@$$CBV?$basic_string@DU?$char_traits@D@std@@V?$allocator@D@2@@std@@P6AXPADPAH@Z@std@@@2@$0A@@std@@@std@@QAEPAU?$_Tree_node@U?$pair@$$CBV?$basic_string@DU?$char_traits@D@std@@V?$allocator@D@2@@std@@P6AXPADPAH@Z@std@@PAX@1@ABUpiecewise_construct_t@1@$$QAV?$tuple@$$QAV?$basic_string@DU?$char_traits@D@std@@V?$allocator@D@2@@std@@@1@$$QAV?$tuple@$$V@1@@Z$2 10017698     DatabaseImpl.obj
 0002:000036a8       __ehfuncinfo$??$_Insert_hint@AAU?$pair@$$CBV?$basic_string@DU?$char_traits@D@std@@V?$allocator@D@2@@std@@P6AXPADPAH@Z@std@@PAU?$_Tree_node@U?$pair@$$CBV?$basic_string@DU?$char_traits@D@std@@V?$allocator@D@2@@std@@P6AXPADPAH@Z@std@@PAX@2@@?$_Tree@V?$_Tmap_traits@V?$basic_string@DU?$char_traits@D@std@@V?$allocator@D@2@@std@@P6AXPADPAH@ZU?$less@V?$basic_string@DU?$char_traits@D@std@@V?$allocator@D@2@@std@@@2@V?$allocator@U?$pair@$$CBV?$basic_string@DU?$char_traits@D@std@@V?$allocator@D@2@@std@@P6AXPADPAH@Z@std@@@2@$0A@@std@@@std@@IAE?AV?$_Tree_iterator@V?$_Tree_val@U?$_Tree_simple_types@U?$pair@$$CBV?$basic_string@DU?$char_traits@D@std@@V?$allocator@D@2@@std@@P6AXPADPAH@Z@std@@@std@@@std@@@1@V?$_Tree_const_iterator@V?$_Tree_val@U?$_Tree_simple_types@U?$pair@$$CBV?$basic_string@DU?$char_traits@D@std@@V?$allocator@D@2@@std@@P6AXPADPAH@Z@std@@@std@@@std@@@1@AAU?$pair@$$CBV?$basic_string@DU?$char_traits@D@std@@V?$allocator@D@2@@std@@P6AXPADPAH@Z@1@PAU?$_Tree_node@U?$pair@$$CBV?$basic_string@DU?$char_traits@D@std@@V?$allocator@D@2@@std@@P6AXPADPAH@Z@std@@PAX@1@@Z 100176a8     DatabaseImpl.obj
 0002:000036cc       __unwindtable$??$_Insert_hint@AAU?$pair@$$CBV?$basic_string@DU?$char_traits@D@std@@V?$allocator@D@2@@std@@P6AXPADPAH@Z@std@@PAU?$_Tree_node@U?$pair@$$CBV?$basic_string@DU?$char_traits@D@std@@V?$allocator@D@2@@std@@P6AXPADPAH@Z@std@@PAX@2@@?$_Tree@V?$_Tmap_traits@V?$basic_string@DU?$char_traits@D@std@@V?$allocator@D@2@@std@@P6AXPADPAH@ZU?$less@V?$basic_string@DU?$char_traits@D@std@@V?$allocator@D@2@@std@@@2@V?$allocator@U?$pair@$$CBV?$basic_string@DU?$char_traits@D@std@@V?$allocator@D@2@@std@@P6AXPADPAH@Z@std@@@2@$0A@@std@@@std@@IAE?AV?$_Tree_iterator@V?$_Tree_val@U?$_Tree_simple_types@U?$pair@$$CBV?$basic_string@DU?$char_traits@D@std@@V?$allocator@D@2@@std@@P6AXPADPAH@Z@std@@@std@@@std@@@1@V?$_Tree_const_iterator@V?$_Tree_val@U?$_Tree_simple_types@U?$pair@$$CBV?$basic_string@DU?$char_traits@D@std@@V?$allocator@D@2@@std@@P6AXPADPAH@Z@std@@@std@@@std@@@1@AAU?$pair@$$CBV?$basic_string@DU?$char_traits@D@std@@V?$allocator@D@2@@std@@P6AXPADPAH@Z@1@PAU?$_Tree_node@U?$pair@$$CBV?$basic_string@DU?$char_traits@D@std@@V?$allocator@D@2@@std@@P6AXPADPAH@Z@std@@PAX@1@@Z 100176cc     DatabaseImpl.obj
 0002:000036dc       __tryblocktable$??$_Insert_hint@AAU?$pair@$$CBV?$basic_string@DU?$char_traits@D@std@@V?$allocator@D@2@@std@@P6AXPADPAH@Z@std@@PAU?$_Tree_node@U?$pair@$$CBV?$basic_string@DU?$char_traits@D@std@@V?$allocator@D@2@@std@@P6AXPADPAH@Z@std@@PAX@2@@?$_Tree@V?$_Tmap_traits@V?$basic_string@DU?$char_traits@D@std@@V?$allocator@D@2@@std@@P6AXPADPAH@ZU?$less@V?$basic_string@DU?$char_traits@D@std@@V?$allocator@D@2@@std@@@2@V?$allocator@U?$pair@$$CBV?$basic_string@DU?$char_traits@D@std@@V?$allocator@D@2@@std@@P6AXPADPAH@Z@std@@@2@$0A@@std@@@std@@IAE?AV?$_Tree_iterator@V?$_Tree_val@U?$_Tree_simple_types@U?$pair@$$CBV?$basic_string@DU?$char_traits@D@std@@V?$allocator@D@2@@std@@P6AXPADPAH@Z@std@@@std@@@std@@@1@V?$_Tree_const_iterator@V?$_Tree_val@U?$_Tree_simple_types@U?$pair@$$CBV?$basic_string@DU?$char_traits@D@std@@V?$allocator@D@2@@std@@P6AXPADPAH@Z@std@@@std@@@std@@@1@AAU?$pair@$$CBV?$basic_string@DU?$char_traits@D@std@@V?$allocator@D@2@@std@@P6AXPADPAH@Z@1@PAU?$_Tree_node@U?$pair@$$CBV?$basic_string@DU?$char_traits@D@std@@V?$allocator@D@2@@std@@P6AXPADPAH@Z@std@@PAX@1@@Z 100176dc     DatabaseImpl.obj
 0002:000036f0       __catchsym$??$_Insert_hint@AAU?$pair@$$CBV?$basic_string@DU?$char_traits@D@std@@V?$allocator@D@2@@std@@P6AXPADPAH@Z@std@@PAU?$_Tree_node@U?$pair@$$CBV?$basic_string@DU?$char_traits@D@std@@V?$allocator@D@2@@std@@P6AXPADPAH@Z@std@@PAX@2@@?$_Tree@V?$_Tmap_traits@V?$basic_string@DU?$char_traits@D@std@@V?$allocator@D@2@@std@@P6AXPADPAH@ZU?$less@V?$basic_string@DU?$char_traits@D@std@@V?$allocator@D@2@@std@@@2@V?$allocator@U?$pair@$$CBV?$basic_string@DU?$char_traits@D@std@@V?$allocator@D@2@@std@@P6AXPADPAH@Z@std@@@2@$0A@@std@@@std@@IAE?AV?$_Tree_iterator@V?$_Tree_val@U?$_Tree_simple_types@U?$pair@$$CBV?$basic_string@DU?$char_traits@D@std@@V?$allocator@D@2@@std@@P6AXPADPAH@Z@std@@@std@@@std@@@1@V?$_Tree_const_iterator@V?$_Tree_val@U?$_Tree_simple_types@U?$pair@$$CBV?$basic_string@DU?$char_traits@D@std@@V?$allocator@D@2@@std@@P6AXPADPAH@Z@std@@@std@@@std@@@1@AAU?$pair@$$CBV?$basic_string@DU?$char_traits@D@std@@V?$allocator@D@2@@std@@P6AXPADPAH@Z@1@PAU?$_Tree_node@U?$pair@$$CBV?$basic_string@DU?$char_traits@D@std@@V?$allocator@D@2@@std@@P6AXPADPAH@Z@std@@PAX@1@@Z$2 100176f0     DatabaseImpl.obj
 0002:00003700       __ehfuncinfo$?_Buynode0@?$_Tree_comp_alloc@V?$_Tmap_traits@V?$basic_string@DU?$char_traits@D@std@@V?$allocator@D@2@@std@@P6AXPADPAH@ZU?$less@V?$basic_string@DU?$char_traits@D@std@@V?$allocator@D@2@@std@@@2@V?$allocator@U?$pair@$$CBV?$basic_string@DU?$char_traits@D@std@@V?$allocator@D@2@@std@@P6AXPADPAH@Z@std@@@2@$0A@@std@@@std@@QAEPAU?$_Tree_node@U?$pair@$$CBV?$basic_string@DU?$char_traits@D@std@@V?$allocator@D@2@@std@@P6AXPADPAH@Z@std@@PAX@2@XZ 10017700     DatabaseImpl.obj
 0002:00003724       __unwindtable$?_Buynode0@?$_Tree_comp_alloc@V?$_Tmap_traits@V?$basic_string@DU?$char_traits@D@std@@V?$allocator@D@2@@std@@P6AXPADPAH@ZU?$less@V?$basic_string@DU?$char_traits@D@std@@V?$allocator@D@2@@std@@@2@V?$allocator@U?$pair@$$CBV?$basic_string@DU?$char_traits@D@std@@V?$allocator@D@2@@std@@P6AXPADPAH@Z@std@@@2@$0A@@std@@@std@@QAEPAU?$_Tree_node@U?$pair@$$CBV?$basic_string@DU?$char_traits@D@std@@V?$allocator@D@2@@std@@P6AXPADPAH@Z@std@@PAX@2@XZ 10017724     DatabaseImpl.obj
 0002:00003734       __tryblocktable$?_Buynode0@?$_Tree_comp_alloc@V?$_Tmap_traits@V?$basic_string@DU?$char_traits@D@std@@V?$allocator@D@2@@std@@P6AXPADPAH@ZU?$less@V?$basic_string@DU?$char_traits@D@std@@V?$allocator@D@2@@std@@@2@V?$allocator@U?$pair@$$CBV?$basic_string@DU?$char_traits@D@std@@V?$allocator@D@2@@std@@P6AXPADPAH@Z@std@@@2@$0A@@std@@@std@@QAEPAU?$_Tree_node@U?$pair@$$CBV?$basic_string@DU?$char_traits@D@std@@V?$allocator@D@2@@std@@P6AXPADPAH@Z@std@@PAX@2@XZ 10017734     DatabaseImpl.obj
 0002:00003748       __catchsym$?_Buynode0@?$_Tree_comp_alloc@V?$_Tmap_traits@V?$basic_string@DU?$char_traits@D@std@@V?$allocator@D@2@@std@@P6AXPADPAH@ZU?$less@V?$basic_string@DU?$char_traits@D@std@@V?$allocator@D@2@@std@@@2@V?$allocator@U?$pair@$$CBV?$basic_string@DU?$char_traits@D@std@@V?$allocator@D@2@@std@@P6AXPADPAH@Z@std@@@2@$0A@@std@@@std@@QAEPAU?$_Tree_node@U?$pair@$$CBV?$basic_string@DU?$char_traits@D@std@@V?$allocator@D@2@@std@@P6AXPADPAH@Z@std@@PAX@2@XZ$2 10017748     DatabaseImpl.obj
 0002:00003758       __ehfuncinfo$??$_Insert_nohint@AAU?$pair@$$CBV?$basic_string@DU?$char_traits@D@std@@V?$allocator@D@2@@std@@P6AXPADPAH@Z@std@@PAU?$_Tree_node@U?$pair@$$CBV?$basic_string@DU?$char_traits@D@std@@V?$allocator@D@2@@std@@P6AXPADPAH@Z@std@@PAX@2@@?$_Tree@V?$_Tmap_traits@V?$basic_string@DU?$char_traits@D@std@@V?$allocator@D@2@@std@@P6AXPADPAH@ZU?$less@V?$basic_string@DU?$char_traits@D@std@@V?$allocator@D@2@@std@@@2@V?$allocator@U?$pair@$$CBV?$basic_string@DU?$char_traits@D@std@@V?$allocator@D@2@@std@@P6AXPADPAH@Z@std@@@2@$0A@@std@@@std@@IAE?AU?$pair@V?$_Tree_iterator@V?$_Tree_val@U?$_Tree_simple_types@U?$pair@$$CBV?$basic_string@DU?$char_traits@D@std@@V?$allocator@D@2@@std@@P6AXPADPAH@Z@std@@@std@@@std@@@std@@_N@1@_NAAU?$pair@$$CBV?$basic_string@DU?$char_traits@D@std@@V?$allocator@D@2@@std@@P6AXPADPAH@Z@1@PAU?$_Tree_node@U?$pair@$$CBV?$basic_string@DU?$char_traits@D@std@@V?$allocator@D@2@@std@@P6AXPADPAH@Z@std@@PAX@1@@Z 10017758     DatabaseImpl.obj
 0002:0000377c       __unwindtable$??$_Insert_nohint@AAU?$pair@$$CBV?$basic_string@DU?$char_traits@D@std@@V?$allocator@D@2@@std@@P6AXPADPAH@Z@std@@PAU?$_Tree_node@U?$pair@$$CBV?$basic_string@DU?$char_traits@D@std@@V?$allocator@D@2@@std@@P6AXPADPAH@Z@std@@PAX@2@@?$_Tree@V?$_Tmap_traits@V?$basic_string@DU?$char_traits@D@std@@V?$allocator@D@2@@std@@P6AXPADPAH@ZU?$less@V?$basic_string@DU?$char_traits@D@std@@V?$allocator@D@2@@std@@@2@V?$allocator@U?$pair@$$CBV?$basic_string@DU?$char_traits@D@std@@V?$allocator@D@2@@std@@P6AXPADPAH@Z@std@@@2@$0A@@std@@@std@@IAE?AU?$pair@V?$_Tree_iterator@V?$_Tree_val@U?$_Tree_simple_types@U?$pair@$$CBV?$basic_string@DU?$char_traits@D@std@@V?$allocator@D@2@@std@@P6AXPADPAH@Z@std@@@std@@@std@@@std@@_N@1@_NAAU?$pair@$$CBV?$basic_string@DU?$char_traits@D@std@@V?$allocator@D@2@@std@@P6AXPADPAH@Z@1@PAU?$_Tree_node@U?$pair@$$CBV?$basic_string@DU?$char_traits@D@std@@V?$allocator@D@2@@std@@P6AXPADPAH@Z@std@@PAX@1@@Z 1001777c     DatabaseImpl.obj
 0002:0000378c       __tryblocktable$??$_Insert_nohint@AAU?$pair@$$CBV?$basic_string@DU?$char_traits@D@std@@V?$allocator@D@2@@std@@P6AXPADPAH@Z@std@@PAU?$_Tree_node@U?$pair@$$CBV?$basic_string@DU?$char_traits@D@std@@V?$allocator@D@2@@std@@P6AXPADPAH@Z@std@@PAX@2@@?$_Tree@V?$_Tmap_traits@V?$basic_string@DU?$char_traits@D@std@@V?$allocator@D@2@@std@@P6AXPADPAH@ZU?$less@V?$basic_string@DU?$char_traits@D@std@@V?$allocator@D@2@@std@@@2@V?$allocator@U?$pair@$$CBV?$basic_string@DU?$char_traits@D@std@@V?$allocator@D@2@@std@@P6AXPADPAH@Z@std@@@2@$0A@@std@@@std@@IAE?AU?$pair@V?$_Tree_iterator@V?$_Tree_val@U?$_Tree_simple_types@U?$pair@$$CBV?$basic_string@DU?$char_traits@D@std@@V?$allocator@D@2@@std@@P6AXPADPAH@Z@std@@@std@@@std@@@std@@_N@1@_NAAU?$pair@$$CBV?$basic_string@DU?$char_traits@D@std@@V?$allocator@D@2@@std@@P6AXPADPAH@Z@1@PAU?$_Tree_node@U?$pair@$$CBV?$basic_string@DU?$char_traits@D@std@@V?$allocator@D@2@@std@@P6AXPADPAH@Z@std@@PAX@1@@Z 1001778c     DatabaseImpl.obj
 0002:000037a0       __catchsym$??$_Insert_nohint@AAU?$pair@$$CBV?$basic_string@DU?$char_traits@D@std@@V?$allocator@D@2@@std@@P6AXPADPAH@Z@std@@PAU?$_Tree_node@U?$pair@$$CBV?$basic_string@DU?$char_traits@D@std@@V?$allocator@D@2@@std@@P6AXPADPAH@Z@std@@PAX@2@@?$_Tree@V?$_Tmap_traits@V?$basic_string@DU?$char_traits@D@std@@V?$allocator@D@2@@std@@P6AXPADPAH@ZU?$less@V?$basic_string@DU?$char_traits@D@std@@V?$allocator@D@2@@std@@@2@V?$allocator@U?$pair@$$CBV?$basic_string@DU?$char_traits@D@std@@V?$allocator@D@2@@std@@P6AXPADPAH@Z@std@@@2@$0A@@std@@@std@@IAE?AU?$pair@V?$_Tree_iterator@V?$_Tree_val@U?$_Tree_simple_types@U?$pair@$$CBV?$basic_string@DU?$char_traits@D@std@@V?$allocator@D@2@@std@@P6AXPADPAH@Z@std@@@std@@@std@@@std@@_N@1@_NAAU?$pair@$$CBV?$basic_string@DU?$char_traits@D@std@@V?$allocator@D@2@@std@@P6AXPADPAH@Z@1@PAU?$_Tree_node@U?$pair@$$CBV?$basic_string@DU?$char_traits@D@std@@V?$allocator@D@2@@std@@P6AXPADPAH@Z@std@@PAX@1@@Z$2 100177a0     DatabaseImpl.obj
 0002:000037b0       __ehfuncinfo$??$construct@U?$pair@$$CBV?$basic_string@DU?$char_traits@D@std@@V?$allocator@D@2@@std@@P6AXPADPAH@Z@std@@ABUpiecewise_construct_t@2@V?$tuple@$$QAV?$basic_string@DU?$char_traits@D@std@@V?$allocator@D@2@@std@@@2@V?$tuple@$$V@2@@?$allocator@U?$_Tree_node@U?$pair@$$CBV?$basic_string@DU?$char_traits@D@std@@V?$allocator@D@2@@std@@P6AXPADPAH@Z@std@@PAX@std@@@std@@QAEXPAU?$pair@$$CBV?$basic_string@DU?$char_traits@D@std@@V?$allocator@D@2@@std@@P6AXPADPAH@Z@1@ABUpiecewise_construct_t@1@$$QAV?$tuple@$$QAV?$basic_string@DU?$char_traits@D@std@@V?$allocator@D@2@@std@@@1@$$QAV?$tuple@$$V@1@@Z 100177b0     DatabaseImpl.obj
 0002:000037d4       __unwindtable$??$construct@U?$pair@$$CBV?$basic_string@DU?$char_traits@D@std@@V?$allocator@D@2@@std@@P6AXPADPAH@Z@std@@ABUpiecewise_construct_t@2@V?$tuple@$$QAV?$basic_string@DU?$char_traits@D@std@@V?$allocator@D@2@@std@@@2@V?$tuple@$$V@2@@?$allocator@U?$_Tree_node@U?$pair@$$CBV?$basic_string@DU?$char_traits@D@std@@V?$allocator@D@2@@std@@P6AXPADPAH@Z@std@@PAX@std@@@std@@QAEXPAU?$pair@$$CBV?$basic_string@DU?$char_traits@D@std@@V?$allocator@D@2@@std@@P6AXPADPAH@Z@1@ABUpiecewise_construct_t@1@$$QAV?$tuple@$$QAV?$basic_string@DU?$char_traits@D@std@@V?$allocator@D@2@@std@@@1@$$QAV?$tuple@$$V@1@@Z 100177d4     DatabaseImpl.obj
 0002:000037e0       __sehtable$?ConvertStringToBSTR@_com_util@@YGPA_WPBD@Z 100177e0     comsuppw:comutil.obj
 0002:000037fc       __catchsym$?ConvertBSTRToString@_com_util@@YGPADPA_W@Z$2 100177fc     comsuppw:comutil.obj
 0002:0000380c       __unwindtable$?ConvertBSTRToString@_com_util@@YGPADPA_W@Z 1001780c     comsuppw:comutil.obj
 0002:0000381c       __tryblocktable$?ConvertBSTRToString@_com_util@@YGPADPA_W@Z 1001781c     comsuppw:comutil.obj
 0002:00003830       __ehfuncinfo$?ConvertBSTRToString@_com_util@@YGPADPA_W@Z 10017830     comsuppw:comutil.obj
 0002:00003888       __sehtable$___scrt_is_nonwritable_in_current_image 10017888     MSVCRT:utility.obj
 0002:000038a8       __sehtable$?dllmain_crt_process_attach@@YAHQAUHINSTANCE__@@QAX@Z 100178a8     MSVCRT:dll_dllmain.obj
 0002:000038c8       __sehtable$?dllmain_crt_process_detach@@YAH_N@Z 100178c8     MSVCRT:dll_dllmain.obj
 0002:000038e8       __sehtable$?dllmain_dispatch@@YAHQAUHINSTANCE__@@KQAX@Z 100178e8     MSVCRT:dll_dllmain.obj
 0002:000039a0       .edata                     100179a0     Database.exp
 0002:000039c8       rgpv                       100179c8     Database.exp
 0002:000039e0       rgszName                   100179e0     Database.exp
 0002:000039f8       rgwOrd                     100179f8     Database.exp
 0002:00003a04       szName                     10017a04     Database.exp
 0002:00003a11       $N00001                    10017a11     Database.exp
 0002:00003a35       $N00002                    10017a35     Database.exp
 0002:00003a5b       $N00003                    10017a5b     Database.exp
 0002:00003a79       $N00004                    10017a79     Database.exp
 0002:00003a9f       $N00005                    10017a9f     Database.exp
 0002:00003ac7       $N00006                    10017ac7     Database.exp
 0002:00003d56       .idata$6                   10017d56     xlogger:xLogger.dll
 0002:00003dc2       .idata$6                   10017dc2     Utilities:Utilities.dll
 0002:00003e52       .idata$6                   10017e52     kernel32:KERNEL32.dll
 0002:00003ea0       .idata$6                   10017ea0     ole32:ole32.dll
 0002:00003eaa       .idata$6                   10017eaa     oleaut32:OLEAUT32.dll
 0002:00003f12       .idata$6                   10017f12     msvcprt:MSVCP140.dll
 0002:00003ffe       .idata$6                   10017ffe     vcruntime:VCRUNTIME140.dll
 0002:0000418a       .idata$6                   1001818a     ucrt:api-ms-win-crt-stdio-l1-1-0.dll
 0002:000041aa       .idata$6                   100181aa     ucrt:api-ms-win-crt-runtime-l1-1-0.dll
 0002:000041cc       .idata$6                   100181cc     ucrt:api-ms-win-crt-heap-l1-1-0.dll
 0002:000041ec       .idata$6                   100181ec     ucrt:api-ms-win-crt-string-l1-1-0.dll
 0003:000001e8       ?_Tss_mutex@@3U_RTL_CRITICAL_SECTION@@A 100191e8     MSVCRT:thread_safe_statics.obj
 0003:00000200       ?_Tss_cv@@3U_RTL_CONDITION_VARIABLE@@A 10019200     MSVCRT:thread_safe_statics.obj
 0003:00000204       ?_Tss_event@@3PAXA         10019204     MSVCRT:thread_safe_statics.obj
 0003:00000208       ?encoded_sleep_condition_variable_cs@@3P6GHPAU_RTL_CONDITION_VARIABLE@@PAU_RTL_CRITICAL_SECTION@@K@ZA 10019208     MSVCRT:thread_safe_statics.obj
 0003:0000020c       ?encoded_wake_all_condition_variable@@3P6GXPAU_RTL_CONDITION_VARIABLE@@@ZA 1001920c     MSVCRT:thread_safe_statics.obj
 0003:00000218       ?module_local_atexit_table@@3U_onexit_table_t@@A 10019218     MSVCRT:utility.obj
 0003:00000224       ?module_local_at_quick_exit_table@@3U_onexit_table_t@@A 10019224     MSVCRT:utility.obj
 0003:00000230       ?is_initialized_as_dll@@3_NA 10019230     MSVCRT:utility.obj
 0003:00000234       ?__proc_attached@@3HA      10019234     MSVCRT:dll_dllmain.obj
 0003:00000238       _GS_ExceptionRecord        10019238     MSVCRT:gs_report.obj
 0003:00000288       _GS_ContextRecord          10019288     MSVCRT:gs_report.obj
 0004:00000000       __guard_fids__             1001a000     comsuppw:comsupp.obj
 0004:00000004       __guard_fids_??__EvtMissing@@YAXXZ 1001a004     comsuppw:comutil.obj
 0004:00000008       __guard_fids__             1001a008     comsuppw:comutil.obj
 0004:0000000c       __guard_fids__             1001a00c     comsuppw:comraise.obj
 0004:00000010       __guard_fids__             1001a010     comsuppw:comraise.obj
 0004:00000014       __guard_fids__             1001a014     comsuppw:comraise.obj
 0004:00000018       __guard_fids__             1001a018     MSVCRT:thread_safe_statics.obj
 0004:0000001c       __guard_fids_?__scrt_initialize_thread_safe_statics@@YAHXZ 1001a01c     MSVCRT:thread_safe_statics.obj
 0004:00000020       __guard_fids__             1001a020     MSVCRT:std_type_info_static.obj
 0004:00000024       __guard_fids_?dllmain_crt_process_attach@@YAHQAUHINSTANCE__@@QAX@Z 1001a024     MSVCRT:dll_dllmain.obj
 0004:0000002c       __guard_fids_?dllmain_dispatch@@YAHQAUHINSTANCE__@@KQAX@Z 1001a02c     MSVCRT:dll_dllmain.obj
 0004:00000030       __guard_fids___except_handler4 1001a030     MSVCRT:_chandler4gs_.obj
 0004:00000034       __guard_fids__             1001a034     MSVCRT:throw_bad_alloc.obj
 0004:0000003c       __guard_fids__             1001a03c     MSVCRT:throw_bad_alloc.obj
 0004:00000044       __guard_fids__             1001a044     MSVCRT:throw_bad_alloc.obj
 0004:0000004c       __guard_fids__             1001a04c     MSVCRT:throw_bad_alloc.obj
 0004:00000050       __guard_fids__             1001a050     MSVCRT:throw_bad_alloc.obj
 0004:00000054       __guard_fids__             1001a054     MSVCRT:throw_bad_alloc.obj
 0004:00000058       __guard_fids__             1001a058     MSVCRT:throw_bad_alloc.obj
 0004:0000005c       __guard_fids__             1001a05c     MSVCRT:throw_bad_alloc.obj
 0004:00000060       __guard_fids__             1001a060     MSVCRT:guard_support.obj
 0006:000000a0       $R000000                   1001c0a0     Database.res
 0006:000003c8       $R000328                   1001c3c8     Database.res
