 socketold

 Timestamp is 58f85d7a (Thu Apr 20 12:34:26 2017)

 Preferred load address is 10000000

 Start         Length     Name                   Class
 0001:00000000 0000d3f0H .text$mn                CODE
 0001:0000d3f0 000007e3H .text$x                 CODE
 0002:00000000 00000158H .idata$5                DATA
 0002:00000158 00000004H .00cfg                  DATA
 0002:0000015c 00000004H .CRT$XCA                DATA
 0002:00000160 00000004H .CRT$XCZ                DATA
 0002:00000164 00000004H .CRT$XIA                DATA
 0002:00000168 00000004H .CRT$XIZ                DATA
 0002:0000016c 00000004H .CRT$XPA                DATA
 0002:00000170 00000004H .CRT$XPZ                DATA
 0002:00000174 00000004H .CRT$XTA                DATA
 0002:00000178 00000008H .CRT$XTZ                DATA
 0002:00000180 000013bcH .rdata                  DATA
 0002:0000153c 00000264H .rdata$r                DATA
 0002:000017a0 000000acH .rdata$sxdata           DATA
 0002:0000184c 000002ccH .rdata$zzzdbg           DATA
 0002:00001b18 00000004H .rtc$IAA                DATA
 0002:00001b1c 00000004H .rtc$IZZ                DATA
 0002:00001b20 00000004H .rtc$TAA                DATA
 0002:00001b24 00000004H .rtc$TZZ                DATA
 0002:00001b28 00000ae8H .xdata$x                DATA
 0002:00002610 000000f8H .edata                  DATA
 0002:00002708 0000008cH .idata$2                DATA
 0002:00002794 00000014H .idata$3                DATA
 0002:000027a8 00000158H .idata$4                DATA
 0002:00002900 000005caH .idata$6                DATA
 0003:00000000 00000020H .data                   DATA
 0003:00000020 000000d8H .data$r                 DATA
 0003:000000f8 00000374H .bss                    DATA
 0004:00000000 00000044H .gfids$y                DATA
 0005:00000000 000000a0H .rsrc$01                DATA
 0005:000000a0 000004a0H .rsrc$02                DATA

  Address         Publics by Value              Rva+Base       Lib:Object

 0000:00000000       ___guard_fids_table        00000000     <absolute>
 0000:00000000       ___guard_longjmp_table     00000000     <absolute>
 0000:00000000       ___guard_fids_count        00000000     <absolute>
 0000:00000000       ___guard_longjmp_count     00000000     <absolute>
 0000:00000000       ___guard_iat_table         00000000     <absolute>
 0000:00000000       ___guard_iat_count         00000000     <absolute>
 0000:00000000       ___dynamic_value_reloc_table 00000000     <absolute>
 0000:0000002b       ___safe_se_handler_count   0000002b     <absolute>
 0000:00000100       ___guard_flags             00000100     <absolute>
 0000:00000000       ___ImageBase               10000000     <linker-defined>
 0001:00000000       _DllMain@12                10001000 f   dllmain.obj
 0001:00000020       ??0CIOCPBuffer@@QAE@XZ     10001020 f   IOCPBuffer.obj
 0001:00000050       ??_ECIOCPBuffer@@UAEPAXI@Z 10001050 f i * CIL library *:* CIL module *
 0001:00000050       ??_GCIOCPBuffer@@UAEPAXI@Z 10001050 f i IOCPBuffer.obj
 0001:00000090       ?Init@CIOCPBuffer@@QAEXXZ  10001090 f   IOCPBuffer.obj
 0001:000000e0       ??1CIOCPBuffer@@UAE@XZ     100010e0 f   IOCPBuffer.obj
 0001:00000100       ?GetBuffer@CIOCPBuffer@@QAEPAEXZ 10001100 f   IOCPBuffer.obj
 0001:00000120       ?AddData@CIOCPBuffer@@QAEHE@Z 10001120 f   IOCPBuffer.obj
 0001:00000140       ?AddData@CIOCPBuffer@@QAEHI@Z 10001140 f   IOCPBuffer.obj
 0001:00000160       ?AddData@CIOCPBuffer@@QAEHPBEI@Z 10001160 f   IOCPBuffer.obj
 0001:000001c0       ?GetUsed@CIOCPBuffer@@QAEIXZ 100011c0 f   IOCPBuffer.obj
 0001:000001e0       ?Use@CIOCPBuffer@@QAEII@Z  100011e0 f   IOCPBuffer.obj
 0001:00000210       ?EmptyUsed@CIOCPBuffer@@QAEXXZ 10001210 f   IOCPBuffer.obj
 0001:00000230       ?SetOperation@CIOCPBuffer@@QAEXH@Z 10001230 f   IOCPBuffer.obj
 0001:00000260       ?SetupZeroByteRead@CIOCPBuffer@@QAEXXZ 10001260 f   IOCPBuffer.obj
 0001:00000290       ?SetupRead@CIOCPBuffer@@QAEXXZ 10001290 f   IOCPBuffer.obj
 0001:000002f0       ?SetupWrite@CIOCPBuffer@@QAEXXZ 100012f0 f   IOCPBuffer.obj
 0001:00000320       ?GetWSABuffer@CIOCPBuffer@@QAEPAU_WSABUF@@XZ 10001320 f   IOCPBuffer.obj
 0001:00000340       ?GetOperation@CIOCPBuffer@@QAEHXZ 10001340 f   IOCPBuffer.obj
 0001:00000360       ?Flush@CIOCPBuffer@@QAEHI@Z 10001360 f   IOCPBuffer.obj
 0001:000003c0       ?SetSequenceNumber@CIOCPBuffer@@QAEXH@Z 100013c0 f   IOCPBuffer.obj
 0001:000003e0       ?GetSequenceNumber@CIOCPBuffer@@QAEHXZ 100013e0 f   IOCPBuffer.obj
 0001:00000400       ?CreatePackage@CIOCPBuffer@@QAEHEV?$basic_string@DU?$char_traits@D@std@@V?$allocator@D@2@@std@@@Z 10001400 f   IOCPBuffer.obj
 0001:00000500       ?CreatePackage@CIOCPBuffer@@QAEHEIPAD@Z 10001500 f   IOCPBuffer.obj
 0001:00000580       ?GetPackageSize@CIOCPBuffer@@QAEIXZ 10001580 f   IOCPBuffer.obj
 0001:000005c0       ?GetPackageInfo@CIOCPBuffer@@QAEHAAEAAIPAD@Z 100015c0 f   IOCPBuffer.obj
 0001:00000650       ??0?$_List_iterator@V?$_List_val@U?$_List_simple_types@PAVCIOCPBuffer@@@std@@@std@@@std@@QAE@XZ 10001650 f i IOCPBuffer.obj
 0001:00000670       ?length@?$basic_string@DU?$char_traits@D@std@@V?$allocator@D@2@@std@@QBEIXZ 10001670 f i IOCPBuffer.obj
 0001:00000690       ??4?$basic_string@DU?$char_traits@D@std@@V?$allocator@D@2@@std@@QAEAAV01@PBD@Z 10001690 f i IOCPBuffer.obj
 0001:000006b0       ??1?$basic_string@DU?$char_traits@D@std@@V?$allocator@D@2@@std@@QAE@XZ 100016b0 f i IOCPBuffer.obj
 0001:00000700       ??1?$_String_alloc@U?$_String_base_types@DV?$allocator@D@std@@@std@@@std@@QAE@XZ 10001700 f i IOCPBuffer.obj
 0001:00000720       ??1?$_Compressed_pair@U?$_Wrap_alloc@V?$allocator@D@std@@@std@@V?$_String_val@U?$_Simple_types@D@std@@@2@$00@std@@QAE@XZ 10001720 f i IOCPBuffer.obj
 0001:00000740       ??1?$_String_val@U?$_Simple_types@D@std@@@std@@QAE@XZ 10001740 f i IOCPBuffer.obj
 0001:00000760       ??0?$_Tree_const_iterator@V?$_Tree_val@U?$_Tree_simple_types@U?$pair@$$CBIPAVCIOCPBuffer@@@std@@@std@@@std@@@std@@QAE@XZ 10001760 f i IOCPS.obj
 0001:00000760       ??0?$_Tree_const_iterator@V?$_Tree_val@U?$_Tree_simple_types@U?$pair@$$CBGPAX@std@@@std@@@std@@@std@@QAE@XZ 10001760 f i IOCPS.obj
 0001:00000760       ??0?$_List_const_iterator@V?$_List_val@U?$_List_simple_types@PAVCIOCPBuffer@@@std@@@std@@@std@@QAE@XZ 10001760 f i IOCPBuffer.obj
 0001:00000760       ??0?$_Tree_const_iterator@V?$_Tree_val@U?$_Tree_simple_types@U?$pair@$$CBIPAUClientContext@@@std@@@std@@@std@@@std@@QAE@XZ 10001760 f i IOCPS.obj
 0001:00000780       ??1_Bxty@?$_String_val@U?$_Simple_types@D@std@@@std@@QAE@XZ 10001780 f i IOCPBuffer.obj
 0001:00000790       ?_Mysize@?$_String_alloc@U?$_String_base_types@DV?$allocator@D@std@@@std@@@std@@QAEAAIXZ 10001790 f i IOCPBuffer.obj
 0001:00000790       ?_Mysize@?$_String_alloc@U?$_String_base_types@DV?$allocator@D@std@@@std@@@std@@QBEABIXZ 10001790 f i IOCPBuffer.obj
 0001:000007b0       ?_Tidy@?$basic_string@DU?$char_traits@D@std@@V?$allocator@D@2@@std@@QAEX_NI@Z 100017b0 f i IOCPBuffer.obj
 0001:00000870       ?assign@?$basic_string@DU?$char_traits@D@std@@V?$allocator@D@2@@std@@QAEAAV12@PBD@Z 10001870 f i IOCPBuffer.obj
 0001:000008a0       ??0?$_Tree_unchecked_const_iterator@V?$_Tree_val@U?$_Tree_simple_types@U?$pair@$$CBGPAX@std@@@std@@@std@@U_Iterator_base0@2@@std@@QAE@XZ 100018a0 f i IOCPS.obj
 0001:000008a0       ??0?$_Tree_unchecked_const_iterator@V?$_Tree_val@U?$_Tree_simple_types@U?$pair@$$CBIPAVCIOCPBuffer@@@std@@@std@@@std@@U_Iterator_base0@2@@std@@QAE@XZ 100018a0 f i IOCPS.obj
 0001:000008a0       ??0?$_Tree_unchecked_const_iterator@V?$_Tree_val@U?$_Tree_simple_types@U?$pair@$$CBIPAUClientContext@@@std@@@std@@@std@@U_Iterator_base0@2@@std@@QAE@XZ 100018a0 f i IOCPS.obj
 0001:000008a0       ??0?$_List_unchecked_const_iterator@V?$_List_val@U?$_List_simple_types@PAVCIOCPBuffer@@@std@@@std@@U_Iterator_base0@2@@std@@QAE@XZ 100018a0 f i IOCPBuffer.obj
 0001:000008c0       ?deallocate@?$_Wrap_alloc@V?$allocator@D@std@@@std@@QAEXPADI@Z 100018c0 f i IOCPBuffer.obj
 0001:000008e0       ?_Myres@?$_String_alloc@U?$_String_base_types@DV?$allocator@D@std@@@std@@@std@@QAEAAIXZ 100018e0 f i IOCPBuffer.obj
 0001:00000900       ?_Myhead@?$_List_alloc@U?$_List_base_types@PAXV?$allocator@PAX@std@@@std@@@std@@QAEAAPAU?$_List_node@PAXPAX@2@XZ 10001900 f i IOCPS.obj
 0001:00000900       ?_Myhead@?$_List_alloc@U?$_List_base_types@PAUClientContext@@V?$allocator@PAUClientContext@@@std@@@std@@@std@@QAEAAPAU?$_List_node@PAUClientContext@@PAX@2@XZ 10001900 f i IOCPS.obj
 0001:00000900       ?_Myhead@?$_List_alloc@U?$_List_base_types@PAUJobItem@@V?$allocator@PAUJobItem@@@std@@@std@@@std@@QAEAAPAU?$_List_node@PAUJobItem@@PAX@2@XZ 10001900 f i IOCPS.obj
 0001:00000900       ?_Myhead@?$_List_alloc@U?$_List_base_types@PAVCIOCPBuffer@@V?$allocator@PAVCIOCPBuffer@@@std@@@std@@@std@@QAEAAPAU?$_List_node@PAVCIOCPBuffer@@PAX@2@XZ 10001900 f i IOCPS.obj
 0001:00000900       ?_Bx@?$_String_alloc@U?$_String_base_types@DV?$allocator@D@std@@@std@@@std@@QAEAAT_Bxty@?$_String_val@U?$_Simple_types@D@std@@@2@XZ 10001900 f i IOCPBuffer.obj
 0001:00000920       ?_Getcomp@?$_Tree_comp_alloc@V?$_Tmap_traits@GPAXU?$less@G@std@@V?$allocator@U?$pair@$$CBGPAX@std@@@2@$0A@@std@@@std@@QAEAAU?$less@G@2@XZ 10001920 f i IOCPS.obj
 0001:00000920       ?_Getal@?$_List_alloc@U?$_List_base_types@PAXV?$allocator@PAX@std@@@std@@@std@@QBEABU?$_Wrap_alloc@V?$allocator@U?$_List_node@PAXPAX@std@@@std@@@2@XZ 10001920 f i IOCPS.obj
 0001:00000920       ?_Get_data@?$_String_alloc@U?$_String_base_types@DV?$allocator@D@std@@@std@@@std@@QBEABV?$_String_val@U?$_Simple_types@D@std@@@2@XZ 10001920 f i IOCPBuffer.obj
 0001:00000920       ?_Get_data@?$_String_alloc@U?$_String_base_types@DV?$allocator@D@std@@@std@@@std@@QAEAAV?$_String_val@U?$_Simple_types@D@std@@@2@XZ 10001920 f i IOCPBuffer.obj
 0001:00000920       ?_Getal@?$_List_alloc@U?$_List_base_types@PAUClientContext@@V?$allocator@PAUClientContext@@@std@@@std@@@std@@QAEAAU?$_Wrap_alloc@V?$allocator@U?$_List_node@PAUClientContext@@PAX@std@@@std@@@2@XZ 10001920 f i IOCPS.obj
 0001:00000920       ?_Getcomp@?$_Tree_comp_alloc@V?$_Tmap_traits@IPAVCIOCPBuffer@@U?$less@I@std@@V?$allocator@U?$pair@$$CBIPAVCIOCPBuffer@@@std@@@3@$0A@@std@@@std@@QAEAAU?$less@I@2@XZ 10001920 f i IOCPS.obj
 0001:00000920       ?_Getal@?$_List_alloc@U?$_List_base_types@PAVCIOCPBuffer@@V?$allocator@PAVCIOCPBuffer@@@std@@@std@@@std@@QAEAAU?$_Wrap_alloc@V?$allocator@U?$_List_node@PAVCIOCPBuffer@@PAX@std@@@std@@@2@XZ 10001920 f i IOCPS.obj
 0001:00000920       ?_Getcomp@?$_Tree_comp_alloc@V?$_Tmap_traits@IPAVCIOCPBuffer@@U?$less@I@std@@V?$allocator@U?$pair@$$CBIPAVCIOCPBuffer@@@std@@@3@$0A@@std@@@std@@QBEABU?$less@I@2@XZ 10001920 f i IOCPS.obj
 0001:00000920       ?_Getal@?$_List_alloc@U?$_List_base_types@PAUClientContext@@V?$allocator@PAUClientContext@@@std@@@std@@@std@@QBEABU?$_Wrap_alloc@V?$allocator@U?$_List_node@PAUClientContext@@PAX@std@@@std@@@2@XZ 10001920 f i IOCPS.obj
 0001:00000920       ?_Get_data@?$_List_alloc@U?$_List_base_types@PAUJobItem@@V?$allocator@PAUJobItem@@@std@@@std@@@std@@QAEAAV?$_List_val@U?$_List_simple_types@PAUJobItem@@@std@@@2@XZ 10001920 f i IOCPS.obj
 0001:00000920       ?_Getal@?$_String_alloc@U?$_String_base_types@DV?$allocator@D@std@@@std@@@std@@QAEAAU?$_Wrap_alloc@V?$allocator@D@std@@@2@XZ 10001920 f i IOCPBuffer.obj
 0001:00000920       ?_Get_data@?$_List_alloc@U?$_List_base_types@PAUJobItem@@V?$allocator@PAUJobItem@@@std@@@std@@@std@@QBEABV?$_List_val@U?$_List_simple_types@PAUJobItem@@@std@@@2@XZ 10001920 f i IOCPS.obj
 0001:00000920       ?_Get_data@?$_List_alloc@U?$_List_base_types@PAVCIOCPBuffer@@V?$allocator@PAVCIOCPBuffer@@@std@@@std@@@std@@QBEABV?$_List_val@U?$_List_simple_types@PAVCIOCPBuffer@@@std@@@2@XZ 10001920 f i IOCPS.obj
 0001:00000920       ?_Getal@?$_List_alloc@U?$_List_base_types@PAVCIOCPBuffer@@V?$allocator@PAVCIOCPBuffer@@@std@@@std@@@std@@QBEABU?$_Wrap_alloc@V?$allocator@U?$_List_node@PAVCIOCPBuffer@@PAX@std@@@std@@@2@XZ 10001920 f i IOCPS.obj
 0001:00000920       ?_Get_data@?$_List_alloc@U?$_List_base_types@PAXV?$allocator@PAX@std@@@std@@@std@@QBEABV?$_List_val@U?$_List_simple_types@PAX@std@@@2@XZ 10001920 f i IOCPS.obj
 0001:00000920       ?_Get_data@?$_List_alloc@U?$_List_base_types@PAXV?$allocator@PAX@std@@@std@@@std@@QAEAAV?$_List_val@U?$_List_simple_types@PAX@std@@@2@XZ 10001920 f i IOCPS.obj
 0001:00000920       ?_Getcomp@?$_Tree_comp_alloc@V?$_Tmap_traits@IPAUClientContext@@U?$less@I@std@@V?$allocator@U?$pair@$$CBIPAUClientContext@@@std@@@3@$0A@@std@@@std@@QAEAAU?$less@I@2@XZ 10001920 f i IOCPS.obj
 0001:00000920       ?_Getal@?$_String_alloc@U?$_String_base_types@DV?$allocator@D@std@@@std@@@std@@QBEABU?$_Wrap_alloc@V?$allocator@D@std@@@2@XZ 10001920 f i IOCPBuffer.obj
 0001:00000920       ?_Getal@?$_List_alloc@U?$_List_base_types@PAXV?$allocator@PAX@std@@@std@@@std@@QAEAAU?$_Wrap_alloc@V?$allocator@U?$_List_node@PAXPAX@std@@@std@@@2@XZ 10001920 f i IOCPS.obj
 0001:00000920       ?_Get_data@?$_List_alloc@U?$_List_base_types@PAVCIOCPBuffer@@V?$allocator@PAVCIOCPBuffer@@@std@@@std@@@std@@QAEAAV?$_List_val@U?$_List_simple_types@PAVCIOCPBuffer@@@std@@@2@XZ 10001920 f i IOCPS.obj
 0001:00000920       ?_Get_data@?$_List_alloc@U?$_List_base_types@PAUClientContext@@V?$allocator@PAUClientContext@@@std@@@std@@@std@@QBEABV?$_List_val@U?$_List_simple_types@PAUClientContext@@@std@@@2@XZ 10001920 f i IOCPS.obj
 0001:00000920       ?_Get_data@?$_List_alloc@U?$_List_base_types@PAUClientContext@@V?$allocator@PAUClientContext@@@std@@@std@@@std@@QAEAAV?$_List_val@U?$_List_simple_types@PAUClientContext@@@std@@@2@XZ 10001920 f i IOCPS.obj
 0001:00000920       ?_Getcomp@?$_Tree_comp_alloc@V?$_Tmap_traits@GPAXU?$less@G@std@@V?$allocator@U?$pair@$$CBGPAX@std@@@2@$0A@@std@@@std@@QBEABU?$less@G@2@XZ 10001920 f i IOCPS.obj
 0001:00000920       ?_Getcomp@?$_Tree_comp_alloc@V?$_Tmap_traits@IPAUClientContext@@U?$less@I@std@@V?$allocator@U?$pair@$$CBIPAUClientContext@@@std@@@3@$0A@@std@@@std@@QBEABU?$less@I@2@XZ 10001920 f i IOCPS.obj
 0001:00000920       ?_Getal@?$_List_alloc@U?$_List_base_types@PAUJobItem@@V?$allocator@PAUJobItem@@@std@@@std@@@std@@QAEAAU?$_Wrap_alloc@V?$allocator@U?$_List_node@PAUJobItem@@PAX@std@@@std@@@2@XZ 10001920 f i IOCPS.obj
 0001:00000940       ?_Eos@?$basic_string@DU?$char_traits@D@std@@V?$allocator@D@2@@std@@QAEXI@Z 10001940 f i IOCPBuffer.obj
 0001:00000980       ?assign@?$basic_string@DU?$char_traits@D@std@@V?$allocator@D@2@@std@@QAEAAV12@PBDI@Z 10001980 f i IOCPBuffer.obj
 0001:00000a00       ?_Get_first@?$_Compressed_pair@U?$less@G@std@@V?$_Compressed_pair@U?$_Wrap_alloc@V?$allocator@U?$_Tree_node@U?$pair@$$CBGPAX@std@@PAX@std@@@std@@@std@@V?$_Tree_val@U?$_Tree_simple_types@U?$pair@$$CBGPAX@std@@@std@@@2@$00@2@$00@std@@QAEAAU?$less@G@2@XZ 10001a00 f i IOCPS.obj
 0001:00000a00       ?_Get_second@?$_Compressed_pair@U?$_Wrap_alloc@V?$allocator@U?$_List_node@PAUJobItem@@PAX@std@@@std@@@std@@V?$_List_val@U?$_List_simple_types@PAUJobItem@@@std@@@2@$00@std@@QBEABV?$_List_val@U?$_List_simple_types@PAUJobItem@@@std@@@2@XZ 10001a00 f i IOCPS.obj
 0001:00000a00       ?_Get_second@?$_Compressed_pair@U?$_Wrap_alloc@V?$allocator@U?$_List_node@PAVCIOCPBuffer@@PAX@std@@@std@@@std@@V?$_List_val@U?$_List_simple_types@PAVCIOCPBuffer@@@std@@@2@$00@std@@QBEABV?$_List_val@U?$_List_simple_types@PAVCIOCPBuffer@@@std@@@2@XZ 10001a00 f i IOCPS.obj
 0001:00000a00       ?_Get_second@?$_Compressed_pair@U?$_Wrap_alloc@V?$allocator@U?$_List_node@PAUJobItem@@PAX@std@@@std@@@std@@V?$_List_val@U?$_List_simple_types@PAUJobItem@@@std@@@2@$00@std@@QAEAAV?$_List_val@U?$_List_simple_types@PAUJobItem@@@std@@@2@XZ 10001a00 f i IOCPS.obj
 0001:00000a00       ??0?$allocator@U?$_Tree_node@U?$pair@$$CBGPAX@std@@PAX@std@@@std@@QAE@XZ 10001a00 f i IOCPS.obj
 0001:00000a00       ?_Get_second@?$_Compressed_pair@U?$_Wrap_alloc@V?$allocator@U?$_Tree_node@U?$pair@$$CBGPAX@std@@PAX@std@@@std@@@std@@V?$_Tree_val@U?$_Tree_simple_types@U?$pair@$$CBGPAX@std@@@std@@@2@$00@std@@QBEABV?$_Tree_val@U?$_Tree_simple_types@U?$pair@$$CBGPAX@std@@@std@@@2@XZ 10001a00 f i IOCPS.obj
 0001:00000a00       ?_Get_first@?$_Compressed_pair@U?$_Wrap_alloc@V?$allocator@U?$_List_node@PAXPAX@std@@@std@@@std@@V?$_List_val@U?$_List_simple_types@PAX@std@@@2@$00@std@@QBEABU?$_Wrap_alloc@V?$allocator@U?$_List_node@PAXPAX@std@@@std@@@2@XZ 10001a00 f i IOCPS.obj
 0001:00000a00       ?_Get_first@?$_Compressed_pair@U?$_Wrap_alloc@V?$allocator@U?$_Tree_node@U?$pair@$$CBGPAX@std@@PAX@std@@@std@@@std@@V?$_Tree_val@U?$_Tree_simple_types@U?$pair@$$CBGPAX@std@@@std@@@2@$00@std@@QBEABU?$_Wrap_alloc@V?$allocator@U?$_Tree_node@U?$pair@$$CBGPAX@std@@PAX@std@@@std@@@2@XZ 10001a00 f i IOCPS.obj
 0001:00000a00       ?_Get_first@?$_Compressed_pair@U?$_Wrap_alloc@V?$allocator@U?$_Tree_node@U?$pair@$$CBIPAUClientContext@@@std@@PAX@std@@@std@@@std@@V?$_Tree_val@U?$_Tree_simple_types@U?$pair@$$CBIPAUClientContext@@@std@@@std@@@2@$00@std@@QBEABU?$_Wrap_alloc@V?$allocator@U?$_Tree_node@U?$pair@$$CBIPAUClientContext@@@std@@PAX@std@@@std@@@2@XZ 10001a00 f i IOCPS.obj
 0001:00000a00       ??0?$tuple@$$V@std@@QAE@XZ 10001a00 f i IOCPS.obj
 0001:00000a00       ?_Get_first@?$_Compressed_pair@U?$_Wrap_alloc@V?$allocator@U?$_Tree_node@U?$pair@$$CBIPAUClientContext@@@std@@PAX@std@@@std@@@std@@V?$_Tree_val@U?$_Tree_simple_types@U?$pair@$$CBIPAUClientContext@@@std@@@std@@@2@$00@std@@QAEAAU?$_Wrap_alloc@V?$allocator@U?$_Tree_node@U?$pair@$$CBIPAUClientContext@@@std@@PAX@std@@@std@@@2@XZ 10001a00 f i IOCPS.obj
 0001:00000a00       ?_Get_second@?$_Compressed_pair@U?$_Wrap_alloc@V?$allocator@U?$_Tree_node@U?$pair@$$CBIPAUClientContext@@@std@@PAX@std@@@std@@@std@@V?$_Tree_val@U?$_Tree_simple_types@U?$pair@$$CBIPAUClientContext@@@std@@@std@@@2@$00@std@@QBEABV?$_Tree_val@U?$_Tree_simple_types@U?$pair@$$CBIPAUClientContext@@@std@@@std@@@2@XZ 10001a00 f i IOCPS.obj
 0001:00000a00       ?_Get_first@?$_Compressed_pair@U?$_Wrap_alloc@V?$allocator@U?$_List_node@PAVCIOCPBuffer@@PAX@std@@@std@@@std@@V?$_List_val@U?$_List_simple_types@PAVCIOCPBuffer@@@std@@@2@$00@std@@QBEABU?$_Wrap_alloc@V?$allocator@U?$_List_node@PAVCIOCPBuffer@@PAX@std@@@std@@@2@XZ 10001a00 f i IOCPS.obj
 0001:00000a00       ?_Get_first@?$_Compressed_pair@U?$_Wrap_alloc@V?$allocator@U?$_Tree_node@U?$pair@$$CBGPAX@std@@PAX@std@@@std@@@std@@V?$_Tree_val@U?$_Tree_simple_types@U?$pair@$$CBGPAX@std@@@std@@@2@$00@std@@QAEAAU?$_Wrap_alloc@V?$allocator@U?$_Tree_node@U?$pair@$$CBGPAX@std@@PAX@std@@@std@@@2@XZ 10001a00 f i IOCPS.obj
 0001:00000a00       ?_Get_first@?$_Compressed_pair@U?$_Wrap_alloc@V?$allocator@U?$_Tree_node@U?$pair@$$CBIPAVCIOCPBuffer@@@std@@PAX@std@@@std@@@std@@V?$_Tree_val@U?$_Tree_simple_types@U?$pair@$$CBIPAVCIOCPBuffer@@@std@@@std@@@2@$00@std@@QAEAAU?$_Wrap_alloc@V?$allocator@U?$_Tree_node@U?$pair@$$CBIPAVCIOCPBuffer@@@std@@PAX@std@@@std@@@2@XZ 10001a00 f i IOCPS.obj
 0001:00000a00       ?_Get_first@?$_Compressed_pair@U?$less@I@std@@V?$_Compressed_pair@U?$_Wrap_alloc@V?$allocator@U?$_Tree_node@U?$pair@$$CBIPAVCIOCPBuffer@@@std@@PAX@std@@@std@@@std@@V?$_Tree_val@U?$_Tree_simple_types@U?$pair@$$CBIPAVCIOCPBuffer@@@std@@@std@@@2@$00@2@$00@std@@QBEABU?$less@I@2@XZ 10001a00 f i IOCPS.obj
 0001:00000a00       ?_Get_second@?$_Compressed_pair@U?$_Wrap_alloc@V?$allocator@U?$_List_node@PAUClientContext@@PAX@std@@@std@@@std@@V?$_List_val@U?$_List_simple_types@PAUClientContext@@@std@@@2@$00@std@@QBEABV?$_List_val@U?$_List_simple_types@PAUClientContext@@@std@@@2@XZ 10001a00 f i IOCPS.obj
 0001:00000a00       ?_Get_first@?$_Compressed_pair@U?$_Wrap_alloc@V?$allocator@D@std@@@std@@V?$_String_val@U?$_Simple_types@D@std@@@2@$00@std@@QBEABU?$_Wrap_alloc@V?$allocator@D@std@@@2@XZ 10001a00 f i IOCPBuffer.obj
 0001:00000a00       ?_Get_first@?$_Compressed_pair@U?$less@I@std@@V?$_Compressed_pair@U?$_Wrap_alloc@V?$allocator@U?$_Tree_node@U?$pair@$$CBIPAUClientContext@@@std@@PAX@std@@@std@@@std@@V?$_Tree_val@U?$_Tree_simple_types@U?$pair@$$CBIPAUClientContext@@@std@@@std@@@2@$00@2@$00@std@@QAEAAU?$less@I@2@XZ 10001a00 f i IOCPS.obj
 0001:00000a00       ?_Get_second@?$_Compressed_pair@U?$_Wrap_alloc@V?$allocator@U?$_List_node@PAUClientContext@@PAX@std@@@std@@@std@@V?$_List_val@U?$_List_simple_types@PAUClientContext@@@std@@@2@$00@std@@QAEAAV?$_List_val@U?$_List_simple_types@PAUClientContext@@@std@@@2@XZ 10001a00 f i IOCPS.obj
 0001:00000a00       ?_Get_second@?$_Compressed_pair@U?$_Wrap_alloc@V?$allocator@D@std@@@std@@V?$_String_val@U?$_Simple_types@D@std@@@2@$00@std@@QBEABV?$_String_val@U?$_Simple_types@D@std@@@2@XZ 10001a00 f i IOCPBuffer.obj
 0001:00000a00       ?_Get_second@?$_Compressed_pair@U?$less@G@std@@V?$_Compressed_pair@U?$_Wrap_alloc@V?$allocator@U?$_Tree_node@U?$pair@$$CBGPAX@std@@PAX@std@@@std@@@std@@V?$_Tree_val@U?$_Tree_simple_types@U?$pair@$$CBGPAX@std@@@std@@@2@$00@2@$00@std@@QAEAAV?$_Compressed_pair@U?$_Wrap_alloc@V?$allocator@U?$_Tree_node@U?$pair@$$CBGPAX@std@@PAX@std@@@std@@@std@@V?$_Tree_val@U?$_Tree_simple_types@U?$pair@$$CBGPAX@std@@@std@@@2@$00@2@XZ 10001a00 f i IOCPS.obj
 0001:00000a00       ?_Get_second@?$_Compressed_pair@U?$_Wrap_alloc@V?$allocator@U?$_Tree_node@U?$pair@$$CBIPAUClientContext@@@std@@PAX@std@@@std@@@std@@V?$_Tree_val@U?$_Tree_simple_types@U?$pair@$$CBIPAUClientContext@@@std@@@std@@@2@$00@std@@QAEAAV?$_Tree_val@U?$_Tree_simple_types@U?$pair@$$CBIPAUClientContext@@@std@@@std@@@2@XZ 10001a00 f i IOCPS.obj
 0001:00000a00       ??0?$allocator@U?$_Tree_node@U?$pair@$$CBIPAVCIOCPBuffer@@@std@@PAX@std@@@std@@QAE@XZ 10001a00 f i IOCPS.obj
 0001:00000a00       ?_Get_second@?$_Compressed_pair@U?$less@G@std@@V?$_Compressed_pair@U?$_Wrap_alloc@V?$allocator@U?$_Tree_node@U?$pair@$$CBGPAX@std@@PAX@std@@@std@@@std@@V?$_Tree_val@U?$_Tree_simple_types@U?$pair@$$CBGPAX@std@@@std@@@2@$00@2@$00@std@@QBEABV?$_Compressed_pair@U?$_Wrap_alloc@V?$allocator@U?$_Tree_node@U?$pair@$$CBGPAX@std@@PAX@std@@@std@@@std@@V?$_Tree_val@U?$_Tree_simple_types@U?$pair@$$CBGPAX@std@@@std@@@2@$00@2@XZ 10001a00 f i IOCPS.obj
 0001:00000a00       ??0?$allocator@U?$_List_node@PAVCIOCPBuffer@@PAX@std@@@std@@QAE@XZ 10001a00 f i IOCPS.obj
 0001:00000a00       ??0?$allocator@U?$_List_node@PAUClientContext@@PAX@std@@@std@@QAE@XZ 10001a00 f i IOCPS.obj
 0001:00000a00       ?_Get_first@?$_Compressed_pair@U?$_Wrap_alloc@V?$allocator@U?$_List_node@PAUJobItem@@PAX@std@@@std@@@std@@V?$_List_val@U?$_List_simple_types@PAUJobItem@@@std@@@2@$00@std@@QAEAAU?$_Wrap_alloc@V?$allocator@U?$_List_node@PAUJobItem@@PAX@std@@@std@@@2@XZ 10001a00 f i IOCPS.obj
 0001:00000a00       ??0?$allocator@U?$_List_node@PAUJobItem@@PAX@std@@@std@@QAE@XZ 10001a00 f i IOCPS.obj
 0001:00000a00       ?_Get_first@?$_Compressed_pair@U?$_Wrap_alloc@V?$allocator@D@std@@@std@@V?$_String_val@U?$_Simple_types@D@std@@@2@$00@std@@QAEAAU?$_Wrap_alloc@V?$allocator@D@std@@@2@XZ 10001a00 f i IOCPBuffer.obj
 0001:00000a00       ?_Get_first@?$_Compressed_pair@U?$_Wrap_alloc@V?$allocator@U?$_List_node@PAUClientContext@@PAX@std@@@std@@@std@@V?$_List_val@U?$_List_simple_types@PAUClientContext@@@std@@@2@$00@std@@QBEABU?$_Wrap_alloc@V?$allocator@U?$_List_node@PAUClientContext@@PAX@std@@@std@@@2@XZ 10001a00 f i IOCPS.obj
 0001:00000a00       ??0?$allocator@D@std@@QAE@XZ 10001a00 f i IOCPS.obj
 0001:00000a00       ?_Get_second@?$_Compressed_pair@U?$_Wrap_alloc@V?$allocator@U?$_List_node@PAXPAX@std@@@std@@@std@@V?$_List_val@U?$_List_simple_types@PAX@std@@@2@$00@std@@QAEAAV?$_List_val@U?$_List_simple_types@PAX@std@@@2@XZ 10001a00 f i IOCPS.obj
 0001:00000a00       ?_Get_second@?$_Compressed_pair@U?$less@I@std@@V?$_Compressed_pair@U?$_Wrap_alloc@V?$allocator@U?$_Tree_node@U?$pair@$$CBIPAUClientContext@@@std@@PAX@std@@@std@@@std@@V?$_Tree_val@U?$_Tree_simple_types@U?$pair@$$CBIPAUClientContext@@@std@@@std@@@2@$00@2@$00@std@@QBEABV?$_Compressed_pair@U?$_Wrap_alloc@V?$allocator@U?$_Tree_node@U?$pair@$$CBIPAUClientContext@@@std@@PAX@std@@@std@@@std@@V?$_Tree_val@U?$_Tree_simple_types@U?$pair@$$CBIPAUClientContext@@@std@@@std@@@2@$00@2@XZ 10001a00 f i IOCPS.obj
 0001:00000a00       ?_Get_second@?$_Compressed_pair@U?$less@I@std@@V?$_Compressed_pair@U?$_Wrap_alloc@V?$allocator@U?$_Tree_node@U?$pair@$$CBIPAUClientContext@@@std@@PAX@std@@@std@@@std@@V?$_Tree_val@U?$_Tree_simple_types@U?$pair@$$CBIPAUClientContext@@@std@@@std@@@2@$00@2@$00@std@@QAEAAV?$_Compressed_pair@U?$_Wrap_alloc@V?$allocator@U?$_Tree_node@U?$pair@$$CBIPAUClientContext@@@std@@PAX@std@@@std@@@std@@V?$_Tree_val@U?$_Tree_simple_types@U?$pair@$$CBIPAUClientContext@@@std@@@std@@@2@$00@2@XZ 10001a00 f i IOCPS.obj
 0001:00000a00       ?_Get_second@?$_Compressed_pair@U?$_Wrap_alloc@V?$allocator@U?$_Tree_node@U?$pair@$$CBIPAVCIOCPBuffer@@@std@@PAX@std@@@std@@@std@@V?$_Tree_val@U?$_Tree_simple_types@U?$pair@$$CBIPAVCIOCPBuffer@@@std@@@std@@@2@$00@std@@QAEAAV?$_Tree_val@U?$_Tree_simple_types@U?$pair@$$CBIPAVCIOCPBuffer@@@std@@@std@@@2@XZ 10001a00 f i IOCPS.obj
 0001:00000a00       ?_Get_second@?$_Compressed_pair@U?$_Wrap_alloc@V?$allocator@U?$_List_node@PAVCIOCPBuffer@@PAX@std@@@std@@@std@@V?$_List_val@U?$_List_simple_types@PAVCIOCPBuffer@@@std@@@2@$00@std@@QAEAAV?$_List_val@U?$_List_simple_types@PAVCIOCPBuffer@@@std@@@2@XZ 10001a00 f i IOCPS.obj
 0001:00000a00       ?_Get_first@?$_Compressed_pair@U?$_Wrap_alloc@V?$allocator@U?$_List_node@PAXPAX@std@@@std@@@std@@V?$_List_val@U?$_List_simple_types@PAX@std@@@2@$00@std@@QAEAAU?$_Wrap_alloc@V?$allocator@U?$_List_node@PAXPAX@std@@@std@@@2@XZ 10001a00 f i IOCPS.obj
 0001:00000a00       ?_Get_first@?$_Compressed_pair@U?$less@I@std@@V?$_Compressed_pair@U?$_Wrap_alloc@V?$allocator@U?$_Tree_node@U?$pair@$$CBIPAUClientContext@@@std@@PAX@std@@@std@@@std@@V?$_Tree_val@U?$_Tree_simple_types@U?$pair@$$CBIPAUClientContext@@@std@@@std@@@2@$00@2@$00@std@@QBEABU?$less@I@2@XZ 10001a00 f i IOCPS.obj
 0001:00000a00       ?_Get_second@?$_Compressed_pair@U?$less@I@std@@V?$_Compressed_pair@U?$_Wrap_alloc@V?$allocator@U?$_Tree_node@U?$pair@$$CBIPAVCIOCPBuffer@@@std@@PAX@std@@@std@@@std@@V?$_Tree_val@U?$_Tree_simple_types@U?$pair@$$CBIPAVCIOCPBuffer@@@std@@@std@@@2@$00@2@$00@std@@QAEAAV?$_Compressed_pair@U?$_Wrap_alloc@V?$allocator@U?$_Tree_node@U?$pair@$$CBIPAVCIOCPBuffer@@@std@@PAX@std@@@std@@@std@@V?$_Tree_val@U?$_Tree_simple_types@U?$pair@$$CBIPAVCIOCPBuffer@@@std@@@std@@@2@$00@2@XZ 10001a00 f i IOCPS.obj
 0001:00000a00       ??0?$allocator@U?$_Tree_node@U?$pair@$$CBIPAUClientContext@@@std@@PAX@std@@@std@@QAE@XZ 10001a00 f i IOCPS.obj
 0001:00000a00       ?_Get_second@?$_Compressed_pair@U?$_Wrap_alloc@V?$allocator@U?$_Tree_node@U?$pair@$$CBIPAVCIOCPBuffer@@@std@@PAX@std@@@std@@@std@@V?$_Tree_val@U?$_Tree_simple_types@U?$pair@$$CBIPAVCIOCPBuffer@@@std@@@std@@@2@$00@std@@QBEABV?$_Tree_val@U?$_Tree_simple_types@U?$pair@$$CBIPAVCIOCPBuffer@@@std@@@std@@@2@XZ 10001a00 f i IOCPS.obj
 0001:00000a00       ?_Get_first@?$_Compressed_pair@U?$less@G@std@@V?$_Compressed_pair@U?$_Wrap_alloc@V?$allocator@U?$_Tree_node@U?$pair@$$CBGPAX@std@@PAX@std@@@std@@@std@@V?$_Tree_val@U?$_Tree_simple_types@U?$pair@$$CBGPAX@std@@@std@@@2@$00@2@$00@std@@QBEABU?$less@G@2@XZ 10001a00 f i IOCPS.obj
 0001:00000a00       ?_Get_second@?$_Compressed_pair@U?$_Wrap_alloc@V?$allocator@D@std@@@std@@V?$_String_val@U?$_Simple_types@D@std@@@2@$00@std@@QAEAAV?$_String_val@U?$_Simple_types@D@std@@@2@XZ 10001a00 f i IOCPBuffer.obj
 0001:00000a00       ?_Get_second@?$_Compressed_pair@U?$less@I@std@@V?$_Compressed_pair@U?$_Wrap_alloc@V?$allocator@U?$_Tree_node@U?$pair@$$CBIPAVCIOCPBuffer@@@std@@PAX@std@@@std@@@std@@V?$_Tree_val@U?$_Tree_simple_types@U?$pair@$$CBIPAVCIOCPBuffer@@@std@@@std@@@2@$00@2@$00@std@@QBEABV?$_Compressed_pair@U?$_Wrap_alloc@V?$allocator@U?$_Tree_node@U?$pair@$$CBIPAVCIOCPBuffer@@@std@@PAX@std@@@std@@@std@@V?$_Tree_val@U?$_Tree_simple_types@U?$pair@$$CBIPAVCIOCPBuffer@@@std@@@std@@@2@$00@2@XZ 10001a00 f i IOCPS.obj
 0001:00000a00       ?_Get_second@?$_Compressed_pair@U?$_Wrap_alloc@V?$allocator@U?$_List_node@PAXPAX@std@@@std@@@std@@V?$_List_val@U?$_List_simple_types@PAX@std@@@2@$00@std@@QBEABV?$_List_val@U?$_List_simple_types@PAX@std@@@2@XZ 10001a00 f i IOCPS.obj
 0001:00000a00       ?_Get_second@?$_Compressed_pair@U?$_Wrap_alloc@V?$allocator@U?$_Tree_node@U?$pair@$$CBGPAX@std@@PAX@std@@@std@@@std@@V?$_Tree_val@U?$_Tree_simple_types@U?$pair@$$CBGPAX@std@@@std@@@2@$00@std@@QAEAAV?$_Tree_val@U?$_Tree_simple_types@U?$pair@$$CBGPAX@std@@@std@@@2@XZ 10001a00 f i IOCPS.obj
 0001:00000a00       ??0?$allocator@U?$_List_node@PAXPAX@std@@@std@@QAE@XZ 10001a00 f i IOCPS.obj
 0001:00000a00       ?_Get_first@?$_Compressed_pair@U?$_Wrap_alloc@V?$allocator@U?$_List_node@PAVCIOCPBuffer@@PAX@std@@@std@@@std@@V?$_List_val@U?$_List_simple_types@PAVCIOCPBuffer@@@std@@@2@$00@std@@QAEAAU?$_Wrap_alloc@V?$allocator@U?$_List_node@PAVCIOCPBuffer@@PAX@std@@@std@@@2@XZ 10001a00 f i IOCPS.obj
 0001:00000a00       ??0_Bxty@?$_String_val@U?$_Simple_types@D@std@@@std@@QAE@XZ 10001a00 f i IOCPS.obj
 0001:00000a00       ?_Get_first@?$_Compressed_pair@U?$_Wrap_alloc@V?$allocator@U?$_Tree_node@U?$pair@$$CBIPAVCIOCPBuffer@@@std@@PAX@std@@@std@@@std@@V?$_Tree_val@U?$_Tree_simple_types@U?$pair@$$CBIPAVCIOCPBuffer@@@std@@@std@@@2@$00@std@@QBEABU?$_Wrap_alloc@V?$allocator@U?$_Tree_node@U?$pair@$$CBIPAVCIOCPBuffer@@@std@@PAX@std@@@std@@@2@XZ 10001a00 f i IOCPS.obj
 0001:00000a00       ?_Get_first@?$_Compressed_pair@U?$less@I@std@@V?$_Compressed_pair@U?$_Wrap_alloc@V?$allocator@U?$_Tree_node@U?$pair@$$CBIPAVCIOCPBuffer@@@std@@PAX@std@@@std@@@std@@V?$_Tree_val@U?$_Tree_simple_types@U?$pair@$$CBIPAVCIOCPBuffer@@@std@@@std@@@2@$00@2@$00@std@@QAEAAU?$less@I@2@XZ 10001a00 f i IOCPS.obj
 0001:00000a00       ?_Get_first@?$_Compressed_pair@U?$_Wrap_alloc@V?$allocator@U?$_List_node@PAUClientContext@@PAX@std@@@std@@@std@@V?$_List_val@U?$_List_simple_types@PAUClientContext@@@std@@@2@$00@std@@QAEAAU?$_Wrap_alloc@V?$allocator@U?$_List_node@PAUClientContext@@PAX@std@@@std@@@2@XZ 10001a00 f i IOCPS.obj
 0001:00000a10       ?_Myptr@?$_String_val@U?$_Simple_types@D@std@@@std@@QBEPBDXZ 10001a10 f i IOCPBuffer.obj
 0001:00000a10       ?_Myptr@?$_String_val@U?$_Simple_types@D@std@@@std@@QAEPADXZ 10001a10 f i IOCPBuffer.obj
 0001:00000a50       ?_Myptr@?$_String_alloc@U?$_String_base_types@DV?$allocator@D@std@@@std@@@std@@QAEPADXZ 10001a50 f i IOCPBuffer.obj
 0001:00000a50       ?_Myptr@?$_String_alloc@U?$_String_base_types@DV?$allocator@D@std@@@std@@@std@@QBEPBDXZ 10001a50 f i IOCPBuffer.obj
 0001:00000a70       ?_Inside@?$basic_string@DU?$char_traits@D@std@@V?$allocator@D@2@@std@@QAE_NPBD@Z 10001a70 f i IOCPBuffer.obj
 0001:00000ac0       ?_Grow@?$basic_string@DU?$char_traits@D@std@@V?$allocator@D@2@@std@@QAE_NI_N@Z 10001ac0 f i IOCPBuffer.obj
 0001:00000b80       ?assign@?$basic_string@DU?$char_traits@D@std@@V?$allocator@D@2@@std@@QAEAAV12@ABV12@II@Z 10001b80 f i IOCPBuffer.obj
 0001:00000c20       ?deallocate@?$allocator@D@std@@QAEXPADI@Z 10001c20 f i IOCPBuffer.obj
 0001:00000c40       ?_Check_offset@?$basic_string@DU?$char_traits@D@std@@V?$allocator@D@2@@std@@QBEXI@Z 10001c40 f i IOCPBuffer.obj
 0001:00000c70       ?_Xlen@?$basic_string@DU?$char_traits@D@std@@V?$allocator@D@2@@std@@QBEXXZ 10001c70 f i IOCPBuffer.obj
 0001:00000c90       ?_Copy@?$basic_string@DU?$char_traits@D@std@@V?$allocator@D@2@@std@@QAEXII@Z 10001c90 f i IOCPBuffer.obj
 0001:00000e70       ?_Clamp_suffix_size@?$basic_string@DU?$char_traits@D@std@@V?$allocator@D@2@@std@@QBEIII@Z 10001e70 f i IOCPBuffer.obj
 0001:00000eb0       ?max_size@?$basic_string@DU?$char_traits@D@std@@V?$allocator@D@2@@std@@QBEIXZ 10001eb0 f i IOCPBuffer.obj
 0001:00000ef0       ?erase@?$basic_string@DU?$char_traits@D@std@@V?$allocator@D@2@@std@@QAEAAV12@II@Z 10001ef0 f i IOCPBuffer.obj
 0001:00000f80       ?erase@?$basic_string@DU?$char_traits@D@std@@V?$allocator@D@2@@std@@QAEAAV12@I@Z 10001f80 f i IOCPBuffer.obj
 0001:00000fb0       ?max_size@?$_Wrap_alloc@V?$allocator@D@std@@@std@@QBEIU_Nil@2@@Z 10001fb0 f i IOCPBuffer.obj
 0001:00000fd0       ?allocate@?$_Wrap_alloc@V?$allocator@D@std@@@std@@QAEPADI@Z 10001fd0 f i IOCPBuffer.obj
 0001:00001000       ?_Xran@?$basic_string@DU?$char_traits@D@std@@V?$allocator@D@2@@std@@QBEXXZ 10002000 f i IOCPBuffer.obj
 0001:00001020       ?max_size@?$allocator_traits@V?$allocator@D@std@@@std@@SAIABV?$allocator@D@2@@Z 10002020 f i IOCPBuffer.obj
 0001:00001030       ?allocate@?$allocator@D@std@@QAEPADI@Z 10002030 f i IOCPBuffer.obj
 0001:00001050       ?max_size@?$allocator@D@std@@QBEIXZ 10002050 f i IOCPBuffer.obj
 0001:00001060       ??$forward@G@std@@YA$$QAGAAG@Z 10002060 f i IOCPS.obj
 0001:00001060       ??$forward@AAU?$pair@$$CBIPAUClientContext@@@std@@@std@@YAAAU?$pair@$$CBIPAUClientContext@@@0@AAU10@@Z 10002060 f i IOCPS.obj
 0001:00001060       ??$forward@V?$_Tree_iterator@V?$_Tree_val@U?$_Tree_simple_types@U?$pair@$$CBIPAUClientContext@@@std@@@std@@@std@@@std@@@std@@YA$$QAV?$_Tree_iterator@V?$_Tree_val@U?$_Tree_simple_types@U?$pair@$$CBIPAUClientContext@@@std@@@std@@@std@@@0@AAV10@@Z 10002060 f i IOCPS.obj
 0001:00001060       ?_Left@?$_Tree_val@U?$_Tree_simple_types@U?$pair@$$CBIPAUClientContext@@@std@@@std@@@std@@SAAAPAU?$_Tree_node@U?$pair@$$CBIPAUClientContext@@@std@@PAX@2@PAU32@@Z 10002060 f i IOCPS.obj
 0001:00001060       ??$forward@ABQAVCIOCPBuffer@@@std@@YAABQAVCIOCPBuffer@@ABQAV1@@Z 10002060 f i IOCPS.obj
 0001:00001060       ??$forward@AAI@std@@YAAAIAAI@Z 10002060 f i IOCPS.obj
 0001:00001060       ??$forward@_N@std@@YA$$QA_NAA_N@Z 10002060 f i IOCPS.obj
 0001:00001060       ??$forward@V?$tuple@ABG@std@@@std@@YA$$QAV?$tuple@ABG@0@AAV10@@Z 10002060 f i IOCPS.obj
 0001:00001060       ??$forward@AAPAU?$_List_node@PAVCIOCPBuffer@@PAX@std@@@std@@YAAAPAU?$_List_node@PAVCIOCPBuffer@@PAX@0@AAPAU10@@Z 10002060 f i IOCPS.obj
 0001:00001060       ??$forward@AAPAU?$_List_node@PAXPAX@std@@@std@@YAAAPAU?$_List_node@PAXPAX@0@AAPAU10@@Z 10002060 f i IOCPS.obj
 0001:00001060       ??$forward@AAPAU?$_Tree_node@U?$pair@$$CBIPAUClientContext@@@std@@PAX@std@@@std@@YAAAPAU?$_Tree_node@U?$pair@$$CBIPAUClientContext@@@std@@PAX@0@AAPAU10@@Z 10002060 f i IOCPS.obj
 0001:00001060       ??$forward@AAV?$_Tree_iterator@V?$_Tree_val@U?$_Tree_simple_types@U?$pair@$$CBIPAVCIOCPBuffer@@@std@@@std@@@std@@@std@@@std@@YAAAV?$_Tree_iterator@V?$_Tree_val@U?$_Tree_simple_types@U?$pair@$$CBIPAVCIOCPBuffer@@@std@@@std@@@std@@@0@AAV10@@Z 10002060 f i IOCPS.obj
 0001:00001060       ??$forward@AAV?$_Tree_iterator@V?$_Tree_val@U?$_Tree_simple_types@U?$pair@$$CBGPAX@std@@@std@@@std@@@std@@@std@@YAAAV?$_Tree_iterator@V?$_Tree_val@U?$_Tree_simple_types@U?$pair@$$CBGPAX@std@@@std@@@std@@@0@AAV10@@Z 10002060 f i IOCPS.obj
 0001:00001060       ??$forward@U_Zero_then_variadic_args_t@std@@@std@@YA$$QAU_Zero_then_variadic_args_t@0@AAU10@@Z 10002060 f i IOCPS.obj
 0001:00001060       ??$addressof@PAUClientContext@@@std@@YAPAPAUClientContext@@AAPAU1@@Z 10002060 f i IOCPS.obj
 0001:00001060       ?_Nextnode@?$_List_val@U?$_List_simple_types@PAVCIOCPBuffer@@@std@@@std@@SAAAPAU?$_List_node@PAVCIOCPBuffer@@PAX@2@PAU32@@Z 10002060 f i IOCPS.obj
 0001:00001060       ??$forward@PAX@std@@YA$$QAPAXAAPAX@Z 10002060 f i IOCPS.obj
 0001:00001060       ??$forward@U?$pair@IPAVCIOCPBuffer@@@std@@@std@@YA$$QAU?$pair@IPAVCIOCPBuffer@@@0@AAU10@@Z 10002060 f i IOCPS.obj
 0001:00001060       ??$move@AAD@std@@YA$$QADAAD@Z 10002060 f i IOCPS.obj
 0001:00001060       ??$forward@V?$allocator@D@std@@@std@@YA$$QAV?$allocator@D@0@AAV10@@Z 10002060 f i MyIOCP.obj
 0001:00001060       ??$addressof@U?$pair@$$CBIPAVCIOCPBuffer@@@std@@@std@@YAPAU?$pair@$$CBIPAVCIOCPBuffer@@@0@AAU10@@Z 10002060 f i IOCPS.obj
 0001:00001060       ??$forward@ABU?$less@G@std@@@std@@YAABU?$less@G@0@ABU10@@Z 10002060 f i IOCPS.obj
 0001:00001060       ??$addressof@PAX@std@@YAPAPAXAAPAX@Z 10002060 f i IOCPS.obj
 0001:00001060       ?_Left@?$_Tree_val@U?$_Tree_simple_types@U?$pair@$$CBIPAVCIOCPBuffer@@@std@@@std@@@std@@SAAAPAU?$_Tree_node@U?$pair@$$CBIPAVCIOCPBuffer@@@std@@PAX@2@PAU32@@Z 10002060 f i IOCPS.obj
 0001:00001060       ??$forward@ABG@std@@YAABGABG@Z 10002060 f i IOCPS.obj
 0001:00001060       ??$forward@V?$basic_string@DU?$char_traits@D@std@@V?$allocator@D@2@@std@@@std@@YA$$QAV?$basic_string@DU?$char_traits@D@std@@V?$allocator@D@2@@0@AAV10@@Z 10002060 f i IOCPS.obj
 0001:00001060       ??$move@AAV?$tuple@ABI@std@@@std@@YA$$QAV?$tuple@ABI@0@AAV10@@Z 10002060 f i IOCPS.obj
 0001:00001060       ??$_Unfancy@D@std@@YAPADPAD@Z 10002060 f i IOCPBuffer.obj
 0001:00001060       ??$forward@AAPAVCIOCPBuffer@@@std@@YAAAPAVCIOCPBuffer@@AAPAV1@@Z 10002060 f i IOCPS.obj
 0001:00001060       ??$addressof@PAU?$_Tree_node@U?$pair@$$CBIPAVCIOCPBuffer@@@std@@PAX@std@@@std@@YAPAPAU?$_Tree_node@U?$pair@$$CBIPAVCIOCPBuffer@@@std@@PAX@0@AAPAU10@@Z 10002060 f i IOCPS.obj
 0001:00001060       ??$_Kfn@$$CBGPAX@?$_Tmap_traits@GPAXU?$less@G@std@@V?$allocator@U?$pair@$$CBGPAX@std@@@2@$0A@@std@@SAABGABU?$pair@$$CBGPAX@1@@Z 10002060 f i IOCPS.obj
 0001:00001060       ??$forward@AAPAU?$_List_node@PAUJobItem@@PAX@std@@@std@@YAAAPAU?$_List_node@PAUJobItem@@PAX@0@AAPAU10@@Z 10002060 f i IOCPS.obj
 0001:00001060       ??$_Kfn@$$CBIPAVCIOCPBuffer@@@?$_Tmap_traits@IPAVCIOCPBuffer@@U?$less@I@std@@V?$allocator@U?$pair@$$CBIPAVCIOCPBuffer@@@std@@@3@$0A@@std@@SAABIABU?$pair@$$CBIPAVCIOCPBuffer@@@1@@Z 10002060 f i IOCPS.obj
 0001:00001060       ??$move@AAU?$_Wrap_alloc@V?$allocator@D@std@@@std@@@std@@YA$$QAU?$_Wrap_alloc@V?$allocator@D@std@@@0@AAU10@@Z 10002060 f i IOCPS.obj
 0001:00001060       ??$forward@V?$_Tree_iterator@V?$_Tree_val@U?$_Tree_simple_types@U?$pair@$$CBGPAX@std@@@std@@@std@@@std@@@std@@YA$$QAV?$_Tree_iterator@V?$_Tree_val@U?$_Tree_simple_types@U?$pair@$$CBGPAX@std@@@std@@@std@@@0@AAV10@@Z 10002060 f i IOCPS.obj
 0001:00001060       ??$addressof@PAU?$_List_node@PAVCIOCPBuffer@@PAX@std@@@std@@YAPAPAU?$_List_node@PAVCIOCPBuffer@@PAX@0@AAPAU10@@Z 10002060 f i IOCPS.obj
 0001:00001060       ??$forward@AAPAD@std@@YAAAPADAAPAD@Z 10002060 f i IOCPBuffer.obj
 0001:00001060       ??$move@AAV?$tuple@ABG@std@@@std@@YA$$QAV?$tuple@ABG@0@AAV10@@Z 10002060 f i IOCPS.obj
 0001:00001060       ??$forward@V?$_Tree_iterator@V?$_Tree_val@U?$_Tree_simple_types@U?$pair@$$CBIPAVCIOCPBuffer@@@std@@@std@@@std@@@std@@@std@@YA$$QAV?$_Tree_iterator@V?$_Tree_val@U?$_Tree_simple_types@U?$pair@$$CBIPAVCIOCPBuffer@@@std@@@std@@@std@@@0@AAV10@@Z 10002060 f i IOCPS.obj
 0001:00001060       ??$forward@ABI@std@@YAABIABI@Z 10002060 f i IOCPS.obj
 0001:00001060       ??$forward@ABQAUClientContext@@@std@@YAABQAUClientContext@@ABQAU1@@Z 10002060 f i IOCPS.obj
 0001:00001060       ?_Nextnode@?$_List_val@U?$_List_simple_types@PAUJobItem@@@std@@@std@@SAAAPAU?$_List_node@PAUJobItem@@PAX@2@PAU32@@Z 10002060 f i IOCPS.obj
 0001:00001060       ??$addressof@QAVCIOCPBuffer@@@std@@YAPBQAVCIOCPBuffer@@ABQAV1@@Z 10002060 f i IOCPS.obj
 0001:00001060       ??$addressof@PAU?$_Tree_node@U?$pair@$$CBIPAUClientContext@@@std@@PAX@std@@@std@@YAPAPAU?$_Tree_node@U?$pair@$$CBIPAUClientContext@@@std@@PAX@0@AAPAU10@@Z 10002060 f i IOCPS.obj
 0001:00001060       ??$forward@ABU?$less@I@std@@@std@@YAABU?$less@I@0@ABU10@@Z 10002060 f i IOCPS.obj
 0001:00001060       ??$forward@V?$tuple@$$V@std@@@std@@YA$$QAV?$tuple@$$V@0@AAV10@@Z 10002060 f i IOCPS.obj
 0001:00001060       ??$addressof@PAU?$_Tree_node@U?$pair@$$CBGPAX@std@@PAX@std@@@std@@YAPAPAU?$_Tree_node@U?$pair@$$CBGPAX@std@@PAX@0@AAPAU10@@Z 10002060 f i IOCPS.obj
 0001:00001060       ?_Nextnode@?$_List_val@U?$_List_simple_types@PAUClientContext@@@std@@@std@@SAAAPAU?$_List_node@PAUClientContext@@PAX@2@PAU32@@Z 10002060 f i IOCPS.obj
 0001:00001060       ?_Left@?$_Tree_val@U?$_Tree_simple_types@U?$pair@$$CBGPAX@std@@@std@@@std@@SAAAPAU?$_Tree_node@U?$pair@$$CBGPAX@std@@PAX@2@PAU32@@Z 10002060 f i IOCPS.obj
 0001:00001060       ??$addressof@PAUJobItem@@@std@@YAPAPAUJobItem@@AAPAU1@@Z 10002060 f i IOCPS.obj
 0001:00001060       ??$forward@AAPAU?$_List_node@PAUClientContext@@PAX@std@@@std@@YAAAPAU?$_List_node@PAUClientContext@@PAX@0@AAPAU10@@Z 10002060 f i IOCPS.obj
 0001:00001060       ??$forward@AAPAX@std@@YAAAPAXAAPAX@Z 10002060 f i IOCPS.obj
 0001:00001060       ??$forward@U?$_Wrap_alloc@V?$allocator@D@std@@@std@@@std@@YA$$QAU?$_Wrap_alloc@V?$allocator@D@std@@@0@AAU10@@Z 10002060 f i IOCPS.obj
 0001:00001060       ??$forward@U?$pair@GPAX@std@@@std@@YA$$QAU?$pair@GPAX@0@AAU10@@Z 10002060 f i IOCPS.obj
 0001:00001060       ??$forward@V?$tuple@ABI@std@@@std@@YA$$QAV?$tuple@ABI@0@AAV10@@Z 10002060 f i IOCPS.obj
 0001:00001060       ??$addressof@PAU?$_List_node@PAXPAX@std@@@std@@YAPAPAU?$_List_node@PAXPAX@0@AAPAU10@@Z 10002060 f i IOCPS.obj
 0001:00001060       ??$forward@AAU?$pair@$$CBIPAVCIOCPBuffer@@@std@@@std@@YAAAU?$pair@$$CBIPAVCIOCPBuffer@@@0@AAU10@@Z 10002060 f i IOCPS.obj
 0001:00001060       ??$addressof@PAD@std@@YAPAPADAAPAD@Z 10002060 f i IOCPBuffer.obj
 0001:00001060       ??$forward@PAVCIOCPBuffer@@@std@@YA$$QAPAVCIOCPBuffer@@AAPAV1@@Z 10002060 f i IOCPS.obj
 0001:00001060       ??$forward@AAU?$pair@$$CBGPAX@std@@@std@@YAAAU?$pair@$$CBGPAX@0@AAU10@@Z 10002060 f i IOCPS.obj
 0001:00001060       ??$addressof@PAU?$_List_node@PAUJobItem@@PAX@std@@@std@@YAPAPAU?$_List_node@PAUJobItem@@PAX@0@AAPAU10@@Z 10002060 f i IOCPS.obj
 0001:00001060       ??$forward@AAV?$_Tree_iterator@V?$_Tree_val@U?$_Tree_simple_types@U?$pair@$$CBIPAUClientContext@@@std@@@std@@@std@@@std@@@std@@YAAAV?$_Tree_iterator@V?$_Tree_val@U?$_Tree_simple_types@U?$pair@$$CBIPAUClientContext@@@std@@@std@@@std@@@0@AAV10@@Z 10002060 f i IOCPS.obj
 0001:00001060       ??$forward@ABQAX@std@@YAABQAXABQAX@Z 10002060 f i IOCPS.obj
 0001:00001060       ??$forward@ABUpiecewise_construct_t@std@@@std@@YAABUpiecewise_construct_t@0@ABU10@@Z 10002060 f i IOCPS.obj
 0001:00001060       ??$forward@AAPAU?$_Tree_node@U?$pair@$$CBIPAVCIOCPBuffer@@@std@@PAX@std@@@std@@YAAAPAU?$_Tree_node@U?$pair@$$CBIPAVCIOCPBuffer@@@std@@PAX@0@AAPAU10@@Z 10002060 f i IOCPS.obj
 0001:00001060       ??$addressof@U?$pair@$$CBGPAX@std@@@std@@YAPAU?$pair@$$CBGPAX@0@AAU10@@Z 10002060 f i IOCPS.obj
 0001:00001060       ?_Nextnode@?$_List_val@U?$_List_simple_types@PAX@std@@@std@@SAAAPAU?$_List_node@PAXPAX@2@PAU32@@Z 10002060 f i IOCPS.obj
 0001:00001060       ??$forward@I@std@@YA$$QAIAAI@Z 10002060 f i IOCPS.obj
 0001:00001060       ??$addressof@PAVCIOCPBuffer@@@std@@YAPAPAVCIOCPBuffer@@AAPAV1@@Z 10002060 f i IOCPS.obj
 0001:00001060       ??$_Kfn@$$CBIPAUClientContext@@@?$_Tmap_traits@IPAUClientContext@@U?$less@I@std@@V?$allocator@U?$pair@$$CBIPAUClientContext@@@std@@@3@$0A@@std@@SAABIABU?$pair@$$CBIPAUClientContext@@@1@@Z 10002060 f i IOCPS.obj
 0001:00001060       ??$addressof@PAU?$_List_node@PAUClientContext@@PAX@std@@@std@@YAPAPAU?$_List_node@PAUClientContext@@PAX@0@AAPAU10@@Z 10002060 f i IOCPS.obj
 0001:00001060       ??$forward@AAPAU?$_Tree_node@U?$pair@$$CBGPAX@std@@PAX@std@@@std@@YAAAPAU?$_Tree_node@U?$pair@$$CBGPAX@std@@PAX@0@AAPAU10@@Z 10002060 f i IOCPS.obj
 0001:00001060       ??$addressof@U?$pair@$$CBIPAUClientContext@@@std@@@std@@YAPAU?$pair@$$CBIPAUClientContext@@@0@AAU10@@Z 10002060 f i IOCPS.obj
 0001:00001070       ??$destroy@PAX@?$_Wrap_alloc@V?$allocator@U?$_List_node@PAXPAX@std@@@std@@@std@@QAEXPAPAX@Z 10002070 f i IOCPS.obj
 0001:00001070       ??$destroy@PAD@?$_Wrap_alloc@V?$allocator@D@std@@@std@@QAEXPAPAD@Z 10002070 f i IOCPBuffer.obj
 0001:00001070       ??$destroy@PAUClientContext@@@?$_Wrap_alloc@V?$allocator@U?$_List_node@PAUClientContext@@PAX@std@@@std@@@std@@QAEXPAPAUClientContext@@@Z 10002070 f i IOCPS.obj
 0001:00001070       ??$destroy@PAU?$_List_node@PAXPAX@std@@@?$_Wrap_alloc@V?$allocator@U?$_List_node@PAXPAX@std@@@std@@@std@@QAEXPAPAU?$_List_node@PAXPAX@1@@Z 10002070 f i IOCPS.obj
 0001:00001070       ??$destroy@PAUJobItem@@@?$_Wrap_alloc@V?$allocator@U?$_List_node@PAUJobItem@@PAX@std@@@std@@@std@@QAEXPAPAUJobItem@@@Z 10002070 f i IOCPS.obj
 0001:00001070       ??$destroy@PAU?$_Tree_node@U?$pair@$$CBGPAX@std@@PAX@std@@@?$_Wrap_alloc@V?$allocator@U?$_Tree_node@U?$pair@$$CBGPAX@std@@PAX@std@@@std@@@std@@QAEXPAPAU?$_Tree_node@U?$pair@$$CBGPAX@std@@PAX@1@@Z 10002070 f i IOCPS.obj
 0001:00001070       ??$destroy@U?$pair@$$CBIPAVCIOCPBuffer@@@std@@@?$_Wrap_alloc@V?$allocator@U?$_Tree_node@U?$pair@$$CBIPAVCIOCPBuffer@@@std@@PAX@std@@@std@@@std@@QAEXPAU?$pair@$$CBIPAVCIOCPBuffer@@@1@@Z 10002070 f i IOCPS.obj
 0001:00001070       ??$destroy@PAU?$_Tree_node@U?$pair@$$CBIPAVCIOCPBuffer@@@std@@PAX@std@@@?$_Wrap_alloc@V?$allocator@U?$_Tree_node@U?$pair@$$CBIPAVCIOCPBuffer@@@std@@PAX@std@@@std@@@std@@QAEXPAPAU?$_Tree_node@U?$pair@$$CBIPAVCIOCPBuffer@@@std@@PAX@1@@Z 10002070 f i IOCPS.obj
 0001:00001070       ??$destroy@U?$pair@$$CBIPAUClientContext@@@std@@@?$_Wrap_alloc@V?$allocator@U?$_Tree_node@U?$pair@$$CBIPAUClientContext@@@std@@PAX@std@@@std@@@std@@QAEXPAU?$pair@$$CBIPAUClientContext@@@1@@Z 10002070 f i IOCPS.obj
 0001:00001070       ??$destroy@PAU?$_List_node@PAUJobItem@@PAX@std@@@?$_Wrap_alloc@V?$allocator@U?$_List_node@PAUJobItem@@PAX@std@@@std@@@std@@QAEXPAPAU?$_List_node@PAUJobItem@@PAX@1@@Z 10002070 f i IOCPS.obj
 0001:00001070       ??$destroy@PAU?$_List_node@PAUClientContext@@PAX@std@@@?$_Wrap_alloc@V?$allocator@U?$_List_node@PAUClientContext@@PAX@std@@@std@@@std@@QAEXPAPAU?$_List_node@PAUClientContext@@PAX@1@@Z 10002070 f i IOCPS.obj
 0001:00001070       ??$destroy@PAU?$_Tree_node@U?$pair@$$CBIPAUClientContext@@@std@@PAX@std@@@?$_Wrap_alloc@V?$allocator@U?$_Tree_node@U?$pair@$$CBIPAUClientContext@@@std@@PAX@std@@@std@@@std@@QAEXPAPAU?$_Tree_node@U?$pair@$$CBIPAUClientContext@@@std@@PAX@1@@Z 10002070 f i IOCPS.obj
 0001:00001070       ??$destroy@U?$pair@$$CBGPAX@std@@@?$_Wrap_alloc@V?$allocator@U?$_Tree_node@U?$pair@$$CBGPAX@std@@PAX@std@@@std@@@std@@QAEXPAU?$pair@$$CBGPAX@1@@Z 10002070 f i IOCPS.obj
 0001:00001070       ??$destroy@PAVCIOCPBuffer@@@?$_Wrap_alloc@V?$allocator@U?$_List_node@PAVCIOCPBuffer@@PAX@std@@@std@@@std@@QAEXPAPAVCIOCPBuffer@@@Z 10002070 f i IOCPS.obj
 0001:00001070       ??$destroy@PAU?$_List_node@PAVCIOCPBuffer@@PAX@std@@@?$_Wrap_alloc@V?$allocator@U?$_List_node@PAVCIOCPBuffer@@PAX@std@@@std@@@std@@QAEXPAPAU?$_List_node@PAVCIOCPBuffer@@PAX@1@@Z 10002070 f i IOCPS.obj
 0001:00001090       ??$construct@PAU?$_Tree_node@U?$pair@$$CBIPAUClientContext@@@std@@PAX@std@@AAPAU12@@?$_Wrap_alloc@V?$allocator@U?$_Tree_node@U?$pair@$$CBIPAUClientContext@@@std@@PAX@std@@@std@@@std@@QAEXPAPAU?$_Tree_node@U?$pair@$$CBIPAUClientContext@@@std@@PAX@1@AAPAU21@@Z 10002090 f i IOCPS.obj
 0001:00001090       ??$construct@PAU?$_List_node@PAXPAX@std@@AAPAU12@@?$_Wrap_alloc@V?$allocator@U?$_List_node@PAXPAX@std@@@std@@@std@@QAEXPAPAU?$_List_node@PAXPAX@1@AAPAU21@@Z 10002090 f i IOCPS.obj
 0001:00001090       ??$construct@PAVCIOCPBuffer@@ABQAV1@@?$_Wrap_alloc@V?$allocator@U?$_List_node@PAVCIOCPBuffer@@PAX@std@@@std@@@std@@QAEXPAPAVCIOCPBuffer@@ABQAV2@@Z 10002090 f i IOCPS.obj
 0001:00001090       ??$construct@PAU?$_Tree_node@U?$pair@$$CBGPAX@std@@PAX@std@@AAPAU12@@?$_Wrap_alloc@V?$allocator@U?$_Tree_node@U?$pair@$$CBGPAX@std@@PAX@std@@@std@@@std@@QAEXPAPAU?$_Tree_node@U?$pair@$$CBGPAX@std@@PAX@1@AAPAU21@@Z 10002090 f i IOCPS.obj
 0001:00001090       ??$construct@PADAAPAD@?$_Wrap_alloc@V?$allocator@D@std@@@std@@QAEXPAPADAAPAD@Z 10002090 f i IOCPBuffer.obj
 0001:00001090       ??$construct@PAXABQAX@?$_Wrap_alloc@V?$allocator@U?$_List_node@PAXPAX@std@@@std@@@std@@QAEXPAPAXABQAX@Z 10002090 f i IOCPS.obj
 0001:00001090       ??$construct@PAU?$_List_node@PAVCIOCPBuffer@@PAX@std@@AAPAU12@@?$_Wrap_alloc@V?$allocator@U?$_List_node@PAVCIOCPBuffer@@PAX@std@@@std@@@std@@QAEXPAPAU?$_List_node@PAVCIOCPBuffer@@PAX@1@AAPAU21@@Z 10002090 f i IOCPS.obj
 0001:00001090       ??$construct@PAU?$_Tree_node@U?$pair@$$CBIPAVCIOCPBuffer@@@std@@PAX@std@@AAPAU12@@?$_Wrap_alloc@V?$allocator@U?$_Tree_node@U?$pair@$$CBIPAVCIOCPBuffer@@@std@@PAX@std@@@std@@@std@@QAEXPAPAU?$_Tree_node@U?$pair@$$CBIPAVCIOCPBuffer@@@std@@PAX@1@AAPAU21@@Z 10002090 f i IOCPS.obj
 0001:00001090       ??$construct@PAU?$_List_node@PAUClientContext@@PAX@std@@AAPAU12@@?$_Wrap_alloc@V?$allocator@U?$_List_node@PAUClientContext@@PAX@std@@@std@@@std@@QAEXPAPAU?$_List_node@PAUClientContext@@PAX@1@AAPAU21@@Z 10002090 f i IOCPS.obj
 0001:00001090       ??$construct@PAU?$_List_node@PAUJobItem@@PAX@std@@AAPAU12@@?$_Wrap_alloc@V?$allocator@U?$_List_node@PAUJobItem@@PAX@std@@@std@@@std@@QAEXPAPAU?$_List_node@PAUJobItem@@PAX@1@AAPAU21@@Z 10002090 f i IOCPS.obj
 0001:00001090       ??$construct@PAUClientContext@@ABQAU1@@?$_Wrap_alloc@V?$allocator@U?$_List_node@PAUClientContext@@PAX@std@@@std@@@std@@QAEXPAPAUClientContext@@ABQAU2@@Z 10002090 f i IOCPS.obj
 0001:000010c0       ??$destroy@PAVCIOCPBuffer@@@?$allocator_traits@V?$allocator@U?$_List_node@PAVCIOCPBuffer@@PAX@std@@@std@@@std@@SAXAAV?$allocator@U?$_List_node@PAVCIOCPBuffer@@PAX@std@@@1@PAPAVCIOCPBuffer@@@Z 100020c0 f i IOCPS.obj
 0001:000010c0       ??$destroy@PAD@?$allocator_traits@V?$allocator@D@std@@@std@@SAXAAV?$allocator@D@1@PAPAD@Z 100020c0 f i IOCPBuffer.obj
 0001:000010c0       ??$destroy@U?$pair@$$CBIPAUClientContext@@@std@@@?$allocator_traits@V?$allocator@U?$_Tree_node@U?$pair@$$CBIPAUClientContext@@@std@@PAX@std@@@std@@@std@@SAXAAV?$allocator@U?$_Tree_node@U?$pair@$$CBIPAUClientContext@@@std@@PAX@std@@@1@PAU?$pair@$$CBIPAUClientContext@@@1@@Z 100020c0 f i IOCPS.obj
 0001:000010c0       ??$destroy@PAU?$_Tree_node@U?$pair@$$CBIPAUClientContext@@@std@@PAX@std@@@?$allocator_traits@V?$allocator@U?$_Tree_node@U?$pair@$$CBIPAUClientContext@@@std@@PAX@std@@@std@@@std@@SAXAAV?$allocator@U?$_Tree_node@U?$pair@$$CBIPAUClientContext@@@std@@PAX@std@@@1@PAPAU?$_Tree_node@U?$pair@$$CBIPAUClientContext@@@std@@PAX@1@@Z 100020c0 f i IOCPS.obj
 0001:000010c0       ??$destroy@PAU?$_Tree_node@U?$pair@$$CBIPAVCIOCPBuffer@@@std@@PAX@std@@@?$allocator_traits@V?$allocator@U?$_Tree_node@U?$pair@$$CBIPAVCIOCPBuffer@@@std@@PAX@std@@@std@@@std@@SAXAAV?$allocator@U?$_Tree_node@U?$pair@$$CBIPAVCIOCPBuffer@@@std@@PAX@std@@@1@PAPAU?$_Tree_node@U?$pair@$$CBIPAVCIOCPBuffer@@@std@@PAX@1@@Z 100020c0 f i IOCPS.obj
 0001:000010c0       ??$destroy@PAX@?$allocator_traits@V?$allocator@U?$_List_node@PAXPAX@std@@@std@@@std@@SAXAAV?$allocator@U?$_List_node@PAXPAX@std@@@1@PAPAX@Z 100020c0 f i IOCPS.obj
 0001:000010c0       ??$destroy@PAU?$_Tree_node@U?$pair@$$CBGPAX@std@@PAX@std@@@?$allocator_traits@V?$allocator@U?$_Tree_node@U?$pair@$$CBGPAX@std@@PAX@std@@@std@@@std@@SAXAAV?$allocator@U?$_Tree_node@U?$pair@$$CBGPAX@std@@PAX@std@@@1@PAPAU?$_Tree_node@U?$pair@$$CBGPAX@std@@PAX@1@@Z 100020c0 f i IOCPS.obj
 0001:000010c0       ??$destroy@PAUClientContext@@@?$allocator_traits@V?$allocator@U?$_List_node@PAUClientContext@@PAX@std@@@std@@@std@@SAXAAV?$allocator@U?$_List_node@PAUClientContext@@PAX@std@@@1@PAPAUClientContext@@@Z 100020c0 f i IOCPS.obj
 0001:000010c0       ??$destroy@PAU?$_List_node@PAVCIOCPBuffer@@PAX@std@@@?$allocator_traits@V?$allocator@U?$_List_node@PAVCIOCPBuffer@@PAX@std@@@std@@@std@@SAXAAV?$allocator@U?$_List_node@PAVCIOCPBuffer@@PAX@std@@@1@PAPAU?$_List_node@PAVCIOCPBuffer@@PAX@1@@Z 100020c0 f i IOCPS.obj
 0001:000010c0       ??$destroy@PAU?$_List_node@PAXPAX@std@@@?$allocator_traits@V?$allocator@U?$_List_node@PAXPAX@std@@@std@@@std@@SAXAAV?$allocator@U?$_List_node@PAXPAX@std@@@1@PAPAU?$_List_node@PAXPAX@1@@Z 100020c0 f i IOCPS.obj
 0001:000010c0       ??$destroy@PAUJobItem@@@?$allocator_traits@V?$allocator@U?$_List_node@PAUJobItem@@PAX@std@@@std@@@std@@SAXAAV?$allocator@U?$_List_node@PAUJobItem@@PAX@std@@@1@PAPAUJobItem@@@Z 100020c0 f i IOCPS.obj
 0001:000010c0       ??$destroy@PAU?$_List_node@PAUClientContext@@PAX@std@@@?$allocator_traits@V?$allocator@U?$_List_node@PAUClientContext@@PAX@std@@@std@@@std@@SAXAAV?$allocator@U?$_List_node@PAUClientContext@@PAX@std@@@1@PAPAU?$_List_node@PAUClientContext@@PAX@1@@Z 100020c0 f i IOCPS.obj
 0001:000010c0       ??$destroy@U?$pair@$$CBGPAX@std@@@?$allocator_traits@V?$allocator@U?$_Tree_node@U?$pair@$$CBGPAX@std@@PAX@std@@@std@@@std@@SAXAAV?$allocator@U?$_Tree_node@U?$pair@$$CBGPAX@std@@PAX@std@@@1@PAU?$pair@$$CBGPAX@1@@Z 100020c0 f i IOCPS.obj
 0001:000010c0       ??$destroy@PAU?$_List_node@PAUJobItem@@PAX@std@@@?$allocator_traits@V?$allocator@U?$_List_node@PAUJobItem@@PAX@std@@@std@@@std@@SAXAAV?$allocator@U?$_List_node@PAUJobItem@@PAX@std@@@1@PAPAU?$_List_node@PAUJobItem@@PAX@1@@Z 100020c0 f i IOCPS.obj
 0001:000010c0       ??$destroy@U?$pair@$$CBIPAVCIOCPBuffer@@@std@@@?$allocator_traits@V?$allocator@U?$_Tree_node@U?$pair@$$CBIPAVCIOCPBuffer@@@std@@PAX@std@@@std@@@std@@SAXAAV?$allocator@U?$_Tree_node@U?$pair@$$CBIPAVCIOCPBuffer@@@std@@PAX@std@@@1@PAU?$pair@$$CBIPAVCIOCPBuffer@@@1@@Z 100020c0 f i IOCPS.obj
 0001:000010e0       ??$construct@PAXABQAX@?$allocator_traits@V?$allocator@U?$_List_node@PAXPAX@std@@@std@@@std@@SAXAAV?$allocator@U?$_List_node@PAXPAX@std@@@1@PAPAXABQAX@Z 100020e0 f i IOCPS.obj
 0001:000010e0       ??$construct@PAU?$_Tree_node@U?$pair@$$CBGPAX@std@@PAX@std@@AAPAU12@@?$allocator_traits@V?$allocator@U?$_Tree_node@U?$pair@$$CBGPAX@std@@PAX@std@@@std@@@std@@SAXAAV?$allocator@U?$_Tree_node@U?$pair@$$CBGPAX@std@@PAX@std@@@1@PAPAU?$_Tree_node@U?$pair@$$CBGPAX@std@@PAX@1@AAPAU31@@Z 100020e0 f i IOCPS.obj
 0001:000010e0       ??$construct@PAU?$_Tree_node@U?$pair@$$CBIPAUClientContext@@@std@@PAX@std@@AAPAU12@@?$allocator_traits@V?$allocator@U?$_Tree_node@U?$pair@$$CBIPAUClientContext@@@std@@PAX@std@@@std@@@std@@SAXAAV?$allocator@U?$_Tree_node@U?$pair@$$CBIPAUClientContext@@@std@@PAX@std@@@1@PAPAU?$_Tree_node@U?$pair@$$CBIPAUClientContext@@@std@@PAX@1@AAPAU31@@Z 100020e0 f i IOCPS.obj
 0001:000010e0       ??$construct@PAVCIOCPBuffer@@ABQAV1@@?$allocator_traits@V?$allocator@U?$_List_node@PAVCIOCPBuffer@@PAX@std@@@std@@@std@@SAXAAV?$allocator@U?$_List_node@PAVCIOCPBuffer@@PAX@std@@@1@PAPAVCIOCPBuffer@@ABQAV3@@Z 100020e0 f i IOCPS.obj
 0001:000010e0       ??$construct@PAU?$_List_node@PAUClientContext@@PAX@std@@AAPAU12@@?$allocator_traits@V?$allocator@U?$_List_node@PAUClientContext@@PAX@std@@@std@@@std@@SAXAAV?$allocator@U?$_List_node@PAUClientContext@@PAX@std@@@1@PAPAU?$_List_node@PAUClientContext@@PAX@1@AAPAU31@@Z 100020e0 f i IOCPS.obj
 0001:000010e0       ??$construct@PAU?$_List_node@PAXPAX@std@@AAPAU12@@?$allocator_traits@V?$allocator@U?$_List_node@PAXPAX@std@@@std@@@std@@SAXAAV?$allocator@U?$_List_node@PAXPAX@std@@@1@PAPAU?$_List_node@PAXPAX@1@AAPAU31@@Z 100020e0 f i IOCPS.obj
 0001:000010e0       ??$construct@PAU?$_Tree_node@U?$pair@$$CBIPAVCIOCPBuffer@@@std@@PAX@std@@AAPAU12@@?$allocator_traits@V?$allocator@U?$_Tree_node@U?$pair@$$CBIPAVCIOCPBuffer@@@std@@PAX@std@@@std@@@std@@SAXAAV?$allocator@U?$_Tree_node@U?$pair@$$CBIPAVCIOCPBuffer@@@std@@PAX@std@@@1@PAPAU?$_Tree_node@U?$pair@$$CBIPAVCIOCPBuffer@@@std@@PAX@1@AAPAU31@@Z 100020e0 f i IOCPS.obj
 0001:000010e0       ??$construct@PAU?$_List_node@PAUJobItem@@PAX@std@@AAPAU12@@?$allocator_traits@V?$allocator@U?$_List_node@PAUJobItem@@PAX@std@@@std@@@std@@SAXAAV?$allocator@U?$_List_node@PAUJobItem@@PAX@std@@@1@PAPAU?$_List_node@PAUJobItem@@PAX@1@AAPAU31@@Z 100020e0 f i IOCPS.obj
 0001:000010e0       ??$construct@PAU?$_List_node@PAVCIOCPBuffer@@PAX@std@@AAPAU12@@?$allocator_traits@V?$allocator@U?$_List_node@PAVCIOCPBuffer@@PAX@std@@@std@@@std@@SAXAAV?$allocator@U?$_List_node@PAVCIOCPBuffer@@PAX@std@@@1@PAPAU?$_List_node@PAVCIOCPBuffer@@PAX@1@AAPAU31@@Z 100020e0 f i IOCPS.obj
 0001:000010e0       ??$construct@PADAAPAD@?$allocator_traits@V?$allocator@D@std@@@std@@SAXAAV?$allocator@D@1@PAPADAAPAD@Z 100020e0 f i IOCPBuffer.obj
 0001:000010e0       ??$construct@PAUClientContext@@ABQAU1@@?$allocator_traits@V?$allocator@U?$_List_node@PAUClientContext@@PAX@std@@@std@@@std@@SAXAAV?$allocator@U?$_List_node@PAUClientContext@@PAX@std@@@1@PAPAUClientContext@@ABQAU3@@Z 100020e0 f i IOCPS.obj
 0001:00001100       ??$destroy@PAUJobItem@@@?$allocator@U?$_List_node@PAUJobItem@@PAX@std@@@std@@QAEXPAPAUJobItem@@@Z 10002100 f i IOCPS.obj
 0001:00001100       ??$destroy@PAD@?$allocator@D@std@@QAEXPAPAD@Z 10002100 f i IOCPBuffer.obj
 0001:00001100       ??$destroy@U?$pair@$$CBIPAVCIOCPBuffer@@@std@@@?$allocator@U?$_Tree_node@U?$pair@$$CBIPAVCIOCPBuffer@@@std@@PAX@std@@@std@@QAEXPAU?$pair@$$CBIPAVCIOCPBuffer@@@1@@Z 10002100 f i IOCPS.obj
 0001:00001100       ??$destroy@PAX@?$allocator@U?$_List_node@PAXPAX@std@@@std@@QAEXPAPAX@Z 10002100 f i IOCPS.obj
 0001:00001100       ??$destroy@PAU?$_List_node@PAUClientContext@@PAX@std@@@?$allocator@U?$_List_node@PAUClientContext@@PAX@std@@@std@@QAEXPAPAU?$_List_node@PAUClientContext@@PAX@1@@Z 10002100 f i IOCPS.obj
 0001:00001100       ?NotifyNewConnection@IOCPS@@MAEXPAUClientContext@@@Z 10002100 f i IOCPS.obj
 0001:00001100       ?_Adopt@_Iterator_base0@std@@QAEXPBX@Z 10002100 f i IOCPS.obj
 0001:00001100       ??$destroy@U?$pair@$$CBGPAX@std@@@?$allocator@U?$_Tree_node@U?$pair@$$CBGPAX@std@@PAX@std@@@std@@QAEXPAU?$pair@$$CBGPAX@1@@Z 10002100 f i IOCPS.obj
 0001:00001100       ??$destroy@U?$pair@$$CBIPAUClientContext@@@std@@@?$allocator@U?$_Tree_node@U?$pair@$$CBIPAUClientContext@@@std@@PAX@std@@@std@@QAEXPAU?$pair@$$CBIPAUClientContext@@@1@@Z 10002100 f i IOCPS.obj
 0001:00001100       ??$destroy@PAU?$_List_node@PAVCIOCPBuffer@@PAX@std@@@?$allocator@U?$_List_node@PAVCIOCPBuffer@@PAX@std@@@std@@QAEXPAPAU?$_List_node@PAVCIOCPBuffer@@PAX@1@@Z 10002100 f i IOCPS.obj
 0001:00001100       ??$destroy@PAVCIOCPBuffer@@@?$allocator@U?$_List_node@PAVCIOCPBuffer@@PAX@std@@@std@@QAEXPAPAVCIOCPBuffer@@@Z 10002100 f i IOCPS.obj
 0001:00001100       ??$destroy@PAUClientContext@@@?$allocator@U?$_List_node@PAUClientContext@@PAX@std@@@std@@QAEXPAPAUClientContext@@@Z 10002100 f i IOCPS.obj
 0001:00001100       ?NotifyFileCompleted@IOCPS@@MAEXPAUClientContext@@@Z 10002100 f i IOCPS.obj
 0001:00001100       ??$destroy@PAU?$_Tree_node@U?$pair@$$CBIPAUClientContext@@@std@@PAX@std@@@?$allocator@U?$_Tree_node@U?$pair@$$CBIPAUClientContext@@@std@@PAX@std@@@std@@QAEXPAPAU?$_Tree_node@U?$pair@$$CBIPAUClientContext@@@std@@PAX@1@@Z 10002100 f i IOCPS.obj
 0001:00001100       ?NotifyDisconnectedClient@IOCPS@@MAEXPAUClientContext@@@Z 10002100 f i IOCPS.obj
 0001:00001100       ?NotifyNewClientContext@IOCPS@@MAEXPAUClientContext@@@Z 10002100 f i IOCPS.obj
 0001:00001100       ??$destroy@PAU?$_List_node@PAUJobItem@@PAX@std@@@?$allocator@U?$_List_node@PAUJobItem@@PAX@std@@@std@@QAEXPAPAU?$_List_node@PAUJobItem@@PAX@1@@Z 10002100 f i IOCPS.obj
 0001:00001100       ??$destroy@PAU?$_List_node@PAXPAX@std@@@?$allocator@U?$_List_node@PAXPAX@std@@@std@@QAEXPAPAU?$_List_node@PAXPAX@1@@Z 10002100 f i IOCPS.obj
 0001:00001100       ?NotifyContextRelease@IOCPS@@MAEXPAUClientContext@@@Z 10002100 f i IOCPS.obj
 0001:00001100       ??$destroy@PAU?$_Tree_node@U?$pair@$$CBIPAVCIOCPBuffer@@@std@@PAX@std@@@?$allocator@U?$_Tree_node@U?$pair@$$CBIPAVCIOCPBuffer@@@std@@PAX@std@@@std@@QAEXPAPAU?$_Tree_node@U?$pair@$$CBIPAVCIOCPBuffer@@@std@@PAX@1@@Z 10002100 f i IOCPS.obj
 0001:00001100       ??$destroy@PAU?$_Tree_node@U?$pair@$$CBGPAX@std@@PAX@std@@@?$allocator@U?$_Tree_node@U?$pair@$$CBGPAX@std@@PAX@std@@@std@@QAEXPAPAU?$_Tree_node@U?$pair@$$CBGPAX@std@@PAX@1@@Z 10002100 f i IOCPS.obj
 0001:00001110       ??$construct@PAVCIOCPBuffer@@ABQAV1@@?$allocator@U?$_List_node@PAVCIOCPBuffer@@PAX@std@@@std@@QAEXPAPAVCIOCPBuffer@@ABQAV2@@Z 10002110 f i IOCPS.obj
 0001:00001110       ??$construct@PAU?$_List_node@PAXPAX@std@@AAPAU12@@?$allocator@U?$_List_node@PAXPAX@std@@@std@@QAEXPAPAU?$_List_node@PAXPAX@1@AAPAU21@@Z 10002110 f i IOCPS.obj
 0001:00001110       ??$construct@PAUClientContext@@ABQAU1@@?$allocator@U?$_List_node@PAUClientContext@@PAX@std@@@std@@QAEXPAPAUClientContext@@ABQAU2@@Z 10002110 f i IOCPS.obj
 0001:00001110       ??$construct@PAU?$_Tree_node@U?$pair@$$CBIPAUClientContext@@@std@@PAX@std@@AAPAU12@@?$allocator@U?$_Tree_node@U?$pair@$$CBIPAUClientContext@@@std@@PAX@std@@@std@@QAEXPAPAU?$_Tree_node@U?$pair@$$CBIPAUClientContext@@@std@@PAX@1@AAPAU21@@Z 10002110 f i IOCPS.obj
 0001:00001110       ??$construct@PADAAPAD@?$allocator@D@std@@QAEXPAPADAAPAD@Z 10002110 f i IOCPBuffer.obj
 0001:00001110       ??$construct@PAU?$_List_node@PAUClientContext@@PAX@std@@AAPAU12@@?$allocator@U?$_List_node@PAUClientContext@@PAX@std@@@std@@QAEXPAPAU?$_List_node@PAUClientContext@@PAX@1@AAPAU21@@Z 10002110 f i IOCPS.obj
 0001:00001110       ??$construct@PAU?$_Tree_node@U?$pair@$$CBGPAX@std@@PAX@std@@AAPAU12@@?$allocator@U?$_Tree_node@U?$pair@$$CBGPAX@std@@PAX@std@@@std@@QAEXPAPAU?$_Tree_node@U?$pair@$$CBGPAX@std@@PAX@1@AAPAU21@@Z 10002110 f i IOCPS.obj
 0001:00001110       ??$construct@PAU?$_Tree_node@U?$pair@$$CBIPAVCIOCPBuffer@@@std@@PAX@std@@AAPAU12@@?$allocator@U?$_Tree_node@U?$pair@$$CBIPAVCIOCPBuffer@@@std@@PAX@std@@@std@@QAEXPAPAU?$_Tree_node@U?$pair@$$CBIPAVCIOCPBuffer@@@std@@PAX@1@AAPAU21@@Z 10002110 f i IOCPS.obj
 0001:00001110       ??$construct@PAU?$_List_node@PAUJobItem@@PAX@std@@AAPAU12@@?$allocator@U?$_List_node@PAUJobItem@@PAX@std@@@std@@QAEXPAPAU?$_List_node@PAUJobItem@@PAX@1@AAPAU21@@Z 10002110 f i IOCPS.obj
 0001:00001110       ??$construct@PAXABQAX@?$allocator@U?$_List_node@PAXPAX@std@@@std@@QAEXPAPAXABQAX@Z 10002110 f i IOCPS.obj
 0001:00001110       ??$construct@PAU?$_List_node@PAVCIOCPBuffer@@PAX@std@@AAPAU12@@?$allocator@U?$_List_node@PAVCIOCPBuffer@@PAX@std@@@std@@QAEXPAPAU?$_List_node@PAVCIOCPBuffer@@PAX@1@AAPAU21@@Z 10002110 f i IOCPS.obj
 0001:00001160       ??2@YAPAXIPAX@Z            10002160 f i IOCPBuffer.obj
 0001:00001170       ?_Allocate@std@@YAPAXII_N@Z 10002170 f i IOCPBuffer.obj
 0001:00001230       ?move@?$char_traits@D@std@@SAPADPADPBDI@Z 10002230 f i IOCPBuffer.obj
 0001:00001270       ?_Deallocate@std@@YAXPAXII@Z 10002270 f i IOCPBuffer.obj
 0001:00001310       ?assign@?$char_traits@D@std@@SAXAADABD@Z 10002310 f i IOCPBuffer.obj
 0001:00001320       ?length@?$char_traits@D@std@@SAIPBD@Z 10002320 f i IOCPBuffer.obj
 0001:00001370       ?copy@?$char_traits@D@std@@SAPADPADPBDI@Z 10002370 f i IOCPBuffer.obj
 0001:000013a0       ?c_str@?$basic_string@DU?$char_traits@D@std@@V?$allocator@D@2@@std@@QBEPBDXZ 100023a0 f i IOCPBuffer.obj
 0001:000013e0       ??1Socket@@UAE@XZ          100023e0 f i IOCPS.obj
 0001:00001400       ??_GSocket@@UAEPAXI@Z      10002400 f i IOCPS.obj
 0001:00001400       ??_ESocket@@UAEPAXI@Z      10002400 f i * CIL library *:* CIL module *
 0001:00001430       ??0IOCPS@@QAE@XZ           10002430 f   IOCPS.obj
 0001:000016d0       ??_EIOCPS@@UAEPAXI@Z       100026d0 f i * CIL library *:* CIL module *
 0001:000016d0       ??_GIOCPS@@UAEPAXI@Z       100026d0 f i IOCPS.obj
 0001:00001710       ??0Socket@@QAE@XZ          10002710 f i IOCPS.obj
 0001:00001730       ??1?$map@GPAXU?$less@G@std@@V?$allocator@U?$pair@$$CBGPAX@std@@@2@@std@@QAE@XZ 10002730 f i IOCPS.obj
 0001:00001730       ??1?$map@IPAUClientContext@@U?$less@I@std@@V?$allocator@U?$pair@$$CBIPAUClientContext@@@std@@@3@@std@@QAE@XZ 10002730 f i IOCPS.obj
 0001:00001730       ??1?$map@IPAVCIOCPBuffer@@U?$less@I@std@@V?$allocator@U?$pair@$$CBIPAVCIOCPBuffer@@@std@@@3@@std@@QAE@XZ 10002730 f i IOCPS.obj
 0001:00001750       ??1IOCPS@@UAE@XZ           10002750 f   IOCPS.obj
 0001:00001820       ?Start@IOCPS@@UAEHHHHHHHHHH@Z 10002820 f   IOCPS.obj
 0001:000018d0       ?Startup@IOCPS@@QAEHXZ     100028d0 f   IOCPS.obj
 0001:00001a30       ?ListnerThreadProc@IOCPS@@CGIPAX@Z 10002a30 f   IOCPS.obj
 0001:00001c30       ?IOWorkerThreadProc@IOCPS@@CGIPAX@Z 10002c30 f   IOCPS.obj
 0001:00001dc0       ?AssociateIncomingClientWithContext@IOCPS@@AAEHI@Z 10002dc0 f i IOCPS.obj
 0001:00002270       ?AssociateSocketWithCompletionPort@IOCPS@@AAEHIPAXK@Z 10003270 f i IOCPS.obj
 0001:000022c0       ?AddClientContext@IOCPS@@AAEHPAUClientContext@@@Z 100032c0 f i IOCPS.obj
 0001:00002390       ?FreeClientContext@IOCPS@@AAEXXZ 10003390 f i IOCPS.obj
 0001:00002640       ??_GClientContext@@QAEPAXI@Z 10003640 f i IOCPS.obj
 0001:00002670       ??1ClientContext@@QAE@XZ   10003670 f i IOCPS.obj
 0001:000026a0       ?ProcessIOMessage@IOCPS@@AAEXPAVCIOCPBuffer@@PAUClientContext@@K@Z 100036a0 f i IOCPS.obj
 0001:000027c0       ?OnInitialize@IOCPS@@AAEXPAUClientContext@@KPAVCIOCPBuffer@@@Z 100037c0 f i IOCPS.obj
 0001:00002850       ?OnRead@IOCPS@@AAEXPAUClientContext@@PAVCIOCPBuffer@@@Z 10003850 f i IOCPS.obj
 0001:00002ab0       ?OnPostedPackage@IOCPS@@AAEXPAUClientContext@@PAVCIOCPBuffer@@@Z 10003ab0 f i IOCPS.obj
 0001:00002b50       ?OnReadCompleted@IOCPS@@AAEXPAUClientContext@@KPAVCIOCPBuffer@@@Z 10003b50 f i IOCPS.obj
 0001:00002cd0       ?ProcessPackage@IOCPS@@AAEXPAUClientContext@@KPAVCIOCPBuffer@@@Z 10003cd0 f i IOCPS.obj
 0001:00002fc0       ?OnWrite@IOCPS@@AAEXPAUClientContext@@KPAVCIOCPBuffer@@@Z 10003fc0 f i IOCPS.obj
 0001:00003200       ?OnWriteCompleted@IOCPS@@AAEXPAUClientContext@@KPAVCIOCPBuffer@@@Z 10004200 f i IOCPS.obj
 0001:00003280       ?ASend@IOCPS@@QAEHHPAVCIOCPBuffer@@@Z 10004280 f   IOCPS.obj
 0001:00003300       ?FindClient@IOCPS@@QAEPAUClientContext@@I@Z 10004300 f   IOCPS.obj
 0001:00003340       ?GetHostKeyName@IOCPS@@QAE?AV?$basic_string@DU?$char_traits@D@std@@V?$allocator@D@2@@std@@I@Z 10004340 f   IOCPS.obj
 0001:00003400       ?GetHostAddress@IOCPS@@QAE?AV?$basic_string@DU?$char_traits@D@std@@V?$allocator@D@2@@std@@I@Z 10004400 f   IOCPS.obj
 0001:000034e0       ?ASend@IOCPS@@IAEHPAUClientContext@@PAVCIOCPBuffer@@@Z 100044e0 f   IOCPS.obj
 0001:000035c0       ?DisconnectClient@IOCPS@@AAEXPAUClientContext@@H@Z 100045c0 f i IOCPS.obj
 0001:00003730       ?DisconnectClient@IOCPS@@UAEXI@Z 10004730 f   IOCPS.obj
 0001:000037a0       ?ReleaseBufferMap@IOCPS@@AAEXPAV?$map@IPAVCIOCPBuffer@@U?$less@I@std@@V?$allocator@U?$pair@$$CBIPAVCIOCPBuffer@@@std@@@3@@std@@@Z 100047a0 f i IOCPS.obj
 0001:00003820       ?AbortiveClose@IOCPS@@AAEXPAUClientContext@@@Z 10004820 f i IOCPS.obj
 0001:00003910       ?ShutDown@IOCPS@@UAEXXZ    10004910 f   IOCPS.obj
 0001:00003a10       ?OnZeroByteRead@IOCPS@@AAEXPAUClientContext@@PAVCIOCPBuffer@@@Z 10004a10 f i IOCPS.obj
 0001:00003c40       ?OnZeroByteReadCompleted@IOCPS@@AAEXPAUClientContext@@KPAVCIOCPBuffer@@@Z 10004c40 f i IOCPS.obj
 0001:00003c70       ?ARead@IOCPS@@AAEHPAUClientContext@@PAVCIOCPBuffer@@@Z 10004c70 f i IOCPS.obj
 0001:00003d40       ?AZeroByteRead@IOCPS@@AAEHPAUClientContext@@PAVCIOCPBuffer@@@Z 10004d40 f i IOCPS.obj
 0001:00003ed0       ?ErrorCode2Text@IOCPS@@IAE?AV?$basic_string@DU?$char_traits@D@std@@V?$allocator@D@2@@std@@K@Z 10004ed0 f   IOCPS.obj
 0001:00004180       ?EnterIOLoop@IOCPS@@AAEXPAUClientContext@@@Z 10005180 f i IOCPS.obj
 0001:000041c0       ?ExitIOLoop@IOCPS@@AAEHPAUClientContext@@@Z 100051c0 f i IOCPS.obj
 0001:00004220       ?DisconnectAll@IOCPS@@UAEXXZ 10005220 f   IOCPS.obj
 0001:000042d0       ?ShutDownIOWorkers@IOCPS@@AAEXXZ 100052d0 f i IOCPS.obj
 0001:000043b0       ?SetWorkers@IOCPS@@QAEHH@Z 100053b0 f   IOCPS.obj
 0001:000045e0       ?WorkerThreadProc@IOCPS@@CGIPAX@Z 100055e0 f   IOCPS.obj
 0001:00004680       ?GetWorker@IOCPS@@AAEPAXG@Z 10005680 f   IOCPS.obj
 0001:000046d0       ?ShutDownWorkers@IOCPS@@AAEXXZ 100056d0 f i IOCPS.obj
 0001:000047b0       ?FreeJob@IOCPS@@QAEXPAUJobItem@@@Z 100057b0 f i IOCPS.obj
 0001:000047f0       ??_GJobItem@@QAEPAXI@Z     100057f0 f i IOCPS.obj
 0001:00004820       ??1JobItem@@QAE@XZ         10005820 f i IOCPS.obj
 0001:00004840       ?GetJob@IOCPS@@QAEPAUJobItem@@XZ 10005840 f   IOCPS.obj
 0001:000048b0       ?ProcessJob@IOCPS@@UAEXPAUJobItem@@PAV1@@Z 100058b0 f i IOCPS.obj
 0001:000048c0       ?NotifyWriteCompleted@IOCPS@@MAEXPAUClientContext@@KPAVCIOCPBuffer@@@Z 100058c0 f i IOCPS.obj
 0001:000048c0       ?NotifyReceivedPackage@IOCPS@@MAEXPAVCIOCPBuffer@@HPAUClientContext@@@Z 100058c0 f i IOCPS.obj
 0001:000048d0       ?AllocateContext@IOCPS@@AAEPAUClientContext@@XZ 100058d0 f i IOCPS.obj
 0001:00004a80       ??0ClientContext@@QAE@XZ   10005a80 f i IOCPS.obj
 0001:00004af0       ?AllocateBuffer@IOCPS@@IAEPAVCIOCPBuffer@@H@Z 10005af0 f   IOCPS.obj
 0001:00004cb0       ?ReleaseBuffer@IOCPS@@IAEHPAVCIOCPBuffer@@@Z 10005cb0 f   IOCPS.obj
 0001:00004d90       ?ReleaseClientContext@IOCPS@@AAEHPAUClientContext@@@Z 10005d90 f i IOCPS.obj
 0001:00004ef0       ?FreeBuffers@IOCPS@@AAEXXZ 10005ef0 f i IOCPS.obj
 0001:00005060       ?SplitBuffer@IOCPS@@AAEPAVCIOCPBuffer@@PAV2@I@Z 10006060 f i IOCPS.obj
 0001:00005130       ?AddAndFlush@IOCPS@@AAEHPAVCIOCPBuffer@@0I@Z 10006130 f i IOCPS.obj
 0001:00005190       ?SetupListner@IOCPS@@AAEHXZ 10006190 f   IOCPS.obj
 0001:00005680       ?CreateCompletionPort@IOCPS@@AAEHXZ 10006680 f i IOCPS.obj
 0001:00005800       ?SetupIOWorkers@IOCPS@@AAEHXZ 10006800 f   IOCPS.obj
 0001:00005930       ?Connect@IOCPS@@UAEHABV?$basic_string@DU?$char_traits@D@std@@V?$allocator@D@2@@std@@H@Z 10006930 f   IOCPS.obj
 0001:00005b30       ?GetNextSendBuffer@IOCPS@@AAEPAVCIOCPBuffer@@PAUClientContext@@PAV2@@Z 10006b30 f i IOCPS.obj
 0001:00005c40       ?SetSendSequenceNumber@IOCPS@@AAEXPAUClientContext@@PAVCIOCPBuffer@@@Z 10006c40 f i IOCPS.obj
 0001:00005ca0       ?GetNextReadBuffer@IOCPS@@AAEPAVCIOCPBuffer@@PAUClientContext@@PAV2@@Z 10006ca0 f i IOCPS.obj
 0001:00005e00       ?MakeOrderdRead@IOCPS@@AAEXPAUClientContext@@PAVCIOCPBuffer@@@Z 10006e00 f i IOCPS.obj
 0001:00005f80       ?IncreaseReadSequenceNumber@IOCPS@@AAEXPAUClientContext@@@Z 10006f80 f i IOCPS.obj
 0001:00005fd0       ?IncreaseSendSequenceNumber@IOCPS@@AAEXPAUClientContext@@@Z 10006fd0 f i IOCPS.obj
 0001:00006020       ?AppendLog@ITIOCP@@UAEXV?$basic_string@DU?$char_traits@D@std@@V?$allocator@D@2@@std@@@Z 10007020 f   MyIOCP.obj
 0001:00006020       ?AppendLog@IOCPS@@MAEXV?$basic_string@DU?$char_traits@D@std@@V?$allocator@D@2@@std@@@Z 10007020 f   IOCPS.obj
 0001:00006040       ?RegisterEvents@IOCPS@@UAEXPAVISocketEvents@@@Z 10007040 f   IOCPS.obj
 0001:00006060       ??E?$_Tree_iterator@V?$_Tree_val@U?$_Tree_simple_types@U?$pair@$$CBIPAVCIOCPBuffer@@@std@@@std@@@std@@@std@@QAE?AV01@H@Z 10007060 f i IOCPS.obj
 0001:00006060       ??E?$_Tree_iterator@V?$_Tree_val@U?$_Tree_simple_types@U?$pair@$$CBGPAX@std@@@std@@@std@@@std@@QAE?AV01@H@Z 10007060 f i IOCPS.obj
 0001:00006060       ??E?$_Tree_iterator@V?$_Tree_val@U?$_Tree_simple_types@U?$pair@$$CBIPAUClientContext@@@std@@@std@@@std@@@std@@QAE?AV01@H@Z 10007060 f i IOCPS.obj
 0001:00006090       ??D?$_Tree_iterator@V?$_Tree_val@U?$_Tree_simple_types@U?$pair@$$CBIPAUClientContext@@@std@@@std@@@std@@@std@@QBEAAU?$pair@$$CBIPAUClientContext@@@1@XZ 10007090 f i IOCPS.obj
 0001:00006090       ??D?$_Tree_iterator@V?$_Tree_val@U?$_Tree_simple_types@U?$pair@$$CBGPAX@std@@@std@@@std@@@std@@QBEAAU?$pair@$$CBGPAX@1@XZ 10007090 f i IOCPS.obj
 0001:00006090       ??D?$_Tree_iterator@V?$_Tree_val@U?$_Tree_simple_types@U?$pair@$$CBIPAVCIOCPBuffer@@@std@@@std@@@std@@@std@@QBEAAU?$pair@$$CBIPAVCIOCPBuffer@@@1@XZ 10007090 f i IOCPS.obj
 0001:000060b0       ??9?$_List_const_iterator@V?$_List_val@U?$_List_simple_types@PAVCIOCPBuffer@@@std@@@std@@@std@@QBE_NABV01@@Z 100070b0 f i IOCPS.obj
 0001:000060b0       ??9?$_Tree_const_iterator@V?$_Tree_val@U?$_Tree_simple_types@U?$pair@$$CBIPAUClientContext@@@std@@@std@@@std@@@std@@QBE_NABV01@@Z 100070b0 f i IOCPS.obj
 0001:000060b0       ??9?$_Tree_const_iterator@V?$_Tree_val@U?$_Tree_simple_types@U?$pair@$$CBGPAX@std@@@std@@@std@@@std@@QBE_NABV01@@Z 100070b0 f i IOCPS.obj
 0001:000060b0       ??9?$_List_const_iterator@V?$_List_val@U?$_List_simple_types@PAUJobItem@@@std@@@std@@@std@@QBE_NABV01@@Z 100070b0 f i IOCPS.obj
 0001:000060b0       ??9?$_List_const_iterator@V?$_List_val@U?$_List_simple_types@PAUClientContext@@@std@@@std@@@std@@QBE_NABV01@@Z 100070b0 f i IOCPS.obj
 0001:000060b0       ??9?$_Tree_const_iterator@V?$_Tree_val@U?$_Tree_simple_types@U?$pair@$$CBIPAVCIOCPBuffer@@@std@@@std@@@std@@@std@@QBE_NABV01@@Z 100070b0 f i IOCPS.obj
 0001:000060b0       ??9?$_List_const_iterator@V?$_List_val@U?$_List_simple_types@PAX@std@@@std@@@std@@QBE_NABV01@@Z 100070b0 f i IOCPS.obj
 0001:000060f0       ?find@?$_Tree@V?$_Tmap_traits@IPAVCIOCPBuffer@@U?$less@I@std@@V?$allocator@U?$pair@$$CBIPAVCIOCPBuffer@@@std@@@3@$0A@@std@@@std@@QAE?AV?$_Tree_iterator@V?$_Tree_val@U?$_Tree_simple_types@U?$pair@$$CBIPAVCIOCPBuffer@@@std@@@std@@@std@@@2@ABI@Z 100070f0 f i IOCPS.obj
 0001:000060f0       ?find@?$_Tree@V?$_Tmap_traits@IPAUClientContext@@U?$less@I@std@@V?$allocator@U?$pair@$$CBIPAUClientContext@@@std@@@3@$0A@@std@@@std@@QAE?AV?$_Tree_iterator@V?$_Tree_val@U?$_Tree_simple_types@U?$pair@$$CBIPAUClientContext@@@std@@@std@@@std@@@2@ABI@Z 100070f0 f i IOCPS.obj
 0001:00006190       ?clear@?$_Tree@V?$_Tmap_traits@IPAVCIOCPBuffer@@U?$less@I@std@@V?$allocator@U?$pair@$$CBIPAVCIOCPBuffer@@@std@@@3@$0A@@std@@@std@@QAEXXZ 10007190 f i IOCPS.obj
 0001:00006190       ?clear@?$_Tree@V?$_Tmap_traits@GPAXU?$less@G@std@@V?$allocator@U?$pair@$$CBGPAX@std@@@2@$0A@@std@@@std@@QAEXXZ 10007190 f i IOCPS.obj
 0001:00006190       ?clear@?$_Tree@V?$_Tmap_traits@IPAUClientContext@@U?$less@I@std@@V?$allocator@U?$pair@$$CBIPAUClientContext@@@std@@@3@$0A@@std@@@std@@QAEXXZ 10007190 f i IOCPS.obj
 0001:00006230       ?erase@?$_Tree@V?$_Tmap_traits@IPAUClientContext@@U?$less@I@std@@V?$allocator@U?$pair@$$CBIPAUClientContext@@@std@@@3@$0A@@std@@@std@@QAE?AV?$_Tree_iterator@V?$_Tree_val@U?$_Tree_simple_types@U?$pair@$$CBIPAUClientContext@@@std@@@std@@@std@@@2@V?$_Tree_const_iterator@V?$_Tree_val@U?$_Tree_simple_types@U?$pair@$$CBIPAUClientContext@@@std@@@std@@@std@@@2@@Z 10007230 f i IOCPS.obj
 0001:00006230       ?erase@?$_Tree@V?$_Tmap_traits@GPAXU?$less@G@std@@V?$allocator@U?$pair@$$CBGPAX@std@@@2@$0A@@std@@@std@@QAE?AV?$_Tree_iterator@V?$_Tree_val@U?$_Tree_simple_types@U?$pair@$$CBGPAX@std@@@std@@@std@@@2@V?$_Tree_const_iterator@V?$_Tree_val@U?$_Tree_simple_types@U?$pair@$$CBGPAX@std@@@std@@@std@@@2@@Z 10007230 f i IOCPS.obj
 0001:00006230       ?erase@?$_Tree@V?$_Tmap_traits@IPAVCIOCPBuffer@@U?$less@I@std@@V?$allocator@U?$pair@$$CBIPAVCIOCPBuffer@@@std@@@3@$0A@@std@@@std@@QAE?AV?$_Tree_iterator@V?$_Tree_val@U?$_Tree_simple_types@U?$pair@$$CBIPAVCIOCPBuffer@@@std@@@std@@@std@@@2@V?$_Tree_const_iterator@V?$_Tree_val@U?$_Tree_simple_types@U?$pair@$$CBIPAVCIOCPBuffer@@@std@@@std@@@std@@@2@@Z 10007230 f i IOCPS.obj
 0001:000069b0       ?empty@?$_Tree@V?$_Tmap_traits@IPAVCIOCPBuffer@@U?$less@I@std@@V?$allocator@U?$pair@$$CBIPAVCIOCPBuffer@@@std@@@3@$0A@@std@@@std@@QBE_NXZ 100079b0 f i IOCPS.obj
 0001:000069b0       ?empty@?$_Tree@V?$_Tmap_traits@IPAUClientContext@@U?$less@I@std@@V?$allocator@U?$pair@$$CBIPAUClientContext@@@std@@@3@$0A@@std@@@std@@QBE_NXZ 100079b0 f i IOCPS.obj
 0001:000069e0       ?size@?$_Tree@V?$_Tmap_traits@IPAVCIOCPBuffer@@U?$less@I@std@@V?$allocator@U?$pair@$$CBIPAVCIOCPBuffer@@@std@@@3@$0A@@std@@@std@@QBEIXZ 100079e0 f i IOCPS.obj
 0001:000069e0       ?size@?$_Tree@V?$_Tmap_traits@IPAUClientContext@@U?$less@I@std@@V?$allocator@U?$pair@$$CBIPAUClientContext@@@std@@@3@$0A@@std@@@std@@QBEIXZ 100079e0 f i IOCPS.obj
 0001:000069e0       ?size@?$_Tree@V?$_Tmap_traits@GPAXU?$less@G@std@@V?$allocator@U?$pair@$$CBGPAX@std@@@2@$0A@@std@@@std@@QBEIXZ 100079e0 f i IOCPS.obj
 0001:00006a00       ?end@?$_Tree@V?$_Tmap_traits@IPAUClientContext@@U?$less@I@std@@V?$allocator@U?$pair@$$CBIPAUClientContext@@@std@@@3@$0A@@std@@@std@@QAE?AV?$_Tree_iterator@V?$_Tree_val@U?$_Tree_simple_types@U?$pair@$$CBIPAUClientContext@@@std@@@std@@@std@@@2@XZ 10007a00 f i IOCPS.obj
 0001:00006a00       ?end@?$_Tree@V?$_Tmap_traits@IPAVCIOCPBuffer@@U?$less@I@std@@V?$allocator@U?$pair@$$CBIPAVCIOCPBuffer@@@std@@@3@$0A@@std@@@std@@QAE?AV?$_Tree_iterator@V?$_Tree_val@U?$_Tree_simple_types@U?$pair@$$CBIPAVCIOCPBuffer@@@std@@@std@@@std@@@2@XZ 10007a00 f i IOCPS.obj
 0001:00006a00       ?end@?$_Tree@V?$_Tmap_traits@GPAXU?$less@G@std@@V?$allocator@U?$pair@$$CBGPAX@std@@@2@$0A@@std@@@std@@QAE?AV?$_Tree_iterator@V?$_Tree_val@U?$_Tree_simple_types@U?$pair@$$CBGPAX@std@@@std@@@std@@@2@XZ 10007a00 f i IOCPS.obj
 0001:00006a60       ?begin@?$_Tree@V?$_Tmap_traits@IPAVCIOCPBuffer@@U?$less@I@std@@V?$allocator@U?$pair@$$CBIPAVCIOCPBuffer@@@std@@@3@$0A@@std@@@std@@QAE?AV?$_Tree_iterator@V?$_Tree_val@U?$_Tree_simple_types@U?$pair@$$CBIPAVCIOCPBuffer@@@std@@@std@@@std@@@2@XZ 10007a60 f i IOCPS.obj
 0001:00006a60       ?begin@?$_Tree@V?$_Tmap_traits@GPAXU?$less@G@std@@V?$allocator@U?$pair@$$CBGPAX@std@@@2@$0A@@std@@@std@@QAE?AV?$_Tree_iterator@V?$_Tree_val@U?$_Tree_simple_types@U?$pair@$$CBGPAX@std@@@std@@@std@@@2@XZ 10007a60 f i IOCPS.obj
 0001:00006a60       ?begin@?$_Tree@V?$_Tmap_traits@IPAUClientContext@@U?$less@I@std@@V?$allocator@U?$pair@$$CBIPAUClientContext@@@std@@@3@$0A@@std@@@std@@QAE?AV?$_Tree_iterator@V?$_Tree_val@U?$_Tree_simple_types@U?$pair@$$CBIPAUClientContext@@@std@@@std@@@std@@@2@XZ 10007a60 f i IOCPS.obj
 0001:00006ac0       ??1?$_Tree@V?$_Tmap_traits@IPAVCIOCPBuffer@@U?$less@I@std@@V?$allocator@U?$pair@$$CBIPAVCIOCPBuffer@@@std@@@3@$0A@@std@@@std@@QAE@XZ 10007ac0 f i IOCPS.obj
 0001:00006ac0       ??1?$_Tree@V?$_Tmap_traits@IPAUClientContext@@U?$less@I@std@@V?$allocator@U?$pair@$$CBIPAUClientContext@@@std@@@3@$0A@@std@@@std@@QAE@XZ 10007ac0 f i IOCPS.obj
 0001:00006ac0       ??1?$_Tree@V?$_Tmap_traits@GPAXU?$less@G@std@@V?$allocator@U?$pair@$$CBGPAX@std@@@2@$0A@@std@@@std@@QAE@XZ 10007ac0 f i IOCPS.obj
 0001:00006b10       ??A?$map@GPAXU?$less@G@std@@V?$allocator@U?$pair@$$CBGPAX@std@@@2@@std@@QAEAAPAXABG@Z 10007b10 f i IOCPS.obj
 0001:00006b40       ??0?$map@GPAXU?$less@G@std@@V?$allocator@U?$pair@$$CBGPAX@std@@@2@@std@@QAE@XZ 10007b40 f i IOCPS.obj
 0001:00006b40       ??0?$map@IPAVCIOCPBuffer@@U?$less@I@std@@V?$allocator@U?$pair@$$CBIPAVCIOCPBuffer@@@std@@@3@@std@@QAE@XZ 10007b40 f i IOCPS.obj
 0001:00006b40       ??0?$map@IPAUClientContext@@U?$less@I@std@@V?$allocator@U?$pair@$$CBIPAUClientContext@@@std@@@3@@std@@QAE@XZ 10007b40 f i IOCPS.obj
 0001:00006b60       ??E?$_List_iterator@V?$_List_val@U?$_List_simple_types@PAUClientContext@@@std@@@std@@@std@@QAE?AV01@H@Z 10007b60 f i IOCPS.obj
 0001:00006b60       ??E?$_List_iterator@V?$_List_val@U?$_List_simple_types@PAX@std@@@std@@@std@@QAE?AV01@H@Z 10007b60 f i IOCPS.obj
 0001:00006b60       ??E?$_List_iterator@V?$_List_val@U?$_List_simple_types@PAUJobItem@@@std@@@std@@@std@@QAE?AV01@H@Z 10007b60 f i IOCPS.obj
 0001:00006b60       ??E?$_List_iterator@V?$_List_val@U?$_List_simple_types@PAVCIOCPBuffer@@@std@@@std@@@std@@QAE?AV01@H@Z 10007b60 f i IOCPS.obj
 0001:00006b90       ??D?$_List_iterator@V?$_List_val@U?$_List_simple_types@PAUClientContext@@@std@@@std@@@std@@QBEAAPAUClientContext@@XZ 10007b90 f i IOCPS.obj
 0001:00006b90       ??D?$_List_iterator@V?$_List_val@U?$_List_simple_types@PAUJobItem@@@std@@@std@@@std@@QBEAAPAUJobItem@@XZ 10007b90 f i IOCPS.obj
 0001:00006b90       ??D?$_List_iterator@V?$_List_val@U?$_List_simple_types@PAX@std@@@std@@@std@@QBEAAPAXXZ 10007b90 f i IOCPS.obj
 0001:00006b90       ??D?$_List_iterator@V?$_List_val@U?$_List_simple_types@PAVCIOCPBuffer@@@std@@@std@@@std@@QBEAAPAVCIOCPBuffer@@XZ 10007b90 f i IOCPS.obj
 0001:00006bb0       ?clear@?$list@PAVCIOCPBuffer@@V?$allocator@PAVCIOCPBuffer@@@std@@@std@@QAEXXZ 10007bb0 f i IOCPS.obj
 0001:00006bb0       ?clear@?$list@PAUClientContext@@V?$allocator@PAUClientContext@@@std@@@std@@QAEXXZ 10007bb0 f i IOCPS.obj
 0001:00006bb0       ?clear@?$list@PAXV?$allocator@PAX@std@@@std@@QAEXXZ 10007bb0 f i IOCPS.obj
 0001:00006bb0       ?clear@?$list@PAUJobItem@@V?$allocator@PAUJobItem@@@std@@@std@@QAEXXZ 10007bb0 f i IOCPS.obj
 0001:00006c90       ?pop_back@?$list@PAUJobItem@@V?$allocator@PAUJobItem@@@std@@@std@@QAEXXZ 10007c90 f i IOCPS.obj
 0001:00006cd0       ?back@?$list@PAUJobItem@@V?$allocator@PAUJobItem@@@std@@@std@@QAEAAPAUJobItem@@XZ 10007cd0 f i IOCPS.obj
 0001:00006d00       ?empty@?$list@PAUClientContext@@V?$allocator@PAUClientContext@@@std@@@std@@QBE_NXZ 10007d00 f i IOCPS.obj
 0001:00006d00       ?empty@?$list@PAVCIOCPBuffer@@V?$allocator@PAVCIOCPBuffer@@@std@@@std@@QBE_NXZ 10007d00 f i IOCPS.obj
 0001:00006d00       ?empty@?$list@PAUJobItem@@V?$allocator@PAUJobItem@@@std@@@std@@QBE_NXZ 10007d00 f i IOCPS.obj
 0001:00006d30       ?end@?$list@PAUJobItem@@V?$allocator@PAUJobItem@@@std@@@std@@QAE?AV?$_List_iterator@V?$_List_val@U?$_List_simple_types@PAUJobItem@@@std@@@std@@@2@XZ 10007d30 f i IOCPS.obj
 0001:00006d30       ?end@?$list@PAUClientContext@@V?$allocator@PAUClientContext@@@std@@@std@@QAE?AV?$_List_iterator@V?$_List_val@U?$_List_simple_types@PAUClientContext@@@std@@@std@@@2@XZ 10007d30 f i IOCPS.obj
 0001:00006d30       ?end@?$list@PAXV?$allocator@PAX@std@@@std@@QAE?AV?$_List_iterator@V?$_List_val@U?$_List_simple_types@PAX@std@@@std@@@2@XZ 10007d30 f i IOCPS.obj
 0001:00006d30       ?end@?$list@PAVCIOCPBuffer@@V?$allocator@PAVCIOCPBuffer@@@std@@@std@@QAE?AV?$_List_iterator@V?$_List_val@U?$_List_simple_types@PAVCIOCPBuffer@@@std@@@std@@@2@XZ 10007d30 f i IOCPS.obj
 0001:00006d90       ?begin@?$list@PAXV?$allocator@PAX@std@@@std@@QAE?AV?$_List_iterator@V?$_List_val@U?$_List_simple_types@PAX@std@@@std@@@2@XZ 10007d90 f i IOCPS.obj
 0001:00006d90       ?begin@?$list@PAUClientContext@@V?$allocator@PAUClientContext@@@std@@@std@@QAE?AV?$_List_iterator@V?$_List_val@U?$_List_simple_types@PAUClientContext@@@std@@@std@@@2@XZ 10007d90 f i IOCPS.obj
 0001:00006d90       ?begin@?$list@PAUJobItem@@V?$allocator@PAUJobItem@@@std@@@std@@QAE?AV?$_List_iterator@V?$_List_val@U?$_List_simple_types@PAUJobItem@@@std@@@std@@@2@XZ 10007d90 f i IOCPS.obj
 0001:00006d90       ?begin@?$list@PAVCIOCPBuffer@@V?$allocator@PAVCIOCPBuffer@@@std@@@std@@QAE?AV?$_List_iterator@V?$_List_val@U?$_List_simple_types@PAVCIOCPBuffer@@@std@@@std@@@2@XZ 10007d90 f i IOCPS.obj
 0001:00006e00       ??1?$list@PAXV?$allocator@PAX@std@@@std@@QAE@XZ 10007e00 f i IOCPS.obj
 0001:00006e00       ??1?$list@PAUClientContext@@V?$allocator@PAUClientContext@@@std@@@std@@QAE@XZ 10007e00 f i IOCPS.obj
 0001:00006e00       ??1?$list@PAUJobItem@@V?$allocator@PAUJobItem@@@std@@@std@@QAE@XZ 10007e00 f i IOCPS.obj
 0001:00006e00       ??1?$list@PAVCIOCPBuffer@@V?$allocator@PAVCIOCPBuffer@@@std@@@std@@QAE@XZ 10007e00 f i IOCPS.obj
 0001:00006e50       ??0?$list@PAVCIOCPBuffer@@V?$allocator@PAVCIOCPBuffer@@@std@@@std@@QAE@XZ 10007e50 f i IOCPS.obj
 0001:00006e50       ??0?$list@PAXV?$allocator@PAX@std@@@std@@QAE@XZ 10007e50 f i IOCPS.obj
 0001:00006e50       ??0?$list@PAUJobItem@@V?$allocator@PAUJobItem@@@std@@@std@@QAE@XZ 10007e50 f i IOCPS.obj
 0001:00006e50       ??0?$list@PAUClientContext@@V?$allocator@PAUClientContext@@@std@@@std@@QAE@XZ 10007e50 f i IOCPS.obj
 0001:00006e70       ?pop_front@?$list@PAVCIOCPBuffer@@V?$allocator@PAVCIOCPBuffer@@@std@@@std@@QAEXXZ 10007e70 f i IOCPS.obj
 0001:00006e70       ?pop_front@?$list@PAUClientContext@@V?$allocator@PAUClientContext@@@std@@@std@@QAEXXZ 10007e70 f i IOCPS.obj
 0001:00006ea0       ?push_front@?$list@PAXV?$allocator@PAX@std@@@std@@QAEXABQAX@Z 10007ea0 f i IOCPS.obj
 0001:00006ea0       ?push_front@?$list@PAUClientContext@@V?$allocator@PAUClientContext@@@std@@@std@@QAEXABQAUClientContext@@@Z 10007ea0 f i IOCPS.obj
 0001:00006ea0       ?push_front@?$list@PAVCIOCPBuffer@@V?$allocator@PAVCIOCPBuffer@@@std@@@std@@QAEXABQAVCIOCPBuffer@@@Z 10007ea0 f i IOCPS.obj
 0001:00006ed0       ?front@?$list@PAVCIOCPBuffer@@V?$allocator@PAVCIOCPBuffer@@@std@@@std@@QAEAAPAVCIOCPBuffer@@XZ 10007ed0 f i IOCPS.obj
 0001:00006ed0       ?front@?$list@PAUClientContext@@V?$allocator@PAUClientContext@@@std@@@std@@QAEAAPAUClientContext@@XZ 10007ed0 f i IOCPS.obj
 0001:00006ef0       ?size@?$list@PAUClientContext@@V?$allocator@PAUClientContext@@@std@@@std@@QBEIXZ 10007ef0 f i IOCPS.obj
 0001:00006ef0       ?size@?$list@PAVCIOCPBuffer@@V?$allocator@PAVCIOCPBuffer@@@std@@@std@@QBEIXZ 10007ef0 f i IOCPS.obj
 0001:00006ef0       ?size@?$list@PAXV?$allocator@PAX@std@@@std@@QBEIXZ 10007ef0 f i IOCPS.obj
 0001:00006f10       ??A?$map@IPAUClientContext@@U?$less@I@std@@V?$allocator@U?$pair@$$CBIPAUClientContext@@@std@@@3@@std@@QAEAAPAUClientContext@@ABI@Z 10007f10 f i IOCPS.obj
 0001:00006f10       ??A?$map@IPAVCIOCPBuffer@@U?$less@I@std@@V?$allocator@U?$pair@$$CBIPAVCIOCPBuffer@@@std@@@3@@std@@QAEAAPAVCIOCPBuffer@@ABI@Z 10007f10 f i IOCPS.obj
 0001:00006f40       ?remove@?$list@PAVCIOCPBuffer@@V?$allocator@PAVCIOCPBuffer@@@std@@@std@@QAEXABQAVCIOCPBuffer@@@Z 10007f40 f i IOCPS.obj
 0001:00007030       ?empty@?$basic_string@DU?$char_traits@D@std@@V?$allocator@D@2@@std@@QBE_NXZ 10008030 f i IOCPS.obj
 0001:00007060       ??0?$basic_string@DU?$char_traits@D@std@@V?$allocator@D@2@@std@@QAE@$$QAV01@@Z 10008060 f i IOCPS.obj
 0001:000070e0       ??0?$basic_string@DU?$char_traits@D@std@@V?$allocator@D@2@@std@@QAE@PBD@Z 100080e0 f i IOCPS.obj
 0001:00007150       ??0?$basic_string@DU?$char_traits@D@std@@V?$allocator@D@2@@std@@QAE@XZ 10008150 f i IOCPS.obj
 0001:000071a0       ??1?$_List_buy@PAUJobItem@@V?$allocator@PAUJobItem@@@std@@@std@@QAE@XZ 100081a0 f i IOCPS.obj
 0001:000071a0       ??1?$_List_buy@PAXV?$allocator@PAX@std@@@std@@QAE@XZ 100081a0 f i IOCPS.obj
 0001:000071a0       ??1?$_List_buy@PAUClientContext@@V?$allocator@PAUClientContext@@@std@@@std@@QAE@XZ 100081a0 f i IOCPS.obj
 0001:000071a0       ??1?$_List_buy@PAVCIOCPBuffer@@V?$allocator@PAVCIOCPBuffer@@@std@@@std@@QAE@XZ 100081a0 f i IOCPS.obj
 0001:000071c0       ?_Mynode@?$_List_unchecked_const_iterator@V?$_List_val@U?$_List_simple_types@PAX@std@@@std@@U_Iterator_base0@2@@std@@QBEPAU?$_List_node@PAXPAX@2@XZ 100081c0 f i IOCPS.obj
 0001:000071c0       ?_Mynode@?$_List_unchecked_const_iterator@V?$_List_val@U?$_List_simple_types@PAUClientContext@@@std@@@std@@U_Iterator_base0@2@@std@@QBEPAU?$_List_node@PAUClientContext@@PAX@2@XZ 100081c0 f i IOCPS.obj
 0001:000071c0       ?_Mynode@?$_List_unchecked_const_iterator@V?$_List_val@U?$_List_simple_types@PAUJobItem@@@std@@@std@@U_Iterator_base0@2@@std@@QBEPAU?$_List_node@PAUJobItem@@PAX@2@XZ 100081c0 f i IOCPS.obj
 0001:000071c0       ?_Mynode@?$_Tree_unchecked_const_iterator@V?$_Tree_val@U?$_Tree_simple_types@U?$pair@$$CBGPAX@std@@@std@@@std@@U_Iterator_base0@2@@std@@QBEPAU?$_Tree_node@U?$pair@$$CBGPAX@std@@PAX@2@XZ 100081c0 f i IOCPS.obj
 0001:000071c0       ?_Mynode@?$_Tree_unchecked_const_iterator@V?$_Tree_val@U?$_Tree_simple_types@U?$pair@$$CBIPAUClientContext@@@std@@@std@@@std@@U_Iterator_base0@2@@std@@QBEPAU?$_Tree_node@U?$pair@$$CBIPAUClientContext@@@std@@PAX@2@XZ 100081c0 f i IOCPS.obj
 0001:000071c0       ?_Mynode@?$_List_unchecked_const_iterator@V?$_List_val@U?$_List_simple_types@PAVCIOCPBuffer@@@std@@@std@@U_Iterator_base0@2@@std@@QBEPAU?$_List_node@PAVCIOCPBuffer@@PAX@2@XZ 100081c0 f i IOCPS.obj
 0001:000071c0       ?_Mynode@?$_Tree_unchecked_const_iterator@V?$_Tree_val@U?$_Tree_simple_types@U?$pair@$$CBIPAVCIOCPBuffer@@@std@@@std@@@std@@U_Iterator_base0@2@@std@@QBEPAU?$_Tree_node@U?$pair@$$CBIPAVCIOCPBuffer@@@std@@PAX@2@XZ 100081c0 f i IOCPS.obj
 0001:000071d0       ??E?$_Tree_iterator@V?$_Tree_val@U?$_Tree_simple_types@U?$pair@$$CBIPAUClientContext@@@std@@@std@@@std@@@std@@QAEAAV01@XZ 100081d0 f i IOCPS.obj
 0001:000071d0       ??E?$_Tree_iterator@V?$_Tree_val@U?$_Tree_simple_types@U?$pair@$$CBGPAX@std@@@std@@@std@@@std@@QAEAAV01@XZ 100081d0 f i IOCPS.obj
 0001:000071d0       ??E?$_Tree_iterator@V?$_Tree_val@U?$_Tree_simple_types@U?$pair@$$CBIPAVCIOCPBuffer@@@std@@@std@@@std@@@std@@QAEAAV01@XZ 100081d0 f i IOCPS.obj
 0001:000071f0       ??C?$_Tree_iterator@V?$_Tree_val@U?$_Tree_simple_types@U?$pair@$$CBIPAUClientContext@@@std@@@std@@@std@@@std@@QBEPAU?$pair@$$CBIPAUClientContext@@@1@XZ 100081f0 f i IOCPS.obj
 0001:000071f0       ??C?$_Tree_iterator@V?$_Tree_val@U?$_Tree_simple_types@U?$pair@$$CBIPAVCIOCPBuffer@@@std@@@std@@@std@@@std@@QBEPAU?$pair@$$CBIPAVCIOCPBuffer@@@1@XZ 100081f0 f i IOCPS.obj
 0001:000071f0       ??C?$_Tree_iterator@V?$_Tree_val@U?$_Tree_simple_types@U?$pair@$$CBGPAX@std@@@std@@@std@@@std@@QBEPAU?$pair@$$CBGPAX@1@XZ 100081f0 f i IOCPS.obj
 0001:00007210       ??0?$_List_iterator@V?$_List_val@U?$_List_simple_types@PAX@std@@@std@@@std@@QAE@PAU?$_List_node@PAXPAX@1@PBV?$_List_val@U?$_List_simple_types@PAX@std@@@1@@Z 10008210 f i IOCPS.obj
 0001:00007210       ??0?$_List_iterator@V?$_List_val@U?$_List_simple_types@PAUClientContext@@@std@@@std@@@std@@QAE@PAU?$_List_node@PAUClientContext@@PAX@1@PBV?$_List_val@U?$_List_simple_types@PAUClientContext@@@std@@@1@@Z 10008210 f i IOCPS.obj
 0001:00007210       ??0?$_Tree_iterator@V?$_Tree_val@U?$_Tree_simple_types@U?$pair@$$CBIPAUClientContext@@@std@@@std@@@std@@@std@@QAE@PAU?$_Tree_node@U?$pair@$$CBIPAUClientContext@@@std@@PAX@1@PBV?$_Tree_val@U?$_Tree_simple_types@U?$pair@$$CBIPAUClientContext@@@std@@@std@@@1@@Z 10008210 f i IOCPS.obj
 0001:00007210       ??0?$_List_iterator@V?$_List_val@U?$_List_simple_types@PAVCIOCPBuffer@@@std@@@std@@@std@@QAE@PAU?$_List_node@PAVCIOCPBuffer@@PAX@1@PBV?$_List_val@U?$_List_simple_types@PAVCIOCPBuffer@@@std@@@1@@Z 10008210 f i IOCPS.obj
 0001:00007210       ??0?$_List_iterator@V?$_List_val@U?$_List_simple_types@PAUJobItem@@@std@@@std@@@std@@QAE@PAU?$_List_node@PAUJobItem@@PAX@1@PBV?$_List_val@U?$_List_simple_types@PAUJobItem@@@std@@@1@@Z 10008210 f i IOCPS.obj
 0001:00007210       ??0?$_Tree_iterator@V?$_Tree_val@U?$_Tree_simple_types@U?$pair@$$CBGPAX@std@@@std@@@std@@@std@@QAE@PAU?$_Tree_node@U?$pair@$$CBGPAX@std@@PAX@1@PBV?$_Tree_val@U?$_Tree_simple_types@U?$pair@$$CBGPAX@std@@@std@@@1@@Z 10008210 f i IOCPS.obj
 0001:00007210       ??0?$_Tree_iterator@V?$_Tree_val@U?$_Tree_simple_types@U?$pair@$$CBIPAVCIOCPBuffer@@@std@@@std@@@std@@@std@@QAE@PAU?$_Tree_node@U?$pair@$$CBIPAVCIOCPBuffer@@@std@@PAX@1@PBV?$_Tree_val@U?$_Tree_simple_types@U?$pair@$$CBIPAVCIOCPBuffer@@@std@@@std@@@1@@Z 10008210 f i IOCPS.obj
 0001:00007230       ??8?$_List_const_iterator@V?$_List_val@U?$_List_simple_types@PAUClientContext@@@std@@@std@@@std@@QBE_NABV01@@Z 10008230 f i IOCPS.obj
 0001:00007230       ??8?$_Tree_const_iterator@V?$_Tree_val@U?$_Tree_simple_types@U?$pair@$$CBGPAX@std@@@std@@@std@@@std@@QBE_NABV01@@Z 10008230 f i IOCPS.obj
 0001:00007230       ??8?$_List_const_iterator@V?$_List_val@U?$_List_simple_types@PAX@std@@@std@@@std@@QBE_NABV01@@Z 10008230 f i IOCPS.obj
 0001:00007230       ??8?$_Tree_const_iterator@V?$_Tree_val@U?$_Tree_simple_types@U?$pair@$$CBIPAVCIOCPBuffer@@@std@@@std@@@std@@@std@@QBE_NABV01@@Z 10008230 f i IOCPS.obj
 0001:00007230       ??8?$_List_const_iterator@V?$_List_val@U?$_List_simple_types@PAVCIOCPBuffer@@@std@@@std@@@std@@QBE_NABV01@@Z 10008230 f i IOCPS.obj
 0001:00007230       ??8?$_List_const_iterator@V?$_List_val@U?$_List_simple_types@PAUJobItem@@@std@@@std@@@std@@QBE_NABV01@@Z 10008230 f i IOCPS.obj
 0001:00007230       ??8?$_Tree_const_iterator@V?$_Tree_val@U?$_Tree_simple_types@U?$pair@$$CBIPAUClientContext@@@std@@@std@@@std@@@std@@QBE_NABV01@@Z 10008230 f i IOCPS.obj
 0001:00007260       ??E?$_Tree_const_iterator@V?$_Tree_val@U?$_Tree_simple_types@U?$pair@$$CBIPAVCIOCPBuffer@@@std@@@std@@@std@@@std@@QAEAAV01@XZ 10008260 f i IOCPS.obj
 0001:00007260       ??E?$_Tree_const_iterator@V?$_Tree_val@U?$_Tree_simple_types@U?$pair@$$CBGPAX@std@@@std@@@std@@@std@@QAEAAV01@XZ 10008260 f i IOCPS.obj
 0001:00007260       ??E?$_Tree_const_iterator@V?$_Tree_val@U?$_Tree_simple_types@U?$pair@$$CBIPAUClientContext@@@std@@@std@@@std@@@std@@QAEAAV01@XZ 10008260 f i IOCPS.obj
 0001:00007280       ??D?$_Tree_const_iterator@V?$_Tree_val@U?$_Tree_simple_types@U?$pair@$$CBIPAUClientContext@@@std@@@std@@@std@@@std@@QBEABU?$pair@$$CBIPAUClientContext@@@1@XZ 10008280 f i IOCPS.obj
 0001:00007280       ??D?$_Tree_const_iterator@V?$_Tree_val@U?$_Tree_simple_types@U?$pair@$$CBGPAX@std@@@std@@@std@@@std@@QBEABU?$pair@$$CBGPAX@1@XZ 10008280 f i IOCPS.obj
 0001:00007280       ??D?$_Tree_const_iterator@V?$_Tree_val@U?$_Tree_simple_types@U?$pair@$$CBIPAVCIOCPBuffer@@@std@@@std@@@std@@@std@@QBEABU?$pair@$$CBIPAVCIOCPBuffer@@@1@XZ 10008280 f i IOCPS.obj
 0001:000072a0       ?deallocate@?$_Wrap_alloc@V?$allocator@U?$_Tree_node@U?$pair@$$CBIPAUClientContext@@@std@@PAX@std@@@std@@@std@@QAEXPAU?$_Tree_node@U?$pair@$$CBIPAUClientContext@@@std@@PAX@2@I@Z 100082a0 f i IOCPS.obj
 0001:000072a0       ?deallocate@?$_Wrap_alloc@V?$allocator@U?$_Tree_node@U?$pair@$$CBIPAVCIOCPBuffer@@@std@@PAX@std@@@std@@@std@@QAEXPAU?$_Tree_node@U?$pair@$$CBIPAVCIOCPBuffer@@@std@@PAX@2@I@Z 100082a0 f i IOCPS.obj
 0001:000072a0       ?deallocate@?$_Wrap_alloc@V?$allocator@U?$_Tree_node@U?$pair@$$CBGPAX@std@@PAX@std@@@std@@@std@@QAEXPAU?$_Tree_node@U?$pair@$$CBGPAX@std@@PAX@2@I@Z 100082a0 f i IOCPS.obj
 0001:000072c0       ?_Mysize@?$_Tree_comp_alloc@V?$_Tmap_traits@IPAVCIOCPBuffer@@U?$less@I@std@@V?$allocator@U?$pair@$$CBIPAVCIOCPBuffer@@@std@@@3@$0A@@std@@@std@@QAEAAIXZ 100082c0 f i IOCPS.obj
 0001:000072c0       ?_Mysize@?$_Tree_comp_alloc@V?$_Tmap_traits@IPAUClientContext@@U?$less@I@std@@V?$allocator@U?$pair@$$CBIPAUClientContext@@@std@@@3@$0A@@std@@@std@@QBEABIXZ 100082c0 f i IOCPS.obj
 0001:000072c0       ?_Mysize@?$_Tree_comp_alloc@V?$_Tmap_traits@GPAXU?$less@G@std@@V?$allocator@U?$pair@$$CBGPAX@std@@@2@$0A@@std@@@std@@QAEAAIXZ 100082c0 f i IOCPS.obj
 0001:000072c0       ?_Mysize@?$_Tree_comp_alloc@V?$_Tmap_traits@GPAXU?$less@G@std@@V?$allocator@U?$pair@$$CBGPAX@std@@@2@$0A@@std@@@std@@QBEABIXZ 100082c0 f i IOCPS.obj
 0001:000072c0       ?_Mysize@?$_Tree_comp_alloc@V?$_Tmap_traits@IPAVCIOCPBuffer@@U?$less@I@std@@V?$allocator@U?$pair@$$CBIPAVCIOCPBuffer@@@std@@@3@$0A@@std@@@std@@QBEABIXZ 100082c0 f i IOCPS.obj
 0001:000072c0       ?_Mysize@?$_Tree_comp_alloc@V?$_Tmap_traits@IPAUClientContext@@U?$less@I@std@@V?$allocator@U?$pair@$$CBIPAUClientContext@@@std@@@3@$0A@@std@@@std@@QAEAAIXZ 100082c0 f i IOCPS.obj
 0001:000072e0       ?_Myhead@?$_Tree_comp_alloc@V?$_Tmap_traits@GPAXU?$less@G@std@@V?$allocator@U?$pair@$$CBGPAX@std@@@2@$0A@@std@@@std@@QBEABQAU?$_Tree_node@U?$pair@$$CBGPAX@std@@PAX@2@XZ 100082e0 f i IOCPS.obj
 0001:000072e0       ?_Myhead@?$_Tree_comp_alloc@V?$_Tmap_traits@IPAUClientContext@@U?$less@I@std@@V?$allocator@U?$pair@$$CBIPAUClientContext@@@std@@@3@$0A@@std@@@std@@QAEAAPAU?$_Tree_node@U?$pair@$$CBIPAUClientContext@@@std@@PAX@2@XZ 100082e0 f i IOCPS.obj
 0001:000072e0       ?_Myhead@?$_Tree_comp_alloc@V?$_Tmap_traits@IPAUClientContext@@U?$less@I@std@@V?$allocator@U?$pair@$$CBIPAUClientContext@@@std@@@3@$0A@@std@@@std@@QBEABQAU?$_Tree_node@U?$pair@$$CBIPAUClientContext@@@std@@PAX@2@XZ 100082e0 f i IOCPS.obj
 0001:000072e0       ?_Myhead@?$_Tree_comp_alloc@V?$_Tmap_traits@IPAVCIOCPBuffer@@U?$less@I@std@@V?$allocator@U?$pair@$$CBIPAVCIOCPBuffer@@@std@@@3@$0A@@std@@@std@@QBEABQAU?$_Tree_node@U?$pair@$$CBIPAVCIOCPBuffer@@@std@@PAX@2@XZ 100082e0 f i IOCPS.obj
 0001:000072e0       ?_Myhead@?$_Tree_comp_alloc@V?$_Tmap_traits@IPAVCIOCPBuffer@@U?$less@I@std@@V?$allocator@U?$pair@$$CBIPAVCIOCPBuffer@@@std@@@3@$0A@@std@@@std@@QAEAAPAU?$_Tree_node@U?$pair@$$CBIPAVCIOCPBuffer@@@std@@PAX@2@XZ 100082e0 f i IOCPS.obj
 0001:000072e0       ?_Myhead@?$_Tree_comp_alloc@V?$_Tmap_traits@GPAXU?$less@G@std@@V?$allocator@U?$pair@$$CBGPAX@std@@@2@$0A@@std@@@std@@QAEAAPAU?$_Tree_node@U?$pair@$$CBGPAX@std@@PAX@2@XZ 100082e0 f i IOCPS.obj
 0001:00007300       ?_Getal@?$_Tree_comp_alloc@V?$_Tmap_traits@IPAVCIOCPBuffer@@U?$less@I@std@@V?$allocator@U?$pair@$$CBIPAVCIOCPBuffer@@@std@@@3@$0A@@std@@@std@@QAEAAU?$_Wrap_alloc@V?$allocator@U?$_Tree_node@U?$pair@$$CBIPAVCIOCPBuffer@@@std@@PAX@std@@@std@@@2@XZ 10008300 f i IOCPS.obj
 0001:00007300       ?_Get_data@?$_Tree_comp_alloc@V?$_Tmap_traits@IPAUClientContext@@U?$less@I@std@@V?$allocator@U?$pair@$$CBIPAUClientContext@@@std@@@3@$0A@@std@@@std@@QBEABV?$_Tree_val@U?$_Tree_simple_types@U?$pair@$$CBIPAUClientContext@@@std@@@std@@@2@XZ 10008300 f i IOCPS.obj
 0001:00007300       ?_Get_data@?$_Tree_comp_alloc@V?$_Tmap_traits@IPAVCIOCPBuffer@@U?$less@I@std@@V?$allocator@U?$pair@$$CBIPAVCIOCPBuffer@@@std@@@3@$0A@@std@@@std@@QAEAAV?$_Tree_val@U?$_Tree_simple_types@U?$pair@$$CBIPAVCIOCPBuffer@@@std@@@std@@@2@XZ 10008300 f i IOCPS.obj
 0001:00007300       ?_Getal@?$_Tree_comp_alloc@V?$_Tmap_traits@IPAUClientContext@@U?$less@I@std@@V?$allocator@U?$pair@$$CBIPAUClientContext@@@std@@@3@$0A@@std@@@std@@QBEABU?$_Wrap_alloc@V?$allocator@U?$_Tree_node@U?$pair@$$CBIPAUClientContext@@@std@@PAX@std@@@std@@@2@XZ 10008300 f i IOCPS.obj
 0001:00007300       ?_Getal@?$_Tree_comp_alloc@V?$_Tmap_traits@GPAXU?$less@G@std@@V?$allocator@U?$pair@$$CBGPAX@std@@@2@$0A@@std@@@std@@QAEAAU?$_Wrap_alloc@V?$allocator@U?$_Tree_node@U?$pair@$$CBGPAX@std@@PAX@std@@@std@@@2@XZ 10008300 f i IOCPS.obj
 0001:00007300       ?_Getal@?$_Tree_comp_alloc@V?$_Tmap_traits@GPAXU?$less@G@std@@V?$allocator@U?$pair@$$CBGPAX@std@@@2@$0A@@std@@@std@@QBEABU?$_Wrap_alloc@V?$allocator@U?$_Tree_node@U?$pair@$$CBGPAX@std@@PAX@std@@@std@@@2@XZ 10008300 f i IOCPS.obj
 0001:00007300       ?_Get_data@?$_Tree_comp_alloc@V?$_Tmap_traits@IPAUClientContext@@U?$less@I@std@@V?$allocator@U?$pair@$$CBIPAUClientContext@@@std@@@3@$0A@@std@@@std@@QAEAAV?$_Tree_val@U?$_Tree_simple_types@U?$pair@$$CBIPAUClientContext@@@std@@@std@@@2@XZ 10008300 f i IOCPS.obj
 0001:00007300       ?_Get_data@?$_Tree_comp_alloc@V?$_Tmap_traits@GPAXU?$less@G@std@@V?$allocator@U?$pair@$$CBGPAX@std@@@2@$0A@@std@@@std@@QAEAAV?$_Tree_val@U?$_Tree_simple_types@U?$pair@$$CBGPAX@std@@@std@@@2@XZ 10008300 f i IOCPS.obj
 0001:00007300       ?_Get_data@?$_Tree_comp_alloc@V?$_Tmap_traits@IPAVCIOCPBuffer@@U?$less@I@std@@V?$allocator@U?$pair@$$CBIPAVCIOCPBuffer@@@std@@@3@$0A@@std@@@std@@QBEABV?$_Tree_val@U?$_Tree_simple_types@U?$pair@$$CBIPAVCIOCPBuffer@@@std@@@std@@@2@XZ 10008300 f i IOCPS.obj
 0001:00007300       ?_Get_data@?$_Tree_comp_alloc@V?$_Tmap_traits@GPAXU?$less@G@std@@V?$allocator@U?$pair@$$CBGPAX@std@@@2@$0A@@std@@@std@@QBEABV?$_Tree_val@U?$_Tree_simple_types@U?$pair@$$CBGPAX@std@@@std@@@2@XZ 10008300 f i IOCPS.obj
 0001:00007300       ?_Getal@?$_Tree_comp_alloc@V?$_Tmap_traits@IPAUClientContext@@U?$less@I@std@@V?$allocator@U?$pair@$$CBIPAUClientContext@@@std@@@3@$0A@@std@@@std@@QAEAAU?$_Wrap_alloc@V?$allocator@U?$_Tree_node@U?$pair@$$CBIPAUClientContext@@@std@@PAX@std@@@std@@@2@XZ 10008300 f i IOCPS.obj
 0001:00007300       ?_Getal@?$_Tree_comp_alloc@V?$_Tmap_traits@IPAVCIOCPBuffer@@U?$less@I@std@@V?$allocator@U?$pair@$$CBIPAVCIOCPBuffer@@@std@@@3@$0A@@std@@@std@@QBEABU?$_Wrap_alloc@V?$allocator@U?$_Tree_node@U?$pair@$$CBIPAVCIOCPBuffer@@@std@@PAX@std@@@std@@@2@XZ 10008300 f i IOCPS.obj
 0001:00007320       ??1?$_Tree_comp_alloc@V?$_Tmap_traits@IPAUClientContext@@U?$less@I@std@@V?$allocator@U?$pair@$$CBIPAUClientContext@@@std@@@3@$0A@@std@@@std@@QAE@XZ 10008320 f i IOCPS.obj
 0001:00007320       ??1?$_Tree_comp_alloc@V?$_Tmap_traits@IPAVCIOCPBuffer@@U?$less@I@std@@V?$allocator@U?$pair@$$CBIPAVCIOCPBuffer@@@std@@@3@$0A@@std@@@std@@QAE@XZ 10008320 f i IOCPS.obj
 0001:00007320       ??1?$_Tree_comp_alloc@V?$_Tmap_traits@GPAXU?$less@G@std@@V?$allocator@U?$pair@$$CBGPAX@std@@@2@$0A@@std@@@std@@QAE@XZ 10008320 f i IOCPS.obj
 0001:00007370       ?_Min@?$_Tree_comp_alloc@V?$_Tmap_traits@GPAXU?$less@G@std@@V?$allocator@U?$pair@$$CBGPAX@std@@@2@$0A@@std@@@std@@SAPAU?$_Tree_node@U?$pair@$$CBGPAX@std@@PAX@2@PAU32@@Z 10008370 f i IOCPS.obj
 0001:00007370       ?_Min@?$_Tree_comp_alloc@V?$_Tmap_traits@IPAUClientContext@@U?$less@I@std@@V?$allocator@U?$pair@$$CBIPAUClientContext@@@std@@@3@$0A@@std@@@std@@SAPAU?$_Tree_node@U?$pair@$$CBIPAUClientContext@@@std@@PAX@2@PAU32@@Z 10008370 f i IOCPS.obj
 0001:00007370       ?_Min@?$_Tree_comp_alloc@V?$_Tmap_traits@IPAVCIOCPBuffer@@U?$less@I@std@@V?$allocator@U?$pair@$$CBIPAVCIOCPBuffer@@@std@@@3@$0A@@std@@@std@@SAPAU?$_Tree_node@U?$pair@$$CBIPAVCIOCPBuffer@@@std@@PAX@2@PAU32@@Z 10008370 f i IOCPS.obj
 0001:00007390       ?_Max@?$_Tree_comp_alloc@V?$_Tmap_traits@IPAUClientContext@@U?$less@I@std@@V?$allocator@U?$pair@$$CBIPAUClientContext@@@std@@@3@$0A@@std@@@std@@SAPAU?$_Tree_node@U?$pair@$$CBIPAUClientContext@@@std@@PAX@2@PAU32@@Z 10008390 f i IOCPS.obj
 0001:00007390       ?_Max@?$_Tree_comp_alloc@V?$_Tmap_traits@GPAXU?$less@G@std@@V?$allocator@U?$pair@$$CBGPAX@std@@@2@$0A@@std@@@std@@SAPAU?$_Tree_node@U?$pair@$$CBGPAX@std@@PAX@2@PAU32@@Z 10008390 f i IOCPS.obj
 0001:00007390       ?_Max@?$_Tree_comp_alloc@V?$_Tmap_traits@IPAVCIOCPBuffer@@U?$less@I@std@@V?$allocator@U?$pair@$$CBIPAVCIOCPBuffer@@@std@@@3@$0A@@std@@@std@@SAPAU?$_Tree_node@U?$pair@$$CBIPAVCIOCPBuffer@@@std@@PAX@2@PAU32@@Z 10008390 f i IOCPS.obj
 0001:000073b0       ?_Myval@?$_Tree_comp_alloc@V?$_Tmap_traits@IPAVCIOCPBuffer@@U?$less@I@std@@V?$allocator@U?$pair@$$CBIPAVCIOCPBuffer@@@std@@@3@$0A@@std@@@std@@SAAAU?$pair@$$CBIPAVCIOCPBuffer@@@2@PAU?$_Tree_node@U?$pair@$$CBIPAVCIOCPBuffer@@@std@@PAX@2@@Z 100083b0 f i IOCPS.obj
 0001:000073b0       ?_Myval@?$_Tree_comp_alloc@V?$_Tmap_traits@GPAXU?$less@G@std@@V?$allocator@U?$pair@$$CBGPAX@std@@@2@$0A@@std@@@std@@SAAAU?$pair@$$CBGPAX@2@PAU?$_Tree_node@U?$pair@$$CBGPAX@std@@PAX@2@@Z 100083b0 f i IOCPS.obj
 0001:000073b0       ?_Myval@?$_Tree_comp_alloc@V?$_Tmap_traits@IPAUClientContext@@U?$less@I@std@@V?$allocator@U?$pair@$$CBIPAUClientContext@@@std@@@3@$0A@@std@@@std@@SAAAU?$pair@$$CBIPAUClientContext@@@2@PAU?$_Tree_node@U?$pair@$$CBIPAUClientContext@@@std@@PAX@2@@Z 100083b0 f i IOCPS.obj
 0001:000073d0       ?_Myval@?$_List_alloc@U?$_List_base_types@PAXV?$allocator@PAX@std@@@std@@@std@@SAAAPAXPAU?$_List_node@PAXPAX@2@@Z 100083d0 f i IOCPS.obj
 0001:000073d0       ?_Right@?$_Tree_comp_alloc@V?$_Tmap_traits@IPAUClientContext@@U?$less@I@std@@V?$allocator@U?$pair@$$CBIPAUClientContext@@@std@@@3@$0A@@std@@@std@@SAAAPAU?$_Tree_node@U?$pair@$$CBIPAUClientContext@@@std@@PAX@2@PAU32@@Z 100083d0 f i IOCPS.obj
 0001:000073d0       ?_Myval@?$_List_alloc@U?$_List_base_types@PAVCIOCPBuffer@@V?$allocator@PAVCIOCPBuffer@@@std@@@std@@@std@@SAAAPAVCIOCPBuffer@@PAU?$_List_node@PAVCIOCPBuffer@@PAX@2@@Z 100083d0 f i IOCPS.obj
 0001:000073d0       ?_Myval@?$_List_alloc@U?$_List_base_types@PAUClientContext@@V?$allocator@PAUClientContext@@@std@@@std@@@std@@SAAAPAUClientContext@@PAU?$_List_node@PAUClientContext@@PAX@2@@Z 100083d0 f i IOCPS.obj
 0001:000073d0       ?_Right@?$_Tree_comp_alloc@V?$_Tmap_traits@GPAXU?$less@G@std@@V?$allocator@U?$pair@$$CBGPAX@std@@@2@$0A@@std@@@std@@SAAAPAU?$_Tree_node@U?$pair@$$CBGPAX@std@@PAX@2@PAU32@@Z 100083d0 f i IOCPS.obj
 0001:000073d0       ?_Myval@?$_List_alloc@U?$_List_base_types@PAUJobItem@@V?$allocator@PAUJobItem@@@std@@@std@@@std@@SAAAPAUJobItem@@PAU?$_List_node@PAUJobItem@@PAX@2@@Z 100083d0 f i IOCPS.obj
 0001:000073d0       ?_Right@?$_Tree_comp_alloc@V?$_Tmap_traits@IPAVCIOCPBuffer@@U?$less@I@std@@V?$allocator@U?$pair@$$CBIPAVCIOCPBuffer@@@std@@@3@$0A@@std@@@std@@SAAAPAU?$_Tree_node@U?$pair@$$CBIPAVCIOCPBuffer@@@std@@PAX@2@PAU32@@Z 100083d0 f i IOCPS.obj
 0001:000073f0       ?_Prevnode@?$_List_alloc@U?$_List_base_types@PAUJobItem@@V?$allocator@PAUJobItem@@@std@@@std@@@std@@SAAAPAU?$_List_node@PAUJobItem@@PAX@2@PAU32@@Z 100083f0 f i IOCPS.obj
 0001:000073f0       ?_Prevnode@?$_List_alloc@U?$_List_base_types@PAUClientContext@@V?$allocator@PAUClientContext@@@std@@@std@@@std@@SAAAPAU?$_List_node@PAUClientContext@@PAX@2@PAU32@@Z 100083f0 f i IOCPS.obj
 0001:000073f0       ?_Parent@?$_Tree_comp_alloc@V?$_Tmap_traits@GPAXU?$less@G@std@@V?$allocator@U?$pair@$$CBGPAX@std@@@2@$0A@@std@@@std@@SAAAPAU?$_Tree_node@U?$pair@$$CBGPAX@std@@PAX@2@PAU32@@Z 100083f0 f i IOCPS.obj
 0001:000073f0       ?_Parent@?$_Tree_comp_alloc@V?$_Tmap_traits@IPAUClientContext@@U?$less@I@std@@V?$allocator@U?$pair@$$CBIPAUClientContext@@@std@@@3@$0A@@std@@@std@@SAAAPAU?$_Tree_node@U?$pair@$$CBIPAUClientContext@@@std@@PAX@2@PAU32@@Z 100083f0 f i IOCPS.obj
 0001:000073f0       ?_Parent@?$_Tree_comp_alloc@V?$_Tmap_traits@IPAVCIOCPBuffer@@U?$less@I@std@@V?$allocator@U?$pair@$$CBIPAVCIOCPBuffer@@@std@@@3@$0A@@std@@@std@@SAAAPAU?$_Tree_node@U?$pair@$$CBIPAVCIOCPBuffer@@@std@@PAX@2@PAU32@@Z 100083f0 f i IOCPS.obj
 0001:000073f0       ?_Prevnode@?$_List_alloc@U?$_List_base_types@PAXV?$allocator@PAX@std@@@std@@@std@@SAAAPAU?$_List_node@PAXPAX@2@PAU32@@Z 100083f0 f i IOCPS.obj
 0001:000073f0       ?_Prevnode@?$_List_alloc@U?$_List_base_types@PAVCIOCPBuffer@@V?$allocator@PAVCIOCPBuffer@@@std@@@std@@@std@@SAAAPAU?$_List_node@PAVCIOCPBuffer@@PAX@2@PAU32@@Z 100083f0 f i IOCPS.obj
 0001:00007410       ?_Nextnode@?$_List_alloc@U?$_List_base_types@PAVCIOCPBuffer@@V?$allocator@PAVCIOCPBuffer@@@std@@@std@@@std@@SAAAPAU?$_List_node@PAVCIOCPBuffer@@PAX@2@PAU32@@Z 10008410 f i IOCPS.obj
 0001:00007410       ?_Left@?$_Tree_comp_alloc@V?$_Tmap_traits@IPAUClientContext@@U?$less@I@std@@V?$allocator@U?$pair@$$CBIPAUClientContext@@@std@@@3@$0A@@std@@@std@@SAAAPAU?$_Tree_node@U?$pair@$$CBIPAUClientContext@@@std@@PAX@2@PAU32@@Z 10008410 f i IOCPS.obj
 0001:00007410       ?_Nextnode@?$_List_alloc@U?$_List_base_types@PAUJobItem@@V?$allocator@PAUJobItem@@@std@@@std@@@std@@SAAAPAU?$_List_node@PAUJobItem@@PAX@2@PAU32@@Z 10008410 f i IOCPS.obj
 0001:00007410       ?pointer_to@?$pointer_traits@PAU?$pair@$$CBGPAX@std@@@std@@SAPAU?$pair@$$CBGPAX@2@AAU32@@Z 10008410 f i IOCPS.obj
 0001:00007410       ?pointer_to@?$pointer_traits@PAU?$pair@$$CBIPAVCIOCPBuffer@@@std@@@std@@SAPAU?$pair@$$CBIPAVCIOCPBuffer@@@2@AAU32@@Z 10008410 f i IOCPS.obj
 0001:00007410       ?pointer_to@?$pointer_traits@PAU?$pair@$$CBIPAUClientContext@@@std@@@std@@SAPAU?$pair@$$CBIPAUClientContext@@@2@AAU32@@Z 10008410 f i IOCPS.obj
 0001:00007410       ?_Nextnode@?$_List_alloc@U?$_List_base_types@PAUClientContext@@V?$allocator@PAUClientContext@@@std@@@std@@@std@@SAAAPAU?$_List_node@PAUClientContext@@PAX@2@PAU32@@Z 10008410 f i IOCPS.obj
 0001:00007410       ?_Left@?$_Tree_comp_alloc@V?$_Tmap_traits@GPAXU?$less@G@std@@V?$allocator@U?$pair@$$CBGPAX@std@@@2@$0A@@std@@@std@@SAAAPAU?$_Tree_node@U?$pair@$$CBGPAX@std@@PAX@2@PAU32@@Z 10008410 f i IOCPS.obj
 0001:00007410       ?_Left@?$_Tree_comp_alloc@V?$_Tmap_traits@IPAVCIOCPBuffer@@U?$less@I@std@@V?$allocator@U?$pair@$$CBIPAVCIOCPBuffer@@@std@@@3@$0A@@std@@@std@@SAAAPAU?$_Tree_node@U?$pair@$$CBIPAVCIOCPBuffer@@@std@@PAX@2@PAU32@@Z 10008410 f i IOCPS.obj
 0001:00007410       ?_Nextnode@?$_List_alloc@U?$_List_base_types@PAXV?$allocator@PAX@std@@@std@@@std@@SAAAPAU?$_List_node@PAXPAX@2@PAU32@@Z 10008410 f i IOCPS.obj
 0001:00007430       ?_Isnil@?$_Tree_comp_alloc@V?$_Tmap_traits@GPAXU?$less@G@std@@V?$allocator@U?$pair@$$CBGPAX@std@@@2@$0A@@std@@@std@@SAAADPAU?$_Tree_node@U?$pair@$$CBGPAX@std@@PAX@2@@Z 10008430 f i IOCPS.obj
 0001:00007430       ?_Isnil@?$_Tree_comp_alloc@V?$_Tmap_traits@IPAVCIOCPBuffer@@U?$less@I@std@@V?$allocator@U?$pair@$$CBIPAVCIOCPBuffer@@@std@@@3@$0A@@std@@@std@@SAAADPAU?$_Tree_node@U?$pair@$$CBIPAVCIOCPBuffer@@@std@@PAX@2@@Z 10008430 f i IOCPS.obj
 0001:00007430       ?_Isnil@?$_Tree_comp_alloc@V?$_Tmap_traits@IPAUClientContext@@U?$less@I@std@@V?$allocator@U?$pair@$$CBIPAUClientContext@@@std@@@3@$0A@@std@@@std@@SAAADPAU?$_Tree_node@U?$pair@$$CBIPAUClientContext@@@std@@PAX@2@@Z 10008430 f i IOCPS.obj
 0001:00007450       ?_Color@?$_Tree_comp_alloc@V?$_Tmap_traits@IPAVCIOCPBuffer@@U?$less@I@std@@V?$allocator@U?$pair@$$CBIPAVCIOCPBuffer@@@std@@@3@$0A@@std@@@std@@SAAADPAU?$_Tree_node@U?$pair@$$CBIPAVCIOCPBuffer@@@std@@PAX@2@@Z 10008450 f i IOCPS.obj
 0001:00007450       ?_Color@?$_Tree_comp_alloc@V?$_Tmap_traits@IPAUClientContext@@U?$less@I@std@@V?$allocator@U?$pair@$$CBIPAUClientContext@@@std@@@3@$0A@@std@@@std@@SAAADPAU?$_Tree_node@U?$pair@$$CBIPAUClientContext@@@std@@PAX@2@@Z 10008450 f i IOCPS.obj
 0001:00007450       ?_Color@?$_Tree_comp_alloc@V?$_Tmap_traits@GPAXU?$less@G@std@@V?$allocator@U?$pair@$$CBGPAX@std@@@2@$0A@@std@@@std@@SAAADPAU?$_Tree_node@U?$pair@$$CBGPAX@std@@PAX@2@@Z 10008450 f i IOCPS.obj
 0001:00007470       ?_Key@?$_Tree@V?$_Tmap_traits@IPAUClientContext@@U?$less@I@std@@V?$allocator@U?$pair@$$CBIPAUClientContext@@@std@@@3@$0A@@std@@@std@@IBEABIPAU?$_Tree_node@U?$pair@$$CBIPAUClientContext@@@std@@PAX@2@@Z 10008470 f i IOCPS.obj
 0001:00007470       ?_Key@?$_Tree@V?$_Tmap_traits@GPAXU?$less@G@std@@V?$allocator@U?$pair@$$CBGPAX@std@@@2@$0A@@std@@@std@@IBEABGPAU?$_Tree_node@U?$pair@$$CBGPAX@std@@PAX@2@@Z 10008470 f i IOCPS.obj
 0001:00007470       ?_Key@?$_Tree@V?$_Tmap_traits@IPAVCIOCPBuffer@@U?$less@I@std@@V?$allocator@U?$pair@$$CBIPAVCIOCPBuffer@@@std@@@3@$0A@@std@@@std@@IBEABIPAU?$_Tree_node@U?$pair@$$CBIPAVCIOCPBuffer@@@std@@PAX@2@@Z 10008470 f i IOCPS.obj
 0001:000074a0       ?_Tidy@?$_Tree@V?$_Tmap_traits@IPAUClientContext@@U?$less@I@std@@V?$allocator@U?$pair@$$CBIPAUClientContext@@@std@@@3@$0A@@std@@@std@@IAEXXZ 100084a0 f i IOCPS.obj
 0001:000074a0       ?_Tidy@?$_Tree@V?$_Tmap_traits@GPAXU?$less@G@std@@V?$allocator@U?$pair@$$CBGPAX@std@@@2@$0A@@std@@@std@@IAEXXZ 100084a0 f i IOCPS.obj
 0001:000074a0       ?_Tidy@?$_Tree@V?$_Tmap_traits@IPAVCIOCPBuffer@@U?$less@I@std@@V?$allocator@U?$pair@$$CBIPAVCIOCPBuffer@@@std@@@3@$0A@@std@@@std@@IAEXXZ 100084a0 f i IOCPS.obj
 0001:000074f0       ?_Rrotate@?$_Tree@V?$_Tmap_traits@IPAVCIOCPBuffer@@U?$less@I@std@@V?$allocator@U?$pair@$$CBIPAVCIOCPBuffer@@@std@@@3@$0A@@std@@@std@@IAEXPAU?$_Tree_node@U?$pair@$$CBIPAVCIOCPBuffer@@@std@@PAX@2@@Z 100084f0 f i IOCPS.obj
 0001:000074f0       ?_Rrotate@?$_Tree@V?$_Tmap_traits@GPAXU?$less@G@std@@V?$allocator@U?$pair@$$CBGPAX@std@@@2@$0A@@std@@@std@@IAEXPAU?$_Tree_node@U?$pair@$$CBGPAX@std@@PAX@2@@Z 100084f0 f i IOCPS.obj
 0001:000074f0       ?_Rrotate@?$_Tree@V?$_Tmap_traits@IPAUClientContext@@U?$less@I@std@@V?$allocator@U?$pair@$$CBIPAUClientContext@@@std@@@3@$0A@@std@@@std@@IAEXPAU?$_Tree_node@U?$pair@$$CBIPAUClientContext@@@std@@PAX@2@@Z 100084f0 f i IOCPS.obj
 0001:00007620       ?_Root@?$_Tree@V?$_Tmap_traits@IPAUClientContext@@U?$less@I@std@@V?$allocator@U?$pair@$$CBIPAUClientContext@@@std@@@3@$0A@@std@@@std@@IBEAAPAU?$_Tree_node@U?$pair@$$CBIPAUClientContext@@@std@@PAX@2@XZ 10008620 f i IOCPS.obj
 0001:00007620       ?_Root@?$_Tree@V?$_Tmap_traits@GPAXU?$less@G@std@@V?$allocator@U?$pair@$$CBGPAX@std@@@2@$0A@@std@@@std@@IBEAAPAU?$_Tree_node@U?$pair@$$CBGPAX@std@@PAX@2@XZ 10008620 f i IOCPS.obj
 0001:00007620       ?_Root@?$_Tree@V?$_Tmap_traits@IPAVCIOCPBuffer@@U?$less@I@std@@V?$allocator@U?$pair@$$CBIPAVCIOCPBuffer@@@std@@@3@$0A@@std@@@std@@IBEAAPAU?$_Tree_node@U?$pair@$$CBIPAVCIOCPBuffer@@@std@@PAX@2@XZ 10008620 f i IOCPS.obj
 0001:00007640       ?_Rmost@?$_Tree@V?$_Tmap_traits@IPAUClientContext@@U?$less@I@std@@V?$allocator@U?$pair@$$CBIPAUClientContext@@@std@@@3@$0A@@std@@@std@@IBEAAPAU?$_Tree_node@U?$pair@$$CBIPAUClientContext@@@std@@PAX@2@XZ 10008640 f i IOCPS.obj
 0001:00007640       ?_Rmost@?$_Tree@V?$_Tmap_traits@IPAVCIOCPBuffer@@U?$less@I@std@@V?$allocator@U?$pair@$$CBIPAVCIOCPBuffer@@@std@@@3@$0A@@std@@@std@@IBEAAPAU?$_Tree_node@U?$pair@$$CBIPAVCIOCPBuffer@@@std@@PAX@2@XZ 10008640 f i IOCPS.obj
 0001:00007640       ?_Rmost@?$_Tree@V?$_Tmap_traits@GPAXU?$less@G@std@@V?$allocator@U?$pair@$$CBGPAX@std@@@2@$0A@@std@@@std@@IBEAAPAU?$_Tree_node@U?$pair@$$CBGPAX@std@@PAX@2@XZ 10008640 f i IOCPS.obj
 0001:00007660       ?_Lrotate@?$_Tree@V?$_Tmap_traits@GPAXU?$less@G@std@@V?$allocator@U?$pair@$$CBGPAX@std@@@2@$0A@@std@@@std@@IAEXPAU?$_Tree_node@U?$pair@$$CBGPAX@std@@PAX@2@@Z 10008660 f i IOCPS.obj
 0001:00007660       ?_Lrotate@?$_Tree@V?$_Tmap_traits@IPAVCIOCPBuffer@@U?$less@I@std@@V?$allocator@U?$pair@$$CBIPAVCIOCPBuffer@@@std@@@3@$0A@@std@@@std@@IAEXPAU?$_Tree_node@U?$pair@$$CBIPAVCIOCPBuffer@@@std@@PAX@2@@Z 10008660 f i IOCPS.obj
 0001:00007660       ?_Lrotate@?$_Tree@V?$_Tmap_traits@IPAUClientContext@@U?$less@I@std@@V?$allocator@U?$pair@$$CBIPAUClientContext@@@std@@@3@$0A@@std@@@std@@IAEXPAU?$_Tree_node@U?$pair@$$CBIPAUClientContext@@@std@@PAX@2@@Z 10008660 f i IOCPS.obj
 0001:00007790       ?_Lmost@?$_Tree@V?$_Tmap_traits@IPAVCIOCPBuffer@@U?$less@I@std@@V?$allocator@U?$pair@$$CBIPAVCIOCPBuffer@@@std@@@3@$0A@@std@@@std@@IBEAAPAU?$_Tree_node@U?$pair@$$CBIPAVCIOCPBuffer@@@std@@PAX@2@XZ 10008790 f i IOCPS.obj
 0001:00007790       ?_Lmost@?$_Tree@V?$_Tmap_traits@IPAUClientContext@@U?$less@I@std@@V?$allocator@U?$pair@$$CBIPAUClientContext@@@std@@@3@$0A@@std@@@std@@IBEAAPAU?$_Tree_node@U?$pair@$$CBIPAUClientContext@@@std@@PAX@2@XZ 10008790 f i IOCPS.obj
 0001:00007790       ?_Lmost@?$_Tree@V?$_Tmap_traits@GPAXU?$less@G@std@@V?$allocator@U?$pair@$$CBGPAX@std@@@2@$0A@@std@@@std@@IBEAAPAU?$_Tree_node@U?$pair@$$CBGPAX@std@@PAX@2@XZ 10008790 f i IOCPS.obj
 0001:000077b0       ?_Erase@?$_Tree@V?$_Tmap_traits@GPAXU?$less@G@std@@V?$allocator@U?$pair@$$CBGPAX@std@@@2@$0A@@std@@@std@@IAEXPAU?$_Tree_node@U?$pair@$$CBGPAX@std@@PAX@2@@Z 100087b0 f i IOCPS.obj
 0001:000077b0       ?_Erase@?$_Tree@V?$_Tmap_traits@IPAVCIOCPBuffer@@U?$less@I@std@@V?$allocator@U?$pair@$$CBIPAVCIOCPBuffer@@@std@@@3@$0A@@std@@@std@@IAEXPAU?$_Tree_node@U?$pair@$$CBIPAVCIOCPBuffer@@@std@@PAX@2@@Z 100087b0 f i IOCPS.obj
 0001:000077b0       ?_Erase@?$_Tree@V?$_Tmap_traits@IPAUClientContext@@U?$less@I@std@@V?$allocator@U?$pair@$$CBIPAUClientContext@@@std@@@3@$0A@@std@@@std@@IAEXPAU?$_Tree_node@U?$pair@$$CBIPAUClientContext@@@std@@PAX@2@@Z 100087b0 f i IOCPS.obj
 0001:00007850       ?lower_bound@?$_Tree@V?$_Tmap_traits@IPAVCIOCPBuffer@@U?$less@I@std@@V?$allocator@U?$pair@$$CBIPAVCIOCPBuffer@@@std@@@3@$0A@@std@@@std@@QAE?AV?$_Tree_iterator@V?$_Tree_val@U?$_Tree_simple_types@U?$pair@$$CBIPAVCIOCPBuffer@@@std@@@std@@@std@@@2@ABI@Z 10008850 f i IOCPS.obj
 0001:00007850       ?lower_bound@?$_Tree@V?$_Tmap_traits@IPAUClientContext@@U?$less@I@std@@V?$allocator@U?$pair@$$CBIPAUClientContext@@@std@@@3@$0A@@std@@@std@@QAE?AV?$_Tree_iterator@V?$_Tree_val@U?$_Tree_simple_types@U?$pair@$$CBIPAUClientContext@@@std@@@std@@@std@@@2@ABI@Z 10008850 f i IOCPS.obj
 0001:00007880       ??0?$_Tree@V?$_Tmap_traits@IPAVCIOCPBuffer@@U?$less@I@std@@V?$allocator@U?$pair@$$CBIPAVCIOCPBuffer@@@std@@@3@$0A@@std@@@std@@QAE@ABU?$less@I@1@@Z 10008880 f i IOCPS.obj
 0001:00007880       ??0?$_Tree@V?$_Tmap_traits@GPAXU?$less@G@std@@V?$allocator@U?$pair@$$CBGPAX@std@@@2@$0A@@std@@@std@@QAE@ABU?$less@G@1@@Z 10008880 f i IOCPS.obj
 0001:00007880       ??0?$_Tree@V?$_Tmap_traits@IPAUClientContext@@U?$less@I@std@@V?$allocator@U?$pair@$$CBIPAUClientContext@@@std@@@3@$0A@@std@@@std@@QAE@ABU?$less@I@1@@Z 10008880 f i IOCPS.obj
 0001:000078a0       ??F?$_List_iterator@V?$_List_val@U?$_List_simple_types@PAUJobItem@@@std@@@std@@@std@@QAEAAV01@XZ 100088a0 f i IOCPS.obj
 0001:000078c0       ??E?$_List_iterator@V?$_List_val@U?$_List_simple_types@PAVCIOCPBuffer@@@std@@@std@@@std@@QAEAAV01@XZ 100088c0 f i IOCPS.obj
 0001:000078c0       ??E?$_List_iterator@V?$_List_val@U?$_List_simple_types@PAUJobItem@@@std@@@std@@@std@@QAEAAV01@XZ 100088c0 f i IOCPS.obj
 0001:000078c0       ??E?$_List_iterator@V?$_List_val@U?$_List_simple_types@PAUClientContext@@@std@@@std@@@std@@QAEAAV01@XZ 100088c0 f i IOCPS.obj
 0001:000078c0       ??E?$_List_iterator@V?$_List_val@U?$_List_simple_types@PAX@std@@@std@@@std@@QAEAAV01@XZ 100088c0 f i IOCPS.obj
 0001:000078e0       ??D?$_List_const_iterator@V?$_List_val@U?$_List_simple_types@PAX@std@@@std@@@std@@QBEABQAXXZ 100088e0 f i IOCPS.obj
 0001:000078e0       ??D?$_List_const_iterator@V?$_List_val@U?$_List_simple_types@PAVCIOCPBuffer@@@std@@@std@@@std@@QBEABQAVCIOCPBuffer@@XZ 100088e0 f i IOCPS.obj
 0001:000078e0       ??D?$_List_const_iterator@V?$_List_val@U?$_List_simple_types@PAUClientContext@@@std@@@std@@@std@@QBEABQAUClientContext@@XZ 100088e0 f i IOCPS.obj
 0001:000078e0       ??D?$_List_const_iterator@V?$_List_val@U?$_List_simple_types@PAUJobItem@@@std@@@std@@@std@@QBEABQAUJobItem@@XZ 100088e0 f i IOCPS.obj
 0001:00007900       ?_Mysize@?$_List_alloc@U?$_List_base_types@PAUJobItem@@V?$allocator@PAUJobItem@@@std@@@std@@@std@@QBEABIXZ 10008900 f i IOCPS.obj
 0001:00007900       ?_Mysize@?$_List_alloc@U?$_List_base_types@PAUClientContext@@V?$allocator@PAUClientContext@@@std@@@std@@@std@@QAEAAIXZ 10008900 f i IOCPS.obj
 0001:00007900       ?_Mysize@?$_List_alloc@U?$_List_base_types@PAXV?$allocator@PAX@std@@@std@@@std@@QBEABIXZ 10008900 f i IOCPS.obj
 0001:00007900       ?_Mysize@?$_List_alloc@U?$_List_base_types@PAUClientContext@@V?$allocator@PAUClientContext@@@std@@@std@@@std@@QBEABIXZ 10008900 f i IOCPS.obj
 0001:00007900       ?_Mysize@?$_List_alloc@U?$_List_base_types@PAVCIOCPBuffer@@V?$allocator@PAVCIOCPBuffer@@@std@@@std@@@std@@QBEABIXZ 10008900 f i IOCPS.obj
 0001:00007900       ?_Mysize@?$_List_alloc@U?$_List_base_types@PAVCIOCPBuffer@@V?$allocator@PAVCIOCPBuffer@@@std@@@std@@@std@@QAEAAIXZ 10008900 f i IOCPS.obj
 0001:00007900       ?_Mysize@?$_List_alloc@U?$_List_base_types@PAUJobItem@@V?$allocator@PAUJobItem@@@std@@@std@@@std@@QAEAAIXZ 10008900 f i IOCPS.obj
 0001:00007900       ?_Mysize@?$_List_alloc@U?$_List_base_types@PAXV?$allocator@PAX@std@@@std@@@std@@QAEAAIXZ 10008900 f i IOCPS.obj
 0001:00007920       ??1?$_List_alloc@U?$_List_base_types@PAUClientContext@@V?$allocator@PAUClientContext@@@std@@@std@@@std@@QAE@XZ 10008920 f i IOCPS.obj
 0001:00007920       ??1?$_List_alloc@U?$_List_base_types@PAVCIOCPBuffer@@V?$allocator@PAVCIOCPBuffer@@@std@@@std@@@std@@QAE@XZ 10008920 f i IOCPS.obj
 0001:00007920       ??1?$_List_alloc@U?$_List_base_types@PAUJobItem@@V?$allocator@PAUJobItem@@@std@@@std@@@std@@QAE@XZ 10008920 f i IOCPS.obj
 0001:00007920       ??1?$_List_alloc@U?$_List_base_types@PAXV?$allocator@PAX@std@@@std@@@std@@QAE@XZ 10008920 f i IOCPS.obj
 0001:00007970       ?_Freenode@?$_List_buy@PAVCIOCPBuffer@@V?$allocator@PAVCIOCPBuffer@@@std@@@std@@QAEXPAU?$_List_node@PAVCIOCPBuffer@@PAX@2@@Z 10008970 f i IOCPS.obj
 0001:00007970       ?_Freenode@?$_List_buy@PAUJobItem@@V?$allocator@PAUJobItem@@@std@@@std@@QAEXPAU?$_List_node@PAUJobItem@@PAX@2@@Z 10008970 f i IOCPS.obj
 0001:00007970       ?_Freenode@?$_List_buy@PAUClientContext@@V?$allocator@PAUClientContext@@@std@@@std@@QAEXPAU?$_List_node@PAUClientContext@@PAX@2@@Z 10008970 f i IOCPS.obj
 0001:00007970       ?_Freenode@?$_List_buy@PAXV?$allocator@PAX@std@@@std@@QAEXPAU?$_List_node@PAXPAX@2@@Z 10008970 f i IOCPS.obj
 0001:00007a10       ??0?$_List_buy@PAUJobItem@@V?$allocator@PAUJobItem@@@std@@@std@@QAE@XZ 10008a10 f i IOCPS.obj
 0001:00007a10       ??0?$_List_buy@PAUClientContext@@V?$allocator@PAUClientContext@@@std@@@std@@QAE@XZ 10008a10 f i IOCPS.obj
 0001:00007a10       ??0?$_List_buy@PAVCIOCPBuffer@@V?$allocator@PAVCIOCPBuffer@@@std@@@std@@QAE@XZ 10008a10 f i IOCPS.obj
 0001:00007a10       ??0?$_List_buy@PAXV?$allocator@PAX@std@@@std@@QAE@XZ 10008a10 f i IOCPS.obj
 0001:00007a30       ?_Tidy@?$list@PAUJobItem@@V?$allocator@PAUJobItem@@@std@@@std@@QAEXXZ 10008a30 f i IOCPS.obj
 0001:00007a30       ?_Tidy@?$list@PAVCIOCPBuffer@@V?$allocator@PAVCIOCPBuffer@@@std@@@std@@QAEXXZ 10008a30 f i IOCPS.obj
 0001:00007a30       ?_Tidy@?$list@PAXV?$allocator@PAX@std@@@std@@QAEXXZ 10008a30 f i IOCPS.obj
 0001:00007a30       ?_Tidy@?$list@PAUClientContext@@V?$allocator@PAUClientContext@@@std@@@std@@QAEXXZ 10008a30 f i IOCPS.obj
 0001:00007a50       ?erase@?$list@PAUClientContext@@V?$allocator@PAUClientContext@@@std@@@std@@QAE?AV?$_List_iterator@V?$_List_val@U?$_List_simple_types@PAUClientContext@@@std@@@std@@@2@V?$_List_const_iterator@V?$_List_val@U?$_List_simple_types@PAUClientContext@@@std@@@std@@@2@@Z 10008a50 f i IOCPS.obj
 0001:00007a50       ?erase@?$list@PAUJobItem@@V?$allocator@PAUJobItem@@@std@@@std@@QAE?AV?$_List_iterator@V?$_List_val@U?$_List_simple_types@PAUJobItem@@@std@@@std@@@2@V?$_List_const_iterator@V?$_List_val@U?$_List_simple_types@PAUJobItem@@@std@@@std@@@2@@Z 10008a50 f i IOCPS.obj
 0001:00007a50       ?erase@?$list@PAVCIOCPBuffer@@V?$allocator@PAVCIOCPBuffer@@@std@@@std@@QAE?AV?$_List_iterator@V?$_List_val@U?$_List_simple_types@PAVCIOCPBuffer@@@std@@@std@@@2@V?$_List_const_iterator@V?$_List_val@U?$_List_simple_types@PAVCIOCPBuffer@@@std@@@std@@@2@@Z 10008a50 f i IOCPS.obj
 0001:00007aa0       ?_Unchecked_begin@?$list@PAUClientContext@@V?$allocator@PAUClientContext@@@std@@@std@@QAE?AV?$_List_unchecked_iterator@V?$_List_val@U?$_List_simple_types@PAUClientContext@@@std@@@std@@@2@XZ 10008aa0 f i IOCPS.obj
 0001:00007aa0       ?_Unchecked_begin@?$list@PAVCIOCPBuffer@@V?$allocator@PAVCIOCPBuffer@@@std@@@std@@QAE?AV?$_List_unchecked_iterator@V?$_List_val@U?$_List_simple_types@PAVCIOCPBuffer@@@std@@@std@@@2@XZ 10008aa0 f i IOCPS.obj
 0001:00007aa0       ?_Unchecked_begin@?$list@PAXV?$allocator@PAX@std@@@std@@QAE?AV?$_List_unchecked_iterator@V?$_List_val@U?$_List_simple_types@PAX@std@@@std@@@2@XZ 10008aa0 f i IOCPS.obj
 0001:00007ae0       ??R?$less@I@std@@QBE_NABI0@Z 10008ae0 f i IOCPS.obj
 0001:00007b10       ??0?$_String_alloc@U?$_String_base_types@DV?$allocator@D@std@@@std@@@std@@QAE@XZ 10008b10 f i IOCPS.obj
 0001:00007b30       ?_Assign_rv@?$basic_string@DU?$char_traits@D@std@@V?$allocator@D@2@@std@@QAEX$$QAV12@@Z 10008b30 f i IOCPS.obj
 0001:00007bf0       ??E?$_Tree_unchecked_const_iterator@V?$_Tree_val@U?$_Tree_simple_types@U?$pair@$$CBGPAX@std@@@std@@@std@@U_Iterator_base0@2@@std@@QAEAAV01@XZ 10008bf0 f i IOCPS.obj
 0001:00007bf0       ??E?$_Tree_unchecked_const_iterator@V?$_Tree_val@U?$_Tree_simple_types@U?$pair@$$CBIPAUClientContext@@@std@@@std@@@std@@U_Iterator_base0@2@@std@@QAEAAV01@XZ 10008bf0 f i IOCPS.obj
 0001:00007bf0       ??E?$_Tree_unchecked_const_iterator@V?$_Tree_val@U?$_Tree_simple_types@U?$pair@$$CBIPAVCIOCPBuffer@@@std@@@std@@@std@@U_Iterator_base0@2@@std@@QAEAAV01@XZ 10008bf0 f i IOCPS.obj
 0001:00007cb0       ??0?$_List_unchecked_iterator@V?$_List_val@U?$_List_simple_types@PAVCIOCPBuffer@@@std@@@std@@@std@@QAE@PAU?$_List_node@PAVCIOCPBuffer@@PAX@1@PBV?$_List_val@U?$_List_simple_types@PAVCIOCPBuffer@@@std@@@1@@Z 10008cb0 f i IOCPS.obj
 0001:00007cb0       ??0?$_List_unchecked_iterator@V?$_List_val@U?$_List_simple_types@PAUClientContext@@@std@@@std@@@std@@QAE@PAU?$_List_node@PAUClientContext@@PAX@1@PBV?$_List_val@U?$_List_simple_types@PAUClientContext@@@std@@@1@@Z 10008cb0 f i IOCPS.obj
 0001:00007cb0       ??0?$_List_const_iterator@V?$_List_val@U?$_List_simple_types@PAVCIOCPBuffer@@@std@@@std@@@std@@QAE@PAU?$_List_node@PAVCIOCPBuffer@@PAX@1@PBV?$_List_val@U?$_List_simple_types@PAVCIOCPBuffer@@@std@@@1@@Z 10008cb0 f i IOCPS.obj
 0001:00007cb0       ??0?$_List_const_iterator@V?$_List_val@U?$_List_simple_types@PAX@std@@@std@@@std@@QAE@PAU?$_List_node@PAXPAX@1@PBV?$_List_val@U?$_List_simple_types@PAX@std@@@1@@Z 10008cb0 f i IOCPS.obj
 0001:00007cb0       ??0?$_List_const_iterator@V?$_List_val@U?$_List_simple_types@PAUClientContext@@@std@@@std@@@std@@QAE@PAU?$_List_node@PAUClientContext@@PAX@1@PBV?$_List_val@U?$_List_simple_types@PAUClientContext@@@std@@@1@@Z 10008cb0 f i IOCPS.obj
 0001:00007cb0       ??0?$_Tree_const_iterator@V?$_Tree_val@U?$_Tree_simple_types@U?$pair@$$CBIPAUClientContext@@@std@@@std@@@std@@@std@@QAE@PAU?$_Tree_node@U?$pair@$$CBIPAUClientContext@@@std@@PAX@1@PBV?$_Tree_val@U?$_Tree_simple_types@U?$pair@$$CBIPAUClientContext@@@std@@@std@@@1@@Z 10008cb0 f i IOCPS.obj
 0001:00007cb0       ??0?$_Tree_const_iterator@V?$_Tree_val@U?$_Tree_simple_types@U?$pair@$$CBIPAVCIOCPBuffer@@@std@@@std@@@std@@@std@@QAE@PAU?$_Tree_node@U?$pair@$$CBIPAVCIOCPBuffer@@@std@@PAX@1@PBV?$_Tree_val@U?$_Tree_simple_types@U?$pair@$$CBIPAVCIOCPBuffer@@@std@@@std@@@1@@Z 10008cb0 f i IOCPS.obj
 0001:00007cb0       ??0?$_Tree_const_iterator@V?$_Tree_val@U?$_Tree_simple_types@U?$pair@$$CBGPAX@std@@@std@@@std@@@std@@QAE@PAU?$_Tree_node@U?$pair@$$CBGPAX@std@@PAX@1@PBV?$_Tree_val@U?$_Tree_simple_types@U?$pair@$$CBGPAX@std@@@std@@@1@@Z 10008cb0 f i IOCPS.obj
 0001:00007cb0       ??0?$_List_const_iterator@V?$_List_val@U?$_List_simple_types@PAUJobItem@@@std@@@std@@@std@@QAE@PAU?$_List_node@PAUJobItem@@PAX@1@PBV?$_List_val@U?$_List_simple_types@PAUJobItem@@@std@@@1@@Z 10008cb0 f i IOCPS.obj
 0001:00007cb0       ??0?$_List_unchecked_iterator@V?$_List_val@U?$_List_simple_types@PAX@std@@@std@@@std@@QAE@PAU?$_List_node@PAXPAX@1@PBV?$_List_val@U?$_List_simple_types@PAX@std@@@1@@Z 10008cb0 f i IOCPS.obj
 0001:00007cd0       ?_Min@?$_Tree_val@U?$_Tree_simple_types@U?$pair@$$CBIPAVCIOCPBuffer@@@std@@@std@@@std@@SAPAU?$_Tree_node@U?$pair@$$CBIPAVCIOCPBuffer@@@std@@PAX@2@PAU32@@Z 10008cd0 f i IOCPS.obj
 0001:00007cd0       ?_Min@?$_Tree_val@U?$_Tree_simple_types@U?$pair@$$CBGPAX@std@@@std@@@std@@SAPAU?$_Tree_node@U?$pair@$$CBGPAX@std@@PAX@2@PAU32@@Z 10008cd0 f i IOCPS.obj
 0001:00007cd0       ?_Min@?$_Tree_val@U?$_Tree_simple_types@U?$pair@$$CBIPAUClientContext@@@std@@@std@@@std@@SAPAU?$_Tree_node@U?$pair@$$CBIPAUClientContext@@@std@@PAX@2@PAU32@@Z 10008cd0 f i IOCPS.obj
 0001:00007d10       ?_Max@?$_Tree_val@U?$_Tree_simple_types@U?$pair@$$CBIPAVCIOCPBuffer@@@std@@@std@@@std@@SAPAU?$_Tree_node@U?$pair@$$CBIPAVCIOCPBuffer@@@std@@PAX@2@PAU32@@Z 10008d10 f i IOCPS.obj
 0001:00007d10       ?_Max@?$_Tree_val@U?$_Tree_simple_types@U?$pair@$$CBGPAX@std@@@std@@@std@@SAPAU?$_Tree_node@U?$pair@$$CBGPAX@std@@PAX@2@PAU32@@Z 10008d10 f i IOCPS.obj
 0001:00007d10       ?_Max@?$_Tree_val@U?$_Tree_simple_types@U?$pair@$$CBIPAUClientContext@@@std@@@std@@@std@@SAPAU?$_Tree_node@U?$pair@$$CBIPAUClientContext@@@std@@PAX@2@PAU32@@Z 10008d10 f i IOCPS.obj
 0001:00007d50       ?_Myval@?$_Tree_val@U?$_Tree_simple_types@U?$pair@$$CBGPAX@std@@@std@@@std@@SAAAU?$pair@$$CBGPAX@2@PAU?$_Tree_node@U?$pair@$$CBGPAX@std@@PAX@2@@Z 10008d50 f i IOCPS.obj
 0001:00007d50       ?_Myval@?$_Tree_val@U?$_Tree_simple_types@U?$pair@$$CBIPAVCIOCPBuffer@@@std@@@std@@@std@@SAAAU?$pair@$$CBIPAVCIOCPBuffer@@@2@PAU?$_Tree_node@U?$pair@$$CBIPAVCIOCPBuffer@@@std@@PAX@2@@Z 10008d50 f i IOCPS.obj
 0001:00007d50       ?_Myval@?$_Tree_val@U?$_Tree_simple_types@U?$pair@$$CBIPAUClientContext@@@std@@@std@@@std@@SAAAU?$pair@$$CBIPAUClientContext@@@2@PAU?$_Tree_node@U?$pair@$$CBIPAUClientContext@@@std@@PAX@2@@Z 10008d50 f i IOCPS.obj
 0001:00007d60       ?_Myval@?$_List_val@U?$_List_simple_types@PAUClientContext@@@std@@@std@@SAAAPAUClientContext@@PAU?$_List_node@PAUClientContext@@PAX@2@@Z 10008d60 f i IOCPS.obj
 0001:00007d60       ?_Myval@?$_List_val@U?$_List_simple_types@PAVCIOCPBuffer@@@std@@@std@@SAAAPAVCIOCPBuffer@@PAU?$_List_node@PAVCIOCPBuffer@@PAX@2@@Z 10008d60 f i IOCPS.obj
 0001:00007d60       ?_Right@?$_Tree_val@U?$_Tree_simple_types@U?$pair@$$CBIPAVCIOCPBuffer@@@std@@@std@@@std@@SAAAPAU?$_Tree_node@U?$pair@$$CBIPAVCIOCPBuffer@@@std@@PAX@2@PAU32@@Z 10008d60 f i IOCPS.obj
 0001:00007d60       ?_Right@?$_Tree_val@U?$_Tree_simple_types@U?$pair@$$CBGPAX@std@@@std@@@std@@SAAAPAU?$_Tree_node@U?$pair@$$CBGPAX@std@@PAX@2@PAU32@@Z 10008d60 f i IOCPS.obj
 0001:00007d60       ?_Right@?$_Tree_val@U?$_Tree_simple_types@U?$pair@$$CBIPAUClientContext@@@std@@@std@@@std@@SAAAPAU?$_Tree_node@U?$pair@$$CBIPAUClientContext@@@std@@PAX@2@PAU32@@Z 10008d60 f i IOCPS.obj
 0001:00007d60       ?_Myval@?$_List_val@U?$_List_simple_types@PAUJobItem@@@std@@@std@@SAAAPAUJobItem@@PAU?$_List_node@PAUJobItem@@PAX@2@@Z 10008d60 f i IOCPS.obj
 0001:00007d60       ?_Myval@?$_List_val@U?$_List_simple_types@PAX@std@@@std@@SAAAPAXPAU?$_List_node@PAXPAX@2@@Z 10008d60 f i IOCPS.obj
 0001:00007d70       ?_Prevnode@?$_List_val@U?$_List_simple_types@PAUJobItem@@@std@@@std@@SAAAPAU?$_List_node@PAUJobItem@@PAX@2@PAU32@@Z 10008d70 f i IOCPS.obj
 0001:00007d70       ?_Prevnode@?$_List_val@U?$_List_simple_types@PAUClientContext@@@std@@@std@@SAAAPAU?$_List_node@PAUClientContext@@PAX@2@PAU32@@Z 10008d70 f i IOCPS.obj
 0001:00007d70       ?_Parent@?$_Tree_val@U?$_Tree_simple_types@U?$pair@$$CBIPAUClientContext@@@std@@@std@@@std@@SAAAPAU?$_Tree_node@U?$pair@$$CBIPAUClientContext@@@std@@PAX@2@PAU32@@Z 10008d70 f i IOCPS.obj
 0001:00007d70       ?_Parent@?$_Tree_val@U?$_Tree_simple_types@U?$pair@$$CBIPAVCIOCPBuffer@@@std@@@std@@@std@@SAAAPAU?$_Tree_node@U?$pair@$$CBIPAVCIOCPBuffer@@@std@@PAX@2@PAU32@@Z 10008d70 f i IOCPS.obj
 0001:00007d70       ?_Prevnode@?$_List_val@U?$_List_simple_types@PAX@std@@@std@@SAAAPAU?$_List_node@PAXPAX@2@PAU32@@Z 10008d70 f i IOCPS.obj
 0001:00007d70       ?_Parent@?$_Tree_val@U?$_Tree_simple_types@U?$pair@$$CBGPAX@std@@@std@@@std@@SAAAPAU?$_Tree_node@U?$pair@$$CBGPAX@std@@PAX@2@PAU32@@Z 10008d70 f i IOCPS.obj
 0001:00007d70       ?_Prevnode@?$_List_val@U?$_List_simple_types@PAVCIOCPBuffer@@@std@@@std@@SAAAPAU?$_List_node@PAVCIOCPBuffer@@PAX@2@PAU32@@Z 10008d70 f i IOCPS.obj
 0001:00007d80       ?_Isnil@?$_Tree_val@U?$_Tree_simple_types@U?$pair@$$CBGPAX@std@@@std@@@std@@SAAADPAU?$_Tree_node@U?$pair@$$CBGPAX@std@@PAX@2@@Z 10008d80 f i IOCPS.obj
 0001:00007d80       ?_Isnil@?$_Tree_val@U?$_Tree_simple_types@U?$pair@$$CBIPAUClientContext@@@std@@@std@@@std@@SAAADPAU?$_Tree_node@U?$pair@$$CBIPAUClientContext@@@std@@PAX@2@@Z 10008d80 f i IOCPS.obj
 0001:00007d80       ?_Isnil@?$_Tree_val@U?$_Tree_simple_types@U?$pair@$$CBIPAVCIOCPBuffer@@@std@@@std@@@std@@SAAADPAU?$_Tree_node@U?$pair@$$CBIPAVCIOCPBuffer@@@std@@PAX@2@@Z 10008d80 f i IOCPS.obj
 0001:00007d90       ?_Color@?$_Tree_val@U?$_Tree_simple_types@U?$pair@$$CBIPAVCIOCPBuffer@@@std@@@std@@@std@@SAAADPAU?$_Tree_node@U?$pair@$$CBIPAVCIOCPBuffer@@@std@@PAX@2@@Z 10008d90 f i IOCPS.obj
 0001:00007d90       ?_Color@?$_Tree_val@U?$_Tree_simple_types@U?$pair@$$CBIPAUClientContext@@@std@@@std@@@std@@SAAADPAU?$_Tree_node@U?$pair@$$CBIPAUClientContext@@@std@@PAX@2@@Z 10008d90 f i IOCPS.obj
 0001:00007d90       ?_Color@?$_Tree_val@U?$_Tree_simple_types@U?$pair@$$CBGPAX@std@@@std@@@std@@SAAADPAU?$_Tree_node@U?$pair@$$CBGPAX@std@@PAX@2@@Z 10008d90 f i IOCPS.obj
 0001:00007da0       ?deallocate@?$allocator@U?$_Tree_node@U?$pair@$$CBIPAVCIOCPBuffer@@@std@@PAX@std@@@std@@QAEXPAU?$_Tree_node@U?$pair@$$CBIPAVCIOCPBuffer@@@std@@PAX@2@I@Z 10008da0 f i IOCPS.obj
 0001:00007da0       ?deallocate@?$allocator@U?$_Tree_node@U?$pair@$$CBIPAUClientContext@@@std@@PAX@std@@@std@@QAEXPAU?$_Tree_node@U?$pair@$$CBIPAUClientContext@@@std@@PAX@2@I@Z 10008da0 f i IOCPS.obj
 0001:00007da0       ?deallocate@?$allocator@U?$_Tree_node@U?$pair@$$CBGPAX@std@@PAX@std@@@std@@QAEXPAU?$_Tree_node@U?$pair@$$CBGPAX@std@@PAX@2@I@Z 10008da0 f i IOCPS.obj
 0001:00007dc0       ?_Freeheadnode@?$_Tree_comp_alloc@V?$_Tmap_traits@IPAUClientContext@@U?$less@I@std@@V?$allocator@U?$pair@$$CBIPAUClientContext@@@std@@@3@$0A@@std@@@std@@QAEXPAU?$_Tree_node@U?$pair@$$CBIPAUClientContext@@@std@@PAX@2@@Z 10008dc0 f i IOCPS.obj
 0001:00007dc0       ?_Freeheadnode@?$_Tree_comp_alloc@V?$_Tmap_traits@IPAVCIOCPBuffer@@U?$less@I@std@@V?$allocator@U?$pair@$$CBIPAVCIOCPBuffer@@@std@@@3@$0A@@std@@@std@@QAEXPAU?$_Tree_node@U?$pair@$$CBIPAVCIOCPBuffer@@@std@@PAX@2@@Z 10008dc0 f i IOCPS.obj
 0001:00007dc0       ?_Freenode0@?$_Tree_comp_alloc@V?$_Tmap_traits@IPAVCIOCPBuffer@@U?$less@I@std@@V?$allocator@U?$pair@$$CBIPAVCIOCPBuffer@@@std@@@3@$0A@@std@@@std@@QAEXPAU?$_Tree_node@U?$pair@$$CBIPAVCIOCPBuffer@@@std@@PAX@2@@Z 10008dc0 f i IOCPS.obj
 0001:00007dc0       ?_Freenode0@?$_Tree_comp_alloc@V?$_Tmap_traits@IPAUClientContext@@U?$less@I@std@@V?$allocator@U?$pair@$$CBIPAUClientContext@@@std@@@3@$0A@@std@@@std@@QAEXPAU?$_Tree_node@U?$pair@$$CBIPAUClientContext@@@std@@PAX@2@@Z 10008dc0 f i IOCPS.obj
 0001:00007dc0       ?_Freenode0@?$_Tree_comp_alloc@V?$_Tmap_traits@GPAXU?$less@G@std@@V?$allocator@U?$pair@$$CBGPAX@std@@@2@$0A@@std@@@std@@QAEXPAU?$_Tree_node@U?$pair@$$CBGPAX@std@@PAX@2@@Z 10008dc0 f i IOCPS.obj
 0001:00007dc0       ?_Freeheadnode@?$_Tree_comp_alloc@V?$_Tmap_traits@GPAXU?$less@G@std@@V?$allocator@U?$pair@$$CBGPAX@std@@@2@$0A@@std@@@std@@QAEXPAU?$_Tree_node@U?$pair@$$CBGPAX@std@@PAX@2@@Z 10008dc0 f i IOCPS.obj
 0001:00007e60       ??0?$_Tree_comp_alloc@V?$_Tmap_traits@GPAXU?$less@G@std@@V?$allocator@U?$pair@$$CBGPAX@std@@@2@$0A@@std@@@std@@QAE@ABU?$less@G@1@@Z 10008e60 f i IOCPS.obj
 0001:00007e60       ??0?$_Tree_comp_alloc@V?$_Tmap_traits@IPAVCIOCPBuffer@@U?$less@I@std@@V?$allocator@U?$pair@$$CBIPAVCIOCPBuffer@@@std@@@3@$0A@@std@@@std@@QAE@ABU?$less@I@1@@Z 10008e60 f i IOCPS.obj
 0001:00007e60       ??0?$_Tree_comp_alloc@V?$_Tmap_traits@IPAUClientContext@@U?$less@I@std@@V?$allocator@U?$pair@$$CBIPAUClientContext@@@std@@@3@$0A@@std@@@std@@QAE@ABU?$less@I@1@@Z 10008e60 f i IOCPS.obj
 0001:00007e90       ?_Kfn@?$_Tree@V?$_Tmap_traits@GPAXU?$less@G@std@@V?$allocator@U?$pair@$$CBGPAX@std@@@2@$0A@@std@@@std@@IBEABGABU?$pair@$$CBGPAX@2@@Z 10008e90 f i IOCPS.obj
 0001:00007e90       ?_Kfn@?$_Tree@V?$_Tmap_traits@IPAUClientContext@@U?$less@I@std@@V?$allocator@U?$pair@$$CBIPAUClientContext@@@std@@@3@$0A@@std@@@std@@IBEABIABU?$pair@$$CBIPAUClientContext@@@2@@Z 10008e90 f i IOCPS.obj
 0001:00007e90       ?_Kfn@?$_Tree@V?$_Tmap_traits@IPAVCIOCPBuffer@@U?$less@I@std@@V?$allocator@U?$pair@$$CBIPAVCIOCPBuffer@@@std@@@3@$0A@@std@@@std@@IBEABIABU?$pair@$$CBIPAVCIOCPBuffer@@@2@@Z 10008e90 f i IOCPS.obj
 0001:00007eb0       ?erase@?$_Tree@V?$_Tmap_traits@GPAXU?$less@G@std@@V?$allocator@U?$pair@$$CBGPAX@std@@@2@$0A@@std@@@std@@QAE?AV?$_Tree_iterator@V?$_Tree_val@U?$_Tree_simple_types@U?$pair@$$CBGPAX@std@@@std@@@std@@@2@V?$_Tree_const_iterator@V?$_Tree_val@U?$_Tree_simple_types@U?$pair@$$CBGPAX@std@@@std@@@std@@@2@0@Z 10008eb0 f i IOCPS.obj
 0001:00007eb0       ?erase@?$_Tree@V?$_Tmap_traits@IPAUClientContext@@U?$less@I@std@@V?$allocator@U?$pair@$$CBIPAUClientContext@@@std@@@3@$0A@@std@@@std@@QAE?AV?$_Tree_iterator@V?$_Tree_val@U?$_Tree_simple_types@U?$pair@$$CBIPAUClientContext@@@std@@@std@@@std@@@2@V?$_Tree_const_iterator@V?$_Tree_val@U?$_Tree_simple_types@U?$pair@$$CBIPAUClientContext@@@std@@@std@@@std@@@2@0@Z 10008eb0 f i IOCPS.obj
 0001:00007eb0       ?erase@?$_Tree@V?$_Tmap_traits@IPAVCIOCPBuffer@@U?$less@I@std@@V?$allocator@U?$pair@$$CBIPAVCIOCPBuffer@@@std@@@3@$0A@@std@@@std@@QAE?AV?$_Tree_iterator@V?$_Tree_val@U?$_Tree_simple_types@U?$pair@$$CBIPAVCIOCPBuffer@@@std@@@std@@@std@@@2@V?$_Tree_const_iterator@V?$_Tree_val@U?$_Tree_simple_types@U?$pair@$$CBIPAVCIOCPBuffer@@@std@@@std@@@std@@@2@0@Z 10008eb0 f i IOCPS.obj
 0001:00007f60       ??F?$_List_const_iterator@V?$_List_val@U?$_List_simple_types@PAUJobItem@@@std@@@std@@@std@@QAEAAV01@XZ 10008f60 f i IOCPS.obj
 0001:00007f90       ??E?$_List_const_iterator@V?$_List_val@U?$_List_simple_types@PAUJobItem@@@std@@@std@@@std@@QAE?AV01@H@Z 10008f90 f i IOCPS.obj
 0001:00007f90       ??E?$_List_const_iterator@V?$_List_val@U?$_List_simple_types@PAUClientContext@@@std@@@std@@@std@@QAE?AV01@H@Z 10008f90 f i IOCPS.obj
 0001:00007f90       ??E?$_List_const_iterator@V?$_List_val@U?$_List_simple_types@PAVCIOCPBuffer@@@std@@@std@@@std@@QAE?AV01@H@Z 10008f90 f i IOCPS.obj
 0001:00007fc0       ??E?$_List_const_iterator@V?$_List_val@U?$_List_simple_types@PAX@std@@@std@@@std@@QAEAAV01@XZ 10008fc0 f i IOCPS.obj
 0001:00007fc0       ??E?$_List_const_iterator@V?$_List_val@U?$_List_simple_types@PAVCIOCPBuffer@@@std@@@std@@@std@@QAEAAV01@XZ 10008fc0 f i IOCPS.obj
 0001:00007fc0       ??E?$_List_const_iterator@V?$_List_val@U?$_List_simple_types@PAUJobItem@@@std@@@std@@@std@@QAEAAV01@XZ 10008fc0 f i IOCPS.obj
 0001:00007fc0       ??E?$_List_const_iterator@V?$_List_val@U?$_List_simple_types@PAUClientContext@@@std@@@std@@@std@@QAEAAV01@XZ 10008fc0 f i IOCPS.obj
 0001:00007ff0       ?deallocate@?$_Wrap_alloc@V?$allocator@U?$_List_node@PAUJobItem@@PAX@std@@@std@@@std@@QAEXPAU?$_List_node@PAUJobItem@@PAX@2@I@Z 10008ff0 f i IOCPS.obj
 0001:00007ff0       ?deallocate@?$_Wrap_alloc@V?$allocator@U?$_List_node@PAUClientContext@@PAX@std@@@std@@@std@@QAEXPAU?$_List_node@PAUClientContext@@PAX@2@I@Z 10008ff0 f i IOCPS.obj
 0001:00007ff0       ?deallocate@?$_Wrap_alloc@V?$allocator@U?$_List_node@PAXPAX@std@@@std@@@std@@QAEXPAU?$_List_node@PAXPAX@2@I@Z 10008ff0 f i IOCPS.obj
 0001:00007ff0       ?deallocate@?$_Wrap_alloc@V?$allocator@U?$_List_node@PAVCIOCPBuffer@@PAX@std@@@std@@@std@@QAEXPAU?$_List_node@PAVCIOCPBuffer@@PAX@2@I@Z 10008ff0 f i IOCPS.obj
 0001:00008010       ?_Freeheadnode@?$_List_alloc@U?$_List_base_types@PAUClientContext@@V?$allocator@PAUClientContext@@@std@@@std@@@std@@QAEXPAU?$_List_node@PAUClientContext@@PAX@2@@Z 10009010 f i IOCPS.obj
 0001:00008010       ?_Freeheadnode@?$_List_alloc@U?$_List_base_types@PAVCIOCPBuffer@@V?$allocator@PAVCIOCPBuffer@@@std@@@std@@@std@@QAEXPAU?$_List_node@PAVCIOCPBuffer@@PAX@2@@Z 10009010 f i IOCPS.obj
 0001:00008010       ?_Freeheadnode@?$_List_alloc@U?$_List_base_types@PAXV?$allocator@PAX@std@@@std@@@std@@QAEXPAU?$_List_node@PAXPAX@2@@Z 10009010 f i IOCPS.obj
 0001:00008010       ?_Freeheadnode@?$_List_alloc@U?$_List_base_types@PAUJobItem@@V?$allocator@PAUJobItem@@@std@@@std@@@std@@QAEXPAU?$_List_node@PAUJobItem@@PAX@2@@Z 10009010 f i IOCPS.obj
 0001:00008080       ??0?$_List_alloc@U?$_List_base_types@PAUJobItem@@V?$allocator@PAUJobItem@@@std@@@std@@@std@@QAE@XZ 10009080 f i IOCPS.obj
 0001:00008080       ??0?$_List_alloc@U?$_List_base_types@PAUClientContext@@V?$allocator@PAUClientContext@@@std@@@std@@@std@@QAE@XZ 10009080 f i IOCPS.obj
 0001:00008080       ??0?$_List_alloc@U?$_List_base_types@PAXV?$allocator@PAX@std@@@std@@@std@@QAE@XZ 10009080 f i IOCPS.obj
 0001:00008080       ??0?$_List_alloc@U?$_List_base_types@PAVCIOCPBuffer@@V?$allocator@PAVCIOCPBuffer@@@std@@@std@@@std@@QAE@XZ 10009080 f i IOCPS.obj
 0001:000080c0       ?_Unlinknode@?$list@PAUClientContext@@V?$allocator@PAUClientContext@@@std@@@std@@QAEPAU?$_List_node@PAUClientContext@@PAX@2@V?$_List_const_iterator@V?$_List_val@U?$_List_simple_types@PAUClientContext@@@std@@@std@@@2@@Z 100090c0 f i IOCPS.obj
 0001:000080c0       ?_Unlinknode@?$list@PAVCIOCPBuffer@@V?$allocator@PAVCIOCPBuffer@@@std@@@std@@QAEPAU?$_List_node@PAVCIOCPBuffer@@PAX@2@V?$_List_const_iterator@V?$_List_val@U?$_List_simple_types@PAVCIOCPBuffer@@@std@@@std@@@2@@Z 100090c0 f i IOCPS.obj
 0001:000080c0       ?_Unlinknode@?$list@PAUJobItem@@V?$allocator@PAUJobItem@@@std@@@std@@QAEPAU?$_List_node@PAUJobItem@@PAX@2@V?$_List_const_iterator@V?$_List_val@U?$_List_simple_types@PAUJobItem@@@std@@@std@@@2@@Z 100090c0 f i IOCPS.obj
 0001:00008150       ?_Make_iter@?$list@PAVCIOCPBuffer@@V?$allocator@PAVCIOCPBuffer@@@std@@@std@@QBE?AV?$_List_iterator@V?$_List_val@U?$_List_simple_types@PAVCIOCPBuffer@@@std@@@std@@@2@V?$_List_const_iterator@V?$_List_val@U?$_List_simple_types@PAVCIOCPBuffer@@@std@@@std@@@2@@Z 10009150 f i IOCPS.obj
 0001:00008150       ?_Make_iter@?$list@PAUJobItem@@V?$allocator@PAUJobItem@@@std@@@std@@QBE?AV?$_List_iterator@V?$_List_val@U?$_List_simple_types@PAUJobItem@@@std@@@std@@@2@V?$_List_const_iterator@V?$_List_val@U?$_List_simple_types@PAUJobItem@@@std@@@std@@@2@@Z 10009150 f i IOCPS.obj
 0001:00008150       ?_Make_iter@?$list@PAUClientContext@@V?$allocator@PAUClientContext@@@std@@@std@@QBE?AV?$_List_iterator@V?$_List_val@U?$_List_simple_types@PAUClientContext@@@std@@@std@@@2@V?$_List_const_iterator@V?$_List_val@U?$_List_simple_types@PAUClientContext@@@std@@@std@@@2@@Z 10009150 f i IOCPS.obj
 0001:000081a0       ??0?$_List_unchecked_const_iterator@V?$_List_val@U?$_List_simple_types@PAX@std@@@std@@U_Iterator_base0@2@@std@@QAE@PAU?$_List_node@PAXPAX@1@PBV?$_List_val@U?$_List_simple_types@PAX@std@@@1@@Z 100091a0 f i IOCPS.obj
 0001:000081a0       ??0?$_List_unchecked_const_iterator@V?$_List_val@U?$_List_simple_types@PAUJobItem@@@std@@@std@@U_Iterator_base0@2@@std@@QAE@PAU?$_List_node@PAUJobItem@@PAX@1@PBV?$_List_val@U?$_List_simple_types@PAUJobItem@@@std@@@1@@Z 100091a0 f i IOCPS.obj
 0001:000081a0       ??0?$_List_unchecked_const_iterator@V?$_List_val@U?$_List_simple_types@PAVCIOCPBuffer@@@std@@@std@@U_Iterator_base0@2@@std@@QAE@PAU?$_List_node@PAVCIOCPBuffer@@PAX@1@PBV?$_List_val@U?$_List_simple_types@PAVCIOCPBuffer@@@std@@@1@@Z 100091a0 f i IOCPS.obj
 0001:000081a0       ??0?$_Tree_unchecked_const_iterator@V?$_Tree_val@U?$_Tree_simple_types@U?$pair@$$CBGPAX@std@@@std@@@std@@U_Iterator_base0@2@@std@@QAE@PAU?$_Tree_node@U?$pair@$$CBGPAX@std@@PAX@1@PBV?$_Tree_val@U?$_Tree_simple_types@U?$pair@$$CBGPAX@std@@@std@@@1@@Z 100091a0 f i IOCPS.obj
 0001:000081a0       ??0?$_Tree_unchecked_const_iterator@V?$_Tree_val@U?$_Tree_simple_types@U?$pair@$$CBIPAVCIOCPBuffer@@@std@@@std@@@std@@U_Iterator_base0@2@@std@@QAE@PAU?$_Tree_node@U?$pair@$$CBIPAVCIOCPBuffer@@@std@@PAX@1@PBV?$_Tree_val@U?$_Tree_simple_types@U?$pair@$$CBIPAVCIOCPBuffer@@@std@@@std@@@1@@Z 100091a0 f i IOCPS.obj
 0001:000081a0       ??0?$_Tree_unchecked_const_iterator@V?$_Tree_val@U?$_Tree_simple_types@U?$pair@$$CBIPAUClientContext@@@std@@@std@@@std@@U_Iterator_base0@2@@std@@QAE@PAU?$_Tree_node@U?$pair@$$CBIPAUClientContext@@@std@@PAX@1@PBV?$_Tree_val@U?$_Tree_simple_types@U?$pair@$$CBIPAUClientContext@@@std@@@std@@@1@@Z 100091a0 f i IOCPS.obj
 0001:000081a0       ??0?$_List_unchecked_const_iterator@V?$_List_val@U?$_List_simple_types@PAUClientContext@@@std@@@std@@U_Iterator_base0@2@@std@@QAE@PAU?$_List_node@PAUClientContext@@PAX@1@PBV?$_List_val@U?$_List_simple_types@PAUClientContext@@@std@@@1@@Z 100091a0 f i IOCPS.obj
 0001:000081d0       ??E?$_Tree_const_iterator@V?$_Tree_val@U?$_Tree_simple_types@U?$pair@$$CBIPAVCIOCPBuffer@@@std@@@std@@@std@@@std@@QAE?AV01@H@Z 100091d0 f i IOCPS.obj
 0001:000081d0       ??E?$_Tree_const_iterator@V?$_Tree_val@U?$_Tree_simple_types@U?$pair@$$CBGPAX@std@@@std@@@std@@@std@@QAE?AV01@H@Z 100091d0 f i IOCPS.obj
 0001:000081d0       ??E?$_Tree_const_iterator@V?$_Tree_val@U?$_Tree_simple_types@U?$pair@$$CBIPAUClientContext@@@std@@@std@@@std@@@std@@QAE?AV01@H@Z 100091d0 f i IOCPS.obj
 0001:00008200       ?_Construct@?$_Tree_comp_alloc@V?$_Tmap_traits@GPAXU?$less@G@std@@V?$allocator@U?$pair@$$CBGPAX@std@@@2@$0A@@std@@@std@@QAEXXZ 10009200 f i IOCPS.obj
 0001:00008200       ?_Construct@?$_Tree_comp_alloc@V?$_Tmap_traits@IPAVCIOCPBuffer@@U?$less@I@std@@V?$allocator@U?$pair@$$CBIPAVCIOCPBuffer@@@std@@@3@$0A@@std@@@std@@QAEXXZ 10009200 f i IOCPS.obj
 0001:00008200       ?_Construct@?$_Tree_comp_alloc@V?$_Tmap_traits@IPAUClientContext@@U?$less@I@std@@V?$allocator@U?$pair@$$CBIPAUClientContext@@@std@@@3@$0A@@std@@@std@@QAEXXZ 10009200 f i IOCPS.obj
 0001:00008230       ?deallocate@?$allocator@U?$_List_node@PAUJobItem@@PAX@std@@@std@@QAEXPAU?$_List_node@PAUJobItem@@PAX@2@I@Z 10009230 f i IOCPS.obj
 0001:00008230       ?deallocate@?$allocator@U?$_List_node@PAVCIOCPBuffer@@PAX@std@@@std@@QAEXPAU?$_List_node@PAVCIOCPBuffer@@PAX@2@I@Z 10009230 f i IOCPS.obj
 0001:00008230       ?deallocate@?$allocator@U?$_List_node@PAXPAX@std@@@std@@QAEXPAU?$_List_node@PAXPAX@2@I@Z 10009230 f i IOCPS.obj
 0001:00008230       ?deallocate@?$allocator@U?$_List_node@PAUClientContext@@PAX@std@@@std@@QAEXPAU?$_List_node@PAUClientContext@@PAX@2@I@Z 10009230 f i IOCPS.obj
 0001:00008250       ?_Buyheadnode@?$_List_alloc@U?$_List_base_types@PAXV?$allocator@PAX@std@@@std@@@std@@QAEPAU?$_List_node@PAXPAX@2@XZ 10009250 f i IOCPS.obj
 0001:00008250       ?_Buyheadnode@?$_List_alloc@U?$_List_base_types@PAUClientContext@@V?$allocator@PAUClientContext@@@std@@@std@@@std@@QAEPAU?$_List_node@PAUClientContext@@PAX@2@XZ 10009250 f i IOCPS.obj
 0001:00008250       ?_Buyheadnode@?$_List_alloc@U?$_List_base_types@PAUJobItem@@V?$allocator@PAUJobItem@@@std@@@std@@@std@@QAEPAU?$_List_node@PAUJobItem@@PAX@2@XZ 10009250 f i IOCPS.obj
 0001:00008250       ?_Buyheadnode@?$_List_alloc@U?$_List_base_types@PAVCIOCPBuffer@@V?$allocator@PAVCIOCPBuffer@@@std@@@std@@@std@@QAEPAU?$_List_node@PAVCIOCPBuffer@@PAX@2@XZ 10009250 f i IOCPS.obj
 0001:00008270       ??0?$allocator@D@std@@QAE@ABV01@@Z 10009270 f i IOCPS.obj
 0001:00008270       ??$?0U_Exact_args_t@std@@$0A@@?$tuple@$$V@std@@QAE@U_Exact_args_t@1@@Z 10009270 f i IOCPS.obj
 0001:00008270       ??0?$tuple@$$V@std@@QAE@ABV01@@Z 10009270 f i IOCPS.obj
 0001:00008280       ?_Buyheadnode@?$_Tree_comp_alloc@V?$_Tmap_traits@IPAVCIOCPBuffer@@U?$less@I@std@@V?$allocator@U?$pair@$$CBIPAVCIOCPBuffer@@@std@@@3@$0A@@std@@@std@@QAEPAU?$_Tree_node@U?$pair@$$CBIPAVCIOCPBuffer@@@std@@PAX@2@XZ 10009280 f i IOCPS.obj
 0001:00008280       ?_Buyheadnode@?$_Tree_comp_alloc@V?$_Tmap_traits@IPAUClientContext@@U?$less@I@std@@V?$allocator@U?$pair@$$CBIPAUClientContext@@@std@@@3@$0A@@std@@@std@@QAEPAU?$_Tree_node@U?$pair@$$CBIPAUClientContext@@@std@@PAX@2@XZ 10009280 f i IOCPS.obj
 0001:00008280       ?_Buyheadnode@?$_Tree_comp_alloc@V?$_Tmap_traits@GPAXU?$less@G@std@@V?$allocator@U?$pair@$$CBGPAX@std@@@2@$0A@@std@@@std@@QAEPAU?$_Tree_node@U?$pair@$$CBGPAX@std@@PAX@2@XZ 10009280 f i IOCPS.obj
 0001:000083c0       ?_Buynode0@?$_List_alloc@U?$_List_base_types@PAXV?$allocator@PAX@std@@@std@@@std@@QAEPAU?$_List_node@PAXPAX@2@PAU32@0@Z 100093c0 f i IOCPS.obj
 0001:000083c0       ?_Buynode0@?$_List_alloc@U?$_List_base_types@PAVCIOCPBuffer@@V?$allocator@PAVCIOCPBuffer@@@std@@@std@@@std@@QAEPAU?$_List_node@PAVCIOCPBuffer@@PAX@2@PAU32@0@Z 100093c0 f i IOCPS.obj
 0001:000083c0       ?_Buynode0@?$_List_alloc@U?$_List_base_types@PAUClientContext@@V?$allocator@PAUClientContext@@@std@@@std@@@std@@QAEPAU?$_List_node@PAUClientContext@@PAX@2@PAU32@0@Z 100093c0 f i IOCPS.obj
 0001:000083c0       ?_Buynode0@?$_List_alloc@U?$_List_base_types@PAUJobItem@@V?$allocator@PAUJobItem@@@std@@@std@@@std@@QAEPAU?$_List_node@PAUJobItem@@PAX@2@PAU32@0@Z 100093c0 f i IOCPS.obj
 0001:000084d0       ?allocate@?$_Wrap_alloc@V?$allocator@U?$_Tree_node@U?$pair@$$CBIPAUClientContext@@@std@@PAX@std@@@std@@@std@@QAEPAU?$_Tree_node@U?$pair@$$CBIPAUClientContext@@@std@@PAX@2@I@Z 100094d0 f i IOCPS.obj
 0001:000084d0       ?allocate@?$_Wrap_alloc@V?$allocator@U?$_Tree_node@U?$pair@$$CBGPAX@std@@PAX@std@@@std@@@std@@QAEPAU?$_Tree_node@U?$pair@$$CBGPAX@std@@PAX@2@I@Z 100094d0 f i IOCPS.obj
 0001:000084d0       ?allocate@?$_Wrap_alloc@V?$allocator@U?$_Tree_node@U?$pair@$$CBIPAVCIOCPBuffer@@@std@@PAX@std@@@std@@@std@@QAEPAU?$_Tree_node@U?$pair@$$CBIPAVCIOCPBuffer@@@std@@PAX@2@I@Z 100094d0 f i IOCPS.obj
 0001:000084f0       ?allocate@?$_Wrap_alloc@V?$allocator@U?$_List_node@PAVCIOCPBuffer@@PAX@std@@@std@@@std@@QAEPAU?$_List_node@PAVCIOCPBuffer@@PAX@2@I@Z 100094f0 f i IOCPS.obj
 0001:000084f0       ?allocate@?$_Wrap_alloc@V?$allocator@U?$_List_node@PAUJobItem@@PAX@std@@@std@@@std@@QAEPAU?$_List_node@PAUJobItem@@PAX@2@I@Z 100094f0 f i IOCPS.obj
 0001:000084f0       ?allocate@?$_Wrap_alloc@V?$allocator@U?$_List_node@PAUClientContext@@PAX@std@@@std@@@std@@QAEPAU?$_List_node@PAUClientContext@@PAX@2@I@Z 100094f0 f i IOCPS.obj
 0001:000084f0       ?allocate@?$_Wrap_alloc@V?$allocator@U?$_List_node@PAXPAX@std@@@std@@@std@@QAEPAU?$_List_node@PAXPAX@2@I@Z 100094f0 f i IOCPS.obj
 0001:00008510       ?allocate@?$allocator@U?$_Tree_node@U?$pair@$$CBIPAVCIOCPBuffer@@@std@@PAX@std@@@std@@QAEPAU?$_Tree_node@U?$pair@$$CBIPAVCIOCPBuffer@@@std@@PAX@2@I@Z 10009510 f i IOCPS.obj
 0001:00008510       ?allocate@?$allocator@U?$_Tree_node@U?$pair@$$CBIPAUClientContext@@@std@@PAX@std@@@std@@QAEPAU?$_Tree_node@U?$pair@$$CBIPAUClientContext@@@std@@PAX@2@I@Z 10009510 f i IOCPS.obj
 0001:00008510       ?allocate@?$allocator@U?$_Tree_node@U?$pair@$$CBGPAX@std@@PAX@std@@@std@@QAEPAU?$_Tree_node@U?$pair@$$CBGPAX@std@@PAX@2@I@Z 10009510 f i IOCPS.obj
 0001:00008530       ?allocate@?$allocator@U?$_List_node@PAUJobItem@@PAX@std@@@std@@QAEPAU?$_List_node@PAUJobItem@@PAX@2@I@Z 10009530 f i IOCPS.obj
 0001:00008530       ?allocate@?$allocator@U?$_List_node@PAUClientContext@@PAX@std@@@std@@QAEPAU?$_List_node@PAUClientContext@@PAX@2@I@Z 10009530 f i IOCPS.obj
 0001:00008530       ?allocate@?$allocator@U?$_List_node@PAVCIOCPBuffer@@PAX@std@@@std@@QAEPAU?$_List_node@PAVCIOCPBuffer@@PAX@2@I@Z 10009530 f i IOCPS.obj
 0001:00008530       ?allocate@?$allocator@U?$_List_node@PAXPAX@std@@@std@@QAEPAU?$_List_node@PAXPAX@2@I@Z 10009530 f i IOCPS.obj
 0001:00008550       ??$?0GAAPAXX$0A@@?$pair@GPAX@std@@QAE@$$QAGAAPAX@Z 10009550 f i IOCPS.obj
 0001:00008590       ??$insert@U?$pair@GPAX@std@@X@?$map@GPAXU?$less@G@std@@V?$allocator@U?$pair@$$CBGPAX@std@@@2@@std@@QAE?AU?$pair@V?$_Tree_iterator@V?$_Tree_val@U?$_Tree_simple_types@U?$pair@$$CBGPAX@std@@@std@@@std@@@std@@_N@1@$$QAU?$pair@GPAX@1@@Z 10009590 f i IOCPS.obj
 0001:000085c0       ??$?0AAIAAPAVCIOCPBuffer@@X$0A@@?$pair@IPAVCIOCPBuffer@@@std@@QAE@AAIAAPAVCIOCPBuffer@@@Z 100095c0 f i IOCPS.obj
 0001:00008600       ??$insert@U?$pair@IPAVCIOCPBuffer@@@std@@X@?$map@IPAVCIOCPBuffer@@U?$less@I@std@@V?$allocator@U?$pair@$$CBIPAVCIOCPBuffer@@@std@@@3@@std@@QAE?AU?$pair@V?$_Tree_iterator@V?$_Tree_val@U?$_Tree_simple_types@U?$pair@$$CBIPAVCIOCPBuffer@@@std@@@std@@@std@@@std@@_N@1@$$QAU?$pair@IPAVCIOCPBuffer@@@1@@Z 10009600 f i IOCPS.obj
 0001:00008630       ??$swap@DX@std@@YAXAAD0@Z  10009630 f i IOCPS.obj
 0001:00008670       ??$try_emplace@$$V@?$map@GPAXU?$less@G@std@@V?$allocator@U?$pair@$$CBGPAX@std@@@2@@std@@QAE?AU?$pair@V?$_Tree_iterator@V?$_Tree_val@U?$_Tree_simple_types@U?$pair@$$CBGPAX@std@@@std@@@std@@@std@@_N@1@ABG@Z 10009670 f i IOCPS.obj
 0001:00008690       ??$_Insert@ABQAUClientContext@@@?$list@PAUClientContext@@V?$allocator@PAUClientContext@@@std@@@std@@QAEXV?$_List_unchecked_const_iterator@V?$_List_val@U?$_List_simple_types@PAUClientContext@@@std@@@std@@U_Iterator_base0@2@@1@ABQAUClientContext@@@Z 10009690 f i IOCPS.obj
 0001:00008690       ??$_Insert@ABQAX@?$list@PAXV?$allocator@PAX@std@@@std@@QAEXV?$_List_unchecked_const_iterator@V?$_List_val@U?$_List_simple_types@PAX@std@@@std@@U_Iterator_base0@2@@1@ABQAX@Z 10009690 f i IOCPS.obj
 0001:00008690       ??$_Insert@ABQAVCIOCPBuffer@@@?$list@PAVCIOCPBuffer@@V?$allocator@PAVCIOCPBuffer@@@std@@@std@@QAEXV?$_List_unchecked_const_iterator@V?$_List_val@U?$_List_simple_types@PAVCIOCPBuffer@@@std@@@std@@U_Iterator_base0@2@@1@ABQAVCIOCPBuffer@@@Z 10009690 f i IOCPS.obj
 0001:00008710       ??$try_emplace@$$V@?$map@IPAVCIOCPBuffer@@U?$less@I@std@@V?$allocator@U?$pair@$$CBIPAVCIOCPBuffer@@@std@@@3@@std@@QAE?AU?$pair@V?$_Tree_iterator@V?$_Tree_val@U?$_Tree_simple_types@U?$pair@$$CBIPAVCIOCPBuffer@@@std@@@std@@@std@@@std@@_N@1@ABI@Z 10009710 f i IOCPS.obj
 0001:00008710       ??$try_emplace@$$V@?$map@IPAUClientContext@@U?$less@I@std@@V?$allocator@U?$pair@$$CBIPAUClientContext@@@std@@@3@@std@@QAE?AU?$pair@V?$_Tree_iterator@V?$_Tree_val@U?$_Tree_simple_types@U?$pair@$$CBIPAUClientContext@@@std@@@std@@@std@@@std@@_N@1@ABI@Z 10009710 f i IOCPS.obj
 0001:00008730       ??$?0U?$_Wrap_alloc@V?$allocator@D@std@@@std@@X@?$_String_alloc@U?$_String_base_types@DV?$allocator@D@std@@@std@@@std@@QAE@$$QAU?$_Wrap_alloc@V?$allocator@D@std@@@1@@Z 10009730 f i IOCPS.obj
 0001:00008760       ??$_Lbound@I@?$_Tree@V?$_Tmap_traits@IPAVCIOCPBuffer@@U?$less@I@std@@V?$allocator@U?$pair@$$CBIPAVCIOCPBuffer@@@std@@@3@$0A@@std@@@std@@IBEPAU?$_Tree_node@U?$pair@$$CBIPAVCIOCPBuffer@@@std@@PAX@1@ABI@Z 10009760 f i IOCPS.obj
 0001:00008760       ??$_Lbound@I@?$_Tree@V?$_Tmap_traits@IPAUClientContext@@U?$less@I@std@@V?$allocator@U?$pair@$$CBIPAUClientContext@@@std@@@3@$0A@@std@@@std@@IBEPAU?$_Tree_node@U?$pair@$$CBIPAUClientContext@@@std@@PAX@1@ABI@Z 10009760 f i IOCPS.obj
 0001:000087f0       ??$?0$$V@?$_Compressed_pair@U?$_Wrap_alloc@V?$allocator@D@std@@@std@@V?$_String_val@U?$_Simple_types@D@std@@@2@$00@std@@QAE@U_Zero_then_variadic_args_t@1@@Z 100097f0 f i IOCPS.obj
 0001:00008810       ??$?0ABU?$less@I@std@@U_Zero_then_variadic_args_t@1@@?$_Compressed_pair@U?$less@I@std@@V?$_Compressed_pair@U?$_Wrap_alloc@V?$allocator@U?$_Tree_node@U?$pair@$$CBIPAVCIOCPBuffer@@@std@@PAX@std@@@std@@@std@@V?$_Tree_val@U?$_Tree_simple_types@U?$pair@$$CBIPAVCIOCPBuffer@@@std@@@std@@@2@$00@2@$00@std@@QAE@U_One_then_variadic_args_t@1@ABU?$less@I@1@$$QAU_Zero_then_variadic_args_t@1@@Z 10009810 f i IOCPS.obj
 0001:00008810       ??$?0ABU?$less@I@std@@U_Zero_then_variadic_args_t@1@@?$_Compressed_pair@U?$less@I@std@@V?$_Compressed_pair@U?$_Wrap_alloc@V?$allocator@U?$_Tree_node@U?$pair@$$CBIPAUClientContext@@@std@@PAX@std@@@std@@@std@@V?$_Tree_val@U?$_Tree_simple_types@U?$pair@$$CBIPAUClientContext@@@std@@@std@@@2@$00@2@$00@std@@QAE@U_One_then_variadic_args_t@1@ABU?$less@I@1@$$QAU_Zero_then_variadic_args_t@1@@Z 10009810 f i IOCPS.obj
 0001:00008810       ??$?0ABU?$less@G@std@@U_Zero_then_variadic_args_t@1@@?$_Compressed_pair@U?$less@G@std@@V?$_Compressed_pair@U?$_Wrap_alloc@V?$allocator@U?$_Tree_node@U?$pair@$$CBGPAX@std@@PAX@std@@@std@@@std@@V?$_Tree_val@U?$_Tree_simple_types@U?$pair@$$CBGPAX@std@@@std@@@2@$00@2@$00@std@@QAE@U_One_then_variadic_args_t@1@ABU?$less@G@1@$$QAU_Zero_then_variadic_args_t@1@@Z 10009810 f i IOCPS.obj
 0001:00008850       ??$?0$$V@?$_Compressed_pair@U?$_Wrap_alloc@V?$allocator@U?$_List_node@PAUClientContext@@PAX@std@@@std@@@std@@V?$_List_val@U?$_List_simple_types@PAUClientContext@@@std@@@2@$00@std@@QAE@U_Zero_then_variadic_args_t@1@@Z 10009850 f i IOCPS.obj
 0001:00008850       ??$?0$$V@?$_Compressed_pair@U?$_Wrap_alloc@V?$allocator@U?$_List_node@PAVCIOCPBuffer@@PAX@std@@@std@@@std@@V?$_List_val@U?$_List_simple_types@PAVCIOCPBuffer@@@std@@@2@$00@std@@QAE@U_Zero_then_variadic_args_t@1@@Z 10009850 f i IOCPS.obj
 0001:00008850       ??$?0$$V@?$_Compressed_pair@U?$_Wrap_alloc@V?$allocator@U?$_Tree_node@U?$pair@$$CBGPAX@std@@PAX@std@@@std@@@std@@V?$_Tree_val@U?$_Tree_simple_types@U?$pair@$$CBGPAX@std@@@std@@@2@$00@std@@QAE@U_Zero_then_variadic_args_t@1@@Z 10009850 f i IOCPS.obj
 0001:00008850       ??$?0$$V@?$_Compressed_pair@U?$_Wrap_alloc@V?$allocator@U?$_Tree_node@U?$pair@$$CBIPAVCIOCPBuffer@@@std@@PAX@std@@@std@@@std@@V?$_Tree_val@U?$_Tree_simple_types@U?$pair@$$CBIPAVCIOCPBuffer@@@std@@@std@@@2@$00@std@@QAE@U_Zero_then_variadic_args_t@1@@Z 10009850 f i IOCPS.obj
 0001:00008850       ??$?0$$V@?$_Compressed_pair@U?$_Wrap_alloc@V?$allocator@U?$_List_node@PAXPAX@std@@@std@@@std@@V?$_List_val@U?$_List_simple_types@PAX@std@@@2@$00@std@@QAE@U_Zero_then_variadic_args_t@1@@Z 10009850 f i IOCPS.obj
 0001:00008850       ??$?0$$V@?$_Compressed_pair@U?$_Wrap_alloc@V?$allocator@U?$_Tree_node@U?$pair@$$CBIPAUClientContext@@@std@@PAX@std@@@std@@@std@@V?$_Tree_val@U?$_Tree_simple_types@U?$pair@$$CBIPAUClientContext@@@std@@@std@@@2@$00@std@@QAE@U_Zero_then_variadic_args_t@1@@Z 10009850 f i IOCPS.obj
 0001:00008850       ??$?0$$V@?$_Compressed_pair@U?$_Wrap_alloc@V?$allocator@U?$_List_node@PAUJobItem@@PAX@std@@@std@@@std@@V?$_List_val@U?$_List_simple_types@PAUJobItem@@@std@@@2@$00@std@@QAE@U_Zero_then_variadic_args_t@1@@Z 10009850 f i IOCPS.obj
 0001:00008870       ?_Compare@?$_Tree@V?$_Tmap_traits@IPAVCIOCPBuffer@@U?$less@I@std@@V?$allocator@U?$pair@$$CBIPAVCIOCPBuffer@@@std@@@3@$0A@@std@@@std@@IBE_NABI0@Z 10009870 f i IOCPS.obj
 0001:00008870       ?_Compare@?$_Tree@V?$_Tmap_traits@IPAUClientContext@@U?$less@I@std@@V?$allocator@U?$pair@$$CBIPAUClientContext@@@std@@@3@$0A@@std@@@std@@IBE_NABI0@Z 10009870 f i IOCPS.obj
 0001:000088a0       ??0?$_List_val@U?$_List_simple_types@PAVCIOCPBuffer@@@std@@@std@@QAE@XZ 100098a0 f i IOCPS.obj
 0001:000088a0       ??0?$_List_val@U?$_List_simple_types@PAX@std@@@std@@QAE@XZ 100098a0 f i IOCPS.obj
 0001:000088a0       ??0?$_List_val@U?$_List_simple_types@PAUJobItem@@@std@@@std@@QAE@XZ 100098a0 f i IOCPS.obj
 0001:000088a0       ??0?$_Tree_val@U?$_Tree_simple_types@U?$pair@$$CBIPAUClientContext@@@std@@@std@@@std@@QAE@XZ 100098a0 f i IOCPS.obj
 0001:000088a0       ??0?$_Tree_val@U?$_Tree_simple_types@U?$pair@$$CBGPAX@std@@@std@@@std@@QAE@XZ 100098a0 f i IOCPS.obj
 0001:000088a0       ??0?$_Tree_val@U?$_Tree_simple_types@U?$pair@$$CBIPAVCIOCPBuffer@@@std@@@std@@@std@@QAE@XZ 100098a0 f i IOCPS.obj
 0001:000088a0       ??0?$_List_val@U?$_List_simple_types@PAUClientContext@@@std@@@std@@QAE@XZ 100098a0 f i IOCPS.obj
 0001:000088d0       ??0?$_Wrap_alloc@V?$allocator@U?$_Tree_node@U?$pair@$$CBIPAVCIOCPBuffer@@@std@@PAX@std@@@std@@@std@@QAE@XZ 100098d0 f i IOCPS.obj
 0001:000088d0       ??0?$_Wrap_alloc@V?$allocator@U?$_Tree_node@U?$pair@$$CBGPAX@std@@PAX@std@@@std@@@std@@QAE@XZ 100098d0 f i IOCPS.obj
 0001:000088d0       ??0?$_Wrap_alloc@V?$allocator@D@std@@@std@@QAE@XZ 100098d0 f i IOCPS.obj
 0001:000088d0       ??0?$_Wrap_alloc@V?$allocator@U?$_Tree_node@U?$pair@$$CBIPAUClientContext@@@std@@PAX@std@@@std@@@std@@QAE@XZ 100098d0 f i IOCPS.obj
 0001:000088d0       ??0?$_Wrap_alloc@V?$allocator@U?$_List_node@PAUClientContext@@PAX@std@@@std@@@std@@QAE@XZ 100098d0 f i IOCPS.obj
 0001:000088d0       ??0?$_Wrap_alloc@V?$allocator@U?$_List_node@PAVCIOCPBuffer@@PAX@std@@@std@@@std@@QAE@XZ 100098d0 f i IOCPS.obj
 0001:000088d0       ??0?$_Wrap_alloc@V?$allocator@U?$_List_node@PAXPAX@std@@@std@@@std@@QAE@XZ 100098d0 f i IOCPS.obj
 0001:000088d0       ??0?$_Wrap_alloc@V?$allocator@U?$_List_node@PAUJobItem@@PAX@std@@@std@@@std@@QAE@XZ 100098d0 f i IOCPS.obj
 0001:000088f0       ?_Incsize@?$list@PAXV?$allocator@PAX@std@@@std@@QAEXI@Z 100098f0 f i IOCPS.obj
 0001:000088f0       ?_Incsize@?$list@PAVCIOCPBuffer@@V?$allocator@PAVCIOCPBuffer@@@std@@@std@@QAEXI@Z 100098f0 f i IOCPS.obj
 0001:000088f0       ?_Incsize@?$list@PAUClientContext@@V?$allocator@PAUClientContext@@@std@@@std@@QAEXI@Z 100098f0 f i IOCPS.obj
 0001:00008940       ??0?$_String_val@U?$_Simple_types@D@std@@@std@@QAE@XZ 10009940 f i IOCPS.obj
 0001:00008970       ?max_size@?$list@PAVCIOCPBuffer@@V?$allocator@PAVCIOCPBuffer@@@std@@@std@@QBEIXZ 10009970 f i IOCPS.obj
 0001:00008970       ?max_size@?$list@PAXV?$allocator@PAX@std@@@std@@QBEIXZ 10009970 f i IOCPS.obj
 0001:00008970       ?max_size@?$list@PAUClientContext@@V?$allocator@PAUClientContext@@@std@@@std@@QBEIXZ 10009970 f i IOCPS.obj
 0001:000089a0       ?max_size@?$_Wrap_alloc@V?$allocator@U?$_List_node@PAVCIOCPBuffer@@PAX@std@@@std@@@std@@QBEIU_Nil@2@@Z 100099a0 f i IOCPS.obj
 0001:000089a0       ?max_size@?$_Wrap_alloc@V?$allocator@U?$_List_node@PAUClientContext@@PAX@std@@@std@@@std@@QBEIU_Nil@2@@Z 100099a0 f i IOCPS.obj
 0001:000089a0       ?max_size@?$_Wrap_alloc@V?$allocator@U?$_List_node@PAXPAX@std@@@std@@@std@@QBEIU_Nil@2@@Z 100099a0 f i IOCPS.obj
 0001:000089c0       ?max_size@?$allocator_traits@V?$allocator@U?$_List_node@PAUClientContext@@PAX@std@@@std@@@std@@SAIABV?$allocator@U?$_List_node@PAUClientContext@@PAX@std@@@2@@Z 100099c0 f i IOCPS.obj
 0001:000089c0       ?max_size@?$allocator_traits@V?$allocator@U?$_List_node@PAVCIOCPBuffer@@PAX@std@@@std@@@std@@SAIABV?$allocator@U?$_List_node@PAVCIOCPBuffer@@PAX@std@@@2@@Z 100099c0 f i IOCPS.obj
 0001:000089c0       ?max_size@?$allocator_traits@V?$allocator@U?$_List_node@PAXPAX@std@@@std@@@std@@SAIABV?$allocator@U?$_List_node@PAXPAX@std@@@2@@Z 100099c0 f i IOCPS.obj
 0001:000089d0       ?max_size@?$allocator@U?$_List_node@PAXPAX@std@@@std@@QBEIXZ 100099d0 f i IOCPS.obj
 0001:000089d0       ?max_size@?$allocator@U?$_List_node@PAUClientContext@@PAX@std@@@std@@QBEIXZ 100099d0 f i IOCPS.obj
 0001:000089d0       ?max_size@?$allocator@U?$_List_node@PAVCIOCPBuffer@@PAX@std@@@std@@QBEIXZ 100099d0 f i IOCPS.obj
 0001:000089e0       ??$emplace@U?$pair@GPAX@std@@@?$_Tree@V?$_Tmap_traits@GPAXU?$less@G@std@@V?$allocator@U?$pair@$$CBGPAX@std@@@2@$0A@@std@@@std@@QAE?AU?$pair@V?$_Tree_iterator@V?$_Tree_val@U?$_Tree_simple_types@U?$pair@$$CBGPAX@std@@@std@@@std@@@std@@_N@1@$$QAU?$pair@GPAX@1@@Z 100099e0 f i IOCPS.obj
 0001:00008a30       ??$emplace@U?$pair@IPAVCIOCPBuffer@@@std@@@?$_Tree@V?$_Tmap_traits@IPAVCIOCPBuffer@@U?$less@I@std@@V?$allocator@U?$pair@$$CBIPAVCIOCPBuffer@@@std@@@3@$0A@@std@@@std@@QAE?AU?$pair@V?$_Tree_iterator@V?$_Tree_val@U?$_Tree_simple_types@U?$pair@$$CBIPAVCIOCPBuffer@@@std@@@std@@@std@@@std@@_N@1@$$QAU?$pair@IPAVCIOCPBuffer@@@1@@Z 10009a30 f i IOCPS.obj
 0001:00008a80       ??$_Try_emplace@ABG$$V@?$map@GPAXU?$less@G@std@@V?$allocator@U?$pair@$$CBGPAX@std@@@2@@std@@QAE?AU?$pair@V?$_Tree_iterator@V?$_Tree_val@U?$_Tree_simple_types@U?$pair@$$CBGPAX@std@@@std@@@std@@@std@@_N@1@ABG@Z 10009a80 f i IOCPS.obj
 0001:00008b60       ??$_Buynode@ABQAUClientContext@@@?$_List_buy@PAUClientContext@@V?$allocator@PAUClientContext@@@std@@@std@@QAEPAU?$_List_node@PAUClientContext@@PAX@1@PAU21@0ABQAUClientContext@@@Z 10009b60 f i IOCPS.obj
 0001:00008b60       ??$_Buynode@ABQAX@?$_List_buy@PAXV?$allocator@PAX@std@@@std@@QAEPAU?$_List_node@PAXPAX@1@PAU21@0ABQAX@Z 10009b60 f i IOCPS.obj
 0001:00008b60       ??$_Buynode@ABQAVCIOCPBuffer@@@?$_List_buy@PAVCIOCPBuffer@@V?$allocator@PAVCIOCPBuffer@@@std@@@std@@QAEPAU?$_List_node@PAVCIOCPBuffer@@PAX@1@PAU21@0ABQAVCIOCPBuffer@@@Z 10009b60 f i IOCPS.obj
 0001:00008c30       ??$_Try_emplace@ABI$$V@?$map@IPAUClientContext@@U?$less@I@std@@V?$allocator@U?$pair@$$CBIPAUClientContext@@@std@@@3@@std@@QAE?AU?$pair@V?$_Tree_iterator@V?$_Tree_val@U?$_Tree_simple_types@U?$pair@$$CBIPAUClientContext@@@std@@@std@@@std@@@std@@_N@1@ABI@Z 10009c30 f i IOCPS.obj
 0001:00008c30       ??$_Try_emplace@ABI$$V@?$map@IPAVCIOCPBuffer@@U?$less@I@std@@V?$allocator@U?$pair@$$CBIPAVCIOCPBuffer@@@std@@@3@@std@@QAE?AU?$pair@V?$_Tree_iterator@V?$_Tree_val@U?$_Tree_simple_types@U?$pair@$$CBIPAVCIOCPBuffer@@@std@@@std@@@std@@@std@@_N@1@ABI@Z 10009c30 f i IOCPS.obj
 0001:00008d10       ??$?0U?$_Wrap_alloc@V?$allocator@D@std@@@std@@$$V@?$_Compressed_pair@U?$_Wrap_alloc@V?$allocator@D@std@@@std@@V?$_String_val@U?$_Simple_types@D@std@@@2@$00@std@@QAE@U_One_then_variadic_args_t@1@$$QAU?$_Wrap_alloc@V?$allocator@D@std@@@1@@Z 10009d10 f i IOCPS.obj
 0001:00008d40       ?lower_bound@?$_Tree@V?$_Tmap_traits@GPAXU?$less@G@std@@V?$allocator@U?$pair@$$CBGPAX@std@@@2@$0A@@std@@@std@@QAE?AV?$_Tree_iterator@V?$_Tree_val@U?$_Tree_simple_types@U?$pair@$$CBGPAX@std@@@std@@@std@@@2@ABG@Z 10009d40 f i IOCPS.obj
 0001:00008d70       ??R?$less@G@std@@QBE_NABG0@Z 10009d70 f i IOCPS.obj
 0001:00008db0       ??0?$_Wrap_alloc@V?$allocator@D@std@@@std@@QAE@$$QAU01@@Z 10009db0 f i IOCPS.obj
 0001:00008db0       ??$?0V?$allocator@D@std@@@?$_Wrap_alloc@V?$allocator@D@std@@@std@@QAE@$$QAV?$allocator@D@1@@Z 10009db0 f i MyIOCP.obj
 0001:00008de0       ??$_Buynode@U?$pair@GPAX@std@@@?$_Tree_comp_alloc@V?$_Tmap_traits@GPAXU?$less@G@std@@V?$allocator@U?$pair@$$CBGPAX@std@@@2@$0A@@std@@@std@@QAEPAU?$_Tree_node@U?$pair@$$CBGPAX@std@@PAX@1@$$QAU?$pair@GPAX@1@@Z 10009de0 f i IOCPS.obj
 0001:00008ec0       ??$_Insert_nohint@AAU?$pair@$$CBGPAX@std@@PAU?$_Tree_node@U?$pair@$$CBGPAX@std@@PAX@2@@?$_Tree@V?$_Tmap_traits@GPAXU?$less@G@std@@V?$allocator@U?$pair@$$CBGPAX@std@@@2@$0A@@std@@@std@@IAE?AU?$pair@V?$_Tree_iterator@V?$_Tree_val@U?$_Tree_simple_types@U?$pair@$$CBGPAX@std@@@std@@@std@@@std@@_N@1@_NAAU?$pair@$$CBGPAX@1@PAU?$_Tree_node@U?$pair@$$CBGPAX@std@@PAX@1@@Z 10009ec0 f i IOCPS.obj
 0001:000091f0       ??$_Buynode@U?$pair@IPAVCIOCPBuffer@@@std@@@?$_Tree_comp_alloc@V?$_Tmap_traits@IPAVCIOCPBuffer@@U?$less@I@std@@V?$allocator@U?$pair@$$CBIPAVCIOCPBuffer@@@std@@@3@$0A@@std@@@std@@QAEPAU?$_Tree_node@U?$pair@$$CBIPAVCIOCPBuffer@@@std@@PAX@1@$$QAU?$pair@IPAVCIOCPBuffer@@@1@@Z 1000a1f0 f i IOCPS.obj
 0001:000092d0       ??$_Insert_nohint@AAU?$pair@$$CBIPAVCIOCPBuffer@@@std@@PAU?$_Tree_node@U?$pair@$$CBIPAVCIOCPBuffer@@@std@@PAX@2@@?$_Tree@V?$_Tmap_traits@IPAVCIOCPBuffer@@U?$less@I@std@@V?$allocator@U?$pair@$$CBIPAVCIOCPBuffer@@@std@@@3@$0A@@std@@@std@@IAE?AU?$pair@V?$_Tree_iterator@V?$_Tree_val@U?$_Tree_simple_types@U?$pair@$$CBIPAVCIOCPBuffer@@@std@@@std@@@std@@@std@@_N@1@_NAAU?$pair@$$CBIPAVCIOCPBuffer@@@1@PAU?$_Tree_node@U?$pair@$$CBIPAVCIOCPBuffer@@@std@@PAX@1@@Z 1000a2d0 f i IOCPS.obj
 0001:000092d0       ??$_Insert_nohint@AAU?$pair@$$CBIPAUClientContext@@@std@@PAU?$_Tree_node@U?$pair@$$CBIPAUClientContext@@@std@@PAX@2@@?$_Tree@V?$_Tmap_traits@IPAUClientContext@@U?$less@I@std@@V?$allocator@U?$pair@$$CBIPAUClientContext@@@std@@@3@$0A@@std@@@std@@IAE?AU?$pair@V?$_Tree_iterator@V?$_Tree_val@U?$_Tree_simple_types@U?$pair@$$CBIPAUClientContext@@@std@@@std@@@std@@@std@@_N@1@_NAAU?$pair@$$CBIPAUClientContext@@@1@PAU?$_Tree_node@U?$pair@$$CBIPAUClientContext@@@std@@PAX@1@@Z 1000a2d0 f i IOCPS.obj
 0001:00009600       ??$forward_as_tuple@ABG@std@@YA?AV?$tuple@ABG@0@ABG@Z 1000a600 f i IOCPS.obj
 0001:00009600       ??$forward_as_tuple@ABI@std@@YA?AV?$tuple@ABI@0@ABI@Z 1000a600 f i IOCPS.obj
 0001:00009650       ??$forward_as_tuple@$$V@std@@YA?AV?$tuple@$$V@0@XZ 1000a650 f i IOCPS.obj
 0001:00009660       ??$emplace_hint@ABUpiecewise_construct_t@std@@V?$tuple@ABG@2@V?$tuple@$$V@2@@?$_Tree@V?$_Tmap_traits@GPAXU?$less@G@std@@V?$allocator@U?$pair@$$CBGPAX@std@@@2@$0A@@std@@@std@@QAE?AV?$_Tree_iterator@V?$_Tree_val@U?$_Tree_simple_types@U?$pair@$$CBGPAX@std@@@std@@@std@@@1@V?$_Tree_const_iterator@V?$_Tree_val@U?$_Tree_simple_types@U?$pair@$$CBGPAX@std@@@std@@@std@@@1@ABUpiecewise_construct_t@1@$$QAV?$tuple@ABG@1@$$QAV?$tuple@$$V@1@@Z 1000a660 f i IOCPS.obj
 0001:000096d0       ??$?0AAV?$_Tree_iterator@V?$_Tree_val@U?$_Tree_simple_types@U?$pair@$$CBIPAVCIOCPBuffer@@@std@@@std@@@std@@@std@@_NX$0A@@?$pair@V?$_Tree_iterator@V?$_Tree_val@U?$_Tree_simple_types@U?$pair@$$CBIPAVCIOCPBuffer@@@std@@@std@@@std@@@std@@_N@std@@QAE@AAV?$_Tree_iterator@V?$_Tree_val@U?$_Tree_simple_types@U?$pair@$$CBIPAVCIOCPBuffer@@@std@@@std@@@std@@@1@$$QA_N@Z 1000a6d0 f i IOCPS.obj
 0001:000096d0       ??$?0V?$_Tree_iterator@V?$_Tree_val@U?$_Tree_simple_types@U?$pair@$$CBIPAUClientContext@@@std@@@std@@@std@@@std@@_NX$0A@@?$pair@V?$_Tree_iterator@V?$_Tree_val@U?$_Tree_simple_types@U?$pair@$$CBIPAUClientContext@@@std@@@std@@@std@@@std@@_N@std@@QAE@$$QAV?$_Tree_iterator@V?$_Tree_val@U?$_Tree_simple_types@U?$pair@$$CBIPAUClientContext@@@std@@@std@@@std@@@1@$$QA_N@Z 1000a6d0 f i IOCPS.obj
 0001:000096d0       ??$?0V?$_Tree_iterator@V?$_Tree_val@U?$_Tree_simple_types@U?$pair@$$CBIPAVCIOCPBuffer@@@std@@@std@@@std@@@std@@_NX$0A@@?$pair@V?$_Tree_iterator@V?$_Tree_val@U?$_Tree_simple_types@U?$pair@$$CBIPAVCIOCPBuffer@@@std@@@std@@@std@@@std@@_N@std@@QAE@$$QAV?$_Tree_iterator@V?$_Tree_val@U?$_Tree_simple_types@U?$pair@$$CBIPAVCIOCPBuffer@@@std@@@std@@@std@@@1@$$QA_N@Z 1000a6d0 f i IOCPS.obj
 0001:000096d0       ??$?0AAV?$_Tree_iterator@V?$_Tree_val@U?$_Tree_simple_types@U?$pair@$$CBIPAUClientContext@@@std@@@std@@@std@@@std@@_NX$0A@@?$pair@V?$_Tree_iterator@V?$_Tree_val@U?$_Tree_simple_types@U?$pair@$$CBIPAUClientContext@@@std@@@std@@@std@@@std@@_N@std@@QAE@AAV?$_Tree_iterator@V?$_Tree_val@U?$_Tree_simple_types@U?$pair@$$CBIPAUClientContext@@@std@@@std@@@std@@@1@$$QA_N@Z 1000a6d0 f i IOCPS.obj
 0001:000096d0       ??$?0AAV?$_Tree_iterator@V?$_Tree_val@U?$_Tree_simple_types@U?$pair@$$CBGPAX@std@@@std@@@std@@@std@@_NX$0A@@?$pair@V?$_Tree_iterator@V?$_Tree_val@U?$_Tree_simple_types@U?$pair@$$CBGPAX@std@@@std@@@std@@@std@@_N@std@@QAE@AAV?$_Tree_iterator@V?$_Tree_val@U?$_Tree_simple_types@U?$pair@$$CBGPAX@std@@@std@@@std@@@1@$$QA_N@Z 1000a6d0 f i IOCPS.obj
 0001:000096d0       ??$?0V?$_Tree_iterator@V?$_Tree_val@U?$_Tree_simple_types@U?$pair@$$CBGPAX@std@@@std@@@std@@@std@@_NX$0A@@?$pair@V?$_Tree_iterator@V?$_Tree_val@U?$_Tree_simple_types@U?$pair@$$CBGPAX@std@@@std@@@std@@@std@@_N@std@@QAE@$$QAV?$_Tree_iterator@V?$_Tree_val@U?$_Tree_simple_types@U?$pair@$$CBGPAX@std@@@std@@@std@@@1@$$QA_N@Z 1000a6d0 f i IOCPS.obj
 0001:00009710       ??$emplace_hint@ABUpiecewise_construct_t@std@@V?$tuple@ABI@2@V?$tuple@$$V@2@@?$_Tree@V?$_Tmap_traits@IPAVCIOCPBuffer@@U?$less@I@std@@V?$allocator@U?$pair@$$CBIPAVCIOCPBuffer@@@std@@@3@$0A@@std@@@std@@QAE?AV?$_Tree_iterator@V?$_Tree_val@U?$_Tree_simple_types@U?$pair@$$CBIPAVCIOCPBuffer@@@std@@@std@@@std@@@1@V?$_Tree_const_iterator@V?$_Tree_val@U?$_Tree_simple_types@U?$pair@$$CBIPAVCIOCPBuffer@@@std@@@std@@@std@@@1@ABUpiecewise_construct_t@1@$$QAV?$tuple@ABI@1@$$QAV?$tuple@$$V@1@@Z 1000a710 f i IOCPS.obj
 0001:00009710       ??$emplace_hint@ABUpiecewise_construct_t@std@@V?$tuple@ABI@2@V?$tuple@$$V@2@@?$_Tree@V?$_Tmap_traits@IPAUClientContext@@U?$less@I@std@@V?$allocator@U?$pair@$$CBIPAUClientContext@@@std@@@3@$0A@@std@@@std@@QAE?AV?$_Tree_iterator@V?$_Tree_val@U?$_Tree_simple_types@U?$pair@$$CBIPAUClientContext@@@std@@@std@@@std@@@1@V?$_Tree_const_iterator@V?$_Tree_val@U?$_Tree_simple_types@U?$pair@$$CBIPAUClientContext@@@std@@@std@@@std@@@1@ABUpiecewise_construct_t@1@$$QAV?$tuple@ABI@1@$$QAV?$tuple@$$V@1@@Z 1000a710 f i IOCPS.obj
 0001:00009780       ??$_Lbound@G@?$_Tree@V?$_Tmap_traits@GPAXU?$less@G@std@@V?$allocator@U?$pair@$$CBGPAX@std@@@2@$0A@@std@@@std@@IBEPAU?$_Tree_node@U?$pair@$$CBGPAX@std@@PAX@1@ABG@Z 1000a780 f i IOCPS.obj
 0001:00009810       ??F?$_Tree_iterator@V?$_Tree_val@U?$_Tree_simple_types@U?$pair@$$CBIPAUClientContext@@@std@@@std@@@std@@@std@@QAEAAV01@XZ 1000a810 f i IOCPS.obj
 0001:00009810       ??F?$_Tree_iterator@V?$_Tree_val@U?$_Tree_simple_types@U?$pair@$$CBIPAVCIOCPBuffer@@@std@@@std@@@std@@@std@@QAEAAV01@XZ 1000a810 f i IOCPS.obj
 0001:00009810       ??F?$_Tree_iterator@V?$_Tree_val@U?$_Tree_simple_types@U?$pair@$$CBGPAX@std@@@std@@@std@@@std@@QAEAAV01@XZ 1000a810 f i IOCPS.obj
 0001:00009830       ?_Buynode0@?$_Tree_comp_alloc@V?$_Tmap_traits@IPAUClientContext@@U?$less@I@std@@V?$allocator@U?$pair@$$CBIPAUClientContext@@@std@@@3@$0A@@std@@@std@@QAEPAU?$_Tree_node@U?$pair@$$CBIPAUClientContext@@@std@@PAX@2@XZ 1000a830 f i IOCPS.obj
 0001:00009830       ?_Buynode0@?$_Tree_comp_alloc@V?$_Tmap_traits@GPAXU?$less@G@std@@V?$allocator@U?$pair@$$CBGPAX@std@@@2@$0A@@std@@@std@@QAEPAU?$_Tree_node@U?$pair@$$CBGPAX@std@@PAX@2@XZ 1000a830 f i IOCPS.obj
 0001:00009830       ?_Buynode0@?$_Tree_comp_alloc@V?$_Tmap_traits@IPAVCIOCPBuffer@@U?$less@I@std@@V?$allocator@U?$pair@$$CBIPAVCIOCPBuffer@@@std@@@3@$0A@@std@@@std@@QAEPAU?$_Tree_node@U?$pair@$$CBIPAVCIOCPBuffer@@@std@@PAX@2@XZ 1000a830 f i IOCPS.obj
 0001:00009970       ?_Compare@?$_Tree@V?$_Tmap_traits@GPAXU?$less@G@std@@V?$allocator@U?$pair@$$CBGPAX@std@@@2@$0A@@std@@@std@@IBE_NABG0@Z 1000a970 f i IOCPS.obj
 0001:000099a0       ?_Destroy_if_not_nil@?$_Tree@V?$_Tmap_traits@IPAVCIOCPBuffer@@U?$less@I@std@@V?$allocator@U?$pair@$$CBIPAVCIOCPBuffer@@@std@@@3@$0A@@std@@@std@@IAEXPAU?$_Tree_node@U?$pair@$$CBIPAVCIOCPBuffer@@@std@@PAX@2@@Z 1000a9a0 f i IOCPS.obj
 0001:000099a0       ?_Destroy_if_not_nil@?$_Tree@V?$_Tmap_traits@GPAXU?$less@G@std@@V?$allocator@U?$pair@$$CBGPAX@std@@@2@$0A@@std@@@std@@IAEXPAU?$_Tree_node@U?$pair@$$CBGPAX@std@@PAX@2@@Z 1000a9a0 f i IOCPS.obj
 0001:000099a0       ?_Destroy_if_not_nil@?$_Tree@V?$_Tmap_traits@IPAUClientContext@@U?$less@I@std@@V?$allocator@U?$pair@$$CBIPAUClientContext@@@std@@@3@$0A@@std@@@std@@IAEXPAU?$_Tree_node@U?$pair@$$CBIPAUClientContext@@@std@@PAX@2@@Z 1000a9a0 f i IOCPS.obj
 0001:000099f0       ??F?$_Tree_const_iterator@V?$_Tree_val@U?$_Tree_simple_types@U?$pair@$$CBGPAX@std@@@std@@@std@@@std@@QAEAAV01@XZ 1000a9f0 f i IOCPS.obj
 0001:000099f0       ??F?$_Tree_const_iterator@V?$_Tree_val@U?$_Tree_simple_types@U?$pair@$$CBIPAVCIOCPBuffer@@@std@@@std@@@std@@@std@@QAEAAV01@XZ 1000a9f0 f i IOCPS.obj
 0001:000099f0       ??F?$_Tree_const_iterator@V?$_Tree_val@U?$_Tree_simple_types@U?$pair@$$CBIPAUClientContext@@@std@@@std@@@std@@@std@@QAEAAV01@XZ 1000a9f0 f i IOCPS.obj
 0001:00009a10       ??F?$_Tree_unchecked_const_iterator@V?$_Tree_val@U?$_Tree_simple_types@U?$pair@$$CBIPAUClientContext@@@std@@@std@@@std@@U_Iterator_base0@2@@std@@QAEAAV01@XZ 1000aa10 f i IOCPS.obj
 0001:00009a10       ??F?$_Tree_unchecked_const_iterator@V?$_Tree_val@U?$_Tree_simple_types@U?$pair@$$CBGPAX@std@@@std@@@std@@U_Iterator_base0@2@@std@@QAEAAV01@XZ 1000aa10 f i IOCPS.obj
 0001:00009a10       ??F?$_Tree_unchecked_const_iterator@V?$_Tree_val@U?$_Tree_simple_types@U?$pair@$$CBIPAVCIOCPBuffer@@@std@@@std@@@std@@U_Iterator_base0@2@@std@@QAEAAV01@XZ 1000aa10 f i IOCPS.obj
 0001:00009b00       ??$construct@U?$pair@$$CBGPAX@std@@U?$pair@GPAX@2@@?$_Wrap_alloc@V?$allocator@U?$_Tree_node@U?$pair@$$CBGPAX@std@@PAX@std@@@std@@@std@@QAEXPAU?$pair@$$CBGPAX@1@$$QAU?$pair@GPAX@1@@Z 1000ab00 f i IOCPS.obj
 0001:00009b30       ??$_Insert_at@AAU?$pair@$$CBGPAX@std@@PAU?$_Tree_node@U?$pair@$$CBGPAX@std@@PAX@2@@?$_Tree@V?$_Tmap_traits@GPAXU?$less@G@std@@V?$allocator@U?$pair@$$CBGPAX@std@@@2@$0A@@std@@@std@@IAE?AV?$_Tree_iterator@V?$_Tree_val@U?$_Tree_simple_types@U?$pair@$$CBGPAX@std@@@std@@@std@@@1@_NPAU?$_Tree_node@U?$pair@$$CBGPAX@std@@PAX@1@AAU?$pair@$$CBGPAX@1@1@Z 1000ab30 f i IOCPS.obj
 0001:00009b30       ??$_Insert_at@AAU?$pair@$$CBIPAUClientContext@@@std@@PAU?$_Tree_node@U?$pair@$$CBIPAUClientContext@@@std@@PAX@2@@?$_Tree@V?$_Tmap_traits@IPAUClientContext@@U?$less@I@std@@V?$allocator@U?$pair@$$CBIPAUClientContext@@@std@@@3@$0A@@std@@@std@@IAE?AV?$_Tree_iterator@V?$_Tree_val@U?$_Tree_simple_types@U?$pair@$$CBIPAUClientContext@@@std@@@std@@@std@@@1@_NPAU?$_Tree_node@U?$pair@$$CBIPAUClientContext@@@std@@PAX@1@AAU?$pair@$$CBIPAUClientContext@@@1@1@Z 1000ab30 f i IOCPS.obj
 0001:00009b30       ??$_Insert_at@AAU?$pair@$$CBIPAVCIOCPBuffer@@@std@@PAU?$_Tree_node@U?$pair@$$CBIPAVCIOCPBuffer@@@std@@PAX@2@@?$_Tree@V?$_Tmap_traits@IPAVCIOCPBuffer@@U?$less@I@std@@V?$allocator@U?$pair@$$CBIPAVCIOCPBuffer@@@std@@@3@$0A@@std@@@std@@IAE?AV?$_Tree_iterator@V?$_Tree_val@U?$_Tree_simple_types@U?$pair@$$CBIPAVCIOCPBuffer@@@std@@@std@@@std@@@1@_NPAU?$_Tree_node@U?$pair@$$CBIPAVCIOCPBuffer@@@std@@PAX@1@AAU?$pair@$$CBIPAVCIOCPBuffer@@@1@1@Z 1000ab30 f i IOCPS.obj
 0001:00009f70       ??$construct@U?$pair@$$CBIPAVCIOCPBuffer@@@std@@U?$pair@IPAVCIOCPBuffer@@@2@@?$_Wrap_alloc@V?$allocator@U?$_Tree_node@U?$pair@$$CBIPAVCIOCPBuffer@@@std@@PAX@std@@@std@@@std@@QAEXPAU?$pair@$$CBIPAVCIOCPBuffer@@@1@$$QAU?$pair@IPAVCIOCPBuffer@@@1@@Z 1000af70 f i IOCPS.obj
 0001:00009fa0       ??$?0ABI$0A@@?$tuple@ABI@std@@QAE@ABI@Z 1000afa0 f i IOCPS.obj
 0001:00009fa0       ??$?0ABG$0A@@?$tuple@ABG@std@@QAE@ABG@Z 1000afa0 f i IOCPS.obj
 0001:00009fd0       ??$_Buynode@ABUpiecewise_construct_t@std@@V?$tuple@ABG@2@V?$tuple@$$V@2@@?$_Tree_comp_alloc@V?$_Tmap_traits@GPAXU?$less@G@std@@V?$allocator@U?$pair@$$CBGPAX@std@@@2@$0A@@std@@@std@@QAEPAU?$_Tree_node@U?$pair@$$CBGPAX@std@@PAX@1@ABUpiecewise_construct_t@1@$$QAV?$tuple@ABG@1@$$QAV?$tuple@$$V@1@@Z 1000afd0 f i IOCPS.obj
 0001:0000a0d0       ??$_Insert_hint@AAU?$pair@$$CBGPAX@std@@PAU?$_Tree_node@U?$pair@$$CBGPAX@std@@PAX@2@@?$_Tree@V?$_Tmap_traits@GPAXU?$less@G@std@@V?$allocator@U?$pair@$$CBGPAX@std@@@2@$0A@@std@@@std@@IAE?AV?$_Tree_iterator@V?$_Tree_val@U?$_Tree_simple_types@U?$pair@$$CBGPAX@std@@@std@@@std@@@1@V?$_Tree_const_iterator@V?$_Tree_val@U?$_Tree_simple_types@U?$pair@$$CBGPAX@std@@@std@@@std@@@1@AAU?$pair@$$CBGPAX@1@PAU?$_Tree_node@U?$pair@$$CBGPAX@std@@PAX@1@@Z 1000b0d0 f i IOCPS.obj
 0001:0000ab40       ??$_Buynode@ABUpiecewise_construct_t@std@@V?$tuple@ABI@2@V?$tuple@$$V@2@@?$_Tree_comp_alloc@V?$_Tmap_traits@IPAVCIOCPBuffer@@U?$less@I@std@@V?$allocator@U?$pair@$$CBIPAVCIOCPBuffer@@@std@@@3@$0A@@std@@@std@@QAEPAU?$_Tree_node@U?$pair@$$CBIPAVCIOCPBuffer@@@std@@PAX@1@ABUpiecewise_construct_t@1@$$QAV?$tuple@ABI@1@$$QAV?$tuple@$$V@1@@Z 1000bb40 f i IOCPS.obj
 0001:0000ab40       ??$_Buynode@ABUpiecewise_construct_t@std@@V?$tuple@ABI@2@V?$tuple@$$V@2@@?$_Tree_comp_alloc@V?$_Tmap_traits@IPAUClientContext@@U?$less@I@std@@V?$allocator@U?$pair@$$CBIPAUClientContext@@@std@@@3@$0A@@std@@@std@@QAEPAU?$_Tree_node@U?$pair@$$CBIPAUClientContext@@@std@@PAX@1@ABUpiecewise_construct_t@1@$$QAV?$tuple@ABI@1@$$QAV?$tuple@$$V@1@@Z 1000bb40 f i IOCPS.obj
 0001:0000ac40       ??$_Insert_hint@AAU?$pair@$$CBIPAVCIOCPBuffer@@@std@@PAU?$_Tree_node@U?$pair@$$CBIPAVCIOCPBuffer@@@std@@PAX@2@@?$_Tree@V?$_Tmap_traits@IPAVCIOCPBuffer@@U?$less@I@std@@V?$allocator@U?$pair@$$CBIPAVCIOCPBuffer@@@std@@@3@$0A@@std@@@std@@IAE?AV?$_Tree_iterator@V?$_Tree_val@U?$_Tree_simple_types@U?$pair@$$CBIPAVCIOCPBuffer@@@std@@@std@@@std@@@1@V?$_Tree_const_iterator@V?$_Tree_val@U?$_Tree_simple_types@U?$pair@$$CBIPAVCIOCPBuffer@@@std@@@std@@@std@@@1@AAU?$pair@$$CBIPAVCIOCPBuffer@@@1@PAU?$_Tree_node@U?$pair@$$CBIPAVCIOCPBuffer@@@std@@PAX@1@@Z 1000bc40 f i IOCPS.obj
 0001:0000ac40       ??$_Insert_hint@AAU?$pair@$$CBIPAUClientContext@@@std@@PAU?$_Tree_node@U?$pair@$$CBIPAUClientContext@@@std@@PAX@2@@?$_Tree@V?$_Tmap_traits@IPAUClientContext@@U?$less@I@std@@V?$allocator@U?$pair@$$CBIPAUClientContext@@@std@@@3@$0A@@std@@@std@@IAE?AV?$_Tree_iterator@V?$_Tree_val@U?$_Tree_simple_types@U?$pair@$$CBIPAUClientContext@@@std@@@std@@@std@@@1@V?$_Tree_const_iterator@V?$_Tree_val@U?$_Tree_simple_types@U?$pair@$$CBIPAUClientContext@@@std@@@std@@@std@@@1@AAU?$pair@$$CBIPAUClientContext@@@1@PAU?$_Tree_node@U?$pair@$$CBIPAUClientContext@@@std@@PAX@1@@Z 1000bc40 f i IOCPS.obj
 0001:0000b6b0       ?max_size@?$_Tree@V?$_Tmap_traits@IPAUClientContext@@U?$less@I@std@@V?$allocator@U?$pair@$$CBIPAUClientContext@@@std@@@3@$0A@@std@@@std@@QBEIXZ 1000c6b0 f i IOCPS.obj
 0001:0000b6b0       ?max_size@?$_Tree@V?$_Tmap_traits@IPAVCIOCPBuffer@@U?$less@I@std@@V?$allocator@U?$pair@$$CBIPAVCIOCPBuffer@@@std@@@3@$0A@@std@@@std@@QBEIXZ 1000c6b0 f i IOCPS.obj
 0001:0000b6b0       ?max_size@?$_Tree@V?$_Tmap_traits@GPAXU?$less@G@std@@V?$allocator@U?$pair@$$CBGPAX@std@@@2@$0A@@std@@@std@@QBEIXZ 1000c6b0 f i IOCPS.obj
 0001:0000b6e0       ?max_size@?$_Wrap_alloc@V?$allocator@U?$_Tree_node@U?$pair@$$CBGPAX@std@@PAX@std@@@std@@@std@@QBEIU_Nil@2@@Z 1000c6e0 f i IOCPS.obj
 0001:0000b6e0       ?max_size@?$_Wrap_alloc@V?$allocator@U?$_Tree_node@U?$pair@$$CBIPAVCIOCPBuffer@@@std@@PAX@std@@@std@@@std@@QBEIU_Nil@2@@Z 1000c6e0 f i IOCPS.obj
 0001:0000b6e0       ?max_size@?$_Wrap_alloc@V?$allocator@U?$_Tree_node@U?$pair@$$CBIPAUClientContext@@@std@@PAX@std@@@std@@@std@@QBEIU_Nil@2@@Z 1000c6e0 f i IOCPS.obj
 0001:0000b700       ?max_size@?$allocator_traits@V?$allocator@U?$_Tree_node@U?$pair@$$CBIPAUClientContext@@@std@@PAX@std@@@std@@@std@@SAIABV?$allocator@U?$_Tree_node@U?$pair@$$CBIPAUClientContext@@@std@@PAX@std@@@2@@Z 1000c700 f i IOCPS.obj
 0001:0000b700       ?max_size@?$allocator_traits@V?$allocator@U?$_Tree_node@U?$pair@$$CBGPAX@std@@PAX@std@@@std@@@std@@SAIABV?$allocator@U?$_Tree_node@U?$pair@$$CBGPAX@std@@PAX@std@@@2@@Z 1000c700 f i IOCPS.obj
 0001:0000b700       ?max_size@?$allocator_traits@V?$allocator@U?$_Tree_node@U?$pair@$$CBIPAVCIOCPBuffer@@@std@@PAX@std@@@std@@@std@@SAIABV?$allocator@U?$_Tree_node@U?$pair@$$CBIPAVCIOCPBuffer@@@std@@PAX@std@@@2@@Z 1000c700 f i IOCPS.obj
 0001:0000b710       ?max_size@?$allocator@U?$_Tree_node@U?$pair@$$CBIPAVCIOCPBuffer@@@std@@PAX@std@@@std@@QBEIXZ 1000c710 f i IOCPS.obj
 0001:0000b710       ?max_size@?$allocator@U?$_Tree_node@U?$pair@$$CBIPAUClientContext@@@std@@PAX@std@@@std@@QBEIXZ 1000c710 f i IOCPS.obj
 0001:0000b710       ?max_size@?$allocator@U?$_Tree_node@U?$pair@$$CBGPAX@std@@PAX@std@@@std@@QBEIXZ 1000c710 f i IOCPS.obj
 0001:0000b720       ??$construct@U?$pair@$$CBGPAX@std@@U?$pair@GPAX@2@@?$allocator_traits@V?$allocator@U?$_Tree_node@U?$pair@$$CBGPAX@std@@PAX@std@@@std@@@std@@SAXAAV?$allocator@U?$_Tree_node@U?$pair@$$CBGPAX@std@@PAX@std@@@1@PAU?$pair@$$CBGPAX@1@$$QAU?$pair@GPAX@1@@Z 1000c720 f i IOCPS.obj
 0001:0000b740       ??$_Buynode_if_nil@AAU?$pair@$$CBIPAUClientContext@@@std@@@?$_Tree@V?$_Tmap_traits@IPAUClientContext@@U?$less@I@std@@V?$allocator@U?$pair@$$CBIPAUClientContext@@@std@@@3@$0A@@std@@@std@@IAEPAU?$_Tree_node@U?$pair@$$CBIPAUClientContext@@@std@@PAX@1@PAU21@AAU?$pair@$$CBIPAUClientContext@@@1@@Z 1000c740 f i IOCPS.obj
 0001:0000b740       ??$_Buynode_if_nil@AAU?$pair@$$CBGPAX@std@@@?$_Tree@V?$_Tmap_traits@GPAXU?$less@G@std@@V?$allocator@U?$pair@$$CBGPAX@std@@@2@$0A@@std@@@std@@IAEPAU?$_Tree_node@U?$pair@$$CBGPAX@std@@PAX@1@PAU21@AAU?$pair@$$CBGPAX@1@@Z 1000c740 f i IOCPS.obj
 0001:0000b740       ??$_Buynode_if_nil@AAU?$pair@$$CBIPAVCIOCPBuffer@@@std@@@?$_Tree@V?$_Tmap_traits@IPAVCIOCPBuffer@@U?$less@I@std@@V?$allocator@U?$pair@$$CBIPAVCIOCPBuffer@@@std@@@3@$0A@@std@@@std@@IAEPAU?$_Tree_node@U?$pair@$$CBIPAVCIOCPBuffer@@@std@@PAX@1@PAU21@AAU?$pair@$$CBIPAVCIOCPBuffer@@@1@@Z 1000c740 f i IOCPS.obj
 0001:0000b750       ??$construct@U?$pair@$$CBIPAVCIOCPBuffer@@@std@@U?$pair@IPAVCIOCPBuffer@@@2@@?$allocator_traits@V?$allocator@U?$_Tree_node@U?$pair@$$CBIPAVCIOCPBuffer@@@std@@PAX@std@@@std@@@std@@SAXAAV?$allocator@U?$_Tree_node@U?$pair@$$CBIPAVCIOCPBuffer@@@std@@PAX@std@@@1@PAU?$pair@$$CBIPAVCIOCPBuffer@@@1@$$QAU?$pair@IPAVCIOCPBuffer@@@1@@Z 1000c750 f i IOCPS.obj
 0001:0000b770       ??$?0ABG@?$_Tuple_val@ABG@std@@QAE@ABG@Z 1000c770 f i IOCPS.obj
 0001:0000b770       ??$?0ABI@?$_Tuple_val@ABI@std@@QAE@ABI@Z 1000c770 f i IOCPS.obj
 0001:0000b7a0       ??$construct@U?$pair@$$CBGPAX@std@@ABUpiecewise_construct_t@2@V?$tuple@ABG@2@V?$tuple@$$V@2@@?$_Wrap_alloc@V?$allocator@U?$_Tree_node@U?$pair@$$CBGPAX@std@@PAX@std@@@std@@@std@@QAEXPAU?$pair@$$CBGPAX@1@ABUpiecewise_construct_t@1@$$QAV?$tuple@ABG@1@$$QAV?$tuple@$$V@1@@Z 1000c7a0 f i IOCPS.obj
 0001:0000b7f0       ??$construct@U?$pair@$$CBIPAVCIOCPBuffer@@@std@@ABUpiecewise_construct_t@2@V?$tuple@ABI@2@V?$tuple@$$V@2@@?$_Wrap_alloc@V?$allocator@U?$_Tree_node@U?$pair@$$CBIPAVCIOCPBuffer@@@std@@PAX@std@@@std@@@std@@QAEXPAU?$pair@$$CBIPAVCIOCPBuffer@@@1@ABUpiecewise_construct_t@1@$$QAV?$tuple@ABI@1@$$QAV?$tuple@$$V@1@@Z 1000c7f0 f i IOCPS.obj
 0001:0000b7f0       ??$construct@U?$pair@$$CBIPAUClientContext@@@std@@ABUpiecewise_construct_t@2@V?$tuple@ABI@2@V?$tuple@$$V@2@@?$_Wrap_alloc@V?$allocator@U?$_Tree_node@U?$pair@$$CBIPAUClientContext@@@std@@PAX@std@@@std@@@std@@QAEXPAU?$pair@$$CBIPAUClientContext@@@1@ABUpiecewise_construct_t@1@$$QAV?$tuple@ABI@1@$$QAV?$tuple@$$V@1@@Z 1000c7f0 f i IOCPS.obj
 0001:0000b840       ??$construct@U?$pair@$$CBGPAX@std@@U?$pair@GPAX@2@@?$allocator@U?$_Tree_node@U?$pair@$$CBGPAX@std@@PAX@std@@@std@@QAEXPAU?$pair@$$CBGPAX@1@$$QAU?$pair@GPAX@1@@Z 1000c840 f i IOCPS.obj
 0001:0000b890       ??$construct@U?$pair@$$CBIPAVCIOCPBuffer@@@std@@U?$pair@IPAVCIOCPBuffer@@@2@@?$allocator@U?$_Tree_node@U?$pair@$$CBIPAVCIOCPBuffer@@@std@@PAX@std@@@std@@QAEXPAU?$pair@$$CBIPAVCIOCPBuffer@@@1@$$QAU?$pair@IPAVCIOCPBuffer@@@1@@Z 1000c890 f i IOCPS.obj
 0001:0000b8e0       ??$construct@U?$pair@$$CBGPAX@std@@ABUpiecewise_construct_t@2@V?$tuple@ABG@2@V?$tuple@$$V@2@@?$allocator_traits@V?$allocator@U?$_Tree_node@U?$pair@$$CBGPAX@std@@PAX@std@@@std@@@std@@SAXAAV?$allocator@U?$_Tree_node@U?$pair@$$CBGPAX@std@@PAX@std@@@1@PAU?$pair@$$CBGPAX@1@ABUpiecewise_construct_t@1@$$QAV?$tuple@ABG@1@$$QAV?$tuple@$$V@1@@Z 1000c8e0 f i IOCPS.obj
 0001:0000b920       ??$construct@U?$pair@$$CBIPAVCIOCPBuffer@@@std@@ABUpiecewise_construct_t@2@V?$tuple@ABI@2@V?$tuple@$$V@2@@?$allocator_traits@V?$allocator@U?$_Tree_node@U?$pair@$$CBIPAVCIOCPBuffer@@@std@@PAX@std@@@std@@@std@@SAXAAV?$allocator@U?$_Tree_node@U?$pair@$$CBIPAVCIOCPBuffer@@@std@@PAX@std@@@1@PAU?$pair@$$CBIPAVCIOCPBuffer@@@1@ABUpiecewise_construct_t@1@$$QAV?$tuple@ABI@1@$$QAV?$tuple@$$V@1@@Z 1000c920 f i IOCPS.obj
 0001:0000b920       ??$construct@U?$pair@$$CBIPAUClientContext@@@std@@ABUpiecewise_construct_t@2@V?$tuple@ABI@2@V?$tuple@$$V@2@@?$allocator_traits@V?$allocator@U?$_Tree_node@U?$pair@$$CBIPAUClientContext@@@std@@PAX@std@@@std@@@std@@SAXAAV?$allocator@U?$_Tree_node@U?$pair@$$CBIPAUClientContext@@@std@@PAX@std@@@1@PAU?$pair@$$CBIPAUClientContext@@@1@ABUpiecewise_construct_t@1@$$QAV?$tuple@ABI@1@$$QAV?$tuple@$$V@1@@Z 1000c920 f i IOCPS.obj
 0001:0000b960       ??$?0GPAXX$0A@@?$pair@$$CBGPAX@std@@QAE@$$QAU?$pair@GPAX@1@@Z 1000c960 f i IOCPS.obj
 0001:0000b9a0       ??$?0IPAVCIOCPBuffer@@X$0A@@?$pair@$$CBIPAVCIOCPBuffer@@@std@@QAE@$$QAU?$pair@IPAVCIOCPBuffer@@@1@@Z 1000c9a0 f i IOCPS.obj
 0001:0000b9e0       ??$construct@U?$pair@$$CBGPAX@std@@ABUpiecewise_construct_t@2@V?$tuple@ABG@2@V?$tuple@$$V@2@@?$allocator@U?$_Tree_node@U?$pair@$$CBGPAX@std@@PAX@std@@@std@@QAEXPAU?$pair@$$CBGPAX@1@ABUpiecewise_construct_t@1@$$QAV?$tuple@ABG@1@$$QAV?$tuple@$$V@1@@Z 1000c9e0 f i IOCPS.obj
 0001:0000baa0       ??$construct@U?$pair@$$CBIPAUClientContext@@@std@@ABUpiecewise_construct_t@2@V?$tuple@ABI@2@V?$tuple@$$V@2@@?$allocator@U?$_Tree_node@U?$pair@$$CBIPAUClientContext@@@std@@PAX@std@@@std@@QAEXPAU?$pair@$$CBIPAUClientContext@@@1@ABUpiecewise_construct_t@1@$$QAV?$tuple@ABI@1@$$QAV?$tuple@$$V@1@@Z 1000caa0 f i IOCPS.obj
 0001:0000baa0       ??$construct@U?$pair@$$CBIPAVCIOCPBuffer@@@std@@ABUpiecewise_construct_t@2@V?$tuple@ABI@2@V?$tuple@$$V@2@@?$allocator@U?$_Tree_node@U?$pair@$$CBIPAVCIOCPBuffer@@@std@@PAX@std@@@std@@QAEXPAU?$pair@$$CBIPAVCIOCPBuffer@@@1@ABUpiecewise_construct_t@1@$$QAV?$tuple@ABI@1@$$QAV?$tuple@$$V@1@@Z 1000caa0 f i IOCPS.obj
 0001:0000bb60       ??0?$tuple@ABG@std@@QAE@$$QAV01@@Z 1000cb60 f i IOCPS.obj
 0001:0000bb60       ??0?$tuple@ABI@std@@QAE@$$QAV01@@Z 1000cb60 f i IOCPS.obj
 0001:0000bb90       ??$?0ABG$$Z$$V@?$pair@$$CBGPAX@std@@QAE@Upiecewise_construct_t@1@V?$tuple@ABG@1@V?$tuple@$$V@1@@Z 1000cb90 f i IOCPS.obj
 0001:0000bbc0       ??$?0ABI$$Z$$V@?$pair@$$CBIPAUClientContext@@@std@@QAE@Upiecewise_construct_t@1@V?$tuple@ABI@1@V?$tuple@$$V@1@@Z 1000cbc0 f i IOCPS.obj
 0001:0000bbc0       ??$?0ABI$$Z$$V@?$pair@$$CBIPAVCIOCPBuffer@@@std@@QAE@Upiecewise_construct_t@1@V?$tuple@ABI@1@V?$tuple@$$V@1@@Z 1000cbc0 f i IOCPS.obj
 0001:0000bbf0       ??$?0V?$tuple@ABG@std@@V?$tuple@$$V@1@$0A@$$Z$S@?$pair@$$CBGPAX@std@@QAE@AAV?$tuple@ABG@1@AAV?$tuple@$$V@1@U?$integer_sequence@I$0A@@1@U?$integer_sequence@I$S@1@@Z 1000cbf0 f i IOCPS.obj
 0001:0000bc30       ??$?0V?$tuple@ABI@std@@V?$tuple@$$V@1@$0A@$$Z$S@?$pair@$$CBIPAVCIOCPBuffer@@@std@@QAE@AAV?$tuple@ABI@1@AAV?$tuple@$$V@1@U?$integer_sequence@I$0A@@1@U?$integer_sequence@I$S@1@@Z 1000cc30 f i IOCPS.obj
 0001:0000bc30       ??$?0V?$tuple@ABI@std@@V?$tuple@$$V@1@$0A@$$Z$S@?$pair@$$CBIPAUClientContext@@@std@@QAE@AAV?$tuple@ABI@1@AAV?$tuple@$$V@1@U?$integer_sequence@I$0A@@1@U?$integer_sequence@I$S@1@@Z 1000cc30 f i IOCPS.obj
 0001:0000bc70       ??$get@$0A@ABG@std@@YAABG$$QAV?$tuple@ABG@0@@Z 1000cc70 f i IOCPS.obj
 0001:0000bc70       ??$get@$0A@ABI@std@@YAABI$$QAV?$tuple@ABI@0@@Z 1000cc70 f i IOCPS.obj
 0001:0000bc90       ??3@YAXPAX0@Z              1000cc90 f i IOCPS.obj
 0001:0000bca0       ??0ITIOCP@@QAE@XZ          1000cca0 f   MyIOCP.obj
 0001:0000bd90       ??_EITIOCP@@UAEPAXI@Z      1000cd90 f i * CIL library *:* CIL module *
 0001:0000bd90       ??_GITIOCP@@UAEPAXI@Z      1000cd90 f i MyIOCP.obj
 0001:0000bdd0       ??1ITIOCP@@UAE@XZ          1000cdd0 f   MyIOCP.obj
 0001:0000be10       ?NotifyReceivedPackage@ITIOCP@@UAEXPAVCIOCPBuffer@@HPAUClientContext@@@Z 1000ce10 f   MyIOCP.obj
 0001:0000be40       ?ProcessJob@ITIOCP@@UAEXPAUJobItem@@PAVIOCPS@@@Z 1000ce40 f i MyIOCP.obj
 0001:0000be60       ?NotifyNewConnection@ITIOCP@@UAEXPAUClientContext@@@Z 1000ce60 f   MyIOCP.obj
 0001:0000bf10       ?NotifyDisconnectedClient@ITIOCP@@UAEXPAUClientContext@@@Z 1000cf10 f   MyIOCP.obj
 0001:0000c010       ?NotifyNewClientContext@ITIOCP@@UAEXPAUClientContext@@@Z 1000d010 f   MyIOCP.obj
 0001:0000c040       ?Packagetext@ITIOCP@@QAEXPAVCIOCPBuffer@@HPAUClientContext@@@Z 1000d040 f   MyIOCP.obj
 0001:0000c1d0       ?BuildPackageAndSend@ITIOCP@@QAEHPAUClientContext@@V?$basic_string@DU?$char_traits@D@std@@V?$allocator@D@2@@std@@@Z 1000d1d0 f   MyIOCP.obj
 0001:0000c310       ?Send@ITIOCP@@UAE_NIPADI@Z 1000d310 f   MyIOCP.obj
 0001:0000c380       ?CreateServerSocket@@YGPAVSocket@@XZ 1000d380 f   MyIOCP.obj
 0001:0000c3f0       ?ReleaseServerSocket@@YGXPAVSocket@@@Z 1000d3f0 f   MyIOCP.obj
 0001:0000c3f0       ?ReleaseClientSocket@@YGXPAVSocket@@@Z 1000d3f0 f   MyIOCP.obj
 0001:0000c430       ?CreateClientSocket@@YGPAVSocket@@XZ 1000d430 f   MyIOCP.obj
 0001:0000c4b0       ??0?$basic_string@DU?$char_traits@D@std@@V?$allocator@D@2@@std@@QAE@ABV01@@Z 1000d4b0 f i MyIOCP.obj
 0001:0000c540       ?select_on_container_copy_construction@?$_Wrap_alloc@V?$allocator@D@std@@@std@@QBE?AU12@U_Nil@2@@Z 1000d540 f i MyIOCP.obj
 0001:0000c570       ?select_on_container_copy_construction@?$allocator_traits@V?$allocator@D@std@@@std@@SA?AV?$allocator@D@2@ABV32@@Z 1000d570 f i MyIOCP.obj
 0001:0000c584       @__security_check_cookie@4 1000d584 f   MSVCRT:_secchk_.obj
 0001:0000c595       ??3@YAXPAXI@Z              1000d595 f   MSVCRT:delete_scalar_size.obj
 0001:0000c5a3       ??3@YAXPAX@Z               1000d5a3 f   MSVCRT:delete_scalar.obj
 0001:0000c5a8       ??2@YAPAXI@Z               1000d5a8 f   MSVCRT:new_scalar.obj
 0001:0000c5db       ??_Gtype_info@@UAEPAXI@Z   1000d5db f i MSVCRT:std_type_info_static.obj
 0001:0000c5db       ??_Etype_info@@UAEPAXI@Z   1000d5db f i MSVCRT:std_type_info_static.obj
 0001:0000c5fe       ??_V@YAXPAX@Z              1000d5fe f   MSVCRT:delete_array.obj
 0001:0000c90b       __DllMainCRTStartup@12     1000d90b f   MSVCRT:dll_dllmain.obj
 0001:0000c92e       ___raise_securityfailure   1000d92e f   MSVCRT:gs_report.obj
 0001:0000c956       ___report_gsfailure        1000d956 f   MSVCRT:gs_report.obj
 0001:0000ca51       ??0bad_alloc@std@@QAE@ABV01@@Z 1000da51 f i MSVCRT:throw_bad_alloc.obj
 0001:0000ca6c       ??0bad_alloc@std@@QAE@XZ   1000da6c f i MSVCRT:throw_bad_alloc.obj
 0001:0000ca84       ??0bad_array_new_length@std@@QAE@ABV01@@Z 1000da84 f i MSVCRT:throw_bad_alloc.obj
 0001:0000ca9f       ??0bad_array_new_length@std@@QAE@XZ 1000da9f f i MSVCRT:throw_bad_alloc.obj
 0001:0000cab7       ??0exception@std@@QAE@ABV01@@Z 1000dab7 f i MSVCRT:throw_bad_alloc.obj
 0001:0000cae3       ??1bad_array_new_length@std@@UAE@XZ 1000dae3 f i MSVCRT:throw_bad_alloc.obj
 0001:0000cae3       ??1bad_alloc@std@@UAE@XZ   1000dae3 f i MSVCRT:throw_bad_alloc.obj
 0001:0000caf4       ??_Gexception@std@@UAEPAXI@Z 1000daf4 f i MSVCRT:throw_bad_alloc.obj
 0001:0000caf4       ??_Gbad_array_new_length@std@@UAEPAXI@Z 1000daf4 f i MSVCRT:throw_bad_alloc.obj
 0001:0000caf4       ??_Gbad_alloc@std@@UAEPAXI@Z 1000daf4 f i MSVCRT:throw_bad_alloc.obj
 0001:0000caf4       ??_Ebad_array_new_length@std@@UAEPAXI@Z 1000daf4 f i MSVCRT:throw_bad_alloc.obj
 0001:0000caf4       ??_Ebad_alloc@std@@UAEPAXI@Z 1000daf4 f i MSVCRT:throw_bad_alloc.obj
 0001:0000caf4       ??_Eexception@std@@UAEPAXI@Z 1000daf4 f i MSVCRT:throw_bad_alloc.obj
 0001:0000cb21       ?__scrt_throw_std_bad_alloc@@YAXXZ 1000db21 f   MSVCRT:throw_bad_alloc.obj
 0001:0000cb3e       ?__scrt_throw_std_bad_array_new_length@@YAXXZ 1000db3e f   MSVCRT:throw_bad_alloc.obj
 0001:0000cb5b       ?what@exception@std@@UBEPBDXZ 1000db5b f i MSVCRT:throw_bad_alloc.obj
 0001:0000cbac       ___scrt_acquire_startup_lock 1000dbac f   MSVCRT:utility.obj
 0001:0000cbe1       ___scrt_dllmain_after_initialize_c 1000dbe1 f   MSVCRT:utility.obj
 0001:0000cc0c       ___scrt_dllmain_before_initialize_c 1000dc0c f   MSVCRT:utility.obj
 0001:0000cc1a       ___scrt_dllmain_crt_thread_attach 1000dc1a f   MSVCRT:utility.obj
 0001:0000cc39       ___scrt_dllmain_crt_thread_detach 1000dc39 f   MSVCRT:utility.obj
 0001:0000cc46       ___scrt_dllmain_exception_filter 1000dc46 f   MSVCRT:utility.obj
 0001:0000cc79       ___scrt_dllmain_uninitialize_c 1000dc79 f   MSVCRT:utility.obj
 0001:0000cc9c       ___scrt_dllmain_uninitialize_critical 1000dc9c f   MSVCRT:utility.obj
 0001:0000cca9       ___scrt_initialize_crt     1000dca9 f   MSVCRT:utility.obj
 0001:0000cce2       ___scrt_initialize_onexit_tables 1000dce2 f   MSVCRT:utility.obj
 0001:0000cd79       ___scrt_is_nonwritable_in_current_image 1000dd79 f   MSVCRT:utility.obj
 0001:0000ce03       ___scrt_release_startup_lock 1000de03 f   MSVCRT:utility.obj
 0001:0000ce20       ___scrt_uninitialize_crt   1000de20 f   MSVCRT:utility.obj
 0001:0000ce48       __onexit                   1000de48 f   MSVCRT:utility.obj
 0001:0000ce83       _atexit                    1000de83 f   MSVCRT:utility.obj
 0001:0000ce98       ___security_init_cookie    1000de98 f   MSVCRT:gs_support.obj
 0001:0000cf34       ?__scrt_initialize_type_info@@YAXXZ 1000df34 f   MSVCRT:tncleanup.obj
 0001:0000cf40       ?__scrt_uninitialize_type_info@@YAXXZ 1000df40 f   MSVCRT:tncleanup.obj
 0001:0000cf4c       ___local_stdio_printf_options 1000df4c f i MSVCRT:default_local_stdio_options.obj
 0001:0000cf52       ___local_stdio_scanf_options 1000df52 f i MSVCRT:default_local_stdio_options.obj
 0001:0000cf58       ___scrt_initialize_default_local_stdio_options 1000df58 f   MSVCRT:default_local_stdio_options.obj
 0001:0000cf75       ___scrt_get_dyn_tls_init_callback 1000df75 f   MSVCRT:dyn_tls_init.obj
 0001:0000cf7b       ___scrt_fastfail           1000df7b f   MSVCRT:utility_desktop.obj
 0001:0000d096       __RTC_Initialize           1000e096 f   MSVCRT:_initsect_.obj
 0001:0000d0c1       __RTC_Terminate            1000e0c1 f   MSVCRT:_initsect_.obj
 0001:0000d0ec       @_guard_check_icall@4      1000e0ec f i MSVCRT:checkcfg.obj
 0001:0000d100       __SEH_prolog4              1000e100 f   MSVCRT:_sehprolg4_.obj
 0001:0000d146       __SEH_epilog4              1000e146 f   MSVCRT:_sehprolg4_.obj
 0001:0000d15b       __except_handler4          1000e15b f   MSVCRT:_chandler4gs_.obj
 0001:0000d17e       ___isa_available_init      1000e17e f   MSVCRT:_cpu_disp_.obj
 0001:0000d318       __get_startup_argv_mode    1000e318 f   MSVCRT:argv_mode.obj
 0001:0000d31c       ___scrt_is_ucrt_dll_in_use 1000e31c f   MSVCRT:ucrt_detection.obj
 0001:0000d328       @_guard_check_icall_nop@4  1000e328 f i MSVCRT:guard_support.obj
 0001:0000d32a       __purecall                 1000e32a f   vcruntime:VCRUNTIME140.dll
 0001:0000d330       ___std_exception_copy      1000e330 f   vcruntime:VCRUNTIME140.dll
 0001:0000d336       ___std_exception_destroy   1000e336 f   vcruntime:VCRUNTIME140.dll
 0001:0000d33c       __CxxThrowException@8      1000e33c f   vcruntime:VCRUNTIME140.dll
 0001:0000d342       ___std_type_info_destroy_list 1000e342 f   vcruntime:VCRUNTIME140.dll
 0001:0000d348       _memset                    1000e348 f   vcruntime:VCRUNTIME140.dll
 0001:0000d34e       __except_handler4_common   1000e34e f   vcruntime:VCRUNTIME140.dll
 0001:0000d354       _free                      1000e354 f   ucrt:api-ms-win-crt-heap-l1-1-0.dll
 0001:0000d35a       __callnewh                 1000e35a f   ucrt:api-ms-win-crt-heap-l1-1-0.dll
 0001:0000d360       _malloc                    1000e360 f   ucrt:api-ms-win-crt-heap-l1-1-0.dll
 0001:0000d366       __initterm                 1000e366 f   ucrt:api-ms-win-crt-runtime-l1-1-0.dll
 0001:0000d36c       __initterm_e               1000e36c f   ucrt:api-ms-win-crt-runtime-l1-1-0.dll
 0001:0000d372       __seh_filter_dll           1000e372 f   ucrt:api-ms-win-crt-runtime-l1-1-0.dll
 0001:0000d378       __configure_narrow_argv    1000e378 f   ucrt:api-ms-win-crt-runtime-l1-1-0.dll
 0001:0000d37e       __initialize_narrow_environment 1000e37e f   ucrt:api-ms-win-crt-runtime-l1-1-0.dll
 0001:0000d384       __initialize_onexit_table  1000e384 f   ucrt:api-ms-win-crt-runtime-l1-1-0.dll
 0001:0000d38a       __register_onexit_function 1000e38a f   ucrt:api-ms-win-crt-runtime-l1-1-0.dll
 0001:0000d390       __execute_onexit_table     1000e390 f   ucrt:api-ms-win-crt-runtime-l1-1-0.dll
 0001:0000d396       __crt_atexit               1000e396 f   ucrt:api-ms-win-crt-runtime-l1-1-0.dll
 0001:0000d39c       __cexit                    1000e39c f   ucrt:api-ms-win-crt-runtime-l1-1-0.dll
 0001:0000d3a2       _IsProcessorFeaturePresent@4 1000e3a2 f   kernel32:KERNEL32.dll
 0001:0000d3a8       ___vcrt_thread_attach      1000e3a8 f   MSVCRT:ucrt_stubs.obj
 0001:0000d3a8       ___scrt_stub_for_acrt_initialize 1000e3a8 f   MSVCRT:ucrt_stubs.obj
 0001:0000d3a8       ___acrt_thread_attach      1000e3a8 f   MSVCRT:ucrt_stubs.obj
 0001:0000d3a8       ___scrt_stub_for_acrt_uninitialize_critical 1000e3a8 f   MSVCRT:ucrt_stubs.obj
 0001:0000d3a8       ___vcrt_initialize         1000e3a8 f   MSVCRT:ucrt_stubs.obj
 0001:0000d3a8       ___acrt_initialize         1000e3a8 f   MSVCRT:ucrt_stubs.obj
 0001:0000d3a8       ___scrt_stub_for_acrt_uninitialize 1000e3a8 f   MSVCRT:ucrt_stubs.obj
 0001:0000d3a8       ___acrt_thread_detach      1000e3a8 f   MSVCRT:ucrt_stubs.obj
 0001:0000d3a8       ___scrt_stub_for_acrt_thread_attach 1000e3a8 f   MSVCRT:ucrt_stubs.obj
 0001:0000d3a8       ___acrt_uninitialize       1000e3a8 f   MSVCRT:ucrt_stubs.obj
 0001:0000d3a8       ___scrt_stub_for_acrt_thread_detach 1000e3a8 f   MSVCRT:ucrt_stubs.obj
 0001:0000d3a8       ___vcrt_thread_detach      1000e3a8 f   MSVCRT:ucrt_stubs.obj
 0001:0000d3a8       ___vcrt_uninitialize_critical 1000e3a8 f   MSVCRT:ucrt_stubs.obj
 0001:0000d3a8       ___acrt_uninitialize_critical 1000e3a8 f   MSVCRT:ucrt_stubs.obj
 0001:0000d3a8       ___vcrt_uninitialize       1000e3a8 f   MSVCRT:ucrt_stubs.obj
 0001:0000d3ab       ___scrt_stub_for_is_c_termination_complete 1000e3ab f   MSVCRT:ucrt_stubs.obj
 0001:0000d3ab       __is_c_termination_complete 1000e3ab f   MSVCRT:ucrt_stubs.obj
 0001:0000d3b0       __chkstk                   1000e3b0 f   MSVCRT:chkstk.obj
 0001:0000d3b0       __alloca_probe             1000e3b0 f   MSVCRT:chkstk.obj
 0001:0000d3de       ___CxxFrameHandler3        1000e3de f   vcruntime:VCRUNTIME140.dll
 0001:0000d3e4       _memcpy                    1000e3e4 f   vcruntime:VCRUNTIME140.dll
 0002:00000000       __imp__Sleep@4             1000f000     kernel32:KERNEL32.dll
 0002:00000004       __imp__IsDebuggerPresent@0 1000f004     kernel32:KERNEL32.dll
 0002:00000008       __imp__InitializeSListHead@4 1000f008     kernel32:KERNEL32.dll
 0002:0000000c       __imp__GetSystemTimeAsFileTime@4 1000f00c     kernel32:KERNEL32.dll
 0002:00000010       __imp__GetCurrentProcessId@0 1000f010     kernel32:KERNEL32.dll
 0002:00000014       __imp__QueryPerformanceCounter@4 1000f014     kernel32:KERNEL32.dll
 0002:00000018       __imp__IsProcessorFeaturePresent@4 1000f018     kernel32:KERNEL32.dll
 0002:0000001c       __imp__TerminateProcess@8  1000f01c     kernel32:KERNEL32.dll
 0002:00000020       __imp__GetCurrentProcess@0 1000f020     kernel32:KERNEL32.dll
 0002:00000024       __imp__SetUnhandledExceptionFilter@4 1000f024     kernel32:KERNEL32.dll
 0002:00000028       __imp__UnhandledExceptionFilter@4 1000f028     kernel32:KERNEL32.dll
 0002:0000002c       __imp__GetCurrentThread@0  1000f02c     kernel32:KERNEL32.dll
 0002:00000030       __imp__SuspendThread@4     1000f030     kernel32:KERNEL32.dll
 0002:00000034       __imp__GetCurrentThreadId@0 1000f034     kernel32:KERNEL32.dll
 0002:00000038       __imp__PostQueuedCompletionStatus@16 1000f038     kernel32:KERNEL32.dll
 0002:0000003c       __imp__ResumeThread@4      1000f03c     kernel32:KERNEL32.dll
 0002:00000040       __imp__GetExitCodeThread@8 1000f040     kernel32:KERNEL32.dll
 0002:00000044       __imp__LocalFree@4         1000f044     kernel32:KERNEL32.dll
 0002:00000048       __imp__FormatMessageA@28   1000f048     kernel32:KERNEL32.dll
 0002:0000004c       __imp__CloseHandle@4       1000f04c     kernel32:KERNEL32.dll
 0002:00000050       __imp__LeaveCriticalSection@4 1000f050     kernel32:KERNEL32.dll
 0002:00000054       __imp__CancelIo@4          1000f054     kernel32:KERNEL32.dll
 0002:00000058       __imp__EnterCriticalSection@4 1000f058     kernel32:KERNEL32.dll
 0002:0000005c       __imp__CreateIoCompletionPort@16 1000f05c     kernel32:KERNEL32.dll
 0002:00000060       __imp__InitializeCriticalSection@4 1000f060     kernel32:KERNEL32.dll
 0002:00000064       __imp__GetQueuedCompletionStatus@20 1000f064     kernel32:KERNEL32.dll
 0002:00000068       __imp__GetLastError@0      1000f068     kernel32:KERNEL32.dll
 0002:0000006c       \177KERNEL32_NULL_THUNK_DATA 1000f06c     kernel32:KERNEL32.dll
 0002:00000070       __imp_?_Xlength_error@std@@YAXPBD@Z 1000f070     msvcprt:MSVCP140.dll
 0002:00000074       __imp_?_Xout_of_range@std@@YAXPBD@Z 1000f074     msvcprt:MSVCP140.dll
 0002:00000078       __imp_?_Xbad_alloc@std@@YAXXZ 1000f078     msvcprt:MSVCP140.dll
 0002:0000007c       \177MSVCP140_NULL_THUNK_DATA 1000f07c     msvcprt:MSVCP140.dll
 0002:00000080       __imp__memcpy              1000f080     vcruntime:VCRUNTIME140.dll
 0002:00000084       __imp__memmove             1000f084     vcruntime:VCRUNTIME140.dll
 0002:00000088       __imp___purecall           1000f088     vcruntime:VCRUNTIME140.dll
 0002:0000008c       __imp____std_exception_copy 1000f08c     vcruntime:VCRUNTIME140.dll
 0002:00000090       __imp____std_exception_destroy 1000f090     vcruntime:VCRUNTIME140.dll
 0002:00000094       __imp___CxxThrowException@8 1000f094     vcruntime:VCRUNTIME140.dll
 0002:00000098       __imp____std_type_info_destroy_list 1000f098     vcruntime:VCRUNTIME140.dll
 0002:0000009c       __imp__memset              1000f09c     vcruntime:VCRUNTIME140.dll
 0002:000000a0       __imp___except_handler4_common 1000f0a0     vcruntime:VCRUNTIME140.dll
 0002:000000a4       __imp____CxxFrameHandler3  1000f0a4     vcruntime:VCRUNTIME140.dll
 0002:000000a8       \177VCRUNTIME140_NULL_THUNK_DATA 1000f0a8     vcruntime:VCRUNTIME140.dll
 0002:000000ac       __imp__WSAStartup@8        1000f0ac     ws2_32:WS2_32.dll
 0002:000000b0       __imp__WSACleanup@0        1000f0b0     ws2_32:WS2_32.dll
 0002:000000b4       __imp__connect@12          1000f0b4     ws2_32:WS2_32.dll
 0002:000000b8       __imp__WSAIoctl@36         1000f0b8     ws2_32:WS2_32.dll
 0002:000000bc       __imp__inet_addr@4         1000f0bc     ws2_32:WS2_32.dll
 0002:000000c0       __imp__socket@12           1000f0c0     ws2_32:WS2_32.dll
 0002:000000c4       __imp__listen@8            1000f0c4     ws2_32:WS2_32.dll
 0002:000000c8       __imp__bind@12             1000f0c8     ws2_32:WS2_32.dll
 0002:000000cc       __imp__htons@4             1000f0cc     ws2_32:WS2_32.dll
 0002:000000d0       __imp__WSAEventSelect@12   1000f0d0     ws2_32:WS2_32.dll
 0002:000000d4       __imp__WSACreateEvent@0    1000f0d4     ws2_32:WS2_32.dll
 0002:000000d8       __imp__WSAEnumNetworkEvents@12 1000f0d8     ws2_32:WS2_32.dll
 0002:000000dc       __imp__WSAGetLastError@0   1000f0dc     ws2_32:WS2_32.dll
 0002:000000e0       __imp__WSAAccept@20        1000f0e0     ws2_32:WS2_32.dll
 0002:000000e4       __imp__closesocket@4       1000f0e4     ws2_32:WS2_32.dll
 0002:000000e8       __imp__setsockopt@20       1000f0e8     ws2_32:WS2_32.dll
 0002:000000ec       __imp__WSARecv@28          1000f0ec     ws2_32:WS2_32.dll
 0002:000000f0       __imp__WSASend@28          1000f0f0     ws2_32:WS2_32.dll
 0002:000000f4       __imp__getpeername@12      1000f0f4     ws2_32:WS2_32.dll
 0002:000000f8       __imp__inet_ntoa@4         1000f0f8     ws2_32:WS2_32.dll
 0002:000000fc       __imp__WSAWaitForMultipleEvents@20 1000f0fc     ws2_32:WS2_32.dll
 0002:00000100       __imp__WSACloseEvent@4     1000f100     ws2_32:WS2_32.dll
 0002:00000104       __imp__WSASocketA@24       1000f104     ws2_32:WS2_32.dll
 0002:00000108       \177WS2_32_NULL_THUNK_DATA 1000f108     ws2_32:WS2_32.dll
 0002:0000010c       __imp__free                1000f10c     ucrt:api-ms-win-crt-heap-l1-1-0.dll
 0002:00000110       __imp__malloc              1000f110     ucrt:api-ms-win-crt-heap-l1-1-0.dll
 0002:00000114       __imp___callnewh           1000f114     ucrt:api-ms-win-crt-heap-l1-1-0.dll
 0002:00000118       \177api-ms-win-crt-heap-l1-1-0_NULL_THUNK_DATA 1000f118     ucrt:api-ms-win-crt-heap-l1-1-0.dll
 0002:0000011c       __imp___cexit              1000f11c     ucrt:api-ms-win-crt-runtime-l1-1-0.dll
 0002:00000120       __imp___initialize_onexit_table 1000f120     ucrt:api-ms-win-crt-runtime-l1-1-0.dll
 0002:00000124       __imp___configure_narrow_argv 1000f124     ucrt:api-ms-win-crt-runtime-l1-1-0.dll
 0002:00000128       __imp___seh_filter_dll     1000f128     ucrt:api-ms-win-crt-runtime-l1-1-0.dll
 0002:0000012c       __imp___initterm_e         1000f12c     ucrt:api-ms-win-crt-runtime-l1-1-0.dll
 0002:00000130       __imp___initterm           1000f130     ucrt:api-ms-win-crt-runtime-l1-1-0.dll
 0002:00000134       __imp___crt_atexit         1000f134     ucrt:api-ms-win-crt-runtime-l1-1-0.dll
 0002:00000138       __imp___register_onexit_function 1000f138     ucrt:api-ms-win-crt-runtime-l1-1-0.dll
 0002:0000013c       __imp___execute_onexit_table 1000f13c     ucrt:api-ms-win-crt-runtime-l1-1-0.dll
 0002:00000140       __imp___beginthreadex      1000f140     ucrt:api-ms-win-crt-runtime-l1-1-0.dll
 0002:00000144       __imp___invalid_parameter_noinfo_noreturn 1000f144     ucrt:api-ms-win-crt-runtime-l1-1-0.dll
 0002:00000148       __imp___initialize_narrow_environment 1000f148     ucrt:api-ms-win-crt-runtime-l1-1-0.dll
 0002:0000014c       \177api-ms-win-crt-runtime-l1-1-0_NULL_THUNK_DATA 1000f14c     ucrt:api-ms-win-crt-runtime-l1-1-0.dll
 0002:00000150       __imp_?trace@log@stl@@YA_NIIPBDZZ 1000f150     xlogger:xLogger.dll
 0002:00000154       \177xLogger_NULL_THUNK_DATA 1000f154     xlogger:xLogger.dll
 0002:00000158       ___guard_check_icall_fptr  1000f158     MSVCRT:guard_support.obj
 0002:0000015c       ___xc_a                    1000f15c     MSVCRT:initializers.obj
 0002:00000160       ___xc_z                    1000f160     MSVCRT:initializers.obj
 0002:00000164       ___xi_a                    1000f164     MSVCRT:initializers.obj
 0002:00000168       ___xi_z                    1000f168     MSVCRT:initializers.obj
 0002:0000016c       ___xp_a                    1000f16c     MSVCRT:initializers.obj
 0002:00000170       ___xp_z                    1000f170     MSVCRT:initializers.obj
 0002:00000174       ___xt_a                    1000f174     MSVCRT:initializers.obj
 0002:00000178       ___xt_z                    1000f178     MSVCRT:initializers.obj
 0002:00000184       ??_7type_info@@6B@         1000f184     MSVCRT:std_type_info_static.obj
 0002:00000188       __pDefaultRawDllMain       1000f188     MSVCRT:dll_dllmain.obj
 0002:00000188       __pRawDllMain              1000f188     MSVCRT:dll_dllmain.obj
 0002:00000198       ??_7exception@std@@6B@     1000f198     MSVCRT:throw_bad_alloc.obj
 0002:000001a0       ??_C@_0BC@EOODALEL@Unknown?5exception?$AA@ 1000f1a0     MSVCRT:throw_bad_alloc.obj
 0002:000001b8       ??_7bad_alloc@std@@6B@     1000f1b8     MSVCRT:throw_bad_alloc.obj
 0002:000001c0       ??_C@_0P@GHFPNOJB@bad?5allocation?$AA@ 1000f1c0     MSVCRT:throw_bad_alloc.obj
 0002:000001d4       ??_7bad_array_new_length@std@@6B@ 1000f1d4     MSVCRT:throw_bad_alloc.obj
 0002:000001dc       ??_C@_0BF@KINCDENJ@bad?5array?5new?5length?$AA@ 1000f1dc     MSVCRT:throw_bad_alloc.obj
 0002:000001f4       ??_C@_0BA@JFNIOLAK@string?5too?5long?$AA@ 1000f1f4     IOCPBuffer.obj
 0002:00000204       ??_C@_0BI@CFPLBAOH@invalid?5string?5position?$AA@ 1000f204     IOCPBuffer.obj
 0002:00000220       ??_7CIOCPBuffer@@6B@       1000f220     IOCPBuffer.obj
 0002:00000d84       ??_C@_0DK@JKLDGEEE@IOCPS?3?3AssociateIncomingClientWi@ 1000fd84     IOCPS.obj
 0002:00000dc0       ??_C@_0EC@IBBCBBBC@IOCPS?3?3AssociateIncomingClientWi@ 1000fdc0     IOCPS.obj
 0002:00000e04       ??_C@_0DG@IICBDPN@IOCPS?3?3AssociateIncomingClientWi@ 1000fe04     IOCPS.obj
 0002:00000e40       ??_C@_0EN@KGMPOPED@IOCPS?3?3AssociateIncomingClientWi@ 1000fe40     IOCPS.obj
 0002:00000e90       ??_C@_0EF@PIEIDDNN@IOCPS?3?3AssociateIncomingClientWi@ 1000fe90     IOCPS.obj
 0002:00000ed8       ??_C@_0FG@FCDBBCAK@IOCPS?3?3AssociateIncomingClientWi@ 1000fed8     IOCPS.obj
 0002:00000f30       ??_C@_0GP@DCLBJJC@IOCPS?3?3AssociateIncomingClientWi@ 1000ff30     IOCPS.obj
 0002:00000fa0       ??_C@_0EG@MKGJMCHD@IOCPS?3?3AddClientContext?0?5Dublica@ 1000ffa0     IOCPS.obj
 0002:00000fe8       ??_C@_0CM@DLCDIFH@IOCPS?3?3FreeClientContext?0?5Remove@ 1000ffe8     IOCPS.obj
 0002:00001014       ??_C@_0DN@HMFHOJGG@IOCPS?3?3OnRead?0?5FAILED?5TO?5Allocat@ 10010014     IOCPS.obj
 0002:00001054       ??_C@_0DO@CEONKNBF@IOCPS?3?3OnRead?0?5Disconnect?5in?5Onr@ 10010054     IOCPS.obj
 0002:00001098       ??_C@_0EC@OJKNMBGO@IOCPS?3?3OnPostedPackage?0?5FATAL?5ER@ 10010098     IOCPS.obj
 0002:000010e0       ??_C@_0GJ@KCMICFDJ@IOCPS?3?3OnReadCompleted?0?5Disconne@ 100100e0     IOCPS.obj
 0002:0000114c       ??_C@_0CH@JMDALFJJ@IOCPS?3?3OnWrite?0?5Error?5in?5OnWrite@ 1001014c     IOCPS.obj
 0002:00001178       ??_C@_0EO@FOEKPNJI@IOCPS?3?3OnZeroByteRead?0?5FAILED?5TO@ 10010178     IOCPS.obj
 0002:000011c8       ??_C@_0EM@BMIEJJAC@IOCPS?3?3OnZeroByteRead?0?5Disconnec@ 100101c8     IOCPS.obj
 0002:00001218       ??_C@_0EM@JOBADMDG@IOCPS?3?3AZeroByteRead?0?5Disconnect@ 10010218     IOCPS.obj
 0002:00001268       ??_C@_0FN@DFIBHBPE@IOCPS?3?3CreateCompletionPort?0?5Err@ 10010268     IOCPS.obj
 0002:000012c8       ??_C@_0DP@CCLDJPFK@IOCPS?3?3CreateCompletionPort?0?5Cre@ 100102c8     IOCPS.obj
 0002:00001308       ??_C@_0DM@NOOPPKFE@IOCPS?3?3GetNextReadBuffer?0?5ERROR?5@ 10010308     IOCPS.obj
 0002:00001348       ??_C@_0EG@HFGHIHDK@IOCPS?3?3MakeOrderdRead?0?5Disconnec@ 10010348     IOCPS.obj
 0002:00001390       ??_C@_0BB@MOGOBHAF@list?$DMT?$DO?5too?5long?$AA@ 10010390     IOCPS.obj
 0002:000013a4       ??_C@_0BE@JONHPENG@map?1set?$DMT?$DO?5too?5long?$AA@ 100103a4     IOCPS.obj
 0002:000013bc       ??_7IOCPS@@6B@             100103bc     IOCPS.obj
 0002:00001404       ??_7Socket@@6B@            10010404     IOCPS.obj
 0002:00001424       ?npos@?$basic_string@DU?$char_traits@D@std@@V?$allocator@D@2@@std@@2IB 10010424     MyIOCP.obj
 0002:0000142c       ??_7ITIOCP@@6B@            1001042c     MyIOCP.obj
 0002:000014e0       __load_config_used         100104e0     MSVCRT:loadcfg.obj
 0002:0000153c       ??_R4type_info@@6B@        1001053c     MSVCRT:std_type_info_static.obj
 0002:00001550       ??_R3type_info@@8          10010550     MSVCRT:std_type_info_static.obj
 0002:00001560       ??_R2type_info@@8          10010560     MSVCRT:std_type_info_static.obj
 0002:00001568       ??_R1A@?0A@EA@type_info@@8 10010568     MSVCRT:std_type_info_static.obj
 0002:00001584       ??_R4exception@std@@6B@    10010584     MSVCRT:throw_bad_alloc.obj
 0002:00001598       ??_R3exception@std@@8      10010598     MSVCRT:throw_bad_alloc.obj
 0002:000015a8       ??_R2exception@std@@8      100105a8     MSVCRT:throw_bad_alloc.obj
 0002:000015b0       ??_R1A@?0A@EA@exception@std@@8 100105b0     MSVCRT:throw_bad_alloc.obj
 0002:000015cc       ??_R4bad_alloc@std@@6B@    100105cc     MSVCRT:throw_bad_alloc.obj
 0002:000015e0       ??_R3bad_alloc@std@@8      100105e0     MSVCRT:throw_bad_alloc.obj
 0002:000015f0       ??_R2bad_alloc@std@@8      100105f0     MSVCRT:throw_bad_alloc.obj
 0002:000015fc       ??_R1A@?0A@EA@bad_alloc@std@@8 100105fc     MSVCRT:throw_bad_alloc.obj
 0002:00001618       ??_R4bad_array_new_length@std@@6B@ 10010618     MSVCRT:throw_bad_alloc.obj
 0002:0000162c       ??_R3bad_array_new_length@std@@8 1001062c     MSVCRT:throw_bad_alloc.obj
 0002:0000163c       ??_R2bad_array_new_length@std@@8 1001063c     MSVCRT:throw_bad_alloc.obj
 0002:0000164c       ??_R1A@?0A@EA@bad_array_new_length@std@@8 1001064c     MSVCRT:throw_bad_alloc.obj
 0002:00001668       ??_R2CIOCPBuffer@@8        10010668     IOCPBuffer.obj
 0002:00001670       ??_R1A@?0A@EA@CIOCPBuffer@@8 10010670     IOCPBuffer.obj
 0002:0000168c       ??_R3CIOCPBuffer@@8        1001068c     IOCPBuffer.obj
 0002:0000169c       ??_R4CIOCPBuffer@@6B@      1001069c     IOCPBuffer.obj
 0002:000016b0       ??_R2IOCPS@@8              100106b0     IOCPS.obj
 0002:000016bc       ??_R2Socket@@8             100106bc     IOCPS.obj
 0002:000016c4       ??_R1A@?0A@EA@IOCPS@@8     100106c4     IOCPS.obj
 0002:000016e0       ??_R1A@?0A@EA@Socket@@8    100106e0     IOCPS.obj
 0002:000016fc       ??_R3IOCPS@@8              100106fc     IOCPS.obj
 0002:0000170c       ??_R3Socket@@8             1001070c     IOCPS.obj
 0002:0000171c       ??_R4IOCPS@@6B@            1001071c     IOCPS.obj
 0002:00001730       ??_R4Socket@@6B@           10010730     IOCPS.obj
 0002:00001744       ??_R2ITIOCP@@8             10010744     MyIOCP.obj
 0002:00001754       ??_R1A@?0A@EA@ITIOCP@@8    10010754     MyIOCP.obj
 0002:00001770       ??_R3ITIOCP@@8             10010770     MyIOCP.obj
 0002:00001780       ??_R4ITIOCP@@6B@           10010780     MyIOCP.obj
 0002:000017a0       ___safe_se_handler_table   100107a0     <linker-defined>
 0002:00001b18       ___rtc_iaa                 10010b18     MSVCRT:_initsect_.obj
 0002:00001b1c       ___rtc_izz                 10010b1c     MSVCRT:_initsect_.obj
 0002:00001b20       ___rtc_taa                 10010b20     MSVCRT:_initsect_.obj
 0002:00001b24       ___rtc_tzz                 10010b24     MSVCRT:_initsect_.obj
 0002:00002554       __TI2?AVbad_alloc@std@@    10011554     MSVCRT:throw_bad_alloc.obj
 0002:00002564       __CTA2?AVbad_alloc@std@@   10011564     MSVCRT:throw_bad_alloc.obj
 0002:00002570       __CT??_R0?AVbad_alloc@std@@@8??0bad_alloc@std@@QAE@ABV01@@Z12 10011570     MSVCRT:throw_bad_alloc.obj
 0002:0000258c       __CT??_R0?AVexception@std@@@8??0exception@std@@QAE@ABV01@@Z12 1001158c     MSVCRT:throw_bad_alloc.obj
 0002:000025a8       __TI3?AVbad_array_new_length@std@@ 100115a8     MSVCRT:throw_bad_alloc.obj
 0002:000025b8       __CTA3?AVbad_array_new_length@std@@ 100115b8     MSVCRT:throw_bad_alloc.obj
 0002:000025c8       __CT??_R0?AVbad_array_new_length@std@@@8??0bad_array_new_length@std@@QAE@ABV01@@Z12 100115c8     MSVCRT:throw_bad_alloc.obj
 0002:00002708       __IMPORT_DESCRIPTOR_WS2_32 10011708     ws2_32:WS2_32.dll
 0002:0000271c       __IMPORT_DESCRIPTOR_xLogger 1001171c     xlogger:xLogger.dll
 0002:00002730       __IMPORT_DESCRIPTOR_KERNEL32 10011730     kernel32:KERNEL32.dll
 0002:00002744       __IMPORT_DESCRIPTOR_MSVCP140 10011744     msvcprt:MSVCP140.dll
 0002:00002758       __IMPORT_DESCRIPTOR_VCRUNTIME140 10011758     vcruntime:VCRUNTIME140.dll
 0002:0000276c       __IMPORT_DESCRIPTOR_api-ms-win-crt-runtime-l1-1-0 1001176c     ucrt:api-ms-win-crt-runtime-l1-1-0.dll
 0002:00002780       __IMPORT_DESCRIPTOR_api-ms-win-crt-heap-l1-1-0 10011780     ucrt:api-ms-win-crt-heap-l1-1-0.dll
 0002:00002794       __NULL_IMPORT_DESCRIPTOR   10011794     ws2_32:WS2_32.dll
 0003:00000000       ___security_cookie_complement 10012000     MSVCRT:gs_cookie.obj
 0003:00000004       ___security_cookie         10012004     MSVCRT:gs_cookie.obj
 0003:00000008       ___scrt_native_dllmain_reason 10012008     MSVCRT:utility.obj
 0003:00000010       ___isa_enabled             10012010     MSVCRT:_cpu_disp_.obj
 0003:00000014       ___scrt_ucrt_dll_is_in_use 10012014     MSVCRT:ucrt_stubs.obj
 0003:00000020       ??_R0?AVtype_info@@@8      10012020     MSVCRT:std_type_info_static.obj
 0003:00000038       ??_R0?AVbad_alloc@std@@@8  10012038     MSVCRT:throw_bad_alloc.obj
 0003:00000054       ??_R0?AVexception@std@@@8  10012054     MSVCRT:throw_bad_alloc.obj
 0003:00000070       ??_R0?AVbad_array_new_length@std@@@8 10012070     MSVCRT:throw_bad_alloc.obj
 0003:00000098       ??_R0?AVCIOCPBuffer@@@8    10012098     IOCPBuffer.obj
 0003:000000b4       ??_R0?AVIOCPS@@@8          100120b4     IOCPS.obj
 0003:000000c8       ??_R0?AVSocket@@@8         100120c8     IOCPS.obj
 0003:000000e0       ??_R0?AVITIOCP@@@8         100120e0     MyIOCP.obj
 0003:0000041c       ___scrt_current_native_startup_state 1001241c     MSVCRT:utility.obj
 0003:00000420       ___scrt_native_startup_lock 10012420     MSVCRT:utility.obj
 0003:00000440       ?__type_info_root_node@@3U__type_info_node@@A 10012440     MSVCRT:tncleanup.obj
 0003:00000448       ?_OptionsStorage@?1??__local_stdio_printf_options@@9@4_KA 10012448     MSVCRT:default_local_stdio_options.obj
 0003:00000450       ?_OptionsStorage@?1??__local_stdio_scanf_options@@9@4_KA 10012450     MSVCRT:default_local_stdio_options.obj
 0003:00000458       ___scrt_debugger_hook_flag 10012458     MSVCRT:utility_desktop.obj
 0003:0000045c       ___isa_available           1001245c     MSVCRT:_cpu_disp_.obj
 0003:00000460       ___favor                   10012460     MSVCRT:_cpu_disp_.obj
 0003:00000464       ___@@_PchSym_@00@UwvevolknvmgUvcxszmtvUdnwvUhixUhlxpvglowUyrmUivovzhvUhgwzucOlyq@9F656321C305D1A2 10012464     stdafx.obj
 0003:00000468       ___dyn_tls_init_callback   10012468     <common>

 entry point at        0001:0000c90b

 Static symbols

 0000:fffea000       .debug$S                   10000000     ucrt:api-ms-win-crt-runtime-l1-1-0.dll
 0000:fffea000       .debug$S                   10000000     ws2_32:WS2_32.dll
 0000:fffea000       .debug$S                   10000000     ws2_32:WS2_32.dll
 0000:fffea000       .debug$S                   10000000     ws2_32:WS2_32.dll
 0000:fffea000       .debug$S                   10000000     ws2_32:WS2_32.dll
 0000:fffea000       .debug$S                   10000000     ws2_32:WS2_32.dll
 0000:fffea000       .debug$S                   10000000     ws2_32:WS2_32.dll
 0000:fffea000       .debug$S                   10000000     ws2_32:WS2_32.dll
 0000:fffea000       .debug$S                   10000000     ws2_32:WS2_32.dll
 0000:fffea000       .debug$S                   10000000     ws2_32:WS2_32.dll
 0000:fffea000       .debug$S                   10000000     ws2_32:WS2_32.dll
 0000:fffea000       .debug$S                   10000000     ws2_32:WS2_32.dll
 0000:fffea000       .debug$S                   10000000     ws2_32:WS2_32.dll
 0000:fffea000       .debug$S                   10000000     SocketOld.exp
 0000:fffea000       .debug$S                   10000000     ws2_32:WS2_32.dll
 0000:fffea000       .debug$S                   10000000     ws2_32:WS2_32.dll
 0000:fffea000       .debug$S                   10000000     ws2_32:WS2_32.dll
 0000:fffea000       .debug$S                   10000000     ws2_32:WS2_32.dll
 0000:fffea000       .debug$S                   10000000     ws2_32:WS2_32.dll
 0000:fffea000       .debug$S                   10000000     ws2_32:WS2_32.dll
 0000:fffea000       .debug$S                   10000000     ws2_32:WS2_32.dll
 0000:fffea000       .debug$S                   10000000     ws2_32:WS2_32.dll
 0000:fffea000       .debug$S                   10000000     ws2_32:WS2_32.dll
 0000:fffea000       .debug$S                   10000000     ws2_32:WS2_32.dll
 0000:fffea000       .debug$S                   10000000     ws2_32:WS2_32.dll
 0000:fffea000       .debug$S                   10000000     xlogger:xLogger.dll
 0000:fffea000       .debug$S                   10000000     kernel32:KERNEL32.dll
 0000:fffea000       .debug$S                   10000000     kernel32:KERNEL32.dll
 0000:fffea000       .debug$S                   10000000     kernel32:KERNEL32.dll
 0000:fffea000       .debug$S                   10000000     kernel32:KERNEL32.dll
 0000:fffea000       .debug$S                   10000000     kernel32:KERNEL32.dll
 0000:fffea000       .debug$S                   10000000     kernel32:KERNEL32.dll
 0000:fffea000       .debug$S                   10000000     kernel32:KERNEL32.dll
 0000:fffea000       .debug$S                   10000000     kernel32:KERNEL32.dll
 0000:fffea000       .debug$S                   10000000     kernel32:KERNEL32.dll
 0000:fffea000       .debug$S                   10000000     kernel32:KERNEL32.dll
 0000:fffea000       .debug$S                   10000000     kernel32:KERNEL32.dll
 0000:fffea000       .debug$S                   10000000     kernel32:KERNEL32.dll
 0000:fffea000       .debug$S                   10000000     kernel32:KERNEL32.dll
 0000:fffea000       .debug$S                   10000000     kernel32:KERNEL32.dll
 0000:fffea000       .debug$S                   10000000     kernel32:KERNEL32.dll
 0000:fffea000       .debug$S                   10000000     kernel32:KERNEL32.dll
 0000:fffea000       .debug$S                   10000000     kernel32:KERNEL32.dll
 0000:fffea000       .debug$S                   10000000     kernel32:KERNEL32.dll
 0000:fffea000       .debug$S                   10000000     kernel32:KERNEL32.dll
 0000:fffea000       .debug$S                   10000000     kernel32:KERNEL32.dll
 0000:fffea000       .debug$S                   10000000     kernel32:KERNEL32.dll
 0000:fffea000       .debug$S                   10000000     kernel32:KERNEL32.dll
 0000:fffea000       .debug$S                   10000000     kernel32:KERNEL32.dll
 0000:fffea000       .debug$S                   10000000     kernel32:KERNEL32.dll
 0000:fffea000       .debug$S                   10000000     kernel32:KERNEL32.dll
 0000:fffea000       .debug$S                   10000000     kernel32:KERNEL32.dll
 0000:fffea000       .debug$S                   10000000     kernel32:KERNEL32.dll
 0000:fffea000       .debug$S                   10000000     kernel32:KERNEL32.dll
 0000:fffea000       .debug$S                   10000000     kernel32:KERNEL32.dll
 0000:fffea000       .debug$S                   10000000     msvcprt:MSVCP140.dll
 0000:fffea000       .debug$S                   10000000     msvcprt:MSVCP140.dll
 0000:fffea000       .debug$S                   10000000     msvcprt:MSVCP140.dll
 0000:fffea000       .debug$S                   10000000     vcruntime:VCRUNTIME140.dll
 0000:fffea000       .debug$S                   10000000     vcruntime:VCRUNTIME140.dll
 0000:fffea000       .debug$S                   10000000     vcruntime:VCRUNTIME140.dll
 0000:fffea000       .debug$S                   10000000     vcruntime:VCRUNTIME140.dll
 0000:fffea000       .debug$S                   10000000     vcruntime:VCRUNTIME140.dll
 0000:fffea000       .debug$S                   10000000     vcruntime:VCRUNTIME140.dll
 0000:fffea000       .debug$S                   10000000     vcruntime:VCRUNTIME140.dll
 0000:fffea000       .debug$S                   10000000     vcruntime:VCRUNTIME140.dll
 0000:fffea000       .debug$S                   10000000     vcruntime:VCRUNTIME140.dll
 0000:fffea000       .debug$S                   10000000     vcruntime:VCRUNTIME140.dll
 0000:fffea000       .debug$S                   10000000     vcruntime:VCRUNTIME140.dll
 0000:fffea000       .debug$S                   10000000     ucrt:api-ms-win-crt-runtime-l1-1-0.dll
 0000:fffea000       .debug$S                   10000000     ucrt:api-ms-win-crt-runtime-l1-1-0.dll
 0000:fffea000       .debug$S                   10000000     ucrt:api-ms-win-crt-runtime-l1-1-0.dll
 0000:fffea000       .debug$S                   10000000     ucrt:api-ms-win-crt-runtime-l1-1-0.dll
 0000:fffea000       .debug$S                   10000000     ucrt:api-ms-win-crt-runtime-l1-1-0.dll
 0000:fffea000       .debug$S                   10000000     ucrt:api-ms-win-crt-runtime-l1-1-0.dll
 0000:fffea000       .debug$S                   10000000     ucrt:api-ms-win-crt-runtime-l1-1-0.dll
 0000:fffea000       .debug$S                   10000000     ucrt:api-ms-win-crt-runtime-l1-1-0.dll
 0000:fffea000       .debug$S                   10000000     ucrt:api-ms-win-crt-runtime-l1-1-0.dll
 0000:fffea000       .debug$S                   10000000     ucrt:api-ms-win-crt-runtime-l1-1-0.dll
 0000:fffea000       .debug$S                   10000000     ucrt:api-ms-win-crt-runtime-l1-1-0.dll
 0000:fffea000       .debug$S                   10000000     ws2_32:WS2_32.dll
 0000:fffea000       .debug$S                   10000000     ucrt:api-ms-win-crt-runtime-l1-1-0.dll
 0000:fffea000       .debug$S                   10000000     ucrt:api-ms-win-crt-runtime-l1-1-0.dll
 0000:fffea000       .debug$S                   10000000     ucrt:api-ms-win-crt-heap-l1-1-0.dll
 0000:fffea000       .debug$S                   10000000     ucrt:api-ms-win-crt-heap-l1-1-0.dll
 0000:fffea000       .debug$S                   10000000     ucrt:api-ms-win-crt-heap-l1-1-0.dll
 0001:00000d6f       __catch$?_Copy@?$basic_string@DU?$char_traits@D@std@@V?$allocator@D@2@@std@@QAEXII@Z$0 10001d6f f i IOCPBuffer.obj
 0001:00000d9d       __catch$?_Copy@?$basic_string@DU?$char_traits@D@std@@V?$allocator@D@2@@std@@QAEXII@Z$1 10001d9d f i IOCPBuffer.obj
 0001:00002790       $LN15                      10003790     IOCPS.obj
 0001:000040dc       $LN28                      100050dc     IOCPS.obj
 0001:00004120       $LN26                      10005120     IOCPS.obj
 0001:00008359       __catch$?_Buyheadnode@?$_Tree_comp_alloc@V?$_Tmap_traits@GPAXU?$less@G@std@@V?$allocator@U?$pair@$$CBGPAX@std@@@2@$0A@@std@@@std@@QAEPAU?$_Tree_node@U?$pair@$$CBGPAX@std@@PAX@2@XZ$0 10009359 f i IOCPS.obj
 0001:00008359       __catch$?_Buyheadnode@?$_Tree_comp_alloc@V?$_Tmap_traits@IPAVCIOCPBuffer@@U?$less@I@std@@V?$allocator@U?$pair@$$CBIPAVCIOCPBuffer@@@std@@@3@$0A@@std@@@std@@QAEPAU?$_Tree_node@U?$pair@$$CBIPAVCIOCPBuffer@@@std@@PAX@2@XZ$0 10009359 f i IOCPS.obj
 0001:00008359       __catch$?_Buyheadnode@?$_Tree_comp_alloc@V?$_Tmap_traits@IPAUClientContext@@U?$less@I@std@@V?$allocator@U?$pair@$$CBIPAUClientContext@@@std@@@3@$0A@@std@@@std@@QAEPAU?$_Tree_node@U?$pair@$$CBIPAUClientContext@@@std@@PAX@2@XZ$0 10009359 f i IOCPS.obj
 0001:0000847c       __catch$?_Buynode0@?$_List_alloc@U?$_List_base_types@PAVCIOCPBuffer@@V?$allocator@PAVCIOCPBuffer@@@std@@@std@@@std@@QAEPAU?$_List_node@PAVCIOCPBuffer@@PAX@2@PAU32@0@Z$0 1000947c f i IOCPS.obj
 0001:0000847c       __catch$?_Buynode0@?$_List_alloc@U?$_List_base_types@PAUJobItem@@V?$allocator@PAUJobItem@@@std@@@std@@@std@@QAEPAU?$_List_node@PAUJobItem@@PAX@2@PAU32@0@Z$0 1000947c f i IOCPS.obj
 0001:0000847c       __catch$?_Buynode0@?$_List_alloc@U?$_List_base_types@PAUClientContext@@V?$allocator@PAUClientContext@@@std@@@std@@@std@@QAEPAU?$_List_node@PAUClientContext@@PAX@2@PAU32@0@Z$0 1000947c f i IOCPS.obj
 0001:0000847c       __catch$?_Buynode0@?$_List_alloc@U?$_List_base_types@PAXV?$allocator@PAX@std@@@std@@@std@@QAEPAU?$_List_node@PAXPAX@2@PAU32@0@Z$0 1000947c f i IOCPS.obj
 0001:00008be3       __catch$??$_Buynode@ABQAVCIOCPBuffer@@@?$_List_buy@PAVCIOCPBuffer@@V?$allocator@PAVCIOCPBuffer@@@std@@@std@@QAEPAU?$_List_node@PAVCIOCPBuffer@@PAX@1@PAU21@0ABQAVCIOCPBuffer@@@Z$0 10009be3 f i IOCPS.obj
 0001:00008be3       __catch$??$_Buynode@ABQAUClientContext@@@?$_List_buy@PAUClientContext@@V?$allocator@PAUClientContext@@@std@@@std@@QAEPAU?$_List_node@PAUClientContext@@PAX@1@PAU21@0ABQAUClientContext@@@Z$0 10009be3 f i IOCPS.obj
 0001:00008be3       __catch$??$_Buynode@ABQAX@?$_List_buy@PAXV?$allocator@PAX@std@@@std@@QAEPAU?$_List_node@PAXPAX@1@PAU21@0ABQAX@Z$0 10009be3 f i IOCPS.obj
 0001:00008e79       __catch$??$_Buynode@U?$pair@GPAX@std@@@?$_Tree_comp_alloc@V?$_Tmap_traits@GPAXU?$less@G@std@@V?$allocator@U?$pair@$$CBGPAX@std@@@2@$0A@@std@@@std@@QAEPAU?$_Tree_node@U?$pair@$$CBGPAX@std@@PAX@1@$$QAU?$pair@GPAX@1@@Z$0 10009e79 f i IOCPS.obj
 0001:000091ad       __catch$??$_Insert_nohint@AAU?$pair@$$CBGPAX@std@@PAU?$_Tree_node@U?$pair@$$CBGPAX@std@@PAX@2@@?$_Tree@V?$_Tmap_traits@GPAXU?$less@G@std@@V?$allocator@U?$pair@$$CBGPAX@std@@@2@$0A@@std@@@std@@IAE?AU?$pair@V?$_Tree_iterator@V?$_Tree_val@U?$_Tree_simple_types@U?$pair@$$CBGPAX@std@@@std@@@std@@@std@@_N@1@_NAAU?$pair@$$CBGPAX@1@PAU?$_Tree_node@U?$pair@$$CBGPAX@std@@PAX@1@@Z$0 1000a1ad f i IOCPS.obj
 0001:00009289       __catch$??$_Buynode@U?$pair@IPAVCIOCPBuffer@@@std@@@?$_Tree_comp_alloc@V?$_Tmap_traits@IPAVCIOCPBuffer@@U?$less@I@std@@V?$allocator@U?$pair@$$CBIPAVCIOCPBuffer@@@std@@@3@$0A@@std@@@std@@QAEPAU?$_Tree_node@U?$pair@$$CBIPAVCIOCPBuffer@@@std@@PAX@1@$$QAU?$pair@IPAVCIOCPBuffer@@@1@@Z$0 1000a289 f i IOCPS.obj
 0001:000095bd       __catch$??$_Insert_nohint@AAU?$pair@$$CBIPAVCIOCPBuffer@@@std@@PAU?$_Tree_node@U?$pair@$$CBIPAVCIOCPBuffer@@@std@@PAX@2@@?$_Tree@V?$_Tmap_traits@IPAVCIOCPBuffer@@U?$less@I@std@@V?$allocator@U?$pair@$$CBIPAVCIOCPBuffer@@@std@@@3@$0A@@std@@@std@@IAE?AU?$pair@V?$_Tree_iterator@V?$_Tree_val@U?$_Tree_simple_types@U?$pair@$$CBIPAVCIOCPBuffer@@@std@@@std@@@std@@@std@@_N@1@_NAAU?$pair@$$CBIPAVCIOCPBuffer@@@1@PAU?$_Tree_node@U?$pair@$$CBIPAVCIOCPBuffer@@@std@@PAX@1@@Z$0 1000a5bd f i IOCPS.obj
 0001:000095bd       __catch$??$_Insert_nohint@AAU?$pair@$$CBIPAUClientContext@@@std@@PAU?$_Tree_node@U?$pair@$$CBIPAUClientContext@@@std@@PAX@2@@?$_Tree@V?$_Tmap_traits@IPAUClientContext@@U?$less@I@std@@V?$allocator@U?$pair@$$CBIPAUClientContext@@@std@@@3@$0A@@std@@@std@@IAE?AU?$pair@V?$_Tree_iterator@V?$_Tree_val@U?$_Tree_simple_types@U?$pair@$$CBIPAUClientContext@@@std@@@std@@@std@@@std@@_N@1@_NAAU?$pair@$$CBIPAUClientContext@@@1@PAU?$_Tree_node@U?$pair@$$CBIPAUClientContext@@@std@@PAX@1@@Z$0 1000a5bd f i IOCPS.obj
 0001:00009918       __catch$?_Buynode0@?$_Tree_comp_alloc@V?$_Tmap_traits@IPAVCIOCPBuffer@@U?$less@I@std@@V?$allocator@U?$pair@$$CBIPAVCIOCPBuffer@@@std@@@3@$0A@@std@@@std@@QAEPAU?$_Tree_node@U?$pair@$$CBIPAVCIOCPBuffer@@@std@@PAX@2@XZ$0 1000a918 f i IOCPS.obj
 0001:00009918       __catch$?_Buynode0@?$_Tree_comp_alloc@V?$_Tmap_traits@IPAUClientContext@@U?$less@I@std@@V?$allocator@U?$pair@$$CBIPAUClientContext@@@std@@@3@$0A@@std@@@std@@QAEPAU?$_Tree_node@U?$pair@$$CBIPAUClientContext@@@std@@PAX@2@XZ$0 1000a918 f i IOCPS.obj
 0001:00009918       __catch$?_Buynode0@?$_Tree_comp_alloc@V?$_Tmap_traits@GPAXU?$less@G@std@@V?$allocator@U?$pair@$$CBGPAX@std@@@2@$0A@@std@@@std@@QAEPAU?$_Tree_node@U?$pair@$$CBGPAX@std@@PAX@2@XZ$0 1000a918 f i IOCPS.obj
 0001:0000a083       __catch$??$_Buynode@ABUpiecewise_construct_t@std@@V?$tuple@ABG@2@V?$tuple@$$V@2@@?$_Tree_comp_alloc@V?$_Tmap_traits@GPAXU?$less@G@std@@V?$allocator@U?$pair@$$CBGPAX@std@@@2@$0A@@std@@@std@@QAEPAU?$_Tree_node@U?$pair@$$CBGPAX@std@@PAX@1@ABUpiecewise_construct_t@1@$$QAV?$tuple@ABG@1@$$QAV?$tuple@$$V@1@@Z$0 1000b083 f i IOCPS.obj
 0001:0000aac4       __catch$??$_Insert_hint@AAU?$pair@$$CBGPAX@std@@PAU?$_Tree_node@U?$pair@$$CBGPAX@std@@PAX@2@@?$_Tree@V?$_Tmap_traits@GPAXU?$less@G@std@@V?$allocator@U?$pair@$$CBGPAX@std@@@2@$0A@@std@@@std@@IAE?AV?$_Tree_iterator@V?$_Tree_val@U?$_Tree_simple_types@U?$pair@$$CBGPAX@std@@@std@@@std@@@1@V?$_Tree_const_iterator@V?$_Tree_val@U?$_Tree_simple_types@U?$pair@$$CBGPAX@std@@@std@@@std@@@1@AAU?$pair@$$CBGPAX@1@PAU?$_Tree_node@U?$pair@$$CBGPAX@std@@PAX@1@@Z$0 1000bac4 f i IOCPS.obj
 0001:0000abf3       __catch$??$_Buynode@ABUpiecewise_construct_t@std@@V?$tuple@ABI@2@V?$tuple@$$V@2@@?$_Tree_comp_alloc@V?$_Tmap_traits@IPAUClientContext@@U?$less@I@std@@V?$allocator@U?$pair@$$CBIPAUClientContext@@@std@@@3@$0A@@std@@@std@@QAEPAU?$_Tree_node@U?$pair@$$CBIPAUClientContext@@@std@@PAX@1@ABUpiecewise_construct_t@1@$$QAV?$tuple@ABI@1@$$QAV?$tuple@$$V@1@@Z$0 1000bbf3 f i IOCPS.obj
 0001:0000abf3       __catch$??$_Buynode@ABUpiecewise_construct_t@std@@V?$tuple@ABI@2@V?$tuple@$$V@2@@?$_Tree_comp_alloc@V?$_Tmap_traits@IPAVCIOCPBuffer@@U?$less@I@std@@V?$allocator@U?$pair@$$CBIPAVCIOCPBuffer@@@std@@@3@$0A@@std@@@std@@QAEPAU?$_Tree_node@U?$pair@$$CBIPAVCIOCPBuffer@@@std@@PAX@1@ABUpiecewise_construct_t@1@$$QAV?$tuple@ABI@1@$$QAV?$tuple@$$V@1@@Z$0 1000bbf3 f i IOCPS.obj
 0001:0000b634       __catch$??$_Insert_hint@AAU?$pair@$$CBIPAUClientContext@@@std@@PAU?$_Tree_node@U?$pair@$$CBIPAUClientContext@@@std@@PAX@2@@?$_Tree@V?$_Tmap_traits@IPAUClientContext@@U?$less@I@std@@V?$allocator@U?$pair@$$CBIPAUClientContext@@@std@@@3@$0A@@std@@@std@@IAE?AV?$_Tree_iterator@V?$_Tree_val@U?$_Tree_simple_types@U?$pair@$$CBIPAUClientContext@@@std@@@std@@@std@@@1@V?$_Tree_const_iterator@V?$_Tree_val@U?$_Tree_simple_types@U?$pair@$$CBIPAUClientContext@@@std@@@std@@@std@@@1@AAU?$pair@$$CBIPAUClientContext@@@1@PAU?$_Tree_node@U?$pair@$$CBIPAUClientContext@@@std@@PAX@1@@Z$0 1000c634 f i IOCPS.obj
 0001:0000b634       __catch$??$_Insert_hint@AAU?$pair@$$CBIPAVCIOCPBuffer@@@std@@PAU?$_Tree_node@U?$pair@$$CBIPAVCIOCPBuffer@@@std@@PAX@2@@?$_Tree@V?$_Tmap_traits@IPAVCIOCPBuffer@@U?$less@I@std@@V?$allocator@U?$pair@$$CBIPAVCIOCPBuffer@@@std@@@3@$0A@@std@@@std@@IAE?AV?$_Tree_iterator@V?$_Tree_val@U?$_Tree_simple_types@U?$pair@$$CBIPAVCIOCPBuffer@@@std@@@std@@@std@@@1@V?$_Tree_const_iterator@V?$_Tree_val@U?$_Tree_simple_types@U?$pair@$$CBIPAVCIOCPBuffer@@@std@@@std@@@std@@@1@AAU?$pair@$$CBIPAVCIOCPBuffer@@@1@PAU?$_Tree_node@U?$pair@$$CBIPAVCIOCPBuffer@@@std@@PAX@1@@Z$0 1000c634 f i IOCPS.obj
 0001:0000c603       ?dllmain_crt_dispatch@@YGHQAUHINSTANCE__@@KQAX@Z 1000d603 f   MSVCRT:dll_dllmain.obj
 0001:0000c656       ?dllmain_crt_process_attach@@YAHQAUHINSTANCE__@@QAX@Z 1000d656 f   MSVCRT:dll_dllmain.obj
 0001:0000c768       ?dllmain_crt_process_detach@@YAH_N@Z 1000d768 f   MSVCRT:dll_dllmain.obj
 0001:0000c7e5       ?dllmain_dispatch@@YAHQAUHINSTANCE__@@KQAX@Z 1000d7e5 f   MSVCRT:dll_dllmain.obj
 0001:0000c8e1       ?dllmain_raw@@YGHQAUHINSTANCE__@@KQAX@Z 1000d8e1 f   MSVCRT:dll_dllmain.obj
 0001:0000cb68       ?find_pe_section@@YAPAU_IMAGE_SECTION_HEADER@@QAEI@Z 1000db68 f   MSVCRT:utility.obj
 0001:0000d100       $$000000                   1000e100     MSVCRT:_sehprolg4_.obj
 0001:0000d3b0       $$000000                   1000e3b0     MSVCRT:chkstk.obj
 0001:0000d3f0       __unwindfunclet$?CreatePackage@CIOCPBuffer@@QAEHEV?$basic_string@DU?$char_traits@D@std@@V?$allocator@D@2@@std@@@Z$0 1000e3f0 f   IOCPBuffer.obj
 0001:0000d3f8       __ehhandler$?CreatePackage@CIOCPBuffer@@QAEHEV?$basic_string@DU?$char_traits@D@std@@V?$allocator@D@2@@std@@@Z 1000e3f8 f   IOCPBuffer.obj
 0001:0000d420       __ehhandler$??1?$_Tree_comp_alloc@V?$_Tmap_traits@GPAXU?$less@G@std@@V?$allocator@U?$pair@$$CBGPAX@std@@@2@$0A@@std@@@std@@QAE@XZ 1000e420 f   IOCPS.obj
 0001:0000d420       __ehhandler$??1?$_Tree_comp_alloc@V?$_Tmap_traits@IPAUClientContext@@U?$less@I@std@@V?$allocator@U?$pair@$$CBIPAUClientContext@@@std@@@3@$0A@@std@@@std@@QAE@XZ 1000e420 f   IOCPS.obj
 0001:0000d420       __ehhandler$??0?$basic_string@DU?$char_traits@D@std@@V?$allocator@D@2@@std@@QAE@XZ 1000e420 f   IOCPS.obj
 0001:0000d420       __ehhandler$??1?$_List_alloc@U?$_List_base_types@PAUJobItem@@V?$allocator@PAUJobItem@@@std@@@std@@@std@@QAE@XZ 1000e420 f   IOCPS.obj
 0001:0000d420       __ehhandler$??1?$_List_alloc@U?$_List_base_types@PAUClientContext@@V?$allocator@PAUClientContext@@@std@@@std@@@std@@QAE@XZ 1000e420 f   IOCPS.obj
 0001:0000d420       __ehhandler$??0?$basic_string@DU?$char_traits@D@std@@V?$allocator@D@2@@std@@QAE@$$QAV01@@Z 1000e420 f   IOCPS.obj
 0001:0000d420       __ehhandler$??1?$list@PAVCIOCPBuffer@@V?$allocator@PAVCIOCPBuffer@@@std@@@std@@QAE@XZ 1000e420 f   IOCPS.obj
 0001:0000d420       __ehhandler$?begin@?$list@PAVCIOCPBuffer@@V?$allocator@PAVCIOCPBuffer@@@std@@@std@@QAE?AV?$_List_iterator@V?$_List_val@U?$_List_simple_types@PAVCIOCPBuffer@@@std@@@std@@@2@XZ 1000e420 f   IOCPS.obj
 0001:0000d420       __ehhandler$?end@?$list@PAVCIOCPBuffer@@V?$allocator@PAVCIOCPBuffer@@@std@@@std@@QAE?AV?$_List_iterator@V?$_List_val@U?$_List_simple_types@PAVCIOCPBuffer@@@std@@@std@@@2@XZ 1000e420 f   IOCPS.obj
 0001:0000d420       __ehhandler$??1?$_List_alloc@U?$_List_base_types@PAXV?$allocator@PAX@std@@@std@@@std@@QAE@XZ 1000e420 f   IOCPS.obj
 0001:0000d420       __ehhandler$??1?$_Tree_comp_alloc@V?$_Tmap_traits@IPAVCIOCPBuffer@@U?$less@I@std@@V?$allocator@U?$pair@$$CBIPAVCIOCPBuffer@@@std@@@3@$0A@@std@@@std@@QAE@XZ 1000e420 f   IOCPS.obj
 0001:0000d420       __ehhandler$?begin@?$_Tree@V?$_Tmap_traits@IPAVCIOCPBuffer@@U?$less@I@std@@V?$allocator@U?$pair@$$CBIPAVCIOCPBuffer@@@std@@@3@$0A@@std@@@std@@QAE?AV?$_Tree_iterator@V?$_Tree_val@U?$_Tree_simple_types@U?$pair@$$CBIPAVCIOCPBuffer@@@std@@@std@@@std@@@2@XZ 1000e420 f   IOCPS.obj
 0001:0000d420       __ehhandler$?end@?$_Tree@V?$_Tmap_traits@IPAVCIOCPBuffer@@U?$less@I@std@@V?$allocator@U?$pair@$$CBIPAVCIOCPBuffer@@@std@@@3@$0A@@std@@@std@@QAE?AV?$_Tree_iterator@V?$_Tree_val@U?$_Tree_simple_types@U?$pair@$$CBIPAVCIOCPBuffer@@@std@@@std@@@std@@@2@XZ 1000e420 f   IOCPS.obj
 0001:0000d420       __ehhandler$??1?$_List_alloc@U?$_List_base_types@PAVCIOCPBuffer@@V?$allocator@PAVCIOCPBuffer@@@std@@@std@@@std@@QAE@XZ 1000e420 f   IOCPS.obj
 0001:0000d420       __ehhandler$??1?$list@PAXV?$allocator@PAX@std@@@std@@QAE@XZ 1000e420 f   IOCPS.obj
 0001:0000d420       __ehhandler$?begin@?$list@PAXV?$allocator@PAX@std@@@std@@QAE?AV?$_List_iterator@V?$_List_val@U?$_List_simple_types@PAX@std@@@std@@@2@XZ 1000e420 f   IOCPS.obj
 0001:0000d420       __ehhandler$?end@?$list@PAXV?$allocator@PAX@std@@@std@@QAE?AV?$_List_iterator@V?$_List_val@U?$_List_simple_types@PAX@std@@@std@@@2@XZ 1000e420 f   IOCPS.obj
 0001:0000d420       __ehhandler$?_Make_iter@?$list@PAUJobItem@@V?$allocator@PAUJobItem@@@std@@@std@@QBE?AV?$_List_iterator@V?$_List_val@U?$_List_simple_types@PAUJobItem@@@std@@@std@@@2@V?$_List_const_iterator@V?$_List_val@U?$_List_simple_types@PAUJobItem@@@std@@@std@@@2@@Z 1000e420 f   IOCPS.obj
 0001:0000d420       __ehhandler$??1?$list@PAUClientContext@@V?$allocator@PAUClientContext@@@std@@@std@@QAE@XZ 1000e420 f   IOCPS.obj
 0001:0000d420       __ehhandler$?begin@?$list@PAUClientContext@@V?$allocator@PAUClientContext@@@std@@@std@@QAE?AV?$_List_iterator@V?$_List_val@U?$_List_simple_types@PAUClientContext@@@std@@@std@@@2@XZ 1000e420 f   IOCPS.obj
 0001:0000d420       __ehhandler$?end@?$list@PAUClientContext@@V?$allocator@PAUClientContext@@@std@@@std@@QAE?AV?$_List_iterator@V?$_List_val@U?$_List_simple_types@PAUClientContext@@@std@@@std@@@2@XZ 1000e420 f   IOCPS.obj
 0001:0000d420       __ehhandler$?_Make_iter@?$list@PAUClientContext@@V?$allocator@PAUClientContext@@@std@@@std@@QBE?AV?$_List_iterator@V?$_List_val@U?$_List_simple_types@PAUClientContext@@@std@@@std@@@2@V?$_List_const_iterator@V?$_List_val@U?$_List_simple_types@PAUClientContext@@@std@@@std@@@2@@Z 1000e420 f   IOCPS.obj
 0001:0000d420       __ehhandler$??1?$list@PAUJobItem@@V?$allocator@PAUJobItem@@@std@@@std@@QAE@XZ 1000e420 f   IOCPS.obj
 0001:0000d420       __ehhandler$?begin@?$list@PAUJobItem@@V?$allocator@PAUJobItem@@@std@@@std@@QAE?AV?$_List_iterator@V?$_List_val@U?$_List_simple_types@PAUJobItem@@@std@@@std@@@2@XZ 1000e420 f   IOCPS.obj
 0001:0000d420       __ehhandler$?end@?$list@PAUJobItem@@V?$allocator@PAUJobItem@@@std@@@std@@QAE?AV?$_List_iterator@V?$_List_val@U?$_List_simple_types@PAUJobItem@@@std@@@std@@@2@XZ 1000e420 f   IOCPS.obj
 0001:0000d420       __ehhandler$?_Make_iter@?$list@PAVCIOCPBuffer@@V?$allocator@PAVCIOCPBuffer@@@std@@@std@@QBE?AV?$_List_iterator@V?$_List_val@U?$_List_simple_types@PAVCIOCPBuffer@@@std@@@std@@@2@V?$_List_const_iterator@V?$_List_val@U?$_List_simple_types@PAVCIOCPBuffer@@@std@@@std@@@2@@Z 1000e420 f   IOCPS.obj
 0001:0000d420       __ehhandler$??1?$_Tree@V?$_Tmap_traits@GPAXU?$less@G@std@@V?$allocator@U?$pair@$$CBGPAX@std@@@2@$0A@@std@@@std@@QAE@XZ 1000e420 f   IOCPS.obj
 0001:0000d420       __ehhandler$?begin@?$_Tree@V?$_Tmap_traits@GPAXU?$less@G@std@@V?$allocator@U?$pair@$$CBGPAX@std@@@2@$0A@@std@@@std@@QAE?AV?$_Tree_iterator@V?$_Tree_val@U?$_Tree_simple_types@U?$pair@$$CBGPAX@std@@@std@@@std@@@2@XZ 1000e420 f   IOCPS.obj
 0001:0000d420       __ehhandler$?end@?$_Tree@V?$_Tmap_traits@GPAXU?$less@G@std@@V?$allocator@U?$pair@$$CBGPAX@std@@@2@$0A@@std@@@std@@QAE?AV?$_Tree_iterator@V?$_Tree_val@U?$_Tree_simple_types@U?$pair@$$CBGPAX@std@@@std@@@std@@@2@XZ 1000e420 f   IOCPS.obj
 0001:0000d420       __ehhandler$??1?$basic_string@DU?$char_traits@D@std@@V?$allocator@D@2@@std@@QAE@XZ 1000e420 f   IOCPBuffer.obj
 0001:0000d420       __ehhandler$??1?$_Tree@V?$_Tmap_traits@IPAUClientContext@@U?$less@I@std@@V?$allocator@U?$pair@$$CBIPAUClientContext@@@std@@@3@$0A@@std@@@std@@QAE@XZ 1000e420 f   IOCPS.obj
 0001:0000d420       __ehhandler$?begin@?$_Tree@V?$_Tmap_traits@IPAUClientContext@@U?$less@I@std@@V?$allocator@U?$pair@$$CBIPAUClientContext@@@std@@@3@$0A@@std@@@std@@QAE?AV?$_Tree_iterator@V?$_Tree_val@U?$_Tree_simple_types@U?$pair@$$CBIPAUClientContext@@@std@@@std@@@std@@@2@XZ 1000e420 f   IOCPS.obj
 0001:0000d420       __ehhandler$?end@?$_Tree@V?$_Tmap_traits@IPAUClientContext@@U?$less@I@std@@V?$allocator@U?$pair@$$CBIPAUClientContext@@@std@@@3@$0A@@std@@@std@@QAE?AV?$_Tree_iterator@V?$_Tree_val@U?$_Tree_simple_types@U?$pair@$$CBIPAUClientContext@@@std@@@std@@@std@@@2@XZ 1000e420 f   IOCPS.obj
 0001:0000d420       __ehhandler$?c_str@?$basic_string@DU?$char_traits@D@std@@V?$allocator@D@2@@std@@QBEPBDXZ 1000e420 f   IOCPBuffer.obj
 0001:0000d420       __ehhandler$??1IOCPS@@UAE@XZ 1000e420 f   IOCPS.obj
 0001:0000d420       __ehhandler$??1?$_Tree@V?$_Tmap_traits@IPAVCIOCPBuffer@@U?$less@I@std@@V?$allocator@U?$pair@$$CBIPAVCIOCPBuffer@@@std@@@3@$0A@@std@@@std@@QAE@XZ 1000e420 f   IOCPS.obj
 0001:0000d440       __ehhandler$?_Copy@?$basic_string@DU?$char_traits@D@std@@V?$allocator@D@2@@std@@QAEXII@Z 1000e440 f   IOCPBuffer.obj
 0001:0000d460       __unwindfunclet$??0IOCPS@@QAE@XZ$0 1000e460 f   IOCPS.obj
 0001:0000d46b       __unwindfunclet$??0IOCPS@@QAE@XZ$1 1000e46b f   IOCPS.obj
 0001:0000d479       __unwindfunclet$??0IOCPS@@QAE@XZ$2 1000e479 f   IOCPS.obj
 0001:0000d487       __unwindfunclet$??0IOCPS@@QAE@XZ$3 1000e487 f   IOCPS.obj
 0001:0000d495       __unwindfunclet$??0IOCPS@@QAE@XZ$4 1000e495 f   IOCPS.obj
 0001:0000d4a6       __unwindfunclet$??0IOCPS@@QAE@XZ$5 1000e4a6 f   IOCPS.obj
 0001:0000d4b7       __unwindfunclet$??0IOCPS@@QAE@XZ$6 1000e4b7 f   IOCPS.obj
 0001:0000d4c8       __unwindfunclet$??0IOCPS@@QAE@XZ$7 1000e4c8 f   IOCPS.obj
 0001:0000d4d9       __unwindfunclet$??0IOCPS@@QAE@XZ$8 1000e4d9 f   IOCPS.obj
 0001:0000d4ea       __ehhandler$??0IOCPS@@QAE@XZ 1000e4ea f   IOCPS.obj
 0001:0000d520       __unwindfunclet$?FreeClientContext@IOCPS@@AAEXXZ$0 1000e520 f   IOCPS.obj
 0001:0000d520       __unwindfunclet$?ListnerThreadProc@IOCPS@@CGIPAX@Z$0 1000e520 f   IOCPS.obj
 0001:0000d528       __ehhandler$?ListnerThreadProc@IOCPS@@CGIPAX@Z 1000e528 f   IOCPS.obj
 0001:0000d528       __ehhandler$?FreeClientContext@IOCPS@@AAEXXZ 1000e528 f   IOCPS.obj
 0001:0000d550       __unwindfunclet$?AssociateIncomingClientWithContext@IOCPS@@AAEHI@Z$0 1000e550 f   IOCPS.obj
 0001:0000d558       __unwindfunclet$?AssociateIncomingClientWithContext@IOCPS@@AAEHI@Z$1 1000e558 f   IOCPS.obj
 0001:0000d560       __unwindfunclet$?AssociateIncomingClientWithContext@IOCPS@@AAEHI@Z$2 1000e560 f   IOCPS.obj
 0001:0000d568       __unwindfunclet$?AssociateIncomingClientWithContext@IOCPS@@AAEHI@Z$3 1000e568 f   IOCPS.obj
 0001:0000d570       __ehhandler$?AssociateIncomingClientWithContext@IOCPS@@AAEHI@Z 1000e570 f   IOCPS.obj
 0001:0000d5a0       __unwindfunclet$?OnRead@IOCPS@@AAEXPAUClientContext@@PAVCIOCPBuffer@@@Z$0 1000e5a0 f   IOCPS.obj
 0001:0000d5a0       __unwindfunclet$?OnZeroByteRead@IOCPS@@AAEXPAUClientContext@@PAVCIOCPBuffer@@@Z$0 1000e5a0 f   IOCPS.obj
 0001:0000d5a8       __unwindfunclet$?OnRead@IOCPS@@AAEXPAUClientContext@@PAVCIOCPBuffer@@@Z$1 1000e5a8 f   IOCPS.obj
 0001:0000d5a8       __unwindfunclet$?OnZeroByteRead@IOCPS@@AAEXPAUClientContext@@PAVCIOCPBuffer@@@Z$1 1000e5a8 f   IOCPS.obj
 0001:0000d5b0       __ehhandler$?OnZeroByteRead@IOCPS@@AAEXPAUClientContext@@PAVCIOCPBuffer@@@Z 1000e5b0 f   IOCPS.obj
 0001:0000d5b0       __ehhandler$?OnRead@IOCPS@@AAEXPAUClientContext@@PAVCIOCPBuffer@@@Z 1000e5b0 f   IOCPS.obj
 0001:0000d5e0       __unwindfunclet$?NotifyDisconnectedClient@ITIOCP@@UAEXPAUClientContext@@@Z$0 1000e5e0 f   MyIOCP.obj
 0001:0000d5e0       __unwindfunclet$?NotifyNewConnection@ITIOCP@@UAEXPAUClientContext@@@Z$0 1000e5e0 f   MyIOCP.obj
 0001:0000d5e0       __unwindfunclet$?OnReadCompleted@IOCPS@@AAEXPAUClientContext@@KPAVCIOCPBuffer@@@Z$0 1000e5e0 f   IOCPS.obj
 0001:0000d5e8       __ehhandler$?OnReadCompleted@IOCPS@@AAEXPAUClientContext@@KPAVCIOCPBuffer@@@Z 1000e5e8 f   IOCPS.obj
 0001:0000d5e8       __ehhandler$?NotifyDisconnectedClient@ITIOCP@@UAEXPAUClientContext@@@Z 1000e5e8 f   MyIOCP.obj
 0001:0000d5e8       __ehhandler$?NotifyNewConnection@ITIOCP@@UAEXPAUClientContext@@@Z 1000e5e8 f   MyIOCP.obj
 0001:0000d610       __unwindfunclet$?MakeOrderdRead@IOCPS@@AAEXPAUClientContext@@PAVCIOCPBuffer@@@Z$0 1000e610 f   IOCPS.obj
 0001:0000d610       __unwindfunclet$?OnWrite@IOCPS@@AAEXPAUClientContext@@KPAVCIOCPBuffer@@@Z$0 1000e610 f   IOCPS.obj
 0001:0000d618       __ehhandler$?OnWrite@IOCPS@@AAEXPAUClientContext@@KPAVCIOCPBuffer@@@Z 1000e618 f   IOCPS.obj
 0001:0000d618       __ehhandler$?MakeOrderdRead@IOCPS@@AAEXPAUClientContext@@PAVCIOCPBuffer@@@Z 1000e618 f   IOCPS.obj
 0001:0000d640       __unwindfunclet$?GetHostKeyName@IOCPS@@QAE?AV?$basic_string@DU?$char_traits@D@std@@V?$allocator@D@2@@std@@I@Z$0 1000e640 f   IOCPS.obj
 0001:0000d648       __ehhandler$?GetHostKeyName@IOCPS@@QAE?AV?$basic_string@DU?$char_traits@D@std@@V?$allocator@D@2@@std@@I@Z 1000e648 f   IOCPS.obj
 0001:0000d670       __unwindfunclet$?GetHostAddress@IOCPS@@QAE?AV?$basic_string@DU?$char_traits@D@std@@V?$allocator@D@2@@std@@I@Z$0 1000e670 f   IOCPS.obj
 0001:0000d678       __ehhandler$?GetHostAddress@IOCPS@@QAE?AV?$basic_string@DU?$char_traits@D@std@@V?$allocator@D@2@@std@@I@Z 1000e678 f   IOCPS.obj
 0001:0000d6a0       __unwindfunclet$?ShutDown@IOCPS@@UAEXXZ$0 1000e6a0 f   IOCPS.obj
 0001:0000d6a8       __ehhandler$?ShutDown@IOCPS@@UAEXXZ 1000e6a8 f   IOCPS.obj
 0001:0000d6d0       __unwindfunclet$?ErrorCode2Text@IOCPS@@IAE?AV?$basic_string@DU?$char_traits@D@std@@V?$allocator@D@2@@std@@K@Z$0 1000e6d0 f   IOCPS.obj
 0001:0000d6d0       __unwindfunclet$?AZeroByteRead@IOCPS@@AAEHPAUClientContext@@PAVCIOCPBuffer@@@Z$0 1000e6d0 f   IOCPS.obj
 0001:0000d6d8       __ehhandler$?ErrorCode2Text@IOCPS@@IAE?AV?$basic_string@DU?$char_traits@D@std@@V?$allocator@D@2@@std@@K@Z 1000e6d8 f   IOCPS.obj
 0001:0000d6d8       __ehhandler$?AZeroByteRead@IOCPS@@AAEHPAUClientContext@@PAVCIOCPBuffer@@@Z 1000e6d8 f   IOCPS.obj
 0001:0000d700       __unwindfunclet$?AllocateContext@IOCPS@@AAEPAUClientContext@@XZ$0 1000e700 f   IOCPS.obj
 0001:0000d70f       __ehhandler$?AllocateContext@IOCPS@@AAEPAUClientContext@@XZ 1000e70f f   IOCPS.obj
 0001:0000d730       __unwindfunclet$??0ClientContext@@QAE@XZ$0 1000e730 f   IOCPS.obj
 0001:0000d73b       __ehhandler$??0ClientContext@@QAE@XZ 1000e73b f   IOCPS.obj
 0001:0000d760       __unwindfunclet$?AllocateBuffer@IOCPS@@IAEPAVCIOCPBuffer@@H@Z$0 1000e760 f   IOCPS.obj
 0001:0000d772       __unwindfunclet$?AllocateBuffer@IOCPS@@IAEPAVCIOCPBuffer@@H@Z$1 1000e772 f   IOCPS.obj
 0001:0000d77a       __ehhandler$?AllocateBuffer@IOCPS@@IAEPAVCIOCPBuffer@@H@Z 1000e77a f   IOCPS.obj
 0001:0000d7a0       __unwindfunclet$?SetupListner@IOCPS@@AAEHXZ$0 1000e7a0 f   IOCPS.obj
 0001:0000d7a8       __unwindfunclet$?SetupListner@IOCPS@@AAEHXZ$1 1000e7a8 f   IOCPS.obj
 0001:0000d7b0       __unwindfunclet$?SetupListner@IOCPS@@AAEHXZ$2 1000e7b0 f   IOCPS.obj
 0001:0000d7b8       __unwindfunclet$?SetupListner@IOCPS@@AAEHXZ$3 1000e7b8 f   IOCPS.obj
 0001:0000d7c0       __unwindfunclet$?SetupListner@IOCPS@@AAEHXZ$4 1000e7c0 f   IOCPS.obj
 0001:0000d7cb       __unwindfunclet$?SetupListner@IOCPS@@AAEHXZ$5 1000e7cb f   IOCPS.obj
 0001:0000d7d6       __ehhandler$?SetupListner@IOCPS@@AAEHXZ 1000e7d6 f   IOCPS.obj
 0001:0000d800       __unwindfunclet$?CreateCompletionPort@IOCPS@@AAEHXZ$0 1000e800 f   IOCPS.obj
 0001:0000d808       __unwindfunclet$?CreateCompletionPort@IOCPS@@AAEHXZ$1 1000e808 f   IOCPS.obj
 0001:0000d810       __ehhandler$?CreateCompletionPort@IOCPS@@AAEHXZ 1000e810 f   IOCPS.obj
 0001:0000d840       __unwindfunclet$?SetupIOWorkers@IOCPS@@AAEHXZ$0 1000e840 f   IOCPS.obj
 0001:0000d848       __ehhandler$?SetupIOWorkers@IOCPS@@AAEHXZ 1000e848 f   IOCPS.obj
 0001:0000d870       __unwindfunclet$?Connect@IOCPS@@UAEHABV?$basic_string@DU?$char_traits@D@std@@V?$allocator@D@2@@std@@H@Z$0 1000e870 f   IOCPS.obj
 0001:0000d878       __ehhandler$?Connect@IOCPS@@UAEHABV?$basic_string@DU?$char_traits@D@std@@V?$allocator@D@2@@std@@H@Z 1000e878 f   IOCPS.obj
 0001:0000d8a0       __ehhandler$?clear@?$_Tree@V?$_Tmap_traits@IPAUClientContext@@U?$less@I@std@@V?$allocator@U?$pair@$$CBIPAUClientContext@@@std@@@3@$0A@@std@@@std@@QAEXXZ 1000e8a0 f   IOCPS.obj
 0001:0000d8a0       __ehhandler$?clear@?$_Tree@V?$_Tmap_traits@GPAXU?$less@G@std@@V?$allocator@U?$pair@$$CBGPAX@std@@@2@$0A@@std@@@std@@QAEXXZ 1000e8a0 f   IOCPS.obj
 0001:0000d8a0       __ehhandler$?clear@?$_Tree@V?$_Tmap_traits@IPAVCIOCPBuffer@@U?$less@I@std@@V?$allocator@U?$pair@$$CBIPAVCIOCPBuffer@@@std@@@3@$0A@@std@@@std@@QAEXXZ 1000e8a0 f   IOCPS.obj
 0001:0000d8c0       __ehhandler$?clear@?$list@PAUClientContext@@V?$allocator@PAUClientContext@@@std@@@std@@QAEXXZ 1000e8c0 f   IOCPS.obj
 0001:0000d8c0       __ehhandler$?clear@?$list@PAXV?$allocator@PAX@std@@@std@@QAEXXZ 1000e8c0 f   IOCPS.obj
 0001:0000d8c0       __ehhandler$?clear@?$list@PAUJobItem@@V?$allocator@PAUJobItem@@@std@@@std@@QAEXXZ 1000e8c0 f   IOCPS.obj
 0001:0000d8c0       __ehhandler$?clear@?$list@PAVCIOCPBuffer@@V?$allocator@PAVCIOCPBuffer@@@std@@@std@@QAEXXZ 1000e8c0 f   IOCPS.obj
 0001:0000d8e0       __unwindfunclet$??0?$basic_string@DU?$char_traits@D@std@@V?$allocator@D@2@@std@@QAE@PBD@Z$0 1000e8e0 f   IOCPS.obj
 0001:0000d8e8       __ehhandler$??0?$basic_string@DU?$char_traits@D@std@@V?$allocator@D@2@@std@@QAE@PBD@Z 1000e8e8 f   IOCPS.obj
 0001:0000d910       __ehhandler$?_Buyheadnode@?$_Tree_comp_alloc@V?$_Tmap_traits@IPAVCIOCPBuffer@@U?$less@I@std@@V?$allocator@U?$pair@$$CBIPAVCIOCPBuffer@@@std@@@3@$0A@@std@@@std@@QAEPAU?$_Tree_node@U?$pair@$$CBIPAVCIOCPBuffer@@@std@@PAX@2@XZ 1000e910 f   IOCPS.obj
 0001:0000d910       __ehhandler$?_Buyheadnode@?$_Tree_comp_alloc@V?$_Tmap_traits@GPAXU?$less@G@std@@V?$allocator@U?$pair@$$CBGPAX@std@@@2@$0A@@std@@@std@@QAEPAU?$_Tree_node@U?$pair@$$CBGPAX@std@@PAX@2@XZ 1000e910 f   IOCPS.obj
 0001:0000d910       __ehhandler$?_Buyheadnode@?$_Tree_comp_alloc@V?$_Tmap_traits@IPAUClientContext@@U?$less@I@std@@V?$allocator@U?$pair@$$CBIPAUClientContext@@@std@@@3@$0A@@std@@@std@@QAEPAU?$_Tree_node@U?$pair@$$CBIPAUClientContext@@@std@@PAX@2@XZ 1000e910 f   IOCPS.obj
 0001:0000d930       __ehhandler$?_Buynode0@?$_List_alloc@U?$_List_base_types@PAUJobItem@@V?$allocator@PAUJobItem@@@std@@@std@@@std@@QAEPAU?$_List_node@PAUJobItem@@PAX@2@PAU32@0@Z 1000e930 f   IOCPS.obj
 0001:0000d930       __ehhandler$?_Buynode0@?$_List_alloc@U?$_List_base_types@PAXV?$allocator@PAX@std@@@std@@@std@@QAEPAU?$_List_node@PAXPAX@2@PAU32@0@Z 1000e930 f   IOCPS.obj
 0001:0000d930       __ehhandler$?_Buynode0@?$_List_alloc@U?$_List_base_types@PAUClientContext@@V?$allocator@PAUClientContext@@@std@@@std@@@std@@QAEPAU?$_List_node@PAUClientContext@@PAX@2@PAU32@0@Z 1000e930 f   IOCPS.obj
 0001:0000d930       __ehhandler$?_Buynode0@?$_List_alloc@U?$_List_base_types@PAVCIOCPBuffer@@V?$allocator@PAVCIOCPBuffer@@@std@@@std@@@std@@QAEPAU?$_List_node@PAVCIOCPBuffer@@PAX@2@PAU32@0@Z 1000e930 f   IOCPS.obj
 0001:0000d950       __ehhandler$??$_Buynode@ABQAX@?$_List_buy@PAXV?$allocator@PAX@std@@@std@@QAEPAU?$_List_node@PAXPAX@1@PAU21@0ABQAX@Z 1000e950 f   IOCPS.obj
 0001:0000d950       __ehhandler$??$_Buynode@ABQAVCIOCPBuffer@@@?$_List_buy@PAVCIOCPBuffer@@V?$allocator@PAVCIOCPBuffer@@@std@@@std@@QAEPAU?$_List_node@PAVCIOCPBuffer@@PAX@1@PAU21@0ABQAVCIOCPBuffer@@@Z 1000e950 f   IOCPS.obj
 0001:0000d950       __ehhandler$??$_Buynode@ABQAUClientContext@@@?$_List_buy@PAUClientContext@@V?$allocator@PAUClientContext@@@std@@@std@@QAEPAU?$_List_node@PAUClientContext@@PAX@1@PAU21@0ABQAUClientContext@@@Z 1000e950 f   IOCPS.obj
 0001:0000d970       __ehhandler$??$_Buynode@U?$pair@GPAX@std@@@?$_Tree_comp_alloc@V?$_Tmap_traits@GPAXU?$less@G@std@@V?$allocator@U?$pair@$$CBGPAX@std@@@2@$0A@@std@@@std@@QAEPAU?$_Tree_node@U?$pair@$$CBGPAX@std@@PAX@1@$$QAU?$pair@GPAX@1@@Z 1000e970 f   IOCPS.obj
 0001:0000d990       __ehhandler$??$_Insert_nohint@AAU?$pair@$$CBGPAX@std@@PAU?$_Tree_node@U?$pair@$$CBGPAX@std@@PAX@2@@?$_Tree@V?$_Tmap_traits@GPAXU?$less@G@std@@V?$allocator@U?$pair@$$CBGPAX@std@@@2@$0A@@std@@@std@@IAE?AU?$pair@V?$_Tree_iterator@V?$_Tree_val@U?$_Tree_simple_types@U?$pair@$$CBGPAX@std@@@std@@@std@@@std@@_N@1@_NAAU?$pair@$$CBGPAX@1@PAU?$_Tree_node@U?$pair@$$CBGPAX@std@@PAX@1@@Z 1000e990 f   IOCPS.obj
 0001:0000d9b0       __ehhandler$??$_Buynode@U?$pair@IPAVCIOCPBuffer@@@std@@@?$_Tree_comp_alloc@V?$_Tmap_traits@IPAVCIOCPBuffer@@U?$less@I@std@@V?$allocator@U?$pair@$$CBIPAVCIOCPBuffer@@@std@@@3@$0A@@std@@@std@@QAEPAU?$_Tree_node@U?$pair@$$CBIPAVCIOCPBuffer@@@std@@PAX@1@$$QAU?$pair@IPAVCIOCPBuffer@@@1@@Z 1000e9b0 f   IOCPS.obj
 0001:0000d9d0       __ehhandler$??$_Insert_nohint@AAU?$pair@$$CBIPAVCIOCPBuffer@@@std@@PAU?$_Tree_node@U?$pair@$$CBIPAVCIOCPBuffer@@@std@@PAX@2@@?$_Tree@V?$_Tmap_traits@IPAVCIOCPBuffer@@U?$less@I@std@@V?$allocator@U?$pair@$$CBIPAVCIOCPBuffer@@@std@@@3@$0A@@std@@@std@@IAE?AU?$pair@V?$_Tree_iterator@V?$_Tree_val@U?$_Tree_simple_types@U?$pair@$$CBIPAVCIOCPBuffer@@@std@@@std@@@std@@@std@@_N@1@_NAAU?$pair@$$CBIPAVCIOCPBuffer@@@1@PAU?$_Tree_node@U?$pair@$$CBIPAVCIOCPBuffer@@@std@@PAX@1@@Z 1000e9d0 f   IOCPS.obj
 0001:0000d9d0       __ehhandler$??$_Insert_nohint@AAU?$pair@$$CBIPAUClientContext@@@std@@PAU?$_Tree_node@U?$pair@$$CBIPAUClientContext@@@std@@PAX@2@@?$_Tree@V?$_Tmap_traits@IPAUClientContext@@U?$less@I@std@@V?$allocator@U?$pair@$$CBIPAUClientContext@@@std@@@3@$0A@@std@@@std@@IAE?AU?$pair@V?$_Tree_iterator@V?$_Tree_val@U?$_Tree_simple_types@U?$pair@$$CBIPAUClientContext@@@std@@@std@@@std@@@std@@_N@1@_NAAU?$pair@$$CBIPAUClientContext@@@1@PAU?$_Tree_node@U?$pair@$$CBIPAUClientContext@@@std@@PAX@1@@Z 1000e9d0 f   IOCPS.obj
 0001:0000d9f0       __ehhandler$??$forward_as_tuple@ABG@std@@YA?AV?$tuple@ABG@0@ABG@Z 1000e9f0 f   IOCPS.obj
 0001:0000d9f0       __ehhandler$??$forward_as_tuple@ABI@std@@YA?AV?$tuple@ABI@0@ABI@Z 1000e9f0 f   IOCPS.obj
 0001:0000da10       __ehhandler$?_Buynode0@?$_Tree_comp_alloc@V?$_Tmap_traits@IPAVCIOCPBuffer@@U?$less@I@std@@V?$allocator@U?$pair@$$CBIPAVCIOCPBuffer@@@std@@@3@$0A@@std@@@std@@QAEPAU?$_Tree_node@U?$pair@$$CBIPAVCIOCPBuffer@@@std@@PAX@2@XZ 1000ea10 f   IOCPS.obj
 0001:0000da10       __ehhandler$?_Buynode0@?$_Tree_comp_alloc@V?$_Tmap_traits@IPAUClientContext@@U?$less@I@std@@V?$allocator@U?$pair@$$CBIPAUClientContext@@@std@@@3@$0A@@std@@@std@@QAEPAU?$_Tree_node@U?$pair@$$CBIPAUClientContext@@@std@@PAX@2@XZ 1000ea10 f   IOCPS.obj
 0001:0000da10       __ehhandler$?_Buynode0@?$_Tree_comp_alloc@V?$_Tmap_traits@GPAXU?$less@G@std@@V?$allocator@U?$pair@$$CBGPAX@std@@@2@$0A@@std@@@std@@QAEPAU?$_Tree_node@U?$pair@$$CBGPAX@std@@PAX@2@XZ 1000ea10 f   IOCPS.obj
 0001:0000da30       __ehhandler$??$_Buynode@ABUpiecewise_construct_t@std@@V?$tuple@ABG@2@V?$tuple@$$V@2@@?$_Tree_comp_alloc@V?$_Tmap_traits@GPAXU?$less@G@std@@V?$allocator@U?$pair@$$CBGPAX@std@@@2@$0A@@std@@@std@@QAEPAU?$_Tree_node@U?$pair@$$CBGPAX@std@@PAX@1@ABUpiecewise_construct_t@1@$$QAV?$tuple@ABG@1@$$QAV?$tuple@$$V@1@@Z 1000ea30 f   IOCPS.obj
 0001:0000da50       __ehhandler$??$_Insert_hint@AAU?$pair@$$CBGPAX@std@@PAU?$_Tree_node@U?$pair@$$CBGPAX@std@@PAX@2@@?$_Tree@V?$_Tmap_traits@GPAXU?$less@G@std@@V?$allocator@U?$pair@$$CBGPAX@std@@@2@$0A@@std@@@std@@IAE?AV?$_Tree_iterator@V?$_Tree_val@U?$_Tree_simple_types@U?$pair@$$CBGPAX@std@@@std@@@std@@@1@V?$_Tree_const_iterator@V?$_Tree_val@U?$_Tree_simple_types@U?$pair@$$CBGPAX@std@@@std@@@std@@@1@AAU?$pair@$$CBGPAX@1@PAU?$_Tree_node@U?$pair@$$CBGPAX@std@@PAX@1@@Z 1000ea50 f   IOCPS.obj
 0001:0000da70       __ehhandler$??$_Buynode@ABUpiecewise_construct_t@std@@V?$tuple@ABI@2@V?$tuple@$$V@2@@?$_Tree_comp_alloc@V?$_Tmap_traits@IPAVCIOCPBuffer@@U?$less@I@std@@V?$allocator@U?$pair@$$CBIPAVCIOCPBuffer@@@std@@@3@$0A@@std@@@std@@QAEPAU?$_Tree_node@U?$pair@$$CBIPAVCIOCPBuffer@@@std@@PAX@1@ABUpiecewise_construct_t@1@$$QAV?$tuple@ABI@1@$$QAV?$tuple@$$V@1@@Z 1000ea70 f   IOCPS.obj
 0001:0000da70       __ehhandler$??$_Buynode@ABUpiecewise_construct_t@std@@V?$tuple@ABI@2@V?$tuple@$$V@2@@?$_Tree_comp_alloc@V?$_Tmap_traits@IPAUClientContext@@U?$less@I@std@@V?$allocator@U?$pair@$$CBIPAUClientContext@@@std@@@3@$0A@@std@@@std@@QAEPAU?$_Tree_node@U?$pair@$$CBIPAUClientContext@@@std@@PAX@1@ABUpiecewise_construct_t@1@$$QAV?$tuple@ABI@1@$$QAV?$tuple@$$V@1@@Z 1000ea70 f   IOCPS.obj
 0001:0000da90       __ehhandler$??$_Insert_hint@AAU?$pair@$$CBIPAVCIOCPBuffer@@@std@@PAU?$_Tree_node@U?$pair@$$CBIPAVCIOCPBuffer@@@std@@PAX@2@@?$_Tree@V?$_Tmap_traits@IPAVCIOCPBuffer@@U?$less@I@std@@V?$allocator@U?$pair@$$CBIPAVCIOCPBuffer@@@std@@@3@$0A@@std@@@std@@IAE?AV?$_Tree_iterator@V?$_Tree_val@U?$_Tree_simple_types@U?$pair@$$CBIPAVCIOCPBuffer@@@std@@@std@@@std@@@1@V?$_Tree_const_iterator@V?$_Tree_val@U?$_Tree_simple_types@U?$pair@$$CBIPAVCIOCPBuffer@@@std@@@std@@@std@@@1@AAU?$pair@$$CBIPAVCIOCPBuffer@@@1@PAU?$_Tree_node@U?$pair@$$CBIPAVCIOCPBuffer@@@std@@PAX@1@@Z 1000ea90 f   IOCPS.obj
 0001:0000da90       __ehhandler$??$_Insert_hint@AAU?$pair@$$CBIPAUClientContext@@@std@@PAU?$_Tree_node@U?$pair@$$CBIPAUClientContext@@@std@@PAX@2@@?$_Tree@V?$_Tmap_traits@IPAUClientContext@@U?$less@I@std@@V?$allocator@U?$pair@$$CBIPAUClientContext@@@std@@@3@$0A@@std@@@std@@IAE?AV?$_Tree_iterator@V?$_Tree_val@U?$_Tree_simple_types@U?$pair@$$CBIPAUClientContext@@@std@@@std@@@std@@@1@V?$_Tree_const_iterator@V?$_Tree_val@U?$_Tree_simple_types@U?$pair@$$CBIPAUClientContext@@@std@@@std@@@std@@@1@AAU?$pair@$$CBIPAUClientContext@@@1@PAU?$_Tree_node@U?$pair@$$CBIPAUClientContext@@@std@@PAX@1@@Z 1000ea90 f   IOCPS.obj
 0001:0000dab0       __unwindfunclet$??$construct@U?$pair@$$CBIPAUClientContext@@@std@@ABUpiecewise_construct_t@2@V?$tuple@ABI@2@V?$tuple@$$V@2@@?$allocator@U?$_Tree_node@U?$pair@$$CBIPAUClientContext@@@std@@PAX@std@@@std@@QAEXPAU?$pair@$$CBIPAUClientContext@@@1@ABUpiecewise_construct_t@1@$$QAV?$tuple@ABI@1@$$QAV?$tuple@$$V@1@@Z$0 1000eab0 f   IOCPS.obj
 0001:0000dab0       __unwindfunclet$??$construct@U?$pair@$$CBIPAVCIOCPBuffer@@@std@@ABUpiecewise_construct_t@2@V?$tuple@ABI@2@V?$tuple@$$V@2@@?$allocator@U?$_Tree_node@U?$pair@$$CBIPAVCIOCPBuffer@@@std@@PAX@std@@@std@@QAEXPAU?$pair@$$CBIPAVCIOCPBuffer@@@1@ABUpiecewise_construct_t@1@$$QAV?$tuple@ABI@1@$$QAV?$tuple@$$V@1@@Z$0 1000eab0 f   IOCPS.obj
 0001:0000dab0       __unwindfunclet$??$construct@U?$pair@$$CBGPAX@std@@ABUpiecewise_construct_t@2@V?$tuple@ABG@2@V?$tuple@$$V@2@@?$allocator@U?$_Tree_node@U?$pair@$$CBGPAX@std@@PAX@std@@@std@@QAEXPAU?$pair@$$CBGPAX@1@ABUpiecewise_construct_t@1@$$QAV?$tuple@ABG@1@$$QAV?$tuple@$$V@1@@Z$0 1000eab0 f   IOCPS.obj
 0001:0000dac1       __ehhandler$??$construct@U?$pair@$$CBIPAVCIOCPBuffer@@@std@@ABUpiecewise_construct_t@2@V?$tuple@ABI@2@V?$tuple@$$V@2@@?$allocator@U?$_Tree_node@U?$pair@$$CBIPAVCIOCPBuffer@@@std@@PAX@std@@@std@@QAEXPAU?$pair@$$CBIPAVCIOCPBuffer@@@1@ABUpiecewise_construct_t@1@$$QAV?$tuple@ABI@1@$$QAV?$tuple@$$V@1@@Z 1000eac1 f   IOCPS.obj
 0001:0000dac1       __ehhandler$??$construct@U?$pair@$$CBGPAX@std@@ABUpiecewise_construct_t@2@V?$tuple@ABG@2@V?$tuple@$$V@2@@?$allocator@U?$_Tree_node@U?$pair@$$CBGPAX@std@@PAX@std@@@std@@QAEXPAU?$pair@$$CBGPAX@1@ABUpiecewise_construct_t@1@$$QAV?$tuple@ABG@1@$$QAV?$tuple@$$V@1@@Z 1000eac1 f   IOCPS.obj
 0001:0000dac1       __ehhandler$??$construct@U?$pair@$$CBIPAUClientContext@@@std@@ABUpiecewise_construct_t@2@V?$tuple@ABI@2@V?$tuple@$$V@2@@?$allocator@U?$_Tree_node@U?$pair@$$CBIPAUClientContext@@@std@@PAX@std@@@std@@QAEXPAU?$pair@$$CBIPAUClientContext@@@1@ABUpiecewise_construct_t@1@$$QAV?$tuple@ABI@1@$$QAV?$tuple@$$V@1@@Z 1000eac1 f   IOCPS.obj
 0001:0000dae0       __unwindfunclet$??0ITIOCP@@QAE@XZ$0 1000eae0 f   MyIOCP.obj
 0001:0000dae8       __unwindfunclet$??0ITIOCP@@QAE@XZ$1 1000eae8 f   MyIOCP.obj
 0001:0000daf6       __unwindfunclet$??0ITIOCP@@QAE@XZ$2 1000eaf6 f   MyIOCP.obj
 0001:0000db04       __ehhandler$??0ITIOCP@@QAE@XZ 1000eb04 f   MyIOCP.obj
 0001:0000db20       __unwindfunclet$?BuildPackageAndSend@ITIOCP@@QAEHPAUClientContext@@V?$basic_string@DU?$char_traits@D@std@@V?$allocator@D@2@@std@@@Z$0 1000eb20 f   MyIOCP.obj
 0001:0000db28       __ehhandler$?BuildPackageAndSend@ITIOCP@@QAEHPAUClientContext@@V?$basic_string@DU?$char_traits@D@std@@V?$allocator@D@2@@std@@@Z 1000eb28 f   MyIOCP.obj
 0001:0000db50       __unwindfunclet$?CreateServerSocket@@YGPAVSocket@@XZ$0 1000eb50 f   MyIOCP.obj
 0001:0000db62       __ehhandler$?CreateServerSocket@@YGPAVSocket@@XZ 1000eb62 f   MyIOCP.obj
 0001:0000db80       __unwindfunclet$?CreateClientSocket@@YGPAVSocket@@XZ$0 1000eb80 f   MyIOCP.obj
 0001:0000db92       __ehhandler$?CreateClientSocket@@YGPAVSocket@@XZ 1000eb92 f   MyIOCP.obj
 0001:0000dbb0       __unwindfunclet$??0?$basic_string@DU?$char_traits@D@std@@V?$allocator@D@2@@std@@QAE@ABV01@@Z$0 1000ebb0 f   MyIOCP.obj
 0001:0000dbb8       __ehhandler$??0?$basic_string@DU?$char_traits@D@std@@V?$allocator@D@2@@std@@QAE@ABV01@@Z 1000ebb8 f   MyIOCP.obj
 0002:0000018c       _GS_ExceptionPointers      1000f18c     MSVCRT:gs_report.obj
 0002:00000228       $SG4294965846              1000f228     IOCPS.obj
 0002:0000026e       $SG4294965811              1000f26e     IOCPS.obj
 0002:0000026f       $SG4294965810              1000f26f     IOCPS.obj
 0002:00000270       $SG4294965845              1000f270     IOCPS.obj
 0002:000002a9       $SG4294965803              1000f2a9     IOCPS.obj
 0002:000002aa       $SG4294965786              1000f2aa     IOCPS.obj
 0002:000002ab       $SG4294965785              1000f2ab     IOCPS.obj
 0002:000002ac       $SG4294965844              1000f2ac     IOCPS.obj
 0002:000002dd       $SG4294965772              1000f2dd     IOCPS.obj
 0002:000002de       $SG4294965771              1000f2de     IOCPS.obj
 0002:000002df       ?piecewise_construct@std@@3Upiecewise_construct_t@1@B 1000f2df     IOCPS.obj
 0002:000002e0       $SG4294965843              1000f2e0     IOCPS.obj
 0002:0000031a       $SG4294961265              1000f31a     MyIOCP.obj
 0002:0000031b       $SG4294961264              1000f31b     MyIOCP.obj
 0002:0000031c       $SG4294965842              1000f31c     IOCPS.obj
 0002:00000350       $SG4294965813              1000f350     IOCPS.obj
 0002:00000394       $SG4294965812              1000f394     IOCPS.obj
 0002:000003d0       $SG4294965802              1000f3d0     IOCPS.obj
 0002:00000434       $SG4294965801              1000f434     IOCPS.obj
 0002:00000460       $SG4294965800              1000f460     IOCPS.obj
 0002:000004ac       $SG4294965799              1000f4ac     IOCPS.obj
 0002:000004e0       $SG4294965798              1000f4e0     IOCPS.obj
 0002:00000538       $SG4294965797              1000f538     IOCPS.obj
 0002:00000568       $SG4294965796              1000f568     IOCPS.obj
 0002:000005f0       $SG4294965795              1000f5f0     IOCPS.obj
 0002:00000678       $SG4294965794              1000f678     IOCPS.obj
 0002:00000778       $SG4294965793              1000f778     IOCPS.obj
 0002:00000818       $SG4294965792              1000f818     IOCPS.obj
 0002:00000878       $SG4294965791              1000f878     IOCPS.obj
 0002:000008d8       $SG4294965790              1000f8d8     IOCPS.obj
 0002:000009b0       $SG4294965789              1000f9b0     IOCPS.obj
 0002:00000a50       $SG4294965788              1000fa50     IOCPS.obj
 0002:00000acc       $SG4294965787              1000facc     IOCPS.obj
 0002:00000af0       $SG4294965784              1000faf0     IOCPS.obj
 0002:00000b3c       $SG4294965783              1000fb3c     IOCPS.obj
 0002:00000b74       $SG4294965782              1000fb74     IOCPS.obj
 0002:00000ba8       $SG4294965781              1000fba8     IOCPS.obj
 0002:00000bd8       $SG4294965780              1000fbd8     IOCPS.obj
 0002:00000c00       $SG4294965779              1000fc00     IOCPS.obj
 0002:00000c28       $SG4294965778              1000fc28     IOCPS.obj
 0002:00000c70       $SG4294965773              1000fc70     IOCPS.obj
 0002:00000ca8       $SG4294965770              1000fca8     IOCPS.obj
 0002:00000cec       $SG4294965769              1000fcec     IOCPS.obj
 0002:00000d10       $SG4294961263              1000fd10     MyIOCP.obj
 0002:00000d48       $SG4294961262              1000fd48     MyIOCP.obj
 0002:00001b28       __ehfuncinfo$?CreatePackage@CIOCPBuffer@@QAEHEV?$basic_string@DU?$char_traits@D@std@@V?$allocator@D@2@@std@@@Z 10010b28     IOCPBuffer.obj
 0002:00001b4c       __unwindtable$?CreatePackage@CIOCPBuffer@@QAEHEV?$basic_string@DU?$char_traits@D@std@@V?$allocator@D@2@@std@@@Z 10010b4c     IOCPBuffer.obj
 0002:00001b54       __ehfuncinfo$?_Make_iter@?$list@PAVCIOCPBuffer@@V?$allocator@PAVCIOCPBuffer@@@std@@@std@@QBE?AV?$_List_iterator@V?$_List_val@U?$_List_simple_types@PAVCIOCPBuffer@@@std@@@std@@@2@V?$_List_const_iterator@V?$_List_val@U?$_List_simple_types@PAVCIOCPBuffer@@@std@@@std@@@2@@Z 10010b54     IOCPS.obj
 0002:00001b54       __ehfuncinfo$?_Make_iter@?$list@PAUClientContext@@V?$allocator@PAUClientContext@@@std@@@std@@QBE?AV?$_List_iterator@V?$_List_val@U?$_List_simple_types@PAUClientContext@@@std@@@std@@@2@V?$_List_const_iterator@V?$_List_val@U?$_List_simple_types@PAUClientContext@@@std@@@std@@@2@@Z 10010b54     IOCPS.obj
 0002:00001b54       __ehfuncinfo$?_Make_iter@?$list@PAUJobItem@@V?$allocator@PAUJobItem@@@std@@@std@@QBE?AV?$_List_iterator@V?$_List_val@U?$_List_simple_types@PAUJobItem@@@std@@@std@@@2@V?$_List_const_iterator@V?$_List_val@U?$_List_simple_types@PAUJobItem@@@std@@@std@@@2@@Z 10010b54     IOCPS.obj
 0002:00001b54       __ehfuncinfo$??1?$_List_alloc@U?$_List_base_types@PAVCIOCPBuffer@@V?$allocator@PAVCIOCPBuffer@@@std@@@std@@@std@@QAE@XZ 10010b54     IOCPS.obj
 0002:00001b54       __ehfuncinfo$??1IOCPS@@UAE@XZ 10010b54     IOCPS.obj
 0002:00001b54       __ehfuncinfo$??1?$_List_alloc@U?$_List_base_types@PAXV?$allocator@PAX@std@@@std@@@std@@QAE@XZ 10010b54     IOCPS.obj
 0002:00001b54       __ehfuncinfo$??1?$_List_alloc@U?$_List_base_types@PAUClientContext@@V?$allocator@PAUClientContext@@@std@@@std@@@std@@QAE@XZ 10010b54     IOCPS.obj
 0002:00001b54       __ehfuncinfo$??1?$_List_alloc@U?$_List_base_types@PAUJobItem@@V?$allocator@PAUJobItem@@@std@@@std@@@std@@QAE@XZ 10010b54     IOCPS.obj
 0002:00001b54       __ehfuncinfo$??1?$_Tree_comp_alloc@V?$_Tmap_traits@GPAXU?$less@G@std@@V?$allocator@U?$pair@$$CBGPAX@std@@@2@$0A@@std@@@std@@QAE@XZ 10010b54     IOCPS.obj
 0002:00001b54       __ehfuncinfo$??1?$_Tree_comp_alloc@V?$_Tmap_traits@IPAUClientContext@@U?$less@I@std@@V?$allocator@U?$pair@$$CBIPAUClientContext@@@std@@@3@$0A@@std@@@std@@QAE@XZ 10010b54     IOCPS.obj
 0002:00001b54       __ehfuncinfo$??0?$basic_string@DU?$char_traits@D@std@@V?$allocator@D@2@@std@@QAE@XZ 10010b54     IOCPS.obj
 0002:00001b54       __ehfuncinfo$??$forward_as_tuple@ABG@std@@YA?AV?$tuple@ABG@0@ABG@Z 10010b54     IOCPS.obj
 0002:00001b54       __ehfuncinfo$??1?$_Tree_comp_alloc@V?$_Tmap_traits@IPAVCIOCPBuffer@@U?$less@I@std@@V?$allocator@U?$pair@$$CBIPAVCIOCPBuffer@@@std@@@3@$0A@@std@@@std@@QAE@XZ 10010b54     IOCPS.obj
 0002:00001b54       __ehfuncinfo$??0?$basic_string@DU?$char_traits@D@std@@V?$allocator@D@2@@std@@QAE@$$QAV01@@Z 10010b54     IOCPS.obj
 0002:00001b54       __ehfuncinfo$??1?$list@PAVCIOCPBuffer@@V?$allocator@PAVCIOCPBuffer@@@std@@@std@@QAE@XZ 10010b54     IOCPS.obj
 0002:00001b54       __ehfuncinfo$?begin@?$list@PAVCIOCPBuffer@@V?$allocator@PAVCIOCPBuffer@@@std@@@std@@QAE?AV?$_List_iterator@V?$_List_val@U?$_List_simple_types@PAVCIOCPBuffer@@@std@@@std@@@2@XZ 10010b54     IOCPS.obj
 0002:00001b54       __ehfuncinfo$?end@?$list@PAVCIOCPBuffer@@V?$allocator@PAVCIOCPBuffer@@@std@@@std@@QAE?AV?$_List_iterator@V?$_List_val@U?$_List_simple_types@PAVCIOCPBuffer@@@std@@@std@@@2@XZ 10010b54     IOCPS.obj
 0002:00001b54       __ehfuncinfo$?clear@?$list@PAVCIOCPBuffer@@V?$allocator@PAVCIOCPBuffer@@@std@@@std@@QAEXXZ 10010b54     IOCPS.obj
 0002:00001b54       __ehfuncinfo$??1?$_Tree@V?$_Tmap_traits@IPAVCIOCPBuffer@@U?$less@I@std@@V?$allocator@U?$pair@$$CBIPAVCIOCPBuffer@@@std@@@3@$0A@@std@@@std@@QAE@XZ 10010b54     IOCPS.obj
 0002:00001b54       __ehfuncinfo$?begin@?$_Tree@V?$_Tmap_traits@IPAVCIOCPBuffer@@U?$less@I@std@@V?$allocator@U?$pair@$$CBIPAVCIOCPBuffer@@@std@@@3@$0A@@std@@@std@@QAE?AV?$_Tree_iterator@V?$_Tree_val@U?$_Tree_simple_types@U?$pair@$$CBIPAVCIOCPBuffer@@@std@@@std@@@std@@@2@XZ 10010b54     IOCPS.obj
 0002:00001b54       __ehfuncinfo$?end@?$_Tree@V?$_Tmap_traits@IPAVCIOCPBuffer@@U?$less@I@std@@V?$allocator@U?$pair@$$CBIPAVCIOCPBuffer@@@std@@@3@$0A@@std@@@std@@QAE?AV?$_Tree_iterator@V?$_Tree_val@U?$_Tree_simple_types@U?$pair@$$CBIPAVCIOCPBuffer@@@std@@@std@@@std@@@2@XZ 10010b54     IOCPS.obj
 0002:00001b54       __ehfuncinfo$?clear@?$_Tree@V?$_Tmap_traits@IPAVCIOCPBuffer@@U?$less@I@std@@V?$allocator@U?$pair@$$CBIPAVCIOCPBuffer@@@std@@@3@$0A@@std@@@std@@QAEXXZ 10010b54     IOCPS.obj
 0002:00001b54       __ehfuncinfo$??1?$list@PAXV?$allocator@PAX@std@@@std@@QAE@XZ 10010b54     IOCPS.obj
 0002:00001b54       __ehfuncinfo$?begin@?$list@PAXV?$allocator@PAX@std@@@std@@QAE?AV?$_List_iterator@V?$_List_val@U?$_List_simple_types@PAX@std@@@std@@@2@XZ 10010b54     IOCPS.obj
 0002:00001b54       __ehfuncinfo$?end@?$list@PAXV?$allocator@PAX@std@@@std@@QAE?AV?$_List_iterator@V?$_List_val@U?$_List_simple_types@PAX@std@@@std@@@2@XZ 10010b54     IOCPS.obj
 0002:00001b54       __ehfuncinfo$?clear@?$list@PAXV?$allocator@PAX@std@@@std@@QAEXXZ 10010b54     IOCPS.obj
 0002:00001b54       __ehfuncinfo$??1?$list@PAUClientContext@@V?$allocator@PAUClientContext@@@std@@@std@@QAE@XZ 10010b54     IOCPS.obj
 0002:00001b54       __ehfuncinfo$?begin@?$list@PAUClientContext@@V?$allocator@PAUClientContext@@@std@@@std@@QAE?AV?$_List_iterator@V?$_List_val@U?$_List_simple_types@PAUClientContext@@@std@@@std@@@2@XZ 10010b54     IOCPS.obj
 0002:00001b54       __ehfuncinfo$?end@?$list@PAUClientContext@@V?$allocator@PAUClientContext@@@std@@@std@@QAE?AV?$_List_iterator@V?$_List_val@U?$_List_simple_types@PAUClientContext@@@std@@@std@@@2@XZ 10010b54     IOCPS.obj
 0002:00001b54       __ehfuncinfo$?clear@?$list@PAUClientContext@@V?$allocator@PAUClientContext@@@std@@@std@@QAEXXZ 10010b54     IOCPS.obj
 0002:00001b54       __ehfuncinfo$??1?$list@PAUJobItem@@V?$allocator@PAUJobItem@@@std@@@std@@QAE@XZ 10010b54     IOCPS.obj
 0002:00001b54       __ehfuncinfo$?begin@?$list@PAUJobItem@@V?$allocator@PAUJobItem@@@std@@@std@@QAE?AV?$_List_iterator@V?$_List_val@U?$_List_simple_types@PAUJobItem@@@std@@@std@@@2@XZ 10010b54     IOCPS.obj
 0002:00001b54       __ehfuncinfo$?end@?$list@PAUJobItem@@V?$allocator@PAUJobItem@@@std@@@std@@QAE?AV?$_List_iterator@V?$_List_val@U?$_List_simple_types@PAUJobItem@@@std@@@std@@@2@XZ 10010b54     IOCPS.obj
 0002:00001b54       __ehfuncinfo$??$forward_as_tuple@ABI@std@@YA?AV?$tuple@ABI@0@ABI@Z 10010b54     IOCPS.obj
 0002:00001b54       __ehfuncinfo$??1?$_Tree@V?$_Tmap_traits@GPAXU?$less@G@std@@V?$allocator@U?$pair@$$CBGPAX@std@@@2@$0A@@std@@@std@@QAE@XZ 10010b54     IOCPS.obj
 0002:00001b54       __ehfuncinfo$?begin@?$_Tree@V?$_Tmap_traits@GPAXU?$less@G@std@@V?$allocator@U?$pair@$$CBGPAX@std@@@2@$0A@@std@@@std@@QAE?AV?$_Tree_iterator@V?$_Tree_val@U?$_Tree_simple_types@U?$pair@$$CBGPAX@std@@@std@@@std@@@2@XZ 10010b54     IOCPS.obj
 0002:00001b54       __ehfuncinfo$?end@?$_Tree@V?$_Tmap_traits@GPAXU?$less@G@std@@V?$allocator@U?$pair@$$CBGPAX@std@@@2@$0A@@std@@@std@@QAE?AV?$_Tree_iterator@V?$_Tree_val@U?$_Tree_simple_types@U?$pair@$$CBGPAX@std@@@std@@@std@@@2@XZ 10010b54     IOCPS.obj
 0002:00001b54       __ehfuncinfo$?clear@?$_Tree@V?$_Tmap_traits@GPAXU?$less@G@std@@V?$allocator@U?$pair@$$CBGPAX@std@@@2@$0A@@std@@@std@@QAEXXZ 10010b54     IOCPS.obj
 0002:00001b54       __ehfuncinfo$??1?$_Tree@V?$_Tmap_traits@IPAUClientContext@@U?$less@I@std@@V?$allocator@U?$pair@$$CBIPAUClientContext@@@std@@@3@$0A@@std@@@std@@QAE@XZ 10010b54     IOCPS.obj
 0002:00001b54       __ehfuncinfo$?begin@?$_Tree@V?$_Tmap_traits@IPAUClientContext@@U?$less@I@std@@V?$allocator@U?$pair@$$CBIPAUClientContext@@@std@@@3@$0A@@std@@@std@@QAE?AV?$_Tree_iterator@V?$_Tree_val@U?$_Tree_simple_types@U?$pair@$$CBIPAUClientContext@@@std@@@std@@@std@@@2@XZ 10010b54     IOCPS.obj
 0002:00001b54       __ehfuncinfo$?end@?$_Tree@V?$_Tmap_traits@IPAUClientContext@@U?$less@I@std@@V?$allocator@U?$pair@$$CBIPAUClientContext@@@std@@@3@$0A@@std@@@std@@QAE?AV?$_Tree_iterator@V?$_Tree_val@U?$_Tree_simple_types@U?$pair@$$CBIPAUClientContext@@@std@@@std@@@std@@@2@XZ 10010b54     IOCPS.obj
 0002:00001b54       __ehfuncinfo$?clear@?$_Tree@V?$_Tmap_traits@IPAUClientContext@@U?$less@I@std@@V?$allocator@U?$pair@$$CBIPAUClientContext@@@std@@@3@$0A@@std@@@std@@QAEXXZ 10010b54     IOCPS.obj
 0002:00001b54       __ehfuncinfo$?c_str@?$basic_string@DU?$char_traits@D@std@@V?$allocator@D@2@@std@@QBEPBDXZ 10010b54     IOCPBuffer.obj
 0002:00001b54       __ehfuncinfo$?clear@?$list@PAUJobItem@@V?$allocator@PAUJobItem@@@std@@@std@@QAEXXZ 10010b54     IOCPS.obj
 0002:00001b54       __ehfuncinfo$??1?$basic_string@DU?$char_traits@D@std@@V?$allocator@D@2@@std@@QAE@XZ 10010b54     IOCPBuffer.obj
 0002:00001b78       __ehfuncinfo$?_Copy@?$basic_string@DU?$char_traits@D@std@@V?$allocator@D@2@@std@@QAEXII@Z 10010b78     IOCPBuffer.obj
 0002:00001b9c       __unwindtable$?_Copy@?$basic_string@DU?$char_traits@D@std@@V?$allocator@D@2@@std@@QAEXII@Z 10010b9c     IOCPBuffer.obj
 0002:00001bbc       __tryblocktable$?_Copy@?$basic_string@DU?$char_traits@D@std@@V?$allocator@D@2@@std@@QAEXII@Z 10010bbc     IOCPBuffer.obj
 0002:00001be4       __catchsym$?_Copy@?$basic_string@DU?$char_traits@D@std@@V?$allocator@D@2@@std@@QAEXII@Z$4 10010be4     IOCPBuffer.obj
 0002:00001bf4       __catchsym$?_Copy@?$basic_string@DU?$char_traits@D@std@@V?$allocator@D@2@@std@@QAEXII@Z$5 10010bf4     IOCPBuffer.obj
 0002:00001c08       __ehfuncinfo$??0IOCPS@@QAE@XZ 10010c08     IOCPS.obj
 0002:00001c30       __unwindtable$??0IOCPS@@QAE@XZ 10010c30     IOCPS.obj
 0002:00001c78       __ehfuncinfo$?ListnerThreadProc@IOCPS@@CGIPAX@Z 10010c78     IOCPS.obj
 0002:00001c78       __ehfuncinfo$?FreeClientContext@IOCPS@@AAEXXZ 10010c78     IOCPS.obj
 0002:00001c9c       __unwindtable$?FreeClientContext@IOCPS@@AAEXXZ 10010c9c     IOCPS.obj
 0002:00001c9c       __unwindtable$?ListnerThreadProc@IOCPS@@CGIPAX@Z 10010c9c     IOCPS.obj
 0002:00001ca4       __ehfuncinfo$?AssociateIncomingClientWithContext@IOCPS@@AAEHI@Z 10010ca4     IOCPS.obj
 0002:00001cc8       __unwindtable$?AssociateIncomingClientWithContext@IOCPS@@AAEHI@Z 10010cc8     IOCPS.obj
 0002:00001ce8       __ehfuncinfo$?OnZeroByteRead@IOCPS@@AAEXPAUClientContext@@PAVCIOCPBuffer@@@Z 10010ce8     IOCPS.obj
 0002:00001ce8       __ehfuncinfo$?OnRead@IOCPS@@AAEXPAUClientContext@@PAVCIOCPBuffer@@@Z 10010ce8     IOCPS.obj
 0002:00001d0c       __unwindtable$?OnZeroByteRead@IOCPS@@AAEXPAUClientContext@@PAVCIOCPBuffer@@@Z 10010d0c     IOCPS.obj
 0002:00001d0c       __unwindtable$?OnRead@IOCPS@@AAEXPAUClientContext@@PAVCIOCPBuffer@@@Z 10010d0c     IOCPS.obj
 0002:00001d1c       __ehfuncinfo$?OnReadCompleted@IOCPS@@AAEXPAUClientContext@@KPAVCIOCPBuffer@@@Z 10010d1c     IOCPS.obj
 0002:00001d1c       __ehfuncinfo$?NotifyDisconnectedClient@ITIOCP@@UAEXPAUClientContext@@@Z 10010d1c     MyIOCP.obj
 0002:00001d1c       __ehfuncinfo$?NotifyNewConnection@ITIOCP@@UAEXPAUClientContext@@@Z 10010d1c     MyIOCP.obj
 0002:00001d40       __unwindtable$?OnReadCompleted@IOCPS@@AAEXPAUClientContext@@KPAVCIOCPBuffer@@@Z 10010d40     IOCPS.obj
 0002:00001d40       __unwindtable$?NotifyNewConnection@ITIOCP@@UAEXPAUClientContext@@@Z 10010d40     MyIOCP.obj
 0002:00001d40       __unwindtable$?NotifyDisconnectedClient@ITIOCP@@UAEXPAUClientContext@@@Z 10010d40     MyIOCP.obj
 0002:00001d48       __ehfuncinfo$?MakeOrderdRead@IOCPS@@AAEXPAUClientContext@@PAVCIOCPBuffer@@@Z 10010d48     IOCPS.obj
 0002:00001d48       __ehfuncinfo$?OnWrite@IOCPS@@AAEXPAUClientContext@@KPAVCIOCPBuffer@@@Z 10010d48     IOCPS.obj
 0002:00001d6c       __unwindtable$?MakeOrderdRead@IOCPS@@AAEXPAUClientContext@@PAVCIOCPBuffer@@@Z 10010d6c     IOCPS.obj
 0002:00001d6c       __unwindtable$?OnWrite@IOCPS@@AAEXPAUClientContext@@KPAVCIOCPBuffer@@@Z 10010d6c     IOCPS.obj
 0002:00001d74       __ehfuncinfo$?GetHostKeyName@IOCPS@@QAE?AV?$basic_string@DU?$char_traits@D@std@@V?$allocator@D@2@@std@@I@Z 10010d74     IOCPS.obj
 0002:00001d98       __unwindtable$?GetHostKeyName@IOCPS@@QAE?AV?$basic_string@DU?$char_traits@D@std@@V?$allocator@D@2@@std@@I@Z 10010d98     IOCPS.obj
 0002:00001da0       __ehfuncinfo$?GetHostAddress@IOCPS@@QAE?AV?$basic_string@DU?$char_traits@D@std@@V?$allocator@D@2@@std@@I@Z 10010da0     IOCPS.obj
 0002:00001dc4       __unwindtable$?GetHostAddress@IOCPS@@QAE?AV?$basic_string@DU?$char_traits@D@std@@V?$allocator@D@2@@std@@I@Z 10010dc4     IOCPS.obj
 0002:00001dcc       __ehfuncinfo$?ShutDown@IOCPS@@UAEXXZ 10010dcc     IOCPS.obj
 0002:00001df0       __unwindtable$?ShutDown@IOCPS@@UAEXXZ 10010df0     IOCPS.obj
 0002:00001df8       __ehfuncinfo$?ErrorCode2Text@IOCPS@@IAE?AV?$basic_string@DU?$char_traits@D@std@@V?$allocator@D@2@@std@@K@Z 10010df8     IOCPS.obj
 0002:00001df8       __ehfuncinfo$?AZeroByteRead@IOCPS@@AAEHPAUClientContext@@PAVCIOCPBuffer@@@Z 10010df8     IOCPS.obj
 0002:00001e1c       __unwindtable$?AZeroByteRead@IOCPS@@AAEHPAUClientContext@@PAVCIOCPBuffer@@@Z 10010e1c     IOCPS.obj
 0002:00001e1c       __unwindtable$?ErrorCode2Text@IOCPS@@IAE?AV?$basic_string@DU?$char_traits@D@std@@V?$allocator@D@2@@std@@K@Z 10010e1c     IOCPS.obj
 0002:00001e24       __ehfuncinfo$?AllocateContext@IOCPS@@AAEPAUClientContext@@XZ 10010e24     IOCPS.obj
 0002:00001e48       __unwindtable$?AllocateContext@IOCPS@@AAEPAUClientContext@@XZ 10010e48     IOCPS.obj
 0002:00001e50       __ehfuncinfo$??0ClientContext@@QAE@XZ 10010e50     IOCPS.obj
 0002:00001e74       __unwindtable$??0ClientContext@@QAE@XZ 10010e74     IOCPS.obj
 0002:00001e7c       __ehfuncinfo$?AllocateBuffer@IOCPS@@IAEPAVCIOCPBuffer@@H@Z 10010e7c     IOCPS.obj
 0002:00001ea0       __unwindtable$?AllocateBuffer@IOCPS@@IAEPAVCIOCPBuffer@@H@Z 10010ea0     IOCPS.obj
 0002:00001eb0       __ehfuncinfo$?SetupListner@IOCPS@@AAEHXZ 10010eb0     IOCPS.obj
 0002:00001ed4       __unwindtable$?SetupListner@IOCPS@@AAEHXZ 10010ed4     IOCPS.obj
 0002:00001f04       __ehfuncinfo$?CreateCompletionPort@IOCPS@@AAEHXZ 10010f04     IOCPS.obj
 0002:00001f28       __unwindtable$?CreateCompletionPort@IOCPS@@AAEHXZ 10010f28     IOCPS.obj
 0002:00001f38       __ehfuncinfo$?SetupIOWorkers@IOCPS@@AAEHXZ 10010f38     IOCPS.obj
 0002:00001f5c       __unwindtable$?SetupIOWorkers@IOCPS@@AAEHXZ 10010f5c     IOCPS.obj
 0002:00001f64       __ehfuncinfo$?Connect@IOCPS@@UAEHABV?$basic_string@DU?$char_traits@D@std@@V?$allocator@D@2@@std@@H@Z 10010f64     IOCPS.obj
 0002:00001f88       __unwindtable$?Connect@IOCPS@@UAEHABV?$basic_string@DU?$char_traits@D@std@@V?$allocator@D@2@@std@@H@Z 10010f88     IOCPS.obj
 0002:00001f90       __ehfuncinfo$??0?$basic_string@DU?$char_traits@D@std@@V?$allocator@D@2@@std@@QAE@PBD@Z 10010f90     IOCPS.obj
 0002:00001fb4       __unwindtable$??0?$basic_string@DU?$char_traits@D@std@@V?$allocator@D@2@@std@@QAE@PBD@Z 10010fb4     IOCPS.obj
 0002:00001fbc       __ehfuncinfo$?_Buyheadnode@?$_Tree_comp_alloc@V?$_Tmap_traits@IPAVCIOCPBuffer@@U?$less@I@std@@V?$allocator@U?$pair@$$CBIPAVCIOCPBuffer@@@std@@@3@$0A@@std@@@std@@QAEPAU?$_Tree_node@U?$pair@$$CBIPAVCIOCPBuffer@@@std@@PAX@2@XZ 10010fbc     IOCPS.obj
 0002:00001fbc       __ehfuncinfo$?_Buyheadnode@?$_Tree_comp_alloc@V?$_Tmap_traits@GPAXU?$less@G@std@@V?$allocator@U?$pair@$$CBGPAX@std@@@2@$0A@@std@@@std@@QAEPAU?$_Tree_node@U?$pair@$$CBGPAX@std@@PAX@2@XZ 10010fbc     IOCPS.obj
 0002:00001fbc       __ehfuncinfo$?_Buyheadnode@?$_Tree_comp_alloc@V?$_Tmap_traits@IPAUClientContext@@U?$less@I@std@@V?$allocator@U?$pair@$$CBIPAUClientContext@@@std@@@3@$0A@@std@@@std@@QAEPAU?$_Tree_node@U?$pair@$$CBIPAUClientContext@@@std@@PAX@2@XZ 10010fbc     IOCPS.obj
 0002:00001fe0       __unwindtable$?_Buyheadnode@?$_Tree_comp_alloc@V?$_Tmap_traits@IPAUClientContext@@U?$less@I@std@@V?$allocator@U?$pair@$$CBIPAUClientContext@@@std@@@3@$0A@@std@@@std@@QAEPAU?$_Tree_node@U?$pair@$$CBIPAUClientContext@@@std@@PAX@2@XZ 10010fe0     IOCPS.obj
 0002:00001fe0       __unwindtable$?_Buyheadnode@?$_Tree_comp_alloc@V?$_Tmap_traits@GPAXU?$less@G@std@@V?$allocator@U?$pair@$$CBGPAX@std@@@2@$0A@@std@@@std@@QAEPAU?$_Tree_node@U?$pair@$$CBGPAX@std@@PAX@2@XZ 10010fe0     IOCPS.obj
 0002:00001fe0       __unwindtable$?_Buyheadnode@?$_Tree_comp_alloc@V?$_Tmap_traits@IPAVCIOCPBuffer@@U?$less@I@std@@V?$allocator@U?$pair@$$CBIPAVCIOCPBuffer@@@std@@@3@$0A@@std@@@std@@QAEPAU?$_Tree_node@U?$pair@$$CBIPAVCIOCPBuffer@@@std@@PAX@2@XZ 10010fe0     IOCPS.obj
 0002:00001ff0       __tryblocktable$?_Buyheadnode@?$_Tree_comp_alloc@V?$_Tmap_traits@IPAUClientContext@@U?$less@I@std@@V?$allocator@U?$pair@$$CBIPAUClientContext@@@std@@@3@$0A@@std@@@std@@QAEPAU?$_Tree_node@U?$pair@$$CBIPAUClientContext@@@std@@PAX@2@XZ 10010ff0     IOCPS.obj
 0002:00001ff0       __tryblocktable$?_Buyheadnode@?$_Tree_comp_alloc@V?$_Tmap_traits@GPAXU?$less@G@std@@V?$allocator@U?$pair@$$CBGPAX@std@@@2@$0A@@std@@@std@@QAEPAU?$_Tree_node@U?$pair@$$CBGPAX@std@@PAX@2@XZ 10010ff0     IOCPS.obj
 0002:00001ff0       __tryblocktable$?_Buyheadnode@?$_Tree_comp_alloc@V?$_Tmap_traits@IPAVCIOCPBuffer@@U?$less@I@std@@V?$allocator@U?$pair@$$CBIPAVCIOCPBuffer@@@std@@@3@$0A@@std@@@std@@QAEPAU?$_Tree_node@U?$pair@$$CBIPAVCIOCPBuffer@@@std@@PAX@2@XZ 10010ff0     IOCPS.obj
 0002:00002004       __catchsym$?_Buyheadnode@?$_Tree_comp_alloc@V?$_Tmap_traits@IPAUClientContext@@U?$less@I@std@@V?$allocator@U?$pair@$$CBIPAUClientContext@@@std@@@3@$0A@@std@@@std@@QAEPAU?$_Tree_node@U?$pair@$$CBIPAUClientContext@@@std@@PAX@2@XZ$2 10011004     IOCPS.obj
 0002:00002004       __catchsym$?_Buyheadnode@?$_Tree_comp_alloc@V?$_Tmap_traits@IPAVCIOCPBuffer@@U?$less@I@std@@V?$allocator@U?$pair@$$CBIPAVCIOCPBuffer@@@std@@@3@$0A@@std@@@std@@QAEPAU?$_Tree_node@U?$pair@$$CBIPAVCIOCPBuffer@@@std@@PAX@2@XZ$2 10011004     IOCPS.obj
 0002:00002004       __catchsym$?_Buyheadnode@?$_Tree_comp_alloc@V?$_Tmap_traits@GPAXU?$less@G@std@@V?$allocator@U?$pair@$$CBGPAX@std@@@2@$0A@@std@@@std@@QAEPAU?$_Tree_node@U?$pair@$$CBGPAX@std@@PAX@2@XZ$2 10011004     IOCPS.obj
 0002:00002014       __ehfuncinfo$?_Buynode0@?$_List_alloc@U?$_List_base_types@PAUClientContext@@V?$allocator@PAUClientContext@@@std@@@std@@@std@@QAEPAU?$_List_node@PAUClientContext@@PAX@2@PAU32@0@Z 10011014     IOCPS.obj
 0002:00002014       __ehfuncinfo$?_Buynode0@?$_List_alloc@U?$_List_base_types@PAVCIOCPBuffer@@V?$allocator@PAVCIOCPBuffer@@@std@@@std@@@std@@QAEPAU?$_List_node@PAVCIOCPBuffer@@PAX@2@PAU32@0@Z 10011014     IOCPS.obj
 0002:00002014       __ehfuncinfo$?_Buynode0@?$_List_alloc@U?$_List_base_types@PAUJobItem@@V?$allocator@PAUJobItem@@@std@@@std@@@std@@QAEPAU?$_List_node@PAUJobItem@@PAX@2@PAU32@0@Z 10011014     IOCPS.obj
 0002:00002014       __ehfuncinfo$?_Buynode0@?$_List_alloc@U?$_List_base_types@PAXV?$allocator@PAX@std@@@std@@@std@@QAEPAU?$_List_node@PAXPAX@2@PAU32@0@Z 10011014     IOCPS.obj
 0002:00002038       __unwindtable$?_Buynode0@?$_List_alloc@U?$_List_base_types@PAUJobItem@@V?$allocator@PAUJobItem@@@std@@@std@@@std@@QAEPAU?$_List_node@PAUJobItem@@PAX@2@PAU32@0@Z 10011038     IOCPS.obj
 0002:00002038       __unwindtable$?_Buynode0@?$_List_alloc@U?$_List_base_types@PAXV?$allocator@PAX@std@@@std@@@std@@QAEPAU?$_List_node@PAXPAX@2@PAU32@0@Z 10011038     IOCPS.obj
 0002:00002038       __unwindtable$?_Buynode0@?$_List_alloc@U?$_List_base_types@PAUClientContext@@V?$allocator@PAUClientContext@@@std@@@std@@@std@@QAEPAU?$_List_node@PAUClientContext@@PAX@2@PAU32@0@Z 10011038     IOCPS.obj
 0002:00002038       __unwindtable$?_Buynode0@?$_List_alloc@U?$_List_base_types@PAVCIOCPBuffer@@V?$allocator@PAVCIOCPBuffer@@@std@@@std@@@std@@QAEPAU?$_List_node@PAVCIOCPBuffer@@PAX@2@PAU32@0@Z 10011038     IOCPS.obj
 0002:00002048       __tryblocktable$?_Buynode0@?$_List_alloc@U?$_List_base_types@PAUJobItem@@V?$allocator@PAUJobItem@@@std@@@std@@@std@@QAEPAU?$_List_node@PAUJobItem@@PAX@2@PAU32@0@Z 10011048     IOCPS.obj
 0002:00002048       __tryblocktable$?_Buynode0@?$_List_alloc@U?$_List_base_types@PAXV?$allocator@PAX@std@@@std@@@std@@QAEPAU?$_List_node@PAXPAX@2@PAU32@0@Z 10011048     IOCPS.obj
 0002:00002048       __tryblocktable$?_Buynode0@?$_List_alloc@U?$_List_base_types@PAUClientContext@@V?$allocator@PAUClientContext@@@std@@@std@@@std@@QAEPAU?$_List_node@PAUClientContext@@PAX@2@PAU32@0@Z 10011048     IOCPS.obj
 0002:00002048       __tryblocktable$?_Buynode0@?$_List_alloc@U?$_List_base_types@PAVCIOCPBuffer@@V?$allocator@PAVCIOCPBuffer@@@std@@@std@@@std@@QAEPAU?$_List_node@PAVCIOCPBuffer@@PAX@2@PAU32@0@Z 10011048     IOCPS.obj
 0002:0000205c       __catchsym$?_Buynode0@?$_List_alloc@U?$_List_base_types@PAVCIOCPBuffer@@V?$allocator@PAVCIOCPBuffer@@@std@@@std@@@std@@QAEPAU?$_List_node@PAVCIOCPBuffer@@PAX@2@PAU32@0@Z$2 1001105c     IOCPS.obj
 0002:0000205c       __catchsym$?_Buynode0@?$_List_alloc@U?$_List_base_types@PAUClientContext@@V?$allocator@PAUClientContext@@@std@@@std@@@std@@QAEPAU?$_List_node@PAUClientContext@@PAX@2@PAU32@0@Z$2 1001105c     IOCPS.obj
 0002:0000205c       __catchsym$?_Buynode0@?$_List_alloc@U?$_List_base_types@PAUJobItem@@V?$allocator@PAUJobItem@@@std@@@std@@@std@@QAEPAU?$_List_node@PAUJobItem@@PAX@2@PAU32@0@Z$2 1001105c     IOCPS.obj
 0002:0000205c       __catchsym$?_Buynode0@?$_List_alloc@U?$_List_base_types@PAXV?$allocator@PAX@std@@@std@@@std@@QAEPAU?$_List_node@PAXPAX@2@PAU32@0@Z$2 1001105c     IOCPS.obj
 0002:0000206c       __ehfuncinfo$??$_Buynode@ABQAUClientContext@@@?$_List_buy@PAUClientContext@@V?$allocator@PAUClientContext@@@std@@@std@@QAEPAU?$_List_node@PAUClientContext@@PAX@1@PAU21@0ABQAUClientContext@@@Z 1001106c     IOCPS.obj
 0002:0000206c       __ehfuncinfo$??$_Buynode@ABQAVCIOCPBuffer@@@?$_List_buy@PAVCIOCPBuffer@@V?$allocator@PAVCIOCPBuffer@@@std@@@std@@QAEPAU?$_List_node@PAVCIOCPBuffer@@PAX@1@PAU21@0ABQAVCIOCPBuffer@@@Z 1001106c     IOCPS.obj
 0002:0000206c       __ehfuncinfo$??$_Buynode@ABQAX@?$_List_buy@PAXV?$allocator@PAX@std@@@std@@QAEPAU?$_List_node@PAXPAX@1@PAU21@0ABQAX@Z 1001106c     IOCPS.obj
 0002:00002090       __unwindtable$??$_Buynode@ABQAUClientContext@@@?$_List_buy@PAUClientContext@@V?$allocator@PAUClientContext@@@std@@@std@@QAEPAU?$_List_node@PAUClientContext@@PAX@1@PAU21@0ABQAUClientContext@@@Z 10011090     IOCPS.obj
 0002:00002090       __unwindtable$??$_Buynode@ABQAVCIOCPBuffer@@@?$_List_buy@PAVCIOCPBuffer@@V?$allocator@PAVCIOCPBuffer@@@std@@@std@@QAEPAU?$_List_node@PAVCIOCPBuffer@@PAX@1@PAU21@0ABQAVCIOCPBuffer@@@Z 10011090     IOCPS.obj
 0002:00002090       __unwindtable$??$_Buynode@ABQAX@?$_List_buy@PAXV?$allocator@PAX@std@@@std@@QAEPAU?$_List_node@PAXPAX@1@PAU21@0ABQAX@Z 10011090     IOCPS.obj
 0002:000020a0       __tryblocktable$??$_Buynode@ABQAVCIOCPBuffer@@@?$_List_buy@PAVCIOCPBuffer@@V?$allocator@PAVCIOCPBuffer@@@std@@@std@@QAEPAU?$_List_node@PAVCIOCPBuffer@@PAX@1@PAU21@0ABQAVCIOCPBuffer@@@Z 100110a0     IOCPS.obj
 0002:000020a0       __tryblocktable$??$_Buynode@ABQAX@?$_List_buy@PAXV?$allocator@PAX@std@@@std@@QAEPAU?$_List_node@PAXPAX@1@PAU21@0ABQAX@Z 100110a0     IOCPS.obj
 0002:000020a0       __tryblocktable$??$_Buynode@ABQAUClientContext@@@?$_List_buy@PAUClientContext@@V?$allocator@PAUClientContext@@@std@@@std@@QAEPAU?$_List_node@PAUClientContext@@PAX@1@PAU21@0ABQAUClientContext@@@Z 100110a0     IOCPS.obj
 0002:000020b4       __catchsym$??$_Buynode@ABQAX@?$_List_buy@PAXV?$allocator@PAX@std@@@std@@QAEPAU?$_List_node@PAXPAX@1@PAU21@0ABQAX@Z$2 100110b4     IOCPS.obj
 0002:000020b4       __catchsym$??$_Buynode@ABQAUClientContext@@@?$_List_buy@PAUClientContext@@V?$allocator@PAUClientContext@@@std@@@std@@QAEPAU?$_List_node@PAUClientContext@@PAX@1@PAU21@0ABQAUClientContext@@@Z$2 100110b4     IOCPS.obj
 0002:000020b4       __catchsym$??$_Buynode@ABQAVCIOCPBuffer@@@?$_List_buy@PAVCIOCPBuffer@@V?$allocator@PAVCIOCPBuffer@@@std@@@std@@QAEPAU?$_List_node@PAVCIOCPBuffer@@PAX@1@PAU21@0ABQAVCIOCPBuffer@@@Z$2 100110b4     IOCPS.obj
 0002:000020c4       __ehfuncinfo$??$_Buynode@U?$pair@GPAX@std@@@?$_Tree_comp_alloc@V?$_Tmap_traits@GPAXU?$less@G@std@@V?$allocator@U?$pair@$$CBGPAX@std@@@2@$0A@@std@@@std@@QAEPAU?$_Tree_node@U?$pair@$$CBGPAX@std@@PAX@1@$$QAU?$pair@GPAX@1@@Z 100110c4     IOCPS.obj
 0002:000020e8       __unwindtable$??$_Buynode@U?$pair@GPAX@std@@@?$_Tree_comp_alloc@V?$_Tmap_traits@GPAXU?$less@G@std@@V?$allocator@U?$pair@$$CBGPAX@std@@@2@$0A@@std@@@std@@QAEPAU?$_Tree_node@U?$pair@$$CBGPAX@std@@PAX@1@$$QAU?$pair@GPAX@1@@Z 100110e8     IOCPS.obj
 0002:000020f8       __tryblocktable$??$_Buynode@U?$pair@GPAX@std@@@?$_Tree_comp_alloc@V?$_Tmap_traits@GPAXU?$less@G@std@@V?$allocator@U?$pair@$$CBGPAX@std@@@2@$0A@@std@@@std@@QAEPAU?$_Tree_node@U?$pair@$$CBGPAX@std@@PAX@1@$$QAU?$pair@GPAX@1@@Z 100110f8     IOCPS.obj
 0002:0000210c       __catchsym$??$_Buynode@U?$pair@GPAX@std@@@?$_Tree_comp_alloc@V?$_Tmap_traits@GPAXU?$less@G@std@@V?$allocator@U?$pair@$$CBGPAX@std@@@2@$0A@@std@@@std@@QAEPAU?$_Tree_node@U?$pair@$$CBGPAX@std@@PAX@1@$$QAU?$pair@GPAX@1@@Z$2 1001110c     IOCPS.obj
 0002:0000211c       __ehfuncinfo$??$_Insert_nohint@AAU?$pair@$$CBGPAX@std@@PAU?$_Tree_node@U?$pair@$$CBGPAX@std@@PAX@2@@?$_Tree@V?$_Tmap_traits@GPAXU?$less@G@std@@V?$allocator@U?$pair@$$CBGPAX@std@@@2@$0A@@std@@@std@@IAE?AU?$pair@V?$_Tree_iterator@V?$_Tree_val@U?$_Tree_simple_types@U?$pair@$$CBGPAX@std@@@std@@@std@@@std@@_N@1@_NAAU?$pair@$$CBGPAX@1@PAU?$_Tree_node@U?$pair@$$CBGPAX@std@@PAX@1@@Z 1001111c     IOCPS.obj
 0002:00002140       __unwindtable$??$_Insert_nohint@AAU?$pair@$$CBGPAX@std@@PAU?$_Tree_node@U?$pair@$$CBGPAX@std@@PAX@2@@?$_Tree@V?$_Tmap_traits@GPAXU?$less@G@std@@V?$allocator@U?$pair@$$CBGPAX@std@@@2@$0A@@std@@@std@@IAE?AU?$pair@V?$_Tree_iterator@V?$_Tree_val@U?$_Tree_simple_types@U?$pair@$$CBGPAX@std@@@std@@@std@@@std@@_N@1@_NAAU?$pair@$$CBGPAX@1@PAU?$_Tree_node@U?$pair@$$CBGPAX@std@@PAX@1@@Z 10011140     IOCPS.obj
 0002:00002150       __tryblocktable$??$_Insert_nohint@AAU?$pair@$$CBGPAX@std@@PAU?$_Tree_node@U?$pair@$$CBGPAX@std@@PAX@2@@?$_Tree@V?$_Tmap_traits@GPAXU?$less@G@std@@V?$allocator@U?$pair@$$CBGPAX@std@@@2@$0A@@std@@@std@@IAE?AU?$pair@V?$_Tree_iterator@V?$_Tree_val@U?$_Tree_simple_types@U?$pair@$$CBGPAX@std@@@std@@@std@@@std@@_N@1@_NAAU?$pair@$$CBGPAX@1@PAU?$_Tree_node@U?$pair@$$CBGPAX@std@@PAX@1@@Z 10011150     IOCPS.obj
 0002:00002164       __catchsym$??$_Insert_nohint@AAU?$pair@$$CBGPAX@std@@PAU?$_Tree_node@U?$pair@$$CBGPAX@std@@PAX@2@@?$_Tree@V?$_Tmap_traits@GPAXU?$less@G@std@@V?$allocator@U?$pair@$$CBGPAX@std@@@2@$0A@@std@@@std@@IAE?AU?$pair@V?$_Tree_iterator@V?$_Tree_val@U?$_Tree_simple_types@U?$pair@$$CBGPAX@std@@@std@@@std@@@std@@_N@1@_NAAU?$pair@$$CBGPAX@1@PAU?$_Tree_node@U?$pair@$$CBGPAX@std@@PAX@1@@Z$2 10011164     IOCPS.obj
 0002:00002174       __ehfuncinfo$??$_Buynode@U?$pair@IPAVCIOCPBuffer@@@std@@@?$_Tree_comp_alloc@V?$_Tmap_traits@IPAVCIOCPBuffer@@U?$less@I@std@@V?$allocator@U?$pair@$$CBIPAVCIOCPBuffer@@@std@@@3@$0A@@std@@@std@@QAEPAU?$_Tree_node@U?$pair@$$CBIPAVCIOCPBuffer@@@std@@PAX@1@$$QAU?$pair@IPAVCIOCPBuffer@@@1@@Z 10011174     IOCPS.obj
 0002:00002198       __unwindtable$??$_Buynode@U?$pair@IPAVCIOCPBuffer@@@std@@@?$_Tree_comp_alloc@V?$_Tmap_traits@IPAVCIOCPBuffer@@U?$less@I@std@@V?$allocator@U?$pair@$$CBIPAVCIOCPBuffer@@@std@@@3@$0A@@std@@@std@@QAEPAU?$_Tree_node@U?$pair@$$CBIPAVCIOCPBuffer@@@std@@PAX@1@$$QAU?$pair@IPAVCIOCPBuffer@@@1@@Z 10011198     IOCPS.obj
 0002:000021a8       __tryblocktable$??$_Buynode@U?$pair@IPAVCIOCPBuffer@@@std@@@?$_Tree_comp_alloc@V?$_Tmap_traits@IPAVCIOCPBuffer@@U?$less@I@std@@V?$allocator@U?$pair@$$CBIPAVCIOCPBuffer@@@std@@@3@$0A@@std@@@std@@QAEPAU?$_Tree_node@U?$pair@$$CBIPAVCIOCPBuffer@@@std@@PAX@1@$$QAU?$pair@IPAVCIOCPBuffer@@@1@@Z 100111a8     IOCPS.obj
 0002:000021bc       __catchsym$??$_Buynode@U?$pair@IPAVCIOCPBuffer@@@std@@@?$_Tree_comp_alloc@V?$_Tmap_traits@IPAVCIOCPBuffer@@U?$less@I@std@@V?$allocator@U?$pair@$$CBIPAVCIOCPBuffer@@@std@@@3@$0A@@std@@@std@@QAEPAU?$_Tree_node@U?$pair@$$CBIPAVCIOCPBuffer@@@std@@PAX@1@$$QAU?$pair@IPAVCIOCPBuffer@@@1@@Z$2 100111bc     IOCPS.obj
 0002:000021cc       __ehfuncinfo$??$_Insert_nohint@AAU?$pair@$$CBIPAUClientContext@@@std@@PAU?$_Tree_node@U?$pair@$$CBIPAUClientContext@@@std@@PAX@2@@?$_Tree@V?$_Tmap_traits@IPAUClientContext@@U?$less@I@std@@V?$allocator@U?$pair@$$CBIPAUClientContext@@@std@@@3@$0A@@std@@@std@@IAE?AU?$pair@V?$_Tree_iterator@V?$_Tree_val@U?$_Tree_simple_types@U?$pair@$$CBIPAUClientContext@@@std@@@std@@@std@@@std@@_N@1@_NAAU?$pair@$$CBIPAUClientContext@@@1@PAU?$_Tree_node@U?$pair@$$CBIPAUClientContext@@@std@@PAX@1@@Z 100111cc     IOCPS.obj
 0002:000021cc       __ehfuncinfo$??$_Insert_nohint@AAU?$pair@$$CBIPAVCIOCPBuffer@@@std@@PAU?$_Tree_node@U?$pair@$$CBIPAVCIOCPBuffer@@@std@@PAX@2@@?$_Tree@V?$_Tmap_traits@IPAVCIOCPBuffer@@U?$less@I@std@@V?$allocator@U?$pair@$$CBIPAVCIOCPBuffer@@@std@@@3@$0A@@std@@@std@@IAE?AU?$pair@V?$_Tree_iterator@V?$_Tree_val@U?$_Tree_simple_types@U?$pair@$$CBIPAVCIOCPBuffer@@@std@@@std@@@std@@@std@@_N@1@_NAAU?$pair@$$CBIPAVCIOCPBuffer@@@1@PAU?$_Tree_node@U?$pair@$$CBIPAVCIOCPBuffer@@@std@@PAX@1@@Z 100111cc     IOCPS.obj
 0002:000021f0       __unwindtable$??$_Insert_nohint@AAU?$pair@$$CBIPAUClientContext@@@std@@PAU?$_Tree_node@U?$pair@$$CBIPAUClientContext@@@std@@PAX@2@@?$_Tree@V?$_Tmap_traits@IPAUClientContext@@U?$less@I@std@@V?$allocator@U?$pair@$$CBIPAUClientContext@@@std@@@3@$0A@@std@@@std@@IAE?AU?$pair@V?$_Tree_iterator@V?$_Tree_val@U?$_Tree_simple_types@U?$pair@$$CBIPAUClientContext@@@std@@@std@@@std@@@std@@_N@1@_NAAU?$pair@$$CBIPAUClientContext@@@1@PAU?$_Tree_node@U?$pair@$$CBIPAUClientContext@@@std@@PAX@1@@Z 100111f0     IOCPS.obj
 0002:000021f0       __unwindtable$??$_Insert_nohint@AAU?$pair@$$CBIPAVCIOCPBuffer@@@std@@PAU?$_Tree_node@U?$pair@$$CBIPAVCIOCPBuffer@@@std@@PAX@2@@?$_Tree@V?$_Tmap_traits@IPAVCIOCPBuffer@@U?$less@I@std@@V?$allocator@U?$pair@$$CBIPAVCIOCPBuffer@@@std@@@3@$0A@@std@@@std@@IAE?AU?$pair@V?$_Tree_iterator@V?$_Tree_val@U?$_Tree_simple_types@U?$pair@$$CBIPAVCIOCPBuffer@@@std@@@std@@@std@@@std@@_N@1@_NAAU?$pair@$$CBIPAVCIOCPBuffer@@@1@PAU?$_Tree_node@U?$pair@$$CBIPAVCIOCPBuffer@@@std@@PAX@1@@Z 100111f0     IOCPS.obj
 0002:00002200       __tryblocktable$??$_Insert_nohint@AAU?$pair@$$CBIPAVCIOCPBuffer@@@std@@PAU?$_Tree_node@U?$pair@$$CBIPAVCIOCPBuffer@@@std@@PAX@2@@?$_Tree@V?$_Tmap_traits@IPAVCIOCPBuffer@@U?$less@I@std@@V?$allocator@U?$pair@$$CBIPAVCIOCPBuffer@@@std@@@3@$0A@@std@@@std@@IAE?AU?$pair@V?$_Tree_iterator@V?$_Tree_val@U?$_Tree_simple_types@U?$pair@$$CBIPAVCIOCPBuffer@@@std@@@std@@@std@@@std@@_N@1@_NAAU?$pair@$$CBIPAVCIOCPBuffer@@@1@PAU?$_Tree_node@U?$pair@$$CBIPAVCIOCPBuffer@@@std@@PAX@1@@Z 10011200     IOCPS.obj
 0002:00002200       __tryblocktable$??$_Insert_nohint@AAU?$pair@$$CBIPAUClientContext@@@std@@PAU?$_Tree_node@U?$pair@$$CBIPAUClientContext@@@std@@PAX@2@@?$_Tree@V?$_Tmap_traits@IPAUClientContext@@U?$less@I@std@@V?$allocator@U?$pair@$$CBIPAUClientContext@@@std@@@3@$0A@@std@@@std@@IAE?AU?$pair@V?$_Tree_iterator@V?$_Tree_val@U?$_Tree_simple_types@U?$pair@$$CBIPAUClientContext@@@std@@@std@@@std@@@std@@_N@1@_NAAU?$pair@$$CBIPAUClientContext@@@1@PAU?$_Tree_node@U?$pair@$$CBIPAUClientContext@@@std@@PAX@1@@Z 10011200     IOCPS.obj
 0002:00002214       __catchsym$??$_Insert_nohint@AAU?$pair@$$CBIPAUClientContext@@@std@@PAU?$_Tree_node@U?$pair@$$CBIPAUClientContext@@@std@@PAX@2@@?$_Tree@V?$_Tmap_traits@IPAUClientContext@@U?$less@I@std@@V?$allocator@U?$pair@$$CBIPAUClientContext@@@std@@@3@$0A@@std@@@std@@IAE?AU?$pair@V?$_Tree_iterator@V?$_Tree_val@U?$_Tree_simple_types@U?$pair@$$CBIPAUClientContext@@@std@@@std@@@std@@@std@@_N@1@_NAAU?$pair@$$CBIPAUClientContext@@@1@PAU?$_Tree_node@U?$pair@$$CBIPAUClientContext@@@std@@PAX@1@@Z$2 10011214     IOCPS.obj
 0002:00002214       __catchsym$??$_Insert_nohint@AAU?$pair@$$CBIPAVCIOCPBuffer@@@std@@PAU?$_Tree_node@U?$pair@$$CBIPAVCIOCPBuffer@@@std@@PAX@2@@?$_Tree@V?$_Tmap_traits@IPAVCIOCPBuffer@@U?$less@I@std@@V?$allocator@U?$pair@$$CBIPAVCIOCPBuffer@@@std@@@3@$0A@@std@@@std@@IAE?AU?$pair@V?$_Tree_iterator@V?$_Tree_val@U?$_Tree_simple_types@U?$pair@$$CBIPAVCIOCPBuffer@@@std@@@std@@@std@@@std@@_N@1@_NAAU?$pair@$$CBIPAVCIOCPBuffer@@@1@PAU?$_Tree_node@U?$pair@$$CBIPAVCIOCPBuffer@@@std@@PAX@1@@Z$2 10011214     IOCPS.obj
 0002:00002224       __ehfuncinfo$?_Buynode0@?$_Tree_comp_alloc@V?$_Tmap_traits@GPAXU?$less@G@std@@V?$allocator@U?$pair@$$CBGPAX@std@@@2@$0A@@std@@@std@@QAEPAU?$_Tree_node@U?$pair@$$CBGPAX@std@@PAX@2@XZ 10011224     IOCPS.obj
 0002:00002224       __ehfuncinfo$?_Buynode0@?$_Tree_comp_alloc@V?$_Tmap_traits@IPAUClientContext@@U?$less@I@std@@V?$allocator@U?$pair@$$CBIPAUClientContext@@@std@@@3@$0A@@std@@@std@@QAEPAU?$_Tree_node@U?$pair@$$CBIPAUClientContext@@@std@@PAX@2@XZ 10011224     IOCPS.obj
 0002:00002224       __ehfuncinfo$?_Buynode0@?$_Tree_comp_alloc@V?$_Tmap_traits@IPAVCIOCPBuffer@@U?$less@I@std@@V?$allocator@U?$pair@$$CBIPAVCIOCPBuffer@@@std@@@3@$0A@@std@@@std@@QAEPAU?$_Tree_node@U?$pair@$$CBIPAVCIOCPBuffer@@@std@@PAX@2@XZ 10011224     IOCPS.obj
 0002:00002248       __unwindtable$?_Buynode0@?$_Tree_comp_alloc@V?$_Tmap_traits@IPAVCIOCPBuffer@@U?$less@I@std@@V?$allocator@U?$pair@$$CBIPAVCIOCPBuffer@@@std@@@3@$0A@@std@@@std@@QAEPAU?$_Tree_node@U?$pair@$$CBIPAVCIOCPBuffer@@@std@@PAX@2@XZ 10011248     IOCPS.obj
 0002:00002248       __unwindtable$?_Buynode0@?$_Tree_comp_alloc@V?$_Tmap_traits@IPAUClientContext@@U?$less@I@std@@V?$allocator@U?$pair@$$CBIPAUClientContext@@@std@@@3@$0A@@std@@@std@@QAEPAU?$_Tree_node@U?$pair@$$CBIPAUClientContext@@@std@@PAX@2@XZ 10011248     IOCPS.obj
 0002:00002248       __unwindtable$?_Buynode0@?$_Tree_comp_alloc@V?$_Tmap_traits@GPAXU?$less@G@std@@V?$allocator@U?$pair@$$CBGPAX@std@@@2@$0A@@std@@@std@@QAEPAU?$_Tree_node@U?$pair@$$CBGPAX@std@@PAX@2@XZ 10011248     IOCPS.obj
 0002:00002258       __tryblocktable$?_Buynode0@?$_Tree_comp_alloc@V?$_Tmap_traits@IPAVCIOCPBuffer@@U?$less@I@std@@V?$allocator@U?$pair@$$CBIPAVCIOCPBuffer@@@std@@@3@$0A@@std@@@std@@QAEPAU?$_Tree_node@U?$pair@$$CBIPAVCIOCPBuffer@@@std@@PAX@2@XZ 10011258     IOCPS.obj
 0002:00002258       __tryblocktable$?_Buynode0@?$_Tree_comp_alloc@V?$_Tmap_traits@GPAXU?$less@G@std@@V?$allocator@U?$pair@$$CBGPAX@std@@@2@$0A@@std@@@std@@QAEPAU?$_Tree_node@U?$pair@$$CBGPAX@std@@PAX@2@XZ 10011258     IOCPS.obj
 0002:00002258       __tryblocktable$?_Buynode0@?$_Tree_comp_alloc@V?$_Tmap_traits@IPAUClientContext@@U?$less@I@std@@V?$allocator@U?$pair@$$CBIPAUClientContext@@@std@@@3@$0A@@std@@@std@@QAEPAU?$_Tree_node@U?$pair@$$CBIPAUClientContext@@@std@@PAX@2@XZ 10011258     IOCPS.obj
 0002:0000226c       __catchsym$?_Buynode0@?$_Tree_comp_alloc@V?$_Tmap_traits@IPAUClientContext@@U?$less@I@std@@V?$allocator@U?$pair@$$CBIPAUClientContext@@@std@@@3@$0A@@std@@@std@@QAEPAU?$_Tree_node@U?$pair@$$CBIPAUClientContext@@@std@@PAX@2@XZ$2 1001126c     IOCPS.obj
 0002:0000226c       __catchsym$?_Buynode0@?$_Tree_comp_alloc@V?$_Tmap_traits@IPAVCIOCPBuffer@@U?$less@I@std@@V?$allocator@U?$pair@$$CBIPAVCIOCPBuffer@@@std@@@3@$0A@@std@@@std@@QAEPAU?$_Tree_node@U?$pair@$$CBIPAVCIOCPBuffer@@@std@@PAX@2@XZ$2 1001126c     IOCPS.obj
 0002:0000226c       __catchsym$?_Buynode0@?$_Tree_comp_alloc@V?$_Tmap_traits@GPAXU?$less@G@std@@V?$allocator@U?$pair@$$CBGPAX@std@@@2@$0A@@std@@@std@@QAEPAU?$_Tree_node@U?$pair@$$CBGPAX@std@@PAX@2@XZ$2 1001126c     IOCPS.obj
 0002:0000227c       __ehfuncinfo$??$_Buynode@ABUpiecewise_construct_t@std@@V?$tuple@ABG@2@V?$tuple@$$V@2@@?$_Tree_comp_alloc@V?$_Tmap_traits@GPAXU?$less@G@std@@V?$allocator@U?$pair@$$CBGPAX@std@@@2@$0A@@std@@@std@@QAEPAU?$_Tree_node@U?$pair@$$CBGPAX@std@@PAX@1@ABUpiecewise_construct_t@1@$$QAV?$tuple@ABG@1@$$QAV?$tuple@$$V@1@@Z 1001127c     IOCPS.obj
 0002:000022a0       __unwindtable$??$_Buynode@ABUpiecewise_construct_t@std@@V?$tuple@ABG@2@V?$tuple@$$V@2@@?$_Tree_comp_alloc@V?$_Tmap_traits@GPAXU?$less@G@std@@V?$allocator@U?$pair@$$CBGPAX@std@@@2@$0A@@std@@@std@@QAEPAU?$_Tree_node@U?$pair@$$CBGPAX@std@@PAX@1@ABUpiecewise_construct_t@1@$$QAV?$tuple@ABG@1@$$QAV?$tuple@$$V@1@@Z 100112a0     IOCPS.obj
 0002:000022b0       __tryblocktable$??$_Buynode@ABUpiecewise_construct_t@std@@V?$tuple@ABG@2@V?$tuple@$$V@2@@?$_Tree_comp_alloc@V?$_Tmap_traits@GPAXU?$less@G@std@@V?$allocator@U?$pair@$$CBGPAX@std@@@2@$0A@@std@@@std@@QAEPAU?$_Tree_node@U?$pair@$$CBGPAX@std@@PAX@1@ABUpiecewise_construct_t@1@$$QAV?$tuple@ABG@1@$$QAV?$tuple@$$V@1@@Z 100112b0     IOCPS.obj
 0002:000022c4       __catchsym$??$_Buynode@ABUpiecewise_construct_t@std@@V?$tuple@ABG@2@V?$tuple@$$V@2@@?$_Tree_comp_alloc@V?$_Tmap_traits@GPAXU?$less@G@std@@V?$allocator@U?$pair@$$CBGPAX@std@@@2@$0A@@std@@@std@@QAEPAU?$_Tree_node@U?$pair@$$CBGPAX@std@@PAX@1@ABUpiecewise_construct_t@1@$$QAV?$tuple@ABG@1@$$QAV?$tuple@$$V@1@@Z$2 100112c4     IOCPS.obj
 0002:000022d4       __ehfuncinfo$??$_Insert_hint@AAU?$pair@$$CBGPAX@std@@PAU?$_Tree_node@U?$pair@$$CBGPAX@std@@PAX@2@@?$_Tree@V?$_Tmap_traits@GPAXU?$less@G@std@@V?$allocator@U?$pair@$$CBGPAX@std@@@2@$0A@@std@@@std@@IAE?AV?$_Tree_iterator@V?$_Tree_val@U?$_Tree_simple_types@U?$pair@$$CBGPAX@std@@@std@@@std@@@1@V?$_Tree_const_iterator@V?$_Tree_val@U?$_Tree_simple_types@U?$pair@$$CBGPAX@std@@@std@@@std@@@1@AAU?$pair@$$CBGPAX@1@PAU?$_Tree_node@U?$pair@$$CBGPAX@std@@PAX@1@@Z 100112d4     IOCPS.obj
 0002:000022f8       __unwindtable$??$_Insert_hint@AAU?$pair@$$CBGPAX@std@@PAU?$_Tree_node@U?$pair@$$CBGPAX@std@@PAX@2@@?$_Tree@V?$_Tmap_traits@GPAXU?$less@G@std@@V?$allocator@U?$pair@$$CBGPAX@std@@@2@$0A@@std@@@std@@IAE?AV?$_Tree_iterator@V?$_Tree_val@U?$_Tree_simple_types@U?$pair@$$CBGPAX@std@@@std@@@std@@@1@V?$_Tree_const_iterator@V?$_Tree_val@U?$_Tree_simple_types@U?$pair@$$CBGPAX@std@@@std@@@std@@@1@AAU?$pair@$$CBGPAX@1@PAU?$_Tree_node@U?$pair@$$CBGPAX@std@@PAX@1@@Z 100112f8     IOCPS.obj
 0002:00002308       __tryblocktable$??$_Insert_hint@AAU?$pair@$$CBGPAX@std@@PAU?$_Tree_node@U?$pair@$$CBGPAX@std@@PAX@2@@?$_Tree@V?$_Tmap_traits@GPAXU?$less@G@std@@V?$allocator@U?$pair@$$CBGPAX@std@@@2@$0A@@std@@@std@@IAE?AV?$_Tree_iterator@V?$_Tree_val@U?$_Tree_simple_types@U?$pair@$$CBGPAX@std@@@std@@@std@@@1@V?$_Tree_const_iterator@V?$_Tree_val@U?$_Tree_simple_types@U?$pair@$$CBGPAX@std@@@std@@@std@@@1@AAU?$pair@$$CBGPAX@1@PAU?$_Tree_node@U?$pair@$$CBGPAX@std@@PAX@1@@Z 10011308     IOCPS.obj
 0002:0000231c       __catchsym$??$_Insert_hint@AAU?$pair@$$CBGPAX@std@@PAU?$_Tree_node@U?$pair@$$CBGPAX@std@@PAX@2@@?$_Tree@V?$_Tmap_traits@GPAXU?$less@G@std@@V?$allocator@U?$pair@$$CBGPAX@std@@@2@$0A@@std@@@std@@IAE?AV?$_Tree_iterator@V?$_Tree_val@U?$_Tree_simple_types@U?$pair@$$CBGPAX@std@@@std@@@std@@@1@V?$_Tree_const_iterator@V?$_Tree_val@U?$_Tree_simple_types@U?$pair@$$CBGPAX@std@@@std@@@std@@@1@AAU?$pair@$$CBGPAX@1@PAU?$_Tree_node@U?$pair@$$CBGPAX@std@@PAX@1@@Z$2 1001131c     IOCPS.obj
 0002:0000232c       __ehfuncinfo$??$_Buynode@ABUpiecewise_construct_t@std@@V?$tuple@ABI@2@V?$tuple@$$V@2@@?$_Tree_comp_alloc@V?$_Tmap_traits@IPAUClientContext@@U?$less@I@std@@V?$allocator@U?$pair@$$CBIPAUClientContext@@@std@@@3@$0A@@std@@@std@@QAEPAU?$_Tree_node@U?$pair@$$CBIPAUClientContext@@@std@@PAX@1@ABUpiecewise_construct_t@1@$$QAV?$tuple@ABI@1@$$QAV?$tuple@$$V@1@@Z 1001132c     IOCPS.obj
 0002:0000232c       __ehfuncinfo$??$_Buynode@ABUpiecewise_construct_t@std@@V?$tuple@ABI@2@V?$tuple@$$V@2@@?$_Tree_comp_alloc@V?$_Tmap_traits@IPAVCIOCPBuffer@@U?$less@I@std@@V?$allocator@U?$pair@$$CBIPAVCIOCPBuffer@@@std@@@3@$0A@@std@@@std@@QAEPAU?$_Tree_node@U?$pair@$$CBIPAVCIOCPBuffer@@@std@@PAX@1@ABUpiecewise_construct_t@1@$$QAV?$tuple@ABI@1@$$QAV?$tuple@$$V@1@@Z 1001132c     IOCPS.obj
 0002:00002350       __unwindtable$??$_Buynode@ABUpiecewise_construct_t@std@@V?$tuple@ABI@2@V?$tuple@$$V@2@@?$_Tree_comp_alloc@V?$_Tmap_traits@IPAUClientContext@@U?$less@I@std@@V?$allocator@U?$pair@$$CBIPAUClientContext@@@std@@@3@$0A@@std@@@std@@QAEPAU?$_Tree_node@U?$pair@$$CBIPAUClientContext@@@std@@PAX@1@ABUpiecewise_construct_t@1@$$QAV?$tuple@ABI@1@$$QAV?$tuple@$$V@1@@Z 10011350     IOCPS.obj
 0002:00002350       __unwindtable$??$_Buynode@ABUpiecewise_construct_t@std@@V?$tuple@ABI@2@V?$tuple@$$V@2@@?$_Tree_comp_alloc@V?$_Tmap_traits@IPAVCIOCPBuffer@@U?$less@I@std@@V?$allocator@U?$pair@$$CBIPAVCIOCPBuffer@@@std@@@3@$0A@@std@@@std@@QAEPAU?$_Tree_node@U?$pair@$$CBIPAVCIOCPBuffer@@@std@@PAX@1@ABUpiecewise_construct_t@1@$$QAV?$tuple@ABI@1@$$QAV?$tuple@$$V@1@@Z 10011350     IOCPS.obj
 0002:00002360       __tryblocktable$??$_Buynode@ABUpiecewise_construct_t@std@@V?$tuple@ABI@2@V?$tuple@$$V@2@@?$_Tree_comp_alloc@V?$_Tmap_traits@IPAVCIOCPBuffer@@U?$less@I@std@@V?$allocator@U?$pair@$$CBIPAVCIOCPBuffer@@@std@@@3@$0A@@std@@@std@@QAEPAU?$_Tree_node@U?$pair@$$CBIPAVCIOCPBuffer@@@std@@PAX@1@ABUpiecewise_construct_t@1@$$QAV?$tuple@ABI@1@$$QAV?$tuple@$$V@1@@Z 10011360     IOCPS.obj
 0002:00002360       __tryblocktable$??$_Buynode@ABUpiecewise_construct_t@std@@V?$tuple@ABI@2@V?$tuple@$$V@2@@?$_Tree_comp_alloc@V?$_Tmap_traits@IPAUClientContext@@U?$less@I@std@@V?$allocator@U?$pair@$$CBIPAUClientContext@@@std@@@3@$0A@@std@@@std@@QAEPAU?$_Tree_node@U?$pair@$$CBIPAUClientContext@@@std@@PAX@1@ABUpiecewise_construct_t@1@$$QAV?$tuple@ABI@1@$$QAV?$tuple@$$V@1@@Z 10011360     IOCPS.obj
 0002:00002374       __catchsym$??$_Buynode@ABUpiecewise_construct_t@std@@V?$tuple@ABI@2@V?$tuple@$$V@2@@?$_Tree_comp_alloc@V?$_Tmap_traits@IPAVCIOCPBuffer@@U?$less@I@std@@V?$allocator@U?$pair@$$CBIPAVCIOCPBuffer@@@std@@@3@$0A@@std@@@std@@QAEPAU?$_Tree_node@U?$pair@$$CBIPAVCIOCPBuffer@@@std@@PAX@1@ABUpiecewise_construct_t@1@$$QAV?$tuple@ABI@1@$$QAV?$tuple@$$V@1@@Z$2 10011374     IOCPS.obj
 0002:00002374       __catchsym$??$_Buynode@ABUpiecewise_construct_t@std@@V?$tuple@ABI@2@V?$tuple@$$V@2@@?$_Tree_comp_alloc@V?$_Tmap_traits@IPAUClientContext@@U?$less@I@std@@V?$allocator@U?$pair@$$CBIPAUClientContext@@@std@@@3@$0A@@std@@@std@@QAEPAU?$_Tree_node@U?$pair@$$CBIPAUClientContext@@@std@@PAX@1@ABUpiecewise_construct_t@1@$$QAV?$tuple@ABI@1@$$QAV?$tuple@$$V@1@@Z$2 10011374     IOCPS.obj
 0002:00002384       __ehfuncinfo$??$_Insert_hint@AAU?$pair@$$CBIPAUClientContext@@@std@@PAU?$_Tree_node@U?$pair@$$CBIPAUClientContext@@@std@@PAX@2@@?$_Tree@V?$_Tmap_traits@IPAUClientContext@@U?$less@I@std@@V?$allocator@U?$pair@$$CBIPAUClientContext@@@std@@@3@$0A@@std@@@std@@IAE?AV?$_Tree_iterator@V?$_Tree_val@U?$_Tree_simple_types@U?$pair@$$CBIPAUClientContext@@@std@@@std@@@std@@@1@V?$_Tree_const_iterator@V?$_Tree_val@U?$_Tree_simple_types@U?$pair@$$CBIPAUClientContext@@@std@@@std@@@std@@@1@AAU?$pair@$$CBIPAUClientContext@@@1@PAU?$_Tree_node@U?$pair@$$CBIPAUClientContext@@@std@@PAX@1@@Z 10011384     IOCPS.obj
 0002:00002384       __ehfuncinfo$??$_Insert_hint@AAU?$pair@$$CBIPAVCIOCPBuffer@@@std@@PAU?$_Tree_node@U?$pair@$$CBIPAVCIOCPBuffer@@@std@@PAX@2@@?$_Tree@V?$_Tmap_traits@IPAVCIOCPBuffer@@U?$less@I@std@@V?$allocator@U?$pair@$$CBIPAVCIOCPBuffer@@@std@@@3@$0A@@std@@@std@@IAE?AV?$_Tree_iterator@V?$_Tree_val@U?$_Tree_simple_types@U?$pair@$$CBIPAVCIOCPBuffer@@@std@@@std@@@std@@@1@V?$_Tree_const_iterator@V?$_Tree_val@U?$_Tree_simple_types@U?$pair@$$CBIPAVCIOCPBuffer@@@std@@@std@@@std@@@1@AAU?$pair@$$CBIPAVCIOCPBuffer@@@1@PAU?$_Tree_node@U?$pair@$$CBIPAVCIOCPBuffer@@@std@@PAX@1@@Z 10011384     IOCPS.obj
 0002:000023a8       __unwindtable$??$_Insert_hint@AAU?$pair@$$CBIPAUClientContext@@@std@@PAU?$_Tree_node@U?$pair@$$CBIPAUClientContext@@@std@@PAX@2@@?$_Tree@V?$_Tmap_traits@IPAUClientContext@@U?$less@I@std@@V?$allocator@U?$pair@$$CBIPAUClientContext@@@std@@@3@$0A@@std@@@std@@IAE?AV?$_Tree_iterator@V?$_Tree_val@U?$_Tree_simple_types@U?$pair@$$CBIPAUClientContext@@@std@@@std@@@std@@@1@V?$_Tree_const_iterator@V?$_Tree_val@U?$_Tree_simple_types@U?$pair@$$CBIPAUClientContext@@@std@@@std@@@std@@@1@AAU?$pair@$$CBIPAUClientContext@@@1@PAU?$_Tree_node@U?$pair@$$CBIPAUClientContext@@@std@@PAX@1@@Z 100113a8     IOCPS.obj
 0002:000023a8       __unwindtable$??$_Insert_hint@AAU?$pair@$$CBIPAVCIOCPBuffer@@@std@@PAU?$_Tree_node@U?$pair@$$CBIPAVCIOCPBuffer@@@std@@PAX@2@@?$_Tree@V?$_Tmap_traits@IPAVCIOCPBuffer@@U?$less@I@std@@V?$allocator@U?$pair@$$CBIPAVCIOCPBuffer@@@std@@@3@$0A@@std@@@std@@IAE?AV?$_Tree_iterator@V?$_Tree_val@U?$_Tree_simple_types@U?$pair@$$CBIPAVCIOCPBuffer@@@std@@@std@@@std@@@1@V?$_Tree_const_iterator@V?$_Tree_val@U?$_Tree_simple_types@U?$pair@$$CBIPAVCIOCPBuffer@@@std@@@std@@@std@@@1@AAU?$pair@$$CBIPAVCIOCPBuffer@@@1@PAU?$_Tree_node@U?$pair@$$CBIPAVCIOCPBuffer@@@std@@PAX@1@@Z 100113a8     IOCPS.obj
 0002:000023b8       __tryblocktable$??$_Insert_hint@AAU?$pair@$$CBIPAVCIOCPBuffer@@@std@@PAU?$_Tree_node@U?$pair@$$CBIPAVCIOCPBuffer@@@std@@PAX@2@@?$_Tree@V?$_Tmap_traits@IPAVCIOCPBuffer@@U?$less@I@std@@V?$allocator@U?$pair@$$CBIPAVCIOCPBuffer@@@std@@@3@$0A@@std@@@std@@IAE?AV?$_Tree_iterator@V?$_Tree_val@U?$_Tree_simple_types@U?$pair@$$CBIPAVCIOCPBuffer@@@std@@@std@@@std@@@1@V?$_Tree_const_iterator@V?$_Tree_val@U?$_Tree_simple_types@U?$pair@$$CBIPAVCIOCPBuffer@@@std@@@std@@@std@@@1@AAU?$pair@$$CBIPAVCIOCPBuffer@@@1@PAU?$_Tree_node@U?$pair@$$CBIPAVCIOCPBuffer@@@std@@PAX@1@@Z 100113b8     IOCPS.obj
 0002:000023b8       __tryblocktable$??$_Insert_hint@AAU?$pair@$$CBIPAUClientContext@@@std@@PAU?$_Tree_node@U?$pair@$$CBIPAUClientContext@@@std@@PAX@2@@?$_Tree@V?$_Tmap_traits@IPAUClientContext@@U?$less@I@std@@V?$allocator@U?$pair@$$CBIPAUClientContext@@@std@@@3@$0A@@std@@@std@@IAE?AV?$_Tree_iterator@V?$_Tree_val@U?$_Tree_simple_types@U?$pair@$$CBIPAUClientContext@@@std@@@std@@@std@@@1@V?$_Tree_const_iterator@V?$_Tree_val@U?$_Tree_simple_types@U?$pair@$$CBIPAUClientContext@@@std@@@std@@@std@@@1@AAU?$pair@$$CBIPAUClientContext@@@1@PAU?$_Tree_node@U?$pair@$$CBIPAUClientContext@@@std@@PAX@1@@Z 100113b8     IOCPS.obj
 0002:000023cc       __catchsym$??$_Insert_hint@AAU?$pair@$$CBIPAVCIOCPBuffer@@@std@@PAU?$_Tree_node@U?$pair@$$CBIPAVCIOCPBuffer@@@std@@PAX@2@@?$_Tree@V?$_Tmap_traits@IPAVCIOCPBuffer@@U?$less@I@std@@V?$allocator@U?$pair@$$CBIPAVCIOCPBuffer@@@std@@@3@$0A@@std@@@std@@IAE?AV?$_Tree_iterator@V?$_Tree_val@U?$_Tree_simple_types@U?$pair@$$CBIPAVCIOCPBuffer@@@std@@@std@@@std@@@1@V?$_Tree_const_iterator@V?$_Tree_val@U?$_Tree_simple_types@U?$pair@$$CBIPAVCIOCPBuffer@@@std@@@std@@@std@@@1@AAU?$pair@$$CBIPAVCIOCPBuffer@@@1@PAU?$_Tree_node@U?$pair@$$CBIPAVCIOCPBuffer@@@std@@PAX@1@@Z$2 100113cc     IOCPS.obj
 0002:000023cc       __catchsym$??$_Insert_hint@AAU?$pair@$$CBIPAUClientContext@@@std@@PAU?$_Tree_node@U?$pair@$$CBIPAUClientContext@@@std@@PAX@2@@?$_Tree@V?$_Tmap_traits@IPAUClientContext@@U?$less@I@std@@V?$allocator@U?$pair@$$CBIPAUClientContext@@@std@@@3@$0A@@std@@@std@@IAE?AV?$_Tree_iterator@V?$_Tree_val@U?$_Tree_simple_types@U?$pair@$$CBIPAUClientContext@@@std@@@std@@@std@@@1@V?$_Tree_const_iterator@V?$_Tree_val@U?$_Tree_simple_types@U?$pair@$$CBIPAUClientContext@@@std@@@std@@@std@@@1@AAU?$pair@$$CBIPAUClientContext@@@1@PAU?$_Tree_node@U?$pair@$$CBIPAUClientContext@@@std@@PAX@1@@Z$2 100113cc     IOCPS.obj
 0002:000023dc       __ehfuncinfo$??$construct@U?$pair@$$CBGPAX@std@@ABUpiecewise_construct_t@2@V?$tuple@ABG@2@V?$tuple@$$V@2@@?$allocator@U?$_Tree_node@U?$pair@$$CBGPAX@std@@PAX@std@@@std@@QAEXPAU?$pair@$$CBGPAX@1@ABUpiecewise_construct_t@1@$$QAV?$tuple@ABG@1@$$QAV?$tuple@$$V@1@@Z 100113dc     IOCPS.obj
 0002:000023dc       __ehfuncinfo$??$construct@U?$pair@$$CBIPAVCIOCPBuffer@@@std@@ABUpiecewise_construct_t@2@V?$tuple@ABI@2@V?$tuple@$$V@2@@?$allocator@U?$_Tree_node@U?$pair@$$CBIPAVCIOCPBuffer@@@std@@PAX@std@@@std@@QAEXPAU?$pair@$$CBIPAVCIOCPBuffer@@@1@ABUpiecewise_construct_t@1@$$QAV?$tuple@ABI@1@$$QAV?$tuple@$$V@1@@Z 100113dc     IOCPS.obj
 0002:000023dc       __ehfuncinfo$??$construct@U?$pair@$$CBIPAUClientContext@@@std@@ABUpiecewise_construct_t@2@V?$tuple@ABI@2@V?$tuple@$$V@2@@?$allocator@U?$_Tree_node@U?$pair@$$CBIPAUClientContext@@@std@@PAX@std@@@std@@QAEXPAU?$pair@$$CBIPAUClientContext@@@1@ABUpiecewise_construct_t@1@$$QAV?$tuple@ABI@1@$$QAV?$tuple@$$V@1@@Z 100113dc     IOCPS.obj
 0002:00002400       __unwindtable$??$construct@U?$pair@$$CBIPAUClientContext@@@std@@ABUpiecewise_construct_t@2@V?$tuple@ABI@2@V?$tuple@$$V@2@@?$allocator@U?$_Tree_node@U?$pair@$$CBIPAUClientContext@@@std@@PAX@std@@@std@@QAEXPAU?$pair@$$CBIPAUClientContext@@@1@ABUpiecewise_construct_t@1@$$QAV?$tuple@ABI@1@$$QAV?$tuple@$$V@1@@Z 10011400     IOCPS.obj
 0002:00002400       __unwindtable$??$construct@U?$pair@$$CBGPAX@std@@ABUpiecewise_construct_t@2@V?$tuple@ABG@2@V?$tuple@$$V@2@@?$allocator@U?$_Tree_node@U?$pair@$$CBGPAX@std@@PAX@std@@@std@@QAEXPAU?$pair@$$CBGPAX@1@ABUpiecewise_construct_t@1@$$QAV?$tuple@ABG@1@$$QAV?$tuple@$$V@1@@Z 10011400     IOCPS.obj
 0002:00002400       __unwindtable$??$construct@U?$pair@$$CBIPAVCIOCPBuffer@@@std@@ABUpiecewise_construct_t@2@V?$tuple@ABI@2@V?$tuple@$$V@2@@?$allocator@U?$_Tree_node@U?$pair@$$CBIPAVCIOCPBuffer@@@std@@PAX@std@@@std@@QAEXPAU?$pair@$$CBIPAVCIOCPBuffer@@@1@ABUpiecewise_construct_t@1@$$QAV?$tuple@ABI@1@$$QAV?$tuple@$$V@1@@Z 10011400     IOCPS.obj
 0002:00002408       __ehfuncinfo$??0ITIOCP@@QAE@XZ 10011408     MyIOCP.obj
 0002:0000242c       __unwindtable$??0ITIOCP@@QAE@XZ 1001142c     MyIOCP.obj
 0002:00002444       __ehfuncinfo$?BuildPackageAndSend@ITIOCP@@QAEHPAUClientContext@@V?$basic_string@DU?$char_traits@D@std@@V?$allocator@D@2@@std@@@Z 10011444     MyIOCP.obj
 0002:00002468       __unwindtable$?BuildPackageAndSend@ITIOCP@@QAEHPAUClientContext@@V?$basic_string@DU?$char_traits@D@std@@V?$allocator@D@2@@std@@@Z 10011468     MyIOCP.obj
 0002:00002470       __ehfuncinfo$?CreateServerSocket@@YGPAVSocket@@XZ 10011470     MyIOCP.obj
 0002:00002494       __unwindtable$?CreateServerSocket@@YGPAVSocket@@XZ 10011494     MyIOCP.obj
 0002:0000249c       __ehfuncinfo$?CreateClientSocket@@YGPAVSocket@@XZ 1001149c     MyIOCP.obj
 0002:000024c0       __unwindtable$?CreateClientSocket@@YGPAVSocket@@XZ 100114c0     MyIOCP.obj
 0002:000024c8       __ehfuncinfo$??0?$basic_string@DU?$char_traits@D@std@@V?$allocator@D@2@@std@@QAE@ABV01@@Z 100114c8     MyIOCP.obj
 0002:000024ec       __unwindtable$??0?$basic_string@DU?$char_traits@D@std@@V?$allocator@D@2@@std@@QAE@ABV01@@Z 100114ec     MyIOCP.obj
 0002:000024f8       __sehtable$?dllmain_crt_process_attach@@YAHQAUHINSTANCE__@@QAX@Z 100114f8     MSVCRT:dll_dllmain.obj
 0002:00002518       __sehtable$?dllmain_crt_process_detach@@YAH_N@Z 10011518     MSVCRT:dll_dllmain.obj
 0002:00002538       __sehtable$?dllmain_dispatch@@YAHQAUHINSTANCE__@@KQAX@Z 10011538     MSVCRT:dll_dllmain.obj
 0002:000025e8       __sehtable$___scrt_is_nonwritable_in_current_image 100115e8     MSVCRT:utility.obj
 0002:00002610       .edata                     10011610     SocketOld.exp
 0002:00002638       rgpv                       10011638     SocketOld.exp
 0002:00002648       rgszName                   10011648     SocketOld.exp
 0002:00002658       rgwOrd                     10011658     SocketOld.exp
 0002:00002660       szName                     10011660     SocketOld.exp
 0002:0000266e       $N00001                    1001166e     SocketOld.exp
 0002:00002693       $N00002                    10011693     SocketOld.exp
 0002:000026b8       $N00003                    100116b8     SocketOld.exp
 0002:000026df       $N00004                    100116df     SocketOld.exp
 0002:000029a2       .idata$6                   100119a2     ws2_32:WS2_32.dll
 0002:000029cc       .idata$6                   100119cc     xlogger:xLogger.dll
 0002:00002b26       .idata$6                   10011b26     kernel32:KERNEL32.dll
 0002:00002b8e       .idata$6                   10011b8e     msvcprt:MSVCP140.dll
 0002:00002c3e       .idata$6                   10011c3e     vcruntime:VCRUNTIME140.dll
 0002:00002d76       .idata$6                   10011d76     ucrt:api-ms-win-crt-runtime-l1-1-0.dll
 0002:00002d98       .idata$6                   10011d98     ucrt:api-ms-win-crt-heap-l1-1-0.dll
 0003:000000f8       ?__proc_attached@@3HA      100120f8     MSVCRT:dll_dllmain.obj
 0003:00000100       _GS_ExceptionRecord        10012100     MSVCRT:gs_report.obj
 0003:00000150       _GS_ContextRecord          10012150     MSVCRT:gs_report.obj
 0003:00000424       ?module_local_atexit_table@@3U_onexit_table_t@@A 10012424     MSVCRT:utility.obj
 0003:00000430       ?module_local_at_quick_exit_table@@3U_onexit_table_t@@A 10012430     MSVCRT:utility.obj
 0003:0000043c       ?is_initialized_as_dll@@3_NA 1001243c     MSVCRT:utility.obj
 0004:00000000       __guard_fids__             10013000     MSVCRT:std_type_info_static.obj
 0004:00000004       __guard_fids_?dllmain_crt_process_attach@@YAHQAUHINSTANCE__@@QAX@Z 10013004     MSVCRT:dll_dllmain.obj
 0004:0000000c       __guard_fids_?dllmain_dispatch@@YAHQAUHINSTANCE__@@KQAX@Z 1001300c     MSVCRT:dll_dllmain.obj
 0004:00000010       __guard_fids__             10013010     MSVCRT:throw_bad_alloc.obj
 0004:00000018       __guard_fids__             10013018     MSVCRT:throw_bad_alloc.obj
 0004:00000020       __guard_fids__             10013020     MSVCRT:throw_bad_alloc.obj
 0004:00000028       __guard_fids__             10013028     MSVCRT:throw_bad_alloc.obj
 0004:0000002c       __guard_fids__             1001302c     MSVCRT:throw_bad_alloc.obj
 0004:00000030       __guard_fids__             10013030     MSVCRT:throw_bad_alloc.obj
 0004:00000034       __guard_fids__             10013034     MSVCRT:throw_bad_alloc.obj
 0004:00000038       __guard_fids__             10013038     MSVCRT:throw_bad_alloc.obj
 0004:0000003c       __guard_fids___except_handler4 1001303c     MSVCRT:_chandler4gs_.obj
 0004:00000040       __guard_fids__             10013040     MSVCRT:guard_support.obj
 0005:000000a0       $R000000                   100140a0     Socket1.res
 0005:000003c0       $R000320                   100143c0     Socket1.res
